
FORD_P5_STEER_RevA_v1.0.2.hex:     file format ihex


Disassembly of section .sec1:

1fc00000 <.sec1>:
1fc00000:	009d1f3c 	lui	ra,0x9d00
1fc00004:	7079ff37 	ori	ra,ra,0x7970
1fc00008:	0800e003 	jr	ra
1fc0000c:	00000000 	nop

Disassembly of section .sec2:

1fc02ff0 <.sec2>:
1fc02ff0:	ffffff3e 	0x3effffff

Disassembly of section .sec3:

1fc02ff4 <.sec3>:
1fc02ff4:	d979f9ff 	sdc3	$25,31193(ra)

Disassembly of section .sec4:

1fc02ff8 <.sec4>:
1fc02ff8:	5b0e66ff 	sdc3	$6,3675(k1)

Disassembly of section .sec5:

1fc02ffc <.sec5>:
1fc02ffc:	ffffff7f 	0x7fffffff

Disassembly of section .sec6:

1d007970 <.sec6>:
1d007970:	5e1e400f 	jal	0x1d007978
1d007974:	00000000 	nop
1d007978:	00601a40 	mfc0	k0,c0_status
1d00797c:	c0045a7f 	ext	k0,k0,0x13,0x1
1d007980:	05004013 	beqz	k0,0x1d007998
1d007984:	00000000 	nop
1d007988:	029d1a3c 	lui	k0,0x9d02
1d00798c:	ecc45a27 	addiu	k0,k0,-15124
1d007990:	08004003 	jr	k0
1d007994:	00000000 	nop
1d007998:	02a01d3c 	lui	sp,0xa002
1d00799c:	f0ffbd27 	addiu	sp,sp,-16
1d0079a0:	00a01c3c 	lui	gp,0xa000
1d0079a4:	f07f9c27 	addiu	gp,gp,32752
1d0079a8:	02600940 	mfc0	t1,c0_srsctl
1d0079ac:	20582001 	add	t3,t1,zero
1d0079b0:	801e2a7d 	ext	t2,t1,0x1a,0x4
1d0079b4:	8449497d 	ins	t1,t2,0x6,0x4
1d0079b8:	02608940 	mtc0	t1,c0_srsctl
1d0079bc:	c0000000 	ehb
1d0079c0:	00e0dc41 	wrpgpr	gp,gp
1d0079c4:	02608b40 	mtc0	t3,c0_srsctl
1d0079c8:	c0000000 	ehb
1d0079cc:	029d083c 	lui	t0,0x9d02
1d0079d0:	44c50825 	addiu	t0,t0,-15036
1d0079d4:	09f80001 	jalr	t0
1d0079d8:	00000000 	nop
1d0079dc:	00a0083c 	lui	t0,0xa000
1d0079e0:	1c000825 	addiu	t0,t0,28
1d0079e4:	00a0093c 	lui	t1,0xa000
1d0079e8:	dc042925 	addiu	t1,t1,1244
1d0079ec:	06000010 	b	0x1d007a08
1d0079f0:	00000000 	nop
1d0079f4:	000000ad 	sw	zero,0(t0)
1d0079f8:	040000ad 	sw	zero,4(t0)
1d0079fc:	080000ad 	sw	zero,8(t0)
1d007a00:	0c0000ad 	sw	zero,12(t0)
1d007a04:	10000825 	addiu	t0,t0,16
1d007a08:	2b080901 	sltu	at,t0,t1
1d007a0c:	f9ff2014 	bnez	at,0x1d0079f4
1d007a10:	00000000 	nop
1d007a14:	029d083c 	lui	t0,0x9d02
1d007a18:	f4bb0825 	addiu	t0,t0,-17420
1d007a1c:	09f80001 	jalr	t0
1d007a20:	00000000 	nop
1d007a24:	0000093c 	lui	t1,0x0
1d007a28:	00002925 	addiu	t1,t1,0
1d007a2c:	10002011 	beqz	t1,0x1d007a70
1d007a30:	00000000 	nop
1d007a34:	0200093c 	lui	t1,0x2
1d007a38:	00002925 	addiu	t1,t1,0
1d007a3c:	88bf0a3c 	lui	t2,0xbf88
1d007a40:	10204a25 	addiu	t2,t2,8208
1d007a44:	000049ad 	sw	t1,0(t2)
1d007a48:	0200093c 	lui	t1,0x2
1d007a4c:	00002925 	addiu	t1,t1,0
1d007a50:	88bf0a3c 	lui	t2,0xbf88
1d007a54:	20204a25 	addiu	t2,t2,8224
1d007a58:	000049ad 	sw	t1,0(t2)
1d007a5c:	0200093c 	lui	t1,0x2
1d007a60:	00002925 	addiu	t1,t1,0
1d007a64:	88bf0a3c 	lui	t2,0xbf88
1d007a68:	30204a25 	addiu	t2,t2,8240
1d007a6c:	000049ad 	sw	t1,0(t2)
1d007a70:	00488040 	mtc0	zero,c0_count
1d007a74:	ffff0a24 	li	t2,-1
1d007a78:	00588a40 	mtc0	t2,c0_compare
1d007a7c:	4000083c 	lui	t0,0x40
1d007a80:	00600a40 	mfc0	t2,c0_status
1d007a84:	25500a01 	or	t2,t0,t2
1d007a88:	00608a40 	mtc0	t2,c0_status
1d007a8c:	009d093c 	lui	t1,0x9d00
1d007a90:	00602925 	addiu	t1,t1,24576
1d007a94:	c0000000 	ehb
1d007a98:	01788940 	mtc0	t1,c0_ebase
1d007a9c:	0000093c 	lui	t1,0x0
1d007aa0:	01002925 	addiu	t1,t1,1
1d007aa4:	00000a24 	li	t2,0
1d007aa8:	44492a7d 	ins	t2,t1,0x5,0x5
1d007aac:	01608a40 	mtc0	t2,c0_intctl
1d007ab0:	8000093c 	lui	t1,0x80
1d007ab4:	00688940 	mtc0	t1,c0_cause
1d007ab8:	00800840 	mfc0	t0,c0_config
1d007abc:	8005097d 	ext	t1,t0,0x16,0x1
1d007ac0:	404c0900 	sll	t1,t1,0x11
1d007ac4:	00600840 	mfc0	t0,c0_status
1d007ac8:	5800013c 	lui	at,0x58
1d007acc:	24400101 	and	t0,t0,at
1d007ad0:	25402801 	or	t0,t1,t0
1d007ad4:	00608840 	mtc0	t0,c0_status
1d007ad8:	c0000000 	ehb
1d007adc:	029d083c 	lui	t0,0x9d02
1d007ae0:	4cc50825 	addiu	t0,t0,-15028
1d007ae4:	09f80001 	jalr	t0
1d007ae8:	00000000 	nop
1d007aec:	00600840 	mfc0	t0,c0_status
1d007af0:	bfff013c 	lui	at,0xffbf
1d007af4:	ffff2134 	ori	at,at,0xffff
1d007af8:	24400101 	and	t0,t0,at
1d007afc:	00608840 	mtc0	t0,c0_status
1d007b00:	00008430 	andi	a0,a0,0x0
1d007b04:	0000a530 	andi	a1,a1,0x0
1d007b08:	029d083c 	lui	t0,0x9d02
1d007b0c:	f8be0825 	addiu	t0,t0,-16648
1d007b10:	08000001 	jr	t0
1d007b14:	00000000 	nop

Disassembly of section .sec7:

1d007cf0 <.sec7>:
1d007cf0:	029d1a3c 	lui	k0,0x9d02
1d007cf4:	94bf5a27 	addiu	k0,k0,-16492
1d007cf8:	08004003 	jr	k0
1d007cfc:	00000000 	nop

Disassembly of section .sec8:

1d006180 <.sec8>:
1d006180:	029d1a3c 	lui	k0,0x9d02
1d006184:	90b55a27 	addiu	k0,k0,-19056
1d006188:	08004003 	jr	k0
1d00618c:	00000000 	nop

Disassembly of section .sec9:

1d006200 <.sec9>:
1d006200:	f76f400b 	j	0x1d01bfdc
1d006204:	00000000 	nop

Disassembly of section .sec10:

1d006220 <.sec10>:
1d006220:	f76f400b 	j	0x1d01bfdc
1d006224:	00000000 	nop

Disassembly of section .sec11:

1d006240 <.sec11>:
1d006240:	f76f400b 	j	0x1d01bfdc
1d006244:	00000000 	nop

Disassembly of section .sec12:

1d006260 <.sec12>:
1d006260:	f76f400b 	j	0x1d01bfdc
1d006264:	00000000 	nop

Disassembly of section .sec13:

1d006280 <.sec13>:
1d006280:	506c400b 	j	0x1d01b140
1d006284:	00000000 	nop

Disassembly of section .sec14:

1d0062a0 <.sec14>:
1d0062a0:	f76f400b 	j	0x1d01bfdc
1d0062a4:	00000000 	nop

Disassembly of section .sec15:

1d0062c0 <.sec15>:
1d0062c0:	f76f400b 	j	0x1d01bfdc
1d0062c4:	00000000 	nop

Disassembly of section .sec16:

1d0062e0 <.sec16>:
1d0062e0:	f76f400b 	j	0x1d01bfdc
1d0062e4:	00000000 	nop

Disassembly of section .sec17:

1d006300 <.sec17>:
1d006300:	f76f400b 	j	0x1d01bfdc
1d006304:	00000000 	nop

Disassembly of section .sec18:

1d006320 <.sec18>:
1d006320:	f76f400b 	j	0x1d01bfdc
1d006324:	00000000 	nop

Disassembly of section .sec19:

1d006340 <.sec19>:
1d006340:	f76f400b 	j	0x1d01bfdc
1d006344:	00000000 	nop

Disassembly of section .sec20:

1d006360 <.sec20>:
1d006360:	f76f400b 	j	0x1d01bfdc
1d006364:	00000000 	nop

Disassembly of section .sec21:

1d006380 <.sec21>:
1d006380:	f76f400b 	j	0x1d01bfdc
1d006384:	00000000 	nop

Disassembly of section .sec22:

1d0063a0 <.sec22>:
1d0063a0:	f76f400b 	j	0x1d01bfdc
1d0063a4:	00000000 	nop

Disassembly of section .sec23:

1d0063c0 <.sec23>:
1d0063c0:	f76f400b 	j	0x1d01bfdc
1d0063c4:	00000000 	nop

Disassembly of section .sec24:

1d0063e0 <.sec24>:
1d0063e0:	f76f400b 	j	0x1d01bfdc
1d0063e4:	00000000 	nop

Disassembly of section .sec25:

1d006400 <.sec25>:
1d006400:	f76f400b 	j	0x1d01bfdc
1d006404:	00000000 	nop

Disassembly of section .sec26:

1d006420 <.sec26>:
1d006420:	f76f400b 	j	0x1d01bfdc
1d006424:	00000000 	nop

Disassembly of section .sec27:

1d006440 <.sec27>:
1d006440:	f76f400b 	j	0x1d01bfdc
1d006444:	00000000 	nop

Disassembly of section .sec28:

1d006460 <.sec28>:
1d006460:	f76f400b 	j	0x1d01bfdc
1d006464:	00000000 	nop

Disassembly of section .sec29:

1d006480 <.sec29>:
1d006480:	6c61400b 	j	0x1d0185b0
1d006484:	00000000 	nop

Disassembly of section .sec30:

1d0064a0 <.sec30>:
1d0064a0:	f76f400b 	j	0x1d01bfdc
1d0064a4:	00000000 	nop

Disassembly of section .sec31:

1d0064c0 <.sec31>:
1d0064c0:	f76f400b 	j	0x1d01bfdc
1d0064c4:	00000000 	nop

Disassembly of section .sec32:

1d0064e0 <.sec32>:
1d0064e0:	f76f400b 	j	0x1d01bfdc
1d0064e4:	00000000 	nop

Disassembly of section .sec33:

1d006500 <.sec33>:
1d006500:	f76f400b 	j	0x1d01bfdc
1d006504:	00000000 	nop

Disassembly of section .sec34:

1d006520 <.sec34>:
1d006520:	f76f400b 	j	0x1d01bfdc
1d006524:	00000000 	nop

Disassembly of section .sec35:

1d006540 <.sec35>:
1d006540:	f76f400b 	j	0x1d01bfdc
1d006544:	00000000 	nop

Disassembly of section .sec36:

1d006560 <.sec36>:
1d006560:	ac61400b 	j	0x1d0186b0
1d006564:	00000000 	nop

Disassembly of section .sec37:

1d006580 <.sec37>:
1d006580:	f76f400b 	j	0x1d01bfdc
1d006584:	00000000 	nop

Disassembly of section .sec38:

1d0065a0 <.sec38>:
1d0065a0:	f76f400b 	j	0x1d01bfdc
1d0065a4:	00000000 	nop

Disassembly of section .sec39:

1d0065c0 <.sec39>:
1d0065c0:	f76f400b 	j	0x1d01bfdc
1d0065c4:	00000000 	nop

Disassembly of section .sec40:

1d0065e0 <.sec40>:
1d0065e0:	f76f400b 	j	0x1d01bfdc
1d0065e4:	00000000 	nop

Disassembly of section .sec41:

1d006600 <.sec41>:
1d006600:	f76f400b 	j	0x1d01bfdc
1d006604:	00000000 	nop

Disassembly of section .sec42:

1d006620 <.sec42>:
1d006620:	f76f400b 	j	0x1d01bfdc
1d006624:	00000000 	nop

Disassembly of section .sec43:

1d006640 <.sec43>:
1d006640:	f76f400b 	j	0x1d01bfdc
1d006644:	00000000 	nop

Disassembly of section .sec44:

1d006660 <.sec44>:
1d006660:	f76f400b 	j	0x1d01bfdc
1d006664:	00000000 	nop

Disassembly of section .sec45:

1d006680 <.sec45>:
1d006680:	f76f400b 	j	0x1d01bfdc
1d006684:	00000000 	nop

Disassembly of section .sec46:

1d0066a0 <.sec46>:
1d0066a0:	f76f400b 	j	0x1d01bfdc
1d0066a4:	00000000 	nop

Disassembly of section .sec47:

1d0066c0 <.sec47>:
1d0066c0:	f76f400b 	j	0x1d01bfdc
1d0066c4:	00000000 	nop

Disassembly of section .sec48:

1d0066e0 <.sec48>:
1d0066e0:	f76f400b 	j	0x1d01bfdc
1d0066e4:	00000000 	nop

Disassembly of section .sec49:

1d006700 <.sec49>:
1d006700:	f76f400b 	j	0x1d01bfdc
1d006704:	00000000 	nop

Disassembly of section .sec50:

1d006720 <.sec50>:
1d006720:	f76f400b 	j	0x1d01bfdc
1d006724:	00000000 	nop

Disassembly of section .sec51:

1d006740 <.sec51>:
1d006740:	f76f400b 	j	0x1d01bfdc
1d006744:	00000000 	nop

Disassembly of section .sec52:

1d006760 <.sec52>:
1d006760:	f76f400b 	j	0x1d01bfdc
1d006764:	00000000 	nop

Disassembly of section .sec53:

1d006780 <.sec53>:
1d006780:	f76f400b 	j	0x1d01bfdc
1d006784:	00000000 	nop

Disassembly of section .sec54:

1d0067a0 <.sec54>:
1d0067a0:	2b3c400b 	j	0x1d00f0ac
1d0067a4:	00000000 	nop

Disassembly of section .sec55:

1d0067c0 <.sec55>:
1d0067c0:	f76f400b 	j	0x1d01bfdc
1d0067c4:	00000000 	nop

Disassembly of section .sec56:

1d0067e0 <.sec56>:
1d0067e0:	f76f400b 	j	0x1d01bfdc
1d0067e4:	00000000 	nop

Disassembly of section .sec57:

1d006800 <.sec57>:
1d006800:	f76f400b 	j	0x1d01bfdc
1d006804:	00000000 	nop

Disassembly of section .sec58:

1d006820 <.sec58>:
1d006820:	f76f400b 	j	0x1d01bfdc
1d006824:	00000000 	nop

Disassembly of section .sec59:

1d006840 <.sec59>:
1d006840:	f76f400b 	j	0x1d01bfdc
1d006844:	00000000 	nop

Disassembly of section .sec60:

1d006860 <.sec60>:
1d006860:	f76f400b 	j	0x1d01bfdc
1d006864:	00000000 	nop

Disassembly of section .sec61:

1d077fcc <.sec61>:
1d077fcc:	464f5244 	0x44524f46
1d077fd0:	20503520 	addi	s5,at,20512
1d077fd4:	53746565 	0x65657453
1d077fd8:	72696e67 	0x676e6972
1d077fdc:	20456d75 	jalx	0x15b51480
1d077fe0:	6c61746f 	0x6f74616c
1d077fe4:	72202846 	cabs.eq.d	$fcc0,$f4,$f8
1d077fe8:	4f52445f 	0x5f44524f
1d077fec:	50355f53 	beql	k0,ra,0x1d085530
1d077ff0:	54454552 	beql	s2,a1,0x1d089544
1d077ff4:	29205265 	0x65522029
1d077ff8:	76410000 	tne	zero,zero,0x105
1d077ffc:	00000000 	nop

Disassembly of section .sec62:

1fc00480 <.sec62>:
1fc00480:	00f89b40 	mtc0	k1,c0_desave
1fc00484:	c0000000 	ehb
1fc00488:	029d1b3c 	lui	k1,0x9d02
1fc0048c:	acc07b27 	addiu	k1,k1,-16212
1fc00490:	02006013 	beqz	k1,0x1fc0049c
1fc00494:	00000000 	nop
1fc00498:	00c09b40 	mtc0	k1,c0_depc
1fc0049c:	00f81b40 	mfc0	k1,c0_desave
1fc004a0:	c0000000 	ehb
1fc004a4:	1f000042 	deret
1fc004a8:	00000000 	nop

Disassembly of section .sec63:

1d077fc8 <.sec63>:
1d077fc8:	Address 0x1d077fc8 is out of bounds.


Disassembly of section .sec64:

1d077fc4 <.sec64>:
	...

Disassembly of section .sec65:

1d077fc0 <.sec65>:
1d077fc0:	Address 0x1d077fc0 is out of bounds.


Disassembly of section .sec66:

1d007e00 <.sec66>:
1d007e00:	000080a0 	sb	zero,0(a0)
1d007e04:	010080a0 	sb	zero,1(a0)
1d007e08:	020080a0 	sb	zero,2(a0)
1d007e0c:	030080a0 	sb	zero,3(a0)
1d007e10:	040080a0 	sb	zero,4(a0)
1d007e14:	050080a0 	sb	zero,5(a0)
1d007e18:	060080a0 	sb	zero,6(a0)
1d007e1c:	070080a0 	sb	zero,7(a0)
1d007e20:	01a0023c 	lui	v0,0xa001
1d007e24:	4431428c 	lw	v0,12612(v0)
1d007e28:	0300422c 	sltiu	v0,v0,3
1d007e2c:	4f004054 	bnezl	v0,0x1d007f6c
1d007e30:	02008290 	lbu	v0,2(a0)
1d007e34:	01a0023c 	lui	v0,0xa001
1d007e38:	b42f4224 	addiu	v0,v0,12212
1d007e3c:	8401458c 	lw	a1,388(v0)
1d007e40:	0009a57c 	ext	a1,a1,0x4,0x2
1d007e44:	21180000 	move	v1,zero
1d007e48:	0408a37c 	ins	v1,a1,0x0,0x2
1d007e4c:	000083a0 	sb	v1,0(a0)
1d007e50:	8401458c 	lw	a1,388(v0)
1d007e54:	8009a57c 	ext	a1,a1,0x6,0x2
1d007e58:	8418a37c 	ins	v1,a1,0x2,0x2
1d007e5c:	000083a0 	sb	v1,0(a0)
1d007e60:	8401458c 	lw	a1,388(v0)
1d007e64:	0439a37c 	ins	v1,a1,0x4,0x4
1d007e68:	000083a0 	sb	v1,0(a0)
1d007e6c:	8401458c 	lw	a1,388(v0)
1d007e70:	4013a57c 	ext	a1,a1,0xd,0x3
1d007e74:	21180000 	move	v1,zero
1d007e78:	0410a37c 	ins	v1,a1,0x0,0x3
1d007e7c:	010083a0 	sb	v1,1(a0)
1d007e80:	8801458c 	lw	a1,392(v0)
1d007e84:	4001a57c 	ext	a1,a1,0x5,0x1
1d007e88:	c418a37c 	ins	v1,a1,0x3,0x1
1d007e8c:	010083a0 	sb	v1,1(a0)
1d007e90:	8401458c 	lw	a1,388(v0)
1d007e94:	0006a57c 	ext	a1,a1,0x18,0x1
1d007e98:	0421a37c 	ins	v1,a1,0x4,0x1
1d007e9c:	010083a0 	sb	v1,1(a0)
1d007ea0:	8401458c 	lw	a1,388(v0)
1d007ea4:	4006a57c 	ext	a1,a1,0x19,0x1
1d007ea8:	4429a37c 	ins	v1,a1,0x5,0x1
1d007eac:	010083a0 	sb	v1,1(a0)
1d007eb0:	8401458c 	lw	a1,388(v0)
1d007eb4:	0002a57c 	ext	a1,a1,0x8,0x1
1d007eb8:	8431a37c 	ins	v1,a1,0x6,0x1
1d007ebc:	010083a0 	sb	v1,1(a0)
1d007ec0:	8401458c 	lw	a1,388(v0)
1d007ec4:	4007a57c 	ext	a1,a1,0x1d,0x1
1d007ec8:	c439a37c 	ins	v1,a1,0x7,0x1
1d007ecc:	010083a0 	sb	v1,1(a0)
1d007ed0:	8401458c 	lw	a1,388(v0)
1d007ed4:	8007a57c 	ext	a1,a1,0x1e,0x1
1d007ed8:	21180000 	move	v1,zero
1d007edc:	c439a37c 	ins	v1,a1,0x7,0x1
1d007ee0:	040083a0 	sb	v1,4(a0)
1d007ee4:	8801458c 	lw	a1,392(v0)
1d007ee8:	8001a57c 	ext	a1,a1,0x6,0x1
1d007eec:	21180000 	move	v1,zero
1d007ef0:	0400a37c 	ins	v1,a1,0x0,0x1
1d007ef4:	020083a0 	sb	v1,2(a0)
1d007ef8:	8401458c 	lw	a1,388(v0)
1d007efc:	4005a57c 	ext	a1,a1,0x15,0x1
1d007f00:	4408a37c 	ins	v1,a1,0x1,0x1
1d007f04:	020083a0 	sb	v1,2(a0)
1d007f08:	8401458c 	lw	a1,388(v0)
1d007f0c:	c006a57c 	ext	a1,a1,0x1b,0x1
1d007f10:	8410a37c 	ins	v1,a1,0x2,0x1
1d007f14:	020083a0 	sb	v1,2(a0)
1d007f18:	8401458c 	lw	a1,388(v0)
1d007f1c:	0007a57c 	ext	a1,a1,0x1c,0x1
1d007f20:	c418a37c 	ins	v1,a1,0x3,0x1
1d007f24:	020083a0 	sb	v1,2(a0)
1d007f28:	8401458c 	lw	a1,388(v0)
1d007f2c:	c002a57c 	ext	a1,a1,0xb,0x1
1d007f30:	0421a37c 	ins	v1,a1,0x4,0x1
1d007f34:	020083a0 	sb	v1,2(a0)
1d007f38:	8401458c 	lw	a1,388(v0)
1d007f3c:	0003a57c 	ext	a1,a1,0xc,0x1
1d007f40:	4429a37c 	ins	v1,a1,0x5,0x1
1d007f44:	020083a0 	sb	v1,2(a0)
1d007f48:	8401458c 	lw	a1,388(v0)
1d007f4c:	c000023c 	lui	v0,0xc0
1d007f50:	2410a200 	and	v0,a1,v0
1d007f54:	c0ff053c 	lui	a1,0xffc0
1d007f58:	21104500 	addu	v0,v0,a1
1d007f5c:	0100422c 	sltiu	v0,v0,1
1d007f60:	8431437c 	ins	v1,v0,0x6,0x1
1d007f64:	de1f400b 	j	0x1d007f78
1d007f68:	020083a0 	sb	v1,2(a0)
1d007f6c:	01000324 	li	v1,1
1d007f70:	c439627c 	ins	v0,v1,0x7,0x1
1d007f74:	020082a0 	sb	v0,2(a0)
1d007f78:	01a0023c 	lui	v0,0xa001
1d007f7c:	a032428c 	lw	v0,12960(v0)
1d007f80:	0300422c 	sltiu	v0,v0,3
1d007f84:	1d004014 	bnez	v0,0x1d007ffc
1d007f88:	01a0023c 	lui	v0,0xa001
1d007f8c:	01a0023c 	lui	v0,0xa001
1d007f90:	b42f4224 	addiu	v0,v0,12212
1d007f94:	e402458c 	lw	a1,740(v0)
1d007f98:	4007a57c 	ext	a1,a1,0x1d,0x1
1d007f9c:	03008390 	lbu	v1,3(a0)
1d007fa0:	0400a37c 	ins	v1,a1,0x0,0x1
1d007fa4:	030083a0 	sb	v1,3(a0)
1d007fa8:	e402458c 	lw	a1,740(v0)
1d007fac:	0007a57c 	ext	a1,a1,0x1c,0x1
1d007fb0:	4408a37c 	ins	v1,a1,0x1,0x1
1d007fb4:	030083a0 	sb	v1,3(a0)
1d007fb8:	e402458c 	lw	a1,740(v0)
1d007fbc:	0004a57c 	ext	a1,a1,0x10,0x1
1d007fc0:	8410a37c 	ins	v1,a1,0x2,0x1
1d007fc4:	030083a0 	sb	v1,3(a0)
1d007fc8:	e402458c 	lw	a1,740(v0)
1d007fcc:	4004a57c 	ext	a1,a1,0x11,0x1
1d007fd0:	c418a37c 	ins	v1,a1,0x3,0x1
1d007fd4:	030083a0 	sb	v1,3(a0)
1d007fd8:	e402458c 	lw	a1,740(v0)
1d007fdc:	c006a57c 	ext	a1,a1,0x1b,0x1
1d007fe0:	0421a37c 	ins	v1,a1,0x4,0x1
1d007fe4:	030083a0 	sb	v1,3(a0)
1d007fe8:	e402428c 	lw	v0,740(v0)
1d007fec:	8006427c 	ext	v0,v0,0x1a,0x1
1d007ff0:	4429437c 	ins	v1,v0,0x5,0x1
1d007ff4:	030083a0 	sb	v1,3(a0)
1d007ff8:	01a0023c 	lui	v0,0xa001
1d007ffc:	1431428c 	lw	v0,12564(v0)
1d008000:	0300422c 	sltiu	v0,v0,3
1d008004:	1f004014 	bnez	v0,0x1d008084
1d008008:	01a0023c 	lui	v0,0xa001
1d00800c:	01a0023c 	lui	v0,0xa001
1d008010:	b42f4224 	addiu	v0,v0,12212
1d008014:	5401458c 	lw	a1,340(v0)
1d008018:	3000a530 	andi	a1,a1,0x30
1d00801c:	1000a538 	xori	a1,a1,0x10
1d008020:	0100a52c 	sltiu	a1,a1,1
1d008024:	03008390 	lbu	v1,3(a0)
1d008028:	8431a37c 	ins	v1,a1,0x6,0x1
1d00802c:	030083a0 	sb	v1,3(a0)
1d008030:	5401458c 	lw	a1,340(v0)
1d008034:	04e8057c 	ins	a1,zero,0x0,0x1e
1d008038:	00c0063c 	lui	a2,0xc000
1d00803c:	2128a600 	addu	a1,a1,a2
1d008040:	0100a52c 	sltiu	a1,a1,1
1d008044:	c439a37c 	ins	v1,a1,0x7,0x1
1d008048:	030083a0 	sb	v1,3(a0)
1d00804c:	5401458c 	lw	a1,340(v0)
1d008050:	00c0a530 	andi	a1,a1,0xc000
1d008054:	0040a538 	xori	a1,a1,0x4000
1d008058:	0100a52c 	sltiu	a1,a1,1
1d00805c:	04008390 	lbu	v1,4(a0)
1d008060:	0400a37c 	ins	v1,a1,0x0,0x1
1d008064:	040083a0 	sb	v1,4(a0)
1d008068:	5401428c 	lw	v0,340(v0)
1d00806c:	00304230 	andi	v0,v0,0x3000
1d008070:	00104238 	xori	v0,v0,0x1000
1d008074:	0100422c 	sltiu	v0,v0,1
1d008078:	4408437c 	ins	v1,v0,0x1,0x1
1d00807c:	040083a0 	sb	v1,4(a0)
1d008080:	01a0023c 	lui	v0,0xa001
1d008084:	5031428c 	lw	v0,12624(v0)
1d008088:	18004010 	beqz	v0,0x1d0080ec
1d00808c:	01a0023c 	lui	v0,0xa001
1d008090:	01a0023c 	lui	v0,0xa001
1d008094:	b42f4224 	addiu	v0,v0,12212
1d008098:	9401458c 	lw	a1,404(v0)
1d00809c:	0001a57c 	ext	a1,a1,0x4,0x1
1d0080a0:	04008390 	lbu	v1,4(a0)
1d0080a4:	8410a37c 	ins	v1,a1,0x2,0x1
1d0080a8:	040083a0 	sb	v1,4(a0)
1d0080ac:	9401458c 	lw	a1,404(v0)
1d0080b0:	c000a57c 	ext	a1,a1,0x3,0x1
1d0080b4:	c418a37c 	ins	v1,a1,0x3,0x1
1d0080b8:	040083a0 	sb	v1,4(a0)
1d0080bc:	9401458c 	lw	a1,404(v0)
1d0080c0:	0421a37c 	ins	v1,a1,0x4,0x1
1d0080c4:	040083a0 	sb	v1,4(a0)
1d0080c8:	9401458c 	lw	a1,404(v0)
1d0080cc:	4000a57c 	ext	a1,a1,0x1,0x1
1d0080d0:	4429a37c 	ins	v1,a1,0x5,0x1
1d0080d4:	040083a0 	sb	v1,4(a0)
1d0080d8:	9401428c 	lw	v0,404(v0)
1d0080dc:	8000427c 	ext	v0,v0,0x2,0x1
1d0080e0:	8431437c 	ins	v1,v0,0x6,0x1
1d0080e4:	040083a0 	sb	v1,4(a0)
1d0080e8:	01a0023c 	lui	v0,0xa001
1d0080ec:	7030428c 	lw	v0,12400(v0)
1d0080f0:	05004010 	beqz	v0,0x1d008108
1d0080f4:	feff0224 	li	v0,-2
1d0080f8:	01a0023c 	lui	v0,0xa001
1d0080fc:	6d304290 	lbu	v0,12397(v0)
1d008100:	0800e003 	jr	ra
1d008104:	070082a0 	sb	v0,7(a0)
1d008108:	0800e003 	jr	ra
1d00810c:	070082a0 	sb	v0,7(a0)
1d008110:	000080a0 	sb	zero,0(a0)
1d008114:	010080a0 	sb	zero,1(a0)
1d008118:	020080a0 	sb	zero,2(a0)
1d00811c:	030080a0 	sb	zero,3(a0)
1d008120:	040080a0 	sb	zero,4(a0)
1d008124:	050080a0 	sb	zero,5(a0)
1d008128:	060080a0 	sb	zero,6(a0)
1d00812c:	070080a0 	sb	zero,7(a0)
1d008130:	01a0023c 	lui	v0,0xa001
1d008134:	b42f4224 	addiu	v0,v0,12212
1d008138:	d401478c 	lw	a3,468(v0)
1d00813c:	0030e77c 	ext	a3,a3,0x0,0x7
1d008140:	ff00e730 	andi	a3,a3,0xff
1d008144:	003a0700 	sll	a3,a3,0x8
1d008148:	d5014390 	lbu	v1,469(v0)
1d00814c:	2138e300 	addu	a3,a3,v1
1d008150:	ffffe730 	andi	a3,a3,0xffff
1d008154:	000087a4 	sh	a3,0(a0)
1d008158:	d401458c 	lw	a1,468(v0)
1d00815c:	0034a57c 	ext	a1,a1,0x10,0x7
1d008160:	002a0500 	sll	a1,a1,0x8
1d008164:	d7014390 	lbu	v1,471(v0)
1d008168:	2128a300 	addu	a1,a1,v1
1d00816c:	ffffa530 	andi	a1,a1,0xffff
1d008170:	020085a4 	sh	a1,2(a0)
1d008174:	d801468c 	lw	a2,472(v0)
1d008178:	0030c67c 	ext	a2,a2,0x0,0x7
1d00817c:	ff00c630 	andi	a2,a2,0xff
1d008180:	00320600 	sll	a2,a2,0x8
1d008184:	d9014390 	lbu	v1,473(v0)
1d008188:	2130c300 	addu	a2,a2,v1
1d00818c:	ffffc630 	andi	a2,a2,0xffff
1d008190:	040086a4 	sh	a2,4(a0)
1d008194:	d801438c 	lw	v1,472(v0)
1d008198:	0034637c 	ext	v1,v1,0x10,0x7
1d00819c:	001a0300 	sll	v1,v1,0x8
1d0081a0:	db014890 	lbu	t0,475(v0)
1d0081a4:	21186800 	addu	v1,v1,t0
1d0081a8:	ffff6330 	andi	v1,v1,0xffff
1d0081ac:	060083a4 	sh	v1,6(a0)
1d0081b0:	cc01428c 	lw	v0,460(v0)
1d0081b4:	12004010 	beqz	v0,0x1d008200
1d0081b8:	01a0023c 	lui	v0,0xa001
1d0081bc:	7c31488c 	lw	t0,12668(v0)
1d0081c0:	c0000831 	andi	t0,t0,0xc0
1d0081c4:	40000224 	li	v0,64
1d0081c8:	05000215 	bne	t0,v0,0x1d0081e0
1d0081cc:	01a0023c 	lui	v0,0xa001
1d0081d0:	23380700 	negu	a3,a3
1d0081d4:	000087a4 	sh	a3,0(a0)
1d0081d8:	23300600 	negu	a2,a2
1d0081dc:	040086a4 	sh	a2,4(a0)
1d0081e0:	7c31468c 	lw	a2,12668(v0)
1d0081e4:	0300c630 	andi	a2,a2,0x3
1d0081e8:	01000224 	li	v0,1
1d0081ec:	0400c214 	bne	a2,v0,0x1d008200
1d0081f0:	23280500 	negu	a1,a1
1d0081f4:	020085a4 	sh	a1,2(a0)
1d0081f8:	23180300 	negu	v1,v1
1d0081fc:	060083a4 	sh	v1,6(a0)
1d008200:	0800e003 	jr	ra
1d008204:	00000000 	nop
1d008208:	0400828c 	lw	v0,4(a0)
1d00820c:	0007427c 	ext	v0,v0,0x1c,0x1
1d008210:	08004050 	beqzl	v0,0x1d008234
1d008214:	0000828c 	lw	v0,0(a0)
1d008218:	0000838c 	lw	v1,0(a0)
1d00821c:	ff076330 	andi	v1,v1,0x7ff
1d008220:	801c0300 	sll	v1,v1,0x12
1d008224:	0400828c 	lw	v0,4(a0)
1d008228:	808a427c 	ext	v0,v0,0xa,0x12
1d00822c:	8e20400b 	j	0x1d008238
1d008230:	25106200 	or	v0,v1,v0
1d008234:	ff074230 	andi	v0,v0,0x7ff
1d008238:	67000324 	li	v1,103
1d00823c:	21004310 	beq	v0,v1,0x1d0082c4
1d008240:	6800432c 	sltiu	v1,v0,104
1d008244:	06006010 	beqz	v1,0x1d008260
1d008248:	6a000324 	li	v1,106
1d00824c:	65000324 	li	v1,101
1d008250:	09004310 	beq	v0,v1,0x1d008278
1d008254:	01a0023c 	lui	v0,0xa001
1d008258:	0800e003 	jr	ra
1d00825c:	00000000 	nop
1d008260:	2c004310 	beq	v0,v1,0x1d008314
1d008264:	74000324 	li	v1,116
1d008268:	3e004310 	beq	v0,v1,0x1d008364
1d00826c:	01a0023c 	lui	v0,0xa001
1d008270:	0800e003 	jr	ra
1d008274:	00000000 	nop
1d008278:	08008424 	addiu	a0,a0,8
1d00827c:	03008588 	lwl	a1,3(a0)
1d008280:	00008598 	lwr	a1,0(a0)
1d008284:	07008388 	lwl	v1,7(a0)
1d008288:	04008398 	lwr	v1,4(a0)
1d00828c:	443345ac 	sw	a1,13124(v0)
1d008290:	44334224 	addiu	v0,v0,13124
1d008294:	040043ac 	sw	v1,4(v0)
1d008298:	01a0023c 	lui	v0,0xa001
1d00829c:	b42f4224 	addiu	v0,v0,12212
1d0082a0:	64000324 	li	v1,100
1d0082a4:	980343ac 	sw	v1,920(v0)
1d0082a8:	9c03428c 	lw	v0,924(v0)
1d0082ac:	ffff0324 	li	v1,-1
1d0082b0:	e9ff4310 	beq	v0,v1,0x1d008258
1d0082b4:	01004224 	addiu	v0,v0,1
1d0082b8:	01a0033c 	lui	v1,0xa001
1d0082bc:	0800e003 	jr	ra
1d0082c0:	503362ac 	sw	v0,13136(v1)
1d0082c4:	01a0023c 	lui	v0,0xa001
1d0082c8:	08008424 	addiu	a0,a0,8
1d0082cc:	03008588 	lwl	a1,3(a0)
1d0082d0:	00008598 	lwr	a1,0(a0)
1d0082d4:	07008388 	lwl	v1,7(a0)
1d0082d8:	04008398 	lwr	v1,4(a0)
1d0082dc:	543345ac 	sw	a1,13140(v0)
1d0082e0:	54334224 	addiu	v0,v0,13140
1d0082e4:	040043ac 	sw	v1,4(v0)
1d0082e8:	01a0023c 	lui	v0,0xa001
1d0082ec:	b42f4224 	addiu	v0,v0,12212
1d0082f0:	c8000324 	li	v1,200
1d0082f4:	a80343ac 	sw	v1,936(v0)
1d0082f8:	ac03428c 	lw	v0,940(v0)
1d0082fc:	ffff0324 	li	v1,-1
1d008300:	d5ff4310 	beq	v0,v1,0x1d008258
1d008304:	01004224 	addiu	v0,v0,1
1d008308:	01a0033c 	lui	v1,0xa001
1d00830c:	0800e003 	jr	ra
1d008310:	603362ac 	sw	v0,13152(v1)
1d008314:	01a0023c 	lui	v0,0xa001
1d008318:	08008424 	addiu	a0,a0,8
1d00831c:	03008588 	lwl	a1,3(a0)
1d008320:	00008598 	lwr	a1,0(a0)
1d008324:	07008388 	lwl	v1,7(a0)
1d008328:	04008398 	lwr	v1,4(a0)
1d00832c:	643345ac 	sw	a1,13156(v0)
1d008330:	64334224 	addiu	v0,v0,13156
1d008334:	040043ac 	sw	v1,4(v0)
1d008338:	01a0023c 	lui	v0,0xa001
1d00833c:	b42f4224 	addiu	v0,v0,12212
1d008340:	64000324 	li	v1,100
1d008344:	b80343ac 	sw	v1,952(v0)
1d008348:	bc03428c 	lw	v0,956(v0)
1d00834c:	ffff0324 	li	v1,-1
1d008350:	c1ff4310 	beq	v0,v1,0x1d008258
1d008354:	01004224 	addiu	v0,v0,1
1d008358:	01a0033c 	lui	v1,0xa001
1d00835c:	0800e003 	jr	ra
1d008360:	703362ac 	sw	v0,13168(v1)
1d008364:	08008424 	addiu	a0,a0,8
1d008368:	03008588 	lwl	a1,3(a0)
1d00836c:	00008598 	lwr	a1,0(a0)
1d008370:	07008388 	lwl	v1,7(a0)
1d008374:	04008398 	lwr	v1,4(a0)
1d008378:	743345ac 	sw	a1,13172(v0)
1d00837c:	74334224 	addiu	v0,v0,13172
1d008380:	040043ac 	sw	v1,4(v0)
1d008384:	01a0023c 	lui	v0,0xa001
1d008388:	b42f4224 	addiu	v0,v0,12212
1d00838c:	c8000324 	li	v1,200
1d008390:	c80343ac 	sw	v1,968(v0)
1d008394:	cc03428c 	lw	v0,972(v0)
1d008398:	ffff0324 	li	v1,-1
1d00839c:	aeff4310 	beq	v0,v1,0x1d008258
1d0083a0:	01004224 	addiu	v0,v0,1
1d0083a4:	01a0033c 	lui	v1,0xa001
1d0083a8:	803362ac 	sw	v0,13184(v1)
1d0083ac:	0800e003 	jr	ra
1d0083b0:	00000000 	nop
1d0083b4:	e8ffbd27 	addiu	sp,sp,-24
1d0083b8:	1400bfaf 	sw	ra,20(sp)
1d0083bc:	ab4e400f 	jal	0x1d013aac
1d0083c0:	00000000 	nop
1d0083c4:	1400bf8f 	lw	ra,20(sp)
1d0083c8:	0800e003 	jr	ra
1d0083cc:	1800bd27 	addiu	sp,sp,24
1d0083d0:	e8ffbd27 	addiu	sp,sp,-24
1d0083d4:	1400bfaf 	sw	ra,20(sp)
1d0083d8:	1000b0af 	sw	s0,16(sp)
1d0083dc:	00008290 	lbu	v0,0(a0)
1d0083e0:	0430027c 	ins	v0,zero,0x0,0x7
1d0083e4:	ff004230 	andi	v0,v0,0xff
1d0083e8:	03004010 	beqz	v0,0x1d0083f8
1d0083ec:	21808000 	move	s0,a0
1d0083f0:	01a0023c 	lui	v0,0xa001
1d0083f4:	543540a0 	sb	zero,13652(v0)
1d0083f8:	01a0023c 	lui	v0,0xa001
1d0083fc:	4435428c 	lw	v0,13636(v0)
1d008400:	75004014 	bnez	v0,0x1d0085d8
1d008404:	1400bf8f 	lw	ra,20(sp)
1d008408:	01a0023c 	lui	v0,0xa001
1d00840c:	c430428c 	lw	v0,12484(v0)
1d008410:	0300422c 	sltiu	v0,v0,3
1d008414:	5d004014 	bnez	v0,0x1d00858c
1d008418:	07000324 	li	v1,7
1d00841c:	01a0023c 	lui	v0,0xa001
1d008420:	d430428c 	lw	v0,12500(v0)
1d008424:	0300422c 	sltiu	v0,v0,3
1d008428:	59004014 	bnez	v0,0x1d008590
1d00842c:	01a0023c 	lui	v0,0xa001
1d008430:	01a0023c 	lui	v0,0xa001
1d008434:	e430428c 	lw	v0,12516(v0)
1d008438:	0300422c 	sltiu	v0,v0,3
1d00843c:	54004014 	bnez	v0,0x1d008590
1d008440:	01a0023c 	lui	v0,0xa001
1d008444:	01a0023c 	lui	v0,0xa001
1d008448:	6431428c 	lw	v0,12644(v0)
1d00844c:	0300422c 	sltiu	v0,v0,3
1d008450:	51004010 	beqz	v0,0x1d008598
1d008454:	01a0023c 	lui	v0,0xa001
1d008458:	6421400b 	j	0x1d008590
1d00845c:	00000000 	nop
1d008460:	07004230 	andi	v0,v0,0x7
1d008464:	ffff4424 	addiu	a0,v0,-1
1d008468:	03000324 	li	v1,3
1d00846c:	2b186400 	sltu	v1,v1,a0
1d008470:	3f006054 	bnezl	v1,0x1d008570
1d008474:	00000292 	lbu	v0,0(s0)
1d008478:	01a0033c 	lui	v1,0xa001
1d00847c:	4c35638c 	lw	v1,13644(v1)
1d008480:	54004310 	beq	v0,v1,0x1d0085d4
1d008484:	01a0033c 	lui	v1,0xa001
1d008488:	d830638c 	lw	v1,12504(v1)
1d00848c:	c005647c 	ext	a0,v1,0x17,0x1
1d008490:	33008010 	beqz	a0,0x1d008560
1d008494:	4011647c 	ext	a0,v1,0x5,0x3
1d008498:	2e008210 	beq	a0,v0,0x1d008554
1d00849c:	01a0043c 	lui	a0,0xa001
1d0084a0:	f831848c 	lw	a0,12792(a0)
1d0084a4:	42008010 	beqz	a0,0x1d0085b0
1d0084a8:	01a0043c 	lui	a0,0xa001
1d0084ac:	01a0043c 	lui	a0,0xa001
1d0084b0:	f431848c 	lw	a0,12788(a0)
1d0084b4:	4006847c 	ext	a0,a0,0x19,0x1
1d0084b8:	23008054 	bnezl	a0,0x1d008548
1d0084bc:	02000324 	li	v1,2
1d0084c0:	6c21400b 	j	0x1d0085b0
1d0084c4:	01a0043c 	lui	a0,0xa001
1d0084c8:	1432848c 	lw	a0,12820(a0)
1d0084cc:	4006847c 	ext	a0,a0,0x19,0x1
1d0084d0:	1d008054 	bnezl	a0,0x1d008548
1d0084d4:	02000324 	li	v1,2
1d0084d8:	7021400b 	j	0x1d0085c0
1d0084dc:	01a0043c 	lui	a0,0xa001
1d0084e0:	6435848c 	lw	a0,13668(a0)
1d0084e4:	0200842c 	sltiu	a0,a0,2
1d0084e8:	08008014 	bnez	a0,0x1d00850c
1d0084ec:	05000424 	li	a0,5
1d0084f0:	00000592 	lbu	a1,0(s0)
1d0084f4:	0700a530 	andi	a1,a1,0x7
1d0084f8:	0f00a410 	beq	a1,a0,0x1d008538
1d0084fc:	e0006330 	andi	v1,v1,0xe0
1d008500:	20000424 	li	a0,32
1d008504:	09006410 	beq	v1,a0,0x1d00852c
1d008508:	04000324 	li	v1,4
1d00850c:	01a0033c 	lui	v1,0xa001
1d008510:	40356324 	addiu	v1,v1,13632
1d008514:	0c0062ac 	sw	v0,12(v1)
1d008518:	d0070224 	li	v0,2000
1d00851c:	200062ac 	sw	v0,32(v1)
1d008520:	140060a0 	sb	zero,20(v1)
1d008524:	7521400b 	j	0x1d0085d4
1d008528:	180060ac 	sw	zero,24(v1)
1d00852c:	01a0023c 	lui	v0,0xa001
1d008530:	7521400b 	j	0x1d0085d4
1d008534:	583543ac 	sw	v1,13656(v0)
1d008538:	03000324 	li	v1,3
1d00853c:	01a0023c 	lui	v0,0xa001
1d008540:	7521400b 	j	0x1d0085d4
1d008544:	583543ac 	sw	v1,13656(v0)
1d008548:	01a0023c 	lui	v0,0xa001
1d00854c:	7521400b 	j	0x1d0085d4
1d008550:	583543ac 	sw	v1,13656(v0)
1d008554:	01a0023c 	lui	v0,0xa001
1d008558:	7521400b 	j	0x1d0085d4
1d00855c:	583540ac 	sw	zero,13656(v0)
1d008560:	01000324 	li	v1,1
1d008564:	01a0023c 	lui	v0,0xa001
1d008568:	7521400b 	j	0x1d0085d4
1d00856c:	583543ac 	sw	v1,13656(v0)
1d008570:	07004230 	andi	v0,v0,0x7
1d008574:	18004010 	beqz	v0,0x1d0085d8
1d008578:	1400bf8f 	lw	ra,20(sp)
1d00857c:	06000324 	li	v1,6
1d008580:	01a0023c 	lui	v0,0xa001
1d008584:	7521400b 	j	0x1d0085d4
1d008588:	583543ac 	sw	v1,13656(v0)
1d00858c:	01a0023c 	lui	v0,0xa001
1d008590:	7521400b 	j	0x1d0085d4
1d008594:	583543ac 	sw	v1,13656(v0)
1d008598:	a25c400f 	jal	0x1d017288
1d00859c:	00000000 	nop
1d0085a0:	afff4050 	beqzl	v0,0x1d008460
1d0085a4:	00000292 	lbu	v0,0(s0)
1d0085a8:	6321400b 	j	0x1d00858c
1d0085ac:	07000324 	li	v1,7
1d0085b0:	1832848c 	lw	a0,12824(a0)
1d0085b4:	c4ff8014 	bnez	a0,0x1d0084c8
1d0085b8:	01a0043c 	lui	a0,0xa001
1d0085bc:	01a0043c 	lui	a0,0xa001
1d0085c0:	6e358490 	lbu	a0,13678(a0)
1d0085c4:	c6ff8010 	beqz	a0,0x1d0084e0
1d0085c8:	01a0043c 	lui	a0,0xa001
1d0085cc:	5221400b 	j	0x1d008548
1d0085d0:	02000324 	li	v1,2
1d0085d4:	1400bf8f 	lw	ra,20(sp)
1d0085d8:	1000b08f 	lw	s0,16(sp)
1d0085dc:	0800e003 	jr	ra
1d0085e0:	1800bd27 	addiu	sp,sp,24
1d0085e4:	e8ffbd27 	addiu	sp,sp,-24
1d0085e8:	1400bfaf 	sw	ra,20(sp)
1d0085ec:	c44d400f 	jal	0x1d013710
1d0085f0:	00000000 	nop
1d0085f4:	1400bf8f 	lw	ra,20(sp)
1d0085f8:	0800e003 	jr	ra
1d0085fc:	1800bd27 	addiu	sp,sp,24
1d008600:	01a0023c 	lui	v0,0xa001
1d008604:	9032428c 	lw	v0,12944(v0)
1d008608:	6500422c 	sltiu	v0,v0,101
1d00860c:	21004014 	bnez	v0,0x1d008694
1d008610:	08000224 	li	v0,8
1d008614:	d8ffbd27 	addiu	sp,sp,-40
1d008618:	2400bfaf 	sw	ra,36(sp)
1d00861c:	1400a2af 	sw	v0,20(sp)
1d008620:	aa030224 	li	v0,938
1d008624:	1000a2af 	sw	v0,16(sp)
1d008628:	01a0023c 	lui	v0,0xa001
1d00862c:	1033428c 	lw	v0,13072(v0)
1d008630:	0300422c 	sltiu	v0,v0,3
1d008634:	0a004014 	bnez	v0,0x1d008660
1d008638:	01a0033c 	lui	v1,0xa001
1d00863c:	b42f6324 	addiu	v1,v1,12212
1d008640:	5003628c 	lw	v0,848(v1)
1d008644:	5403638c 	lw	v1,852(v1)
1d008648:	1c00a3af 	sw	v1,28(sp)
1d00864c:	0f004234 	ori	v0,v0,0xf
1d008650:	0f000324 	li	v1,15
1d008654:	0439627c 	ins	v0,v1,0x4,0x4
1d008658:	9d21400b 	j	0x1d008674
1d00865c:	1800a2af 	sw	v0,24(sp)
1d008660:	1c00a0af 	sw	zero,28(sp)
1d008664:	01000224 	li	v0,1
1d008668:	02000324 	li	v1,2
1d00866c:	0439627c 	ins	v0,v1,0x4,0x4
1d008670:	1800a2af 	sw	v0,24(sp)
1d008674:	1800a28f 	lw	v0,24(sp)
1d008678:	01000324 	li	v1,1
1d00867c:	c47b627c 	ins	v0,v1,0xf,0x1
1d008680:	1800a2af 	sw	v0,24(sp)
1d008684:	c44d400f 	jal	0x1d013710
1d008688:	1000a427 	addiu	a0,sp,16
1d00868c:	2400bf8f 	lw	ra,36(sp)
1d008690:	2800bd27 	addiu	sp,sp,40
1d008694:	0800e003 	jr	ra
1d008698:	00000000 	nop
1d00869c:	01a0023c 	lui	v0,0xa001
1d0086a0:	1431428c 	lw	v0,12564(v0)
1d0086a4:	0300422c 	sltiu	v0,v0,3
1d0086a8:	2a004014 	bnez	v0,0x1d008754
1d0086ac:	00000000 	nop
1d0086b0:	d8ffbd27 	addiu	sp,sp,-40
1d0086b4:	2400bfaf 	sw	ra,36(sp)
1d0086b8:	a25c400f 	jal	0x1d017288
1d0086bc:	00000000 	nop
1d0086c0:	22004010 	beqz	v0,0x1d00874c
1d0086c4:	01a0023c 	lui	v0,0xa001
1d0086c8:	b42f4224 	addiu	v0,v0,12212
1d0086cc:	5401438c 	lw	v1,340(v0)
1d0086d0:	5801428c 	lw	v0,344(v0)
1d0086d4:	1800a3af 	sw	v1,24(sp)
1d0086d8:	1c00a2af 	sw	v0,28(sp)
1d0086dc:	b880828f 	lw	v0,-32584(gp)
1d0086e0:	eb51043c 	lui	a0,0x51eb
1d0086e4:	1f858434 	ori	a0,a0,0x851f
1d0086e8:	19004400 	multu	v0,a0
1d0086ec:	10200000 	mfhi	a0
1d0086f0:	c2210400 	srl	a0,a0,0x7
1d0086f4:	00190400 	sll	v1,a0,0x4
1d0086f8:	80210400 	sll	a0,a0,0x6
1d0086fc:	21186400 	addu	v1,v1,a0
1d008700:	80200300 	sll	a0,v1,0x2
1d008704:	21186400 	addu	v1,v1,a0
1d008708:	23104300 	subu	v0,v0,v1
1d00870c:	c800422c 	sltiu	v0,v0,200
1d008710:	05004010 	beqz	v0,0x1d008728
1d008714:	1800a28f 	lw	v0,24(sp)
1d008718:	01000324 	li	v1,1
1d00871c:	84ff627c 	ins	v0,v1,0x1e,0x2
1d008720:	cd21400b 	j	0x1d008734
1d008724:	1800a2af 	sw	v0,24(sp)
1d008728:	02000324 	li	v1,2
1d00872c:	84ff627c 	ins	v0,v1,0x1e,0x2
1d008730:	1800a2af 	sw	v0,24(sp)
1d008734:	08000224 	li	v0,8
1d008738:	1400a2af 	sw	v0,20(sp)
1d00873c:	4c000224 	li	v0,76
1d008740:	1000a2af 	sw	v0,16(sp)
1d008744:	684e400f 	jal	0x1d0139a0
1d008748:	1000a427 	addiu	a0,sp,16
1d00874c:	2400bf8f 	lw	ra,36(sp)
1d008750:	2800bd27 	addiu	sp,sp,40
1d008754:	0800e003 	jr	ra
1d008758:	00000000 	nop
1d00875c:	e8ffbd27 	addiu	sp,sp,-24
1d008760:	1400bfaf 	sw	ra,20(sp)
1d008764:	1000b0af 	sw	s0,16(sp)
1d008768:	00008290 	lbu	v0,0(a0)
1d00876c:	03004230 	andi	v0,v0,0x3
1d008770:	2d004010 	beqz	v0,0x1d008828
1d008774:	21808000 	move	s0,a0
1d008778:	01a0023c 	lui	v0,0xa001
1d00877c:	4431428c 	lw	v0,12612(v0)
1d008780:	0300422c 	sltiu	v0,v0,3
1d008784:	28004014 	bnez	v0,0x1d008828
1d008788:	01a0023c 	lui	v0,0xa001
1d00878c:	f831428c 	lw	v0,12792(v0)
1d008790:	1c004010 	beqz	v0,0x1d008804
1d008794:	01a0023c 	lui	v0,0xa001
1d008798:	01a0023c 	lui	v0,0xa001
1d00879c:	f431428c 	lw	v0,12788(v0)
1d0087a0:	4006427c 	ext	v0,v0,0x19,0x1
1d0087a4:	15004054 	bnezl	v0,0x1d0087fc
1d0087a8:	01a0023c 	lui	v0,0xa001
1d0087ac:	0122400b 	j	0x1d008804
1d0087b0:	01a0023c 	lui	v0,0xa001
1d0087b4:	1432428c 	lw	v0,12820(v0)
1d0087b8:	4006427c 	ext	v0,v0,0x19,0x1
1d0087bc:	0f004054 	bnezl	v0,0x1d0087fc
1d0087c0:	01a0023c 	lui	v0,0xa001
1d0087c4:	0522400b 	j	0x1d008814
1d0087c8:	01a0023c 	lui	v0,0xa001
1d0087cc:	a25c400f 	jal	0x1d017288
1d0087d0:	00000000 	nop
1d0087d4:	09004014 	bnez	v0,0x1d0087fc
1d0087d8:	01a0023c 	lui	v0,0xa001
1d0087dc:	01a0023c 	lui	v0,0xa001
1d0087e0:	00000392 	lbu	v1,0(s0)
1d0087e4:	03006330 	andi	v1,v1,0x3
1d0087e8:	0c2f43ac 	sw	v1,12044(v0)
1d0087ec:	0c2f4224 	addiu	v0,v0,12044
1d0087f0:	c8000324 	li	v1,200
1d0087f4:	0a22400b 	j	0x1d008828
1d0087f8:	040043ac 	sw	v1,4(v0)
1d0087fc:	0a22400b 	j	0x1d008828
1d008800:	102f40ac 	sw	zero,12048(v0)
1d008804:	1832428c 	lw	v0,12824(v0)
1d008808:	eaff4014 	bnez	v0,0x1d0087b4
1d00880c:	01a0023c 	lui	v0,0xa001
1d008810:	01a0023c 	lui	v0,0xa001
1d008814:	6e354290 	lbu	v0,13678(v0)
1d008818:	f8ff4014 	bnez	v0,0x1d0087fc
1d00881c:	01a0023c 	lui	v0,0xa001
1d008820:	f321400b 	j	0x1d0087cc
1d008824:	00000000 	nop
1d008828:	1400bf8f 	lw	ra,20(sp)
1d00882c:	1000b08f 	lw	s0,16(sp)
1d008830:	0800e003 	jr	ra
1d008834:	1800bd27 	addiu	sp,sp,24
1d008838:	000080a0 	sb	zero,0(a0)
1d00883c:	010080a0 	sb	zero,1(a0)
1d008840:	01a0023c 	lui	v0,0xa001
1d008844:	c430428c 	lw	v0,12484(v0)
1d008848:	0300422c 	sltiu	v0,v0,3
1d00884c:	4e004014 	bnez	v0,0x1d008988
1d008850:	01a0023c 	lui	v0,0xa001
1d008854:	01a0023c 	lui	v0,0xa001
1d008858:	d430428c 	lw	v0,12500(v0)
1d00885c:	0300422c 	sltiu	v0,v0,3
1d008860:	49004014 	bnez	v0,0x1d008988
1d008864:	01a0023c 	lui	v0,0xa001
1d008868:	01a0023c 	lui	v0,0xa001
1d00886c:	e430428c 	lw	v0,12516(v0)
1d008870:	0300422c 	sltiu	v0,v0,3
1d008874:	44004014 	bnez	v0,0x1d008988
1d008878:	01a0023c 	lui	v0,0xa001
1d00887c:	6431428c 	lw	v0,12644(v0)
1d008880:	0300422c 	sltiu	v0,v0,3
1d008884:	71004050 	beqzl	v0,0x1d008a4c
1d008888:	01a0023c 	lui	v0,0xa001
1d00888c:	6722400b 	j	0x1d00899c
1d008890:	00008294 	lhu	v0,0(a0)
1d008894:	01a0033c 	lui	v1,0xa001
1d008898:	40356324 	addiu	v1,v1,13632
1d00889c:	0c00668c 	lw	a2,12(v1)
1d0088a0:	00008294 	lhu	v0,0(a0)
1d0088a4:	0431c27c 	ins	v0,a2,0x4,0x3
1d0088a8:	0100a638 	xori	a2,a1,0x1
1d0088ac:	c439c27c 	ins	v0,a2,0x7,0x1
1d0088b0:	000082a4 	sh	v0,0(a0)
1d0088b4:	1800638c 	lw	v1,24(v1)
1d0088b8:	0452627c 	ins	v0,v1,0x8,0x3
1d0088bc:	000082a4 	sh	v0,0(a0)
1d0088c0:	2d00a010 	beqz	a1,0x1d008978
1d0088c4:	21180000 	move	v1,zero
1d0088c8:	3e22400b 	j	0x1d0088f8
1d0088cc:	01a0023c 	lui	v0,0xa001
1d0088d0:	40356324 	addiu	v1,v1,13632
1d0088d4:	1000658c 	lw	a1,16(v1)
1d0088d8:	00008294 	lhu	v0,0(a0)
1d0088dc:	0431a27c 	ins	v0,a1,0x4,0x3
1d0088e0:	c439027c 	ins	v0,zero,0x7,0x1
1d0088e4:	000082a4 	sh	v0,0(a0)
1d0088e8:	1800638c 	lw	v1,24(v1)
1d0088ec:	0452627c 	ins	v0,v1,0x8,0x3
1d0088f0:	000082a4 	sh	v0,0(a0)
1d0088f4:	01a0023c 	lui	v0,0xa001
1d0088f8:	f831428c 	lw	v0,12792(v0)
1d0088fc:	3d004010 	beqz	v0,0x1d0089f4
1d008900:	01a0023c 	lui	v0,0xa001
1d008904:	01a0023c 	lui	v0,0xa001
1d008908:	f431428c 	lw	v0,12788(v0)
1d00890c:	4006427c 	ext	v0,v0,0x19,0x1
1d008910:	19004014 	bnez	v0,0x1d008978
1d008914:	21180000 	move	v1,zero
1d008918:	7d22400b 	j	0x1d0089f4
1d00891c:	01a0023c 	lui	v0,0xa001
1d008920:	1432428c 	lw	v0,12820(v0)
1d008924:	4006427c 	ext	v0,v0,0x19,0x1
1d008928:	13004014 	bnez	v0,0x1d008978
1d00892c:	21180000 	move	v1,zero
1d008930:	8122400b 	j	0x1d008a04
1d008934:	01a0023c 	lui	v0,0xa001
1d008938:	4835458c 	lw	a1,13640(v0)
1d00893c:	01000224 	li	v0,1
1d008940:	0d00a214 	bne	a1,v0,0x1d008978
1d008944:	01000324 	li	v1,1
1d008948:	01a0023c 	lui	v0,0xa001
1d00894c:	6435428c 	lw	v0,13668(v0)
1d008950:	0200422c 	sltiu	v0,v0,2
1d008954:	08004010 	beqz	v0,0x1d008978
1d008958:	21180000 	move	v1,zero
1d00895c:	01a0023c 	lui	v0,0xa001
1d008960:	b830428c 	lw	v0,12472(v0)
1d008964:	80004230 	andi	v0,v0,0x80
1d008968:	03004010 	beqz	v0,0x1d008978
1d00896c:	01a0023c 	lui	v0,0xa001
1d008970:	0830438c 	lw	v1,12296(v0)
1d008974:	c005637c 	ext	v1,v1,0x17,0x1
1d008978:	00008294 	lhu	v0,0(a0)
1d00897c:	c47b627c 	ins	v0,v1,0xf,0x1
1d008980:	0800e003 	jr	ra
1d008984:	000082a4 	sh	v0,0(a0)
1d008988:	6431428c 	lw	v0,12644(v0)
1d00898c:	0300422c 	sltiu	v0,v0,3
1d008990:	21004010 	beqz	v0,0x1d008a18
1d008994:	01a0023c 	lui	v0,0xa001
1d008998:	00008294 	lhu	v0,0(a0)
1d00899c:	0410027c 	ins	v0,zero,0x0,0x3
1d0089a0:	000082a4 	sh	v0,0(a0)
1d0089a4:	01a0033c 	lui	v1,0xa001
1d0089a8:	40356324 	addiu	v1,v1,13632
1d0089ac:	14006590 	lbu	a1,20(v1)
1d0089b0:	c418a27c 	ins	v0,a1,0x3,0x1
1d0089b4:	000082a4 	sh	v0,0(a0)
1d0089b8:	2000628c 	lw	v0,32(v1)
1d0089bc:	b5ff4014 	bnez	v0,0x1d008894
1d0089c0:	21280000 	move	a1,zero
1d0089c4:	a022400b 	j	0x1d008a80
1d0089c8:	00008294 	lhu	v0,0(a0)
1d0089cc:	0431027c 	ins	v0,zero,0x4,0x3
1d0089d0:	01000324 	li	v1,1
1d0089d4:	c439627c 	ins	v0,v1,0x7,0x1
1d0089d8:	000082a4 	sh	v0,0(a0)
1d0089dc:	01a0033c 	lui	v1,0xa001
1d0089e0:	5835638c 	lw	v1,13656(v1)
1d0089e4:	0452627c 	ins	v0,v1,0x8,0x3
1d0089e8:	000082a4 	sh	v0,0(a0)
1d0089ec:	5e22400b 	j	0x1d008978
1d0089f0:	21180000 	move	v1,zero
1d0089f4:	1832428c 	lw	v0,12824(v0)
1d0089f8:	c9ff4014 	bnez	v0,0x1d008920
1d0089fc:	01a0023c 	lui	v0,0xa001
1d008a00:	01a0023c 	lui	v0,0xa001
1d008a04:	6e354290 	lbu	v0,13678(v0)
1d008a08:	cbff4010 	beqz	v0,0x1d008938
1d008a0c:	01a0023c 	lui	v0,0xa001
1d008a10:	5e22400b 	j	0x1d008978
1d008a14:	21180000 	move	v1,zero
1d008a18:	40354224 	addiu	v0,v0,13632
1d008a1c:	0800458c 	lw	a1,8(v0)
1d008a20:	00008394 	lhu	v1,0(a0)
1d008a24:	0410a37c 	ins	v1,a1,0x0,0x3
1d008a28:	000083a4 	sh	v1,0(a0)
1d008a2c:	14004590 	lbu	a1,20(v0)
1d008a30:	c418a37c 	ins	v1,a1,0x3,0x1
1d008a34:	000083a4 	sh	v1,0(a0)
1d008a38:	2000428c 	lw	v0,32(v0)
1d008a3c:	95ff4014 	bnez	v0,0x1d008894
1d008a40:	21280000 	move	a1,zero
1d008a44:	7322400b 	j	0x1d0089cc
1d008a48:	00008294 	lhu	v0,0(a0)
1d008a4c:	40354224 	addiu	v0,v0,13632
1d008a50:	0800458c 	lw	a1,8(v0)
1d008a54:	00008394 	lhu	v1,0(a0)
1d008a58:	0410a37c 	ins	v1,a1,0x0,0x3
1d008a5c:	000083a4 	sh	v1,0(a0)
1d008a60:	14004590 	lbu	a1,20(v0)
1d008a64:	c418a37c 	ins	v1,a1,0x3,0x1
1d008a68:	000083a4 	sh	v1,0(a0)
1d008a6c:	2000428c 	lw	v0,32(v0)
1d008a70:	88ff4014 	bnez	v0,0x1d008894
1d008a74:	01000524 	li	a1,1
1d008a78:	3422400b 	j	0x1d0088d0
1d008a7c:	01a0033c 	lui	v1,0xa001
1d008a80:	0431027c 	ins	v0,zero,0x4,0x3
1d008a84:	01000324 	li	v1,1
1d008a88:	c439627c 	ins	v0,v1,0x7,0x1
1d008a8c:	000082a4 	sh	v0,0(a0)
1d008a90:	01a0033c 	lui	v1,0xa001
1d008a94:	5835638c 	lw	v1,13656(v1)
1d008a98:	0452627c 	ins	v0,v1,0x8,0x3
1d008a9c:	000082a4 	sh	v0,0(a0)
1d008aa0:	5e22400b 	j	0x1d008978
1d008aa4:	21180000 	move	v1,zero
1d008aa8:	01a0023c 	lui	v0,0xa001
1d008aac:	b831428c 	lw	v0,12728(v0)
1d008ab0:	0400422c 	sltiu	v0,v0,4
1d008ab4:	6b004014 	bnez	v0,0x1d008c64
1d008ab8:	01a0023c 	lui	v0,0xa001
1d008abc:	01a0023c 	lui	v0,0xa001
1d008ac0:	d831428c 	lw	v0,12760(v0)
1d008ac4:	0400422c 	sltiu	v0,v0,4
1d008ac8:	61004050 	beqzl	v0,0x1d008c50
1d008acc:	01a0023c 	lui	v0,0xa001
1d008ad0:	1923400b 	j	0x1d008c64
1d008ad4:	01a0023c 	lui	v0,0xa001
1d008ad8:	b430428c 	lw	v0,12468(v0)
1d008adc:	0400422c 	sltiu	v0,v0,4
1d008ae0:	62004050 	beqzl	v0,0x1d008c6c
1d008ae4:	01a0023c 	lui	v0,0xa001
1d008ae8:	1923400b 	j	0x1d008c64
1d008aec:	01a0023c 	lui	v0,0xa001
1d008af0:	2032428c 	lw	v0,12832(v0)
1d008af4:	0004427c 	ext	v0,v0,0x10,0x1
1d008af8:	59004010 	beqz	v0,0x1d008c60
1d008afc:	01a0023c 	lui	v0,0xa001
1d008b00:	6e354290 	lbu	v0,13678(v0)
1d008b04:	56004014 	bnez	v0,0x1d008c60
1d008b08:	01a0023c 	lui	v0,0xa001
1d008b0c:	6f354290 	lbu	v0,13679(v0)
1d008b10:	54004014 	bnez	v0,0x1d008c64
1d008b14:	01a0023c 	lui	v0,0xa001
1d008b18:	e8ffbd27 	addiu	sp,sp,-24
1d008b1c:	1400bfaf 	sw	ra,20(sp)
1d008b20:	1000b0af 	sw	s0,16(sp)
1d008b24:	a25c400f 	jal	0x1d017288
1d008b28:	21808000 	move	s0,a0
1d008b2c:	05004010 	beqz	v0,0x1d008b44
1d008b30:	00000000 	nop
1d008b34:	ad5c400f 	jal	0x1d0172b4
1d008b38:	00000000 	nop
1d008b3c:	42004010 	beqz	v0,0x1d008c48
1d008b40:	01a0023c 	lui	v0,0xa001
1d008b44:	5361400f 	jal	0x1d01854c
1d008b48:	00000000 	nop
1d008b4c:	3d004014 	bnez	v0,0x1d008c44
1d008b50:	01a0023c 	lui	v0,0xa001
1d008b54:	dc35428c 	lw	v0,13788(v0)
1d008b58:	0300422c 	sltiu	v0,v0,3
1d008b5c:	3a004014 	bnez	v0,0x1d008c48
1d008b60:	01a0023c 	lui	v0,0xa001
1d008b64:	01a0023c 	lui	v0,0xa001
1d008b68:	01a0033c 	lui	v1,0xa001
1d008b6c:	ac31638c 	lw	v1,12716(v1)
1d008b70:	800d637c 	ext	v1,v1,0x16,0x2
1d008b74:	01000424 	li	a0,1
1d008b78:	1a006410 	beq	v1,a0,0x1d008be4
1d008b7c:	d435428c 	lw	v0,13780(v0)
1d008b80:	02000424 	li	a0,2
1d008b84:	03006410 	beq	v1,a0,0x1d008b94
1d008b88:	01a0033c 	lui	v1,0xa001
1d008b8c:	fc22400b 	j	0x1d008bf0
1d008b90:	21200000 	move	a0,zero
1d008b94:	d035638c 	lw	v1,13776(v1)
1d008b98:	eb51043c 	lui	a0,0x51eb
1d008b9c:	1f858434 	ori	a0,a0,0x851f
1d008ba0:	18006400 	mult	v1,a0
1d008ba4:	10200000 	mfhi	a0
1d008ba8:	43210400 	sra	a0,a0,0x5
1d008bac:	c31f0300 	sra	v1,v1,0x1f
1d008bb0:	23188300 	subu	v1,a0,v1
1d008bb4:	23206200 	subu	a0,v1,v0
1d008bb8:	85038528 	slti	a1,a0,901
1d008bbc:	0400a054 	bnezl	a1,0x1d008bd0
1d008bc0:	7cfc8428 	slti	a0,a0,-900
1d008bc4:	84034224 	addiu	v0,v0,900
1d008bc8:	fc22400b 	j	0x1d008bf0
1d008bcc:	01000424 	li	a0,1
1d008bd0:	06008050 	beqzl	a0,0x1d008bec
1d008bd4:	21106000 	move	v0,v1
1d008bd8:	7cfc4224 	addiu	v0,v0,-900
1d008bdc:	fc22400b 	j	0x1d008bf0
1d008be0:	01000424 	li	a0,1
1d008be4:	fc22400b 	j	0x1d008bf0
1d008be8:	01000424 	li	a0,1
1d008bec:	01000424 	li	a0,1
1d008bf0:	10274224 	addiu	v0,v0,10000
1d008bf4:	ff7f432c 	sltiu	v1,v0,32767
1d008bf8:	0d006050 	beqzl	v1,0x1d008c30
1d008bfc:	01a0023c 	lui	v0,0xa001
1d008c00:	01a0033c 	lui	v1,0xa001
1d008c04:	6d3564a0 	sb	a0,13677(v1)
1d008c08:	010000a2 	sb	zero,1(s0)
1d008c0c:	01000324 	li	v1,1
1d008c10:	000003a2 	sb	v1,0(s0)
1d008c14:	0000038e 	lw	v1,0(s0)
1d008c18:	c4bd837c 	ins	v1,a0,0x17,0x1
1d008c1c:	02220200 	srl	a0,v0,0x8
1d008c20:	04b4837c 	ins	v1,a0,0x10,0x7
1d008c24:	000003ae 	sw	v1,0(s0)
1d008c28:	2023400b 	j	0x1d008c80
1d008c2c:	030002a2 	sb	v0,3(s0)
1d008c30:	6d3540a0 	sb	zero,13677(v0)
1d008c34:	0000028e 	lw	v0,0(s0)
1d008c38:	c4bd027c 	ins	v0,zero,0x17,0x1
1d008c3c:	2023400b 	j	0x1d008c80
1d008c40:	000002ae 	sw	v0,0(s0)
1d008c44:	01a0023c 	lui	v0,0xa001
1d008c48:	2023400b 	j	0x1d008c80
1d008c4c:	6d3540a0 	sb	zero,13677(v0)
1d008c50:	0431428c 	lw	v0,12548(v0)
1d008c54:	0400422c 	sltiu	v0,v0,4
1d008c58:	9fff4010 	beqz	v0,0x1d008ad8
1d008c5c:	01a0023c 	lui	v0,0xa001
1d008c60:	01a0023c 	lui	v0,0xa001
1d008c64:	0800e003 	jr	ra
1d008c68:	6d3540a0 	sb	zero,13677(v0)
1d008c6c:	2832428c 	lw	v0,12840(v0)
1d008c70:	9fff4054 	bnezl	v0,0x1d008af0
1d008c74:	01a0023c 	lui	v0,0xa001
1d008c78:	1923400b 	j	0x1d008c64
1d008c7c:	01a0023c 	lui	v0,0xa001
1d008c80:	1400bf8f 	lw	ra,20(sp)
1d008c84:	1000b08f 	lw	s0,16(sp)
1d008c88:	0800e003 	jr	ra
1d008c8c:	1800bd27 	addiu	sp,sp,24
1d008c90:	00008284 	lh	v0,0(a0)
1d008c94:	bce94528 	slti	a1,v0,-5700
1d008c98:	0600a014 	bnez	a1,0x1d008cb4
1d008c9c:	bce90324 	li	v1,-5700
1d008ca0:	21184000 	move	v1,v0
1d008ca4:	45164228 	slti	v0,v0,5701
1d008ca8:	01004050 	beqzl	v0,0x1d008cb0
1d008cac:	44160324 	li	v1,5700
1d008cb0:	201e037c 	seh	v1,v1
1d008cb4:	01a0023c 	lui	v0,0xa001
1d008cb8:	68354224 	addiu	v0,v0,13672
1d008cbc:	640043ac 	sw	v1,100(v0)
1d008cc0:	03008390 	lbu	v1,3(a0)
1d008cc4:	40180300 	sll	v1,v1,0x1
1d008cc8:	600043ac 	sw	v1,96(v0)
1d008ccc:	0000828c 	lw	v0,0(a0)
1d008cd0:	4004437c 	ext	v1,v0,0x11,0x1
1d008cd4:	0e006054 	bnezl	v1,0x1d008d10
1d008cd8:	01a0023c 	lui	v0,0xa001
1d008cdc:	0004427c 	ext	v0,v0,0x10,0x1
1d008ce0:	0d004010 	beqz	v0,0x1d008d18
1d008ce4:	01a0023c 	lui	v0,0xa001
1d008ce8:	01a0023c 	lui	v0,0xa001
1d008cec:	2832428c 	lw	v0,12840(v0)
1d008cf0:	09004010 	beqz	v0,0x1d008d18
1d008cf4:	01a0023c 	lui	v0,0xa001
1d008cf8:	01a0023c 	lui	v0,0xa001
1d008cfc:	2032428c 	lw	v0,12832(v0)
1d008d00:	0004427c 	ext	v0,v0,0x10,0x1
1d008d04:	04004014 	bnez	v0,0x1d008d18
1d008d08:	01a0023c 	lui	v0,0xa001
1d008d0c:	01a0023c 	lui	v0,0xa001
1d008d10:	6e3540a0 	sb	zero,13678(v0)
1d008d14:	01a0023c 	lui	v0,0xa001
1d008d18:	b831428c 	lw	v0,12728(v0)
1d008d1c:	0400422c 	sltiu	v0,v0,4
1d008d20:	35004014 	bnez	v0,0x1d008df8
1d008d24:	01a0023c 	lui	v0,0xa001
1d008d28:	01a0023c 	lui	v0,0xa001
1d008d2c:	d831428c 	lw	v0,12760(v0)
1d008d30:	0400422c 	sltiu	v0,v0,4
1d008d34:	2b004050 	beqzl	v0,0x1d008de4
1d008d38:	01a0023c 	lui	v0,0xa001
1d008d3c:	7e23400b 	j	0x1d008df8
1d008d40:	01a0023c 	lui	v0,0xa001
1d008d44:	b430428c 	lw	v0,12468(v0)
1d008d48:	0400422c 	sltiu	v0,v0,4
1d008d4c:	33004050 	beqzl	v0,0x1d008e1c
1d008d50:	01a0023c 	lui	v0,0xa001
1d008d54:	7e23400b 	j	0x1d008df8
1d008d58:	01a0023c 	lui	v0,0xa001
1d008d5c:	2032428c 	lw	v0,12832(v0)
1d008d60:	0004427c 	ext	v0,v0,0x10,0x1
1d008d64:	23004010 	beqz	v0,0x1d008df4
1d008d68:	01a0023c 	lui	v0,0xa001
1d008d6c:	6e354290 	lbu	v0,13678(v0)
1d008d70:	20004014 	bnez	v0,0x1d008df4
1d008d74:	01a0023c 	lui	v0,0xa001
1d008d78:	6f354290 	lbu	v0,13679(v0)
1d008d7c:	1e004014 	bnez	v0,0x1d008df8
1d008d80:	01a0023c 	lui	v0,0xa001
1d008d84:	e8ffbd27 	addiu	sp,sp,-24
1d008d88:	1400bfaf 	sw	ra,20(sp)
1d008d8c:	a25c400f 	jal	0x1d017288
1d008d90:	00000000 	nop
1d008d94:	05004010 	beqz	v0,0x1d008dac
1d008d98:	00000000 	nop
1d008d9c:	ad5c400f 	jal	0x1d0172b4
1d008da0:	00000000 	nop
1d008da4:	06004010 	beqz	v0,0x1d008dc0
1d008da8:	01a0023c 	lui	v0,0xa001
1d008dac:	5361400f 	jal	0x1d01854c
1d008db0:	00000000 	nop
1d008db4:	1f004010 	beqz	v0,0x1d008e34
1d008db8:	1400bf8f 	lw	ra,20(sp)
1d008dbc:	01a0023c 	lui	v0,0xa001
1d008dc0:	68354224 	addiu	v0,v0,13672
1d008dc4:	6c00448c 	lw	a0,108(v0)
1d008dc8:	80180400 	sll	v1,a0,0x2
1d008dcc:	00210400 	sll	a0,a0,0x4
1d008dd0:	21186400 	addu	v1,v1,a0
1d008dd4:	80200300 	sll	a0,v1,0x2
1d008dd8:	21186400 	addu	v1,v1,a0
1d008ddc:	8c23400b 	j	0x1d008e30
1d008de0:	680043ac 	sw	v1,104(v0)
1d008de4:	0431428c 	lw	v0,12548(v0)
1d008de8:	0400422c 	sltiu	v0,v0,4
1d008dec:	d5ff4010 	beqz	v0,0x1d008d44
1d008df0:	01a0023c 	lui	v0,0xa001
1d008df4:	01a0023c 	lui	v0,0xa001
1d008df8:	68354224 	addiu	v0,v0,13672
1d008dfc:	6c00448c 	lw	a0,108(v0)
1d008e00:	80180400 	sll	v1,a0,0x2
1d008e04:	00210400 	sll	a0,a0,0x4
1d008e08:	21186400 	addu	v1,v1,a0
1d008e0c:	80200300 	sll	a0,v1,0x2
1d008e10:	21186400 	addu	v1,v1,a0
1d008e14:	0800e003 	jr	ra
1d008e18:	680043ac 	sw	v1,104(v0)
1d008e1c:	2832428c 	lw	v0,12840(v0)
1d008e20:	ceff4054 	bnezl	v0,0x1d008d5c
1d008e24:	01a0023c 	lui	v0,0xa001
1d008e28:	7e23400b 	j	0x1d008df8
1d008e2c:	01a0023c 	lui	v0,0xa001
1d008e30:	1400bf8f 	lw	ra,20(sp)
1d008e34:	0800e003 	jr	ra
1d008e38:	1800bd27 	addiu	sp,sp,24
1d008e3c:	e8ffbd27 	addiu	sp,sp,-24
1d008e40:	1400bfaf 	sw	ra,20(sp)
1d008e44:	1000b0af 	sw	s0,16(sp)
1d008e48:	000080a0 	sb	zero,0(a0)
1d008e4c:	010080a0 	sb	zero,1(a0)
1d008e50:	020080a0 	sb	zero,2(a0)
1d008e54:	030080a0 	sb	zero,3(a0)
1d008e58:	040080a0 	sb	zero,4(a0)
1d008e5c:	050080a0 	sb	zero,5(a0)
1d008e60:	060080a0 	sb	zero,6(a0)
1d008e64:	070080a0 	sb	zero,7(a0)
1d008e68:	01a0023c 	lui	v0,0xa001
1d008e6c:	68354224 	addiu	v0,v0,13672
1d008e70:	6c00438c 	lw	v1,108(v0)
1d008e74:	000083a4 	sh	v1,0(a0)
1d008e78:	6800428c 	lw	v0,104(v0)
1d008e7c:	eb51033c 	lui	v1,0x51eb
1d008e80:	1f856334 	ori	v1,v1,0x851f
1d008e84:	18004300 	mult	v0,v1
1d008e88:	10180000 	mfhi	v1
1d008e8c:	43190300 	sra	v1,v1,0x5
1d008e90:	c3170200 	sra	v0,v0,0x1f
1d008e94:	23106200 	subu	v0,v1,v0
1d008e98:	020082a4 	sh	v0,2(a0)
1d008e9c:	01a0023c 	lui	v0,0xa001
1d008ea0:	b831428c 	lw	v0,12728(v0)
1d008ea4:	0400422c 	sltiu	v0,v0,4
1d008ea8:	38004014 	bnez	v0,0x1d008f8c
1d008eac:	21808000 	move	s0,a0
1d008eb0:	01a0023c 	lui	v0,0xa001
1d008eb4:	d831428c 	lw	v0,12760(v0)
1d008eb8:	0400422c 	sltiu	v0,v0,4
1d008ebc:	67004050 	beqzl	v0,0x1d00905c
1d008ec0:	01a0023c 	lui	v0,0xa001
1d008ec4:	b823400b 	j	0x1d008ee0
1d008ec8:	01a0023c 	lui	v0,0xa001
1d008ecc:	b430428c 	lw	v0,12468(v0)
1d008ed0:	0400422c 	sltiu	v0,v0,4
1d008ed4:	67004010 	beqz	v0,0x1d009074
1d008ed8:	01a0023c 	lui	v0,0xa001
1d008edc:	01a0023c 	lui	v0,0xa001
1d008ee0:	d831428c 	lw	v0,12760(v0)
1d008ee4:	0400422c 	sltiu	v0,v0,4
1d008ee8:	71004050 	beqzl	v0,0x1d0090b0
1d008eec:	01a0023c 	lui	v0,0xa001
1d008ef0:	e423400b 	j	0x1d008f90
1d008ef4:	21180000 	move	v1,zero
1d008ef8:	b430428c 	lw	v0,12468(v0)
1d008efc:	0400422c 	sltiu	v0,v0,4
1d008f00:	71004050 	beqzl	v0,0x1d0090c8
1d008f04:	01a0023c 	lui	v0,0xa001
1d008f08:	e423400b 	j	0x1d008f90
1d008f0c:	21180000 	move	v1,zero
1d008f10:	2032428c 	lw	v0,12832(v0)
1d008f14:	0004427c 	ext	v0,v0,0x10,0x1
1d008f18:	1d004010 	beqz	v0,0x1d008f90
1d008f1c:	21180000 	move	v1,zero
1d008f20:	01a0023c 	lui	v0,0xa001
1d008f24:	6e354290 	lbu	v0,13678(v0)
1d008f28:	1a004054 	bnezl	v0,0x1d008f94
1d008f2c:	07000292 	lbu	v0,7(s0)
1d008f30:	01a0023c 	lui	v0,0xa001
1d008f34:	6f354290 	lbu	v0,13679(v0)
1d008f38:	16004054 	bnezl	v0,0x1d008f94
1d008f3c:	07000292 	lbu	v0,7(s0)
1d008f40:	a25c400f 	jal	0x1d017288
1d008f44:	00000000 	nop
1d008f48:	05004010 	beqz	v0,0x1d008f60
1d008f4c:	00000000 	nop
1d008f50:	ad5c400f 	jal	0x1d0172b4
1d008f54:	00000000 	nop
1d008f58:	0d004010 	beqz	v0,0x1d008f90
1d008f5c:	21180000 	move	v1,zero
1d008f60:	5361400f 	jal	0x1d01854c
1d008f64:	00000000 	nop
1d008f68:	09004014 	bnez	v0,0x1d008f90
1d008f6c:	21180000 	move	v1,zero
1d008f70:	01a0023c 	lui	v0,0xa001
1d008f74:	ac31438c 	lw	v1,12716(v0)
1d008f78:	c000023c 	lui	v0,0xc0
1d008f7c:	24186200 	and	v1,v1,v0
1d008f80:	8000023c 	lui	v0,0x80
1d008f84:	02006250 	beql	v1,v0,0x1d008f90
1d008f88:	01000324 	li	v1,1
1d008f8c:	21180000 	move	v1,zero
1d008f90:	07000292 	lbu	v0,7(s0)
1d008f94:	0400627c 	ins	v0,v1,0x0,0x1
1d008f98:	01a0033c 	lui	v1,0xa001
1d008f9c:	6e356390 	lbu	v1,13678(v1)
1d008fa0:	4408627c 	ins	v0,v1,0x1,0x1
1d008fa4:	5361400f 	jal	0x1d01854c
1d008fa8:	070002a2 	sb	v0,7(s0)
1d008fac:	07000392 	lbu	v1,7(s0)
1d008fb0:	8410437c 	ins	v1,v0,0x2,0x1
1d008fb4:	a25c400f 	jal	0x1d017288
1d008fb8:	070003a2 	sb	v1,7(s0)
1d008fbc:	2b100200 	sltu	v0,zero,v0
1d008fc0:	07000392 	lbu	v1,7(s0)
1d008fc4:	c418437c 	ins	v1,v0,0x3,0x1
1d008fc8:	070003a2 	sb	v1,7(s0)
1d008fcc:	01a0023c 	lui	v0,0xa001
1d008fd0:	0431438c 	lw	v1,12548(v0)
1d008fd4:	0400632c 	sltiu	v1,v1,4
1d008fd8:	05006014 	bnez	v1,0x1d008ff0
1d008fdc:	21100000 	move	v0,zero
1d008fe0:	01a0023c 	lui	v0,0xa001
1d008fe4:	b430428c 	lw	v0,12468(v0)
1d008fe8:	0400422c 	sltiu	v0,v0,4
1d008fec:	01004238 	xori	v0,v0,0x1
1d008ff0:	01004338 	xori	v1,v0,0x1
1d008ff4:	07000292 	lbu	v0,7(s0)
1d008ff8:	0421627c 	ins	v0,v1,0x4,0x1
1d008ffc:	070002a2 	sb	v0,7(s0)
1d009000:	01a0023c 	lui	v0,0xa001
1d009004:	b831438c 	lw	v1,12728(v0)
1d009008:	0400632c 	sltiu	v1,v1,4
1d00900c:	05006014 	bnez	v1,0x1d009024
1d009010:	21100000 	move	v0,zero
1d009014:	01a0023c 	lui	v0,0xa001
1d009018:	d831428c 	lw	v0,12760(v0)
1d00901c:	0400422c 	sltiu	v0,v0,4
1d009020:	01004238 	xori	v0,v0,0x1
1d009024:	01004338 	xori	v1,v0,0x1
1d009028:	07000292 	lbu	v0,7(s0)
1d00902c:	4429627c 	ins	v0,v1,0x5,0x1
1d009030:	070002a2 	sb	v0,7(s0)
1d009034:	01a0033c 	lui	v1,0xa001
1d009038:	6f356390 	lbu	v1,13679(v1)
1d00903c:	8431627c 	ins	v0,v1,0x6,0x1
1d009040:	070002a2 	sb	v0,7(s0)
1d009044:	01a0033c 	lui	v1,0xa001
1d009048:	2832638c 	lw	v1,12840(v1)
1d00904c:	0100632c 	sltiu	v1,v1,1
1d009050:	c439627c 	ins	v0,v1,0x7,0x1
1d009054:	3724400b 	j	0x1d0090dc
1d009058:	070002a2 	sb	v0,7(s0)
1d00905c:	0431428c 	lw	v0,12548(v0)
1d009060:	0400422c 	sltiu	v0,v0,4
1d009064:	99ff4050 	beqzl	v0,0x1d008ecc
1d009068:	01a0023c 	lui	v0,0xa001
1d00906c:	b823400b 	j	0x1d008ee0
1d009070:	01a0023c 	lui	v0,0xa001
1d009074:	b42f4224 	addiu	v0,v0,12212
1d009078:	fa004390 	lbu	v1,250(v0)
1d00907c:	001a0300 	sll	v1,v1,0x8
1d009080:	fb004490 	lbu	a0,251(v0)
1d009084:	21186400 	addu	v1,v1,a0
1d009088:	040003a6 	sh	v1,4(s0)
1d00908c:	f8014390 	lbu	v1,504(v0)
1d009090:	80ff6324 	addiu	v1,v1,-128
1d009094:	060003a2 	sb	v1,6(s0)
1d009098:	0402428c 	lw	v0,516(v0)
1d00909c:	0400422c 	sltiu	v0,v0,4
1d0090a0:	8fff4050 	beqzl	v0,0x1d008ee0
1d0090a4:	01a0023c 	lui	v0,0xa001
1d0090a8:	e423400b 	j	0x1d008f90
1d0090ac:	21180000 	move	v1,zero
1d0090b0:	0431428c 	lw	v0,12548(v0)
1d0090b4:	0400422c 	sltiu	v0,v0,4
1d0090b8:	8fff4050 	beqzl	v0,0x1d008ef8
1d0090bc:	01a0023c 	lui	v0,0xa001
1d0090c0:	e423400b 	j	0x1d008f90
1d0090c4:	21180000 	move	v1,zero
1d0090c8:	2832428c 	lw	v0,12840(v0)
1d0090cc:	90ff4054 	bnezl	v0,0x1d008f10
1d0090d0:	01a0023c 	lui	v0,0xa001
1d0090d4:	e423400b 	j	0x1d008f90
1d0090d8:	21180000 	move	v1,zero
1d0090dc:	1400bf8f 	lw	ra,20(sp)
1d0090e0:	1000b08f 	lw	s0,16(sp)
1d0090e4:	0800e003 	jr	ra
1d0090e8:	1800bd27 	addiu	sp,sp,24
1d0090ec:	d8ffbd27 	addiu	sp,sp,-40
1d0090f0:	2400bfaf 	sw	ra,36(sp)
1d0090f4:	01a0023c 	lui	v0,0xa001
1d0090f8:	6d354290 	lbu	v0,13677(v0)
1d0090fc:	20004010 	beqz	v0,0x1d009180
1d009100:	01a0023c 	lui	v0,0xa001
1d009104:	0031428c 	lw	v0,12544(v0)
1d009108:	08004010 	beqz	v0,0x1d00912c
1d00910c:	01a0033c 	lui	v1,0xa001
1d009110:	b42f6324 	addiu	v1,v1,12212
1d009114:	4401628c 	lw	v0,324(v1)
1d009118:	4801638c 	lw	v1,328(v1)
1d00911c:	1c00a3af 	sw	v1,28(sp)
1d009120:	c4bd027c 	ins	v0,zero,0x17,0x1
1d009124:	4d24400b 	j	0x1d009134
1d009128:	1800a2af 	sw	v0,24(sp)
1d00912c:	1800a0af 	sw	zero,24(sp)
1d009130:	1c00a0af 	sw	zero,28(sp)
1d009134:	08000224 	li	v0,8
1d009138:	1400a2af 	sw	v0,20(sp)
1d00913c:	a8030224 	li	v0,936
1d009140:	08008010 	beqz	a0,0x1d009164
1d009144:	1000a2af 	sw	v0,16(sp)
1d009148:	20000324 	li	v1,32
1d00914c:	88bf023c 	lui	v0,0xbf88
1d009150:	e86043ac 	sw	v1,24808(v0)
1d009154:	7457400f 	jal	0x1d015dd0
1d009158:	1000a427 	addiu	a0,sp,16
1d00915c:	8624400b 	j	0x1d009218
1d009160:	2400bf8f 	lw	ra,36(sp)
1d009164:	ab4e400f 	jal	0x1d013aac
1d009168:	1000a427 	addiu	a0,sp,16
1d00916c:	20000324 	li	v1,32
1d009170:	88bf023c 	lui	v0,0xbf88
1d009174:	e46043ac 	sw	v1,24804(v0)
1d009178:	6224400b 	j	0x1d009188
1d00917c:	01a0023c 	lui	v0,0xa001
1d009180:	24008014 	bnez	a0,0x1d009214
1d009184:	01a0023c 	lui	v0,0xa001
1d009188:	6835428c 	lw	v0,13672(v0)
1d00918c:	0c004014 	bnez	v0,0x1d0091c0
1d009190:	01a0023c 	lui	v0,0xa001
1d009194:	08000224 	li	v0,8
1d009198:	1400a2af 	sw	v0,20(sp)
1d00919c:	65000224 	li	v0,101
1d0091a0:	1000a2af 	sw	v0,16(sp)
1d0091a4:	8f23400f 	jal	0x1d008e3c
1d0091a8:	1800a427 	addiu	a0,sp,24
1d0091ac:	1d5c400f 	jal	0x1d017074
1d0091b0:	1800a427 	addiu	a0,sp,24
1d0091b4:	204d400f 	jal	0x1d013480
1d0091b8:	1000a427 	addiu	a0,sp,16
1d0091bc:	01a0023c 	lui	v0,0xa001
1d0091c0:	f831428c 	lw	v0,12792(v0)
1d0091c4:	06004010 	beqz	v0,0x1d0091e0
1d0091c8:	01a0023c 	lui	v0,0xa001
1d0091cc:	01a0023c 	lui	v0,0xa001
1d0091d0:	f431428c 	lw	v0,12788(v0)
1d0091d4:	0006427c 	ext	v0,v0,0x18,0x1
1d0091d8:	0c004014 	bnez	v0,0x1d00920c
1d0091dc:	01a0023c 	lui	v0,0xa001
1d0091e0:	1832428c 	lw	v0,12824(v0)
1d0091e4:	06004010 	beqz	v0,0x1d009200
1d0091e8:	01a0023c 	lui	v0,0xa001
1d0091ec:	01a0023c 	lui	v0,0xa001
1d0091f0:	1432428c 	lw	v0,12820(v0)
1d0091f4:	0006427c 	ext	v0,v0,0x18,0x1
1d0091f8:	04004014 	bnez	v0,0x1d00920c
1d0091fc:	01a0023c 	lui	v0,0xa001
1d009200:	6d354290 	lbu	v0,13677(v0)
1d009204:	04004010 	beqz	v0,0x1d009218
1d009208:	2400bf8f 	lw	ra,36(sp)
1d00920c:	8021400f 	jal	0x1d008600
1d009210:	00000000 	nop
1d009214:	2400bf8f 	lw	ra,36(sp)
1d009218:	0800e003 	jr	ra
1d00921c:	2800bd27 	addiu	sp,sp,40
1d009220:	e8ffbd27 	addiu	sp,sp,-24
1d009224:	1400bfaf 	sw	ra,20(sp)
1d009228:	000085ac 	sw	a1,0(a0)
1d00922c:	040086ac 	sw	a2,4(a0)
1d009230:	080087ac 	sw	a3,8(a0)
1d009234:	2800a293 	lbu	v0,40(sp)
1d009238:	0c0082a0 	sb	v0,12(a0)
1d00923c:	10008424 	addiu	a0,a0,16
1d009240:	21280000 	move	a1,zero
1d009244:	c96d400f 	jal	0x1d01b724
1d009248:	1c000624 	li	a2,28
1d00924c:	1400bf8f 	lw	ra,20(sp)
1d009250:	0800e003 	jr	ra
1d009254:	1800bd27 	addiu	sp,sp,24
1d009258:	0800e003 	jr	ra
1d00925c:	10008290 	lbu	v0,16(a0)
1d009260:	e0ffbd27 	addiu	sp,sp,-32
1d009264:	1c00bfaf 	sw	ra,28(sp)
1d009268:	1800b2af 	sw	s2,24(sp)
1d00926c:	1400b1af 	sw	s1,20(sp)
1d009270:	1000b0af 	sw	s0,16(sp)
1d009274:	21808000 	move	s0,a0
1d009278:	2190a000 	move	s2,a1
1d00927c:	2600c010 	beqz	a2,0x1d009318
1d009280:	2188c000 	move	s1,a2
1d009284:	180005ae 	sw	a1,24(s0)
1d009288:	10008290 	lbu	v0,16(a0)
1d00928c:	0b004010 	beqz	v0,0x1d0092bc
1d009290:	1c000326 	addiu	v1,s0,28
1d009294:	0c008290 	lbu	v0,12(a0)
1d009298:	09004050 	beqzl	v0,0x1d0092c0
1d00929c:	0300268a 	lwl	a2,3(s1)
1d0092a0:	1c008424 	addiu	a0,a0,28
1d0092a4:	2128c000 	move	a1,a2
1d0092a8:	6e6e400f 	jal	0x1d01b9b8
1d0092ac:	10000624 	li	a2,16
1d0092b0:	1d004050 	beqzl	v0,0x1d009328
1d0092b4:	0800028e 	lw	v0,8(s0)
1d0092b8:	1c000326 	addiu	v1,s0,28
1d0092bc:	0300268a 	lwl	a2,3(s1)
1d0092c0:	0000269a 	lwr	a2,0(s1)
1d0092c4:	0700258a 	lwl	a1,7(s1)
1d0092c8:	0400259a 	lwr	a1,4(s1)
1d0092cc:	0b00248a 	lwl	a0,11(s1)
1d0092d0:	0800249a 	lwr	a0,8(s1)
1d0092d4:	0f00228a 	lwl	v0,15(s1)
1d0092d8:	0c00229a 	lwr	v0,12(s1)
1d0092dc:	030066a8 	swl	a2,3(v1)
1d0092e0:	000066b8 	swr	a2,0(v1)
1d0092e4:	070065a8 	swl	a1,7(v1)
1d0092e8:	040065b8 	swr	a1,4(v1)
1d0092ec:	0b0064a8 	swl	a0,11(v1)
1d0092f0:	080064b8 	swr	a0,8(v1)
1d0092f4:	0f0062a8 	swl	v0,15(v1)
1d0092f8:	0c0062b8 	swr	v0,12(v1)
1d0092fc:	110000a2 	sb	zero,17(s0)
1d009300:	10000292 	lbu	v0,16(s0)
1d009304:	07004014 	bnez	v0,0x1d009324
1d009308:	01000224 	li	v0,1
1d00930c:	100002a2 	sb	v0,16(s0)
1d009310:	01004226 	addiu	v0,s2,1
1d009314:	140002ae 	sw	v0,20(s0)
1d009318:	10000292 	lbu	v0,16(s0)
1d00931c:	23004010 	beqz	v0,0x1d0093ac
1d009320:	21100000 	move	v0,zero
1d009324:	0800028e 	lw	v0,8(s0)
1d009328:	07004050 	beqzl	v0,0x1d009348
1d00932c:	11000292 	lbu	v0,17(s0)
1d009330:	1800038e 	lw	v1,24(s0)
1d009334:	23184302 	subu	v1,s2,v1
1d009338:	2b106200 	sltu	v0,v1,v0
1d00933c:	18004050 	beqzl	v0,0x1d0093a0
1d009340:	100000a2 	sb	zero,16(s0)
1d009344:	11000292 	lbu	v0,17(s0)
1d009348:	0c004054 	bnezl	v0,0x1d00937c
1d00934c:	0400028e 	lw	v0,4(s0)
1d009350:	1400028e 	lw	v0,20(s0)
1d009354:	23104202 	subu	v0,s2,v0
1d009358:	0000038e 	lw	v1,0(s0)
1d00935c:	2b104300 	sltu	v0,v0,v1
1d009360:	12004054 	bnezl	v0,0x1d0093ac
1d009364:	21100000 	move	v0,zero
1d009368:	01000224 	li	v0,1
1d00936c:	110002a2 	sb	v0,17(s0)
1d009370:	140012ae 	sw	s2,20(s0)
1d009374:	eb24400b 	j	0x1d0093ac
1d009378:	1c000226 	addiu	v0,s0,28
1d00937c:	0b004050 	beqzl	v0,0x1d0093ac
1d009380:	21100000 	move	v0,zero
1d009384:	1400038e 	lw	v1,20(s0)
1d009388:	23184302 	subu	v1,s2,v1
1d00938c:	2b106200 	sltu	v0,v1,v0
1d009390:	05004014 	bnez	v0,0x1d0093a8
1d009394:	1c000226 	addiu	v0,s0,28
1d009398:	eb24400b 	j	0x1d0093ac
1d00939c:	140012ae 	sw	s2,20(s0)
1d0093a0:	eb24400b 	j	0x1d0093ac
1d0093a4:	21100000 	move	v0,zero
1d0093a8:	21100000 	move	v0,zero
1d0093ac:	1c00bf8f 	lw	ra,28(sp)
1d0093b0:	1800b28f 	lw	s2,24(sp)
1d0093b4:	1400b18f 	lw	s1,20(sp)
1d0093b8:	1000b08f 	lw	s0,16(sp)
1d0093bc:	0800e003 	jr	ra
1d0093c0:	2000bd27 	addiu	sp,sp,32
1d0093c4:	01a0023c 	lui	v0,0xa001
1d0093c8:	6835428c 	lw	v0,13672(v0)
1d0093cc:	19004014 	bnez	v0,0x1d009434
1d0093d0:	08000224 	li	v0,8
1d0093d4:	d8ffbd27 	addiu	sp,sp,-40
1d0093d8:	2400bfaf 	sw	ra,36(sp)
1d0093dc:	2000b0af 	sw	s0,32(sp)
1d0093e0:	1400a2af 	sw	v0,20(sp)
1d0093e4:	65000224 	li	v0,101
1d0093e8:	1000a2af 	sw	v0,16(sp)
1d0093ec:	8f23400f 	jal	0x1d008e3c
1d0093f0:	1800a427 	addiu	a0,sp,24
1d0093f4:	01a0043c 	lui	a0,0xa001
1d0093f8:	70358424 	addiu	a0,a0,13680
1d0093fc:	b880858f 	lw	a1,-32584(gp)
1d009400:	9824400f 	jal	0x1d009260
1d009404:	1000a627 	addiu	a2,sp,16
1d009408:	07004010 	beqz	v0,0x1d009428
1d00940c:	21804000 	move	s0,v0
1d009410:	1d5c400f 	jal	0x1d017074
1d009414:	08004424 	addiu	a0,v0,8
1d009418:	204d400f 	jal	0x1d013480
1d00941c:	21200002 	move	a0,s0
1d009420:	8220400f 	jal	0x1d008208
1d009424:	21200002 	move	a0,s0
1d009428:	2400bf8f 	lw	ra,36(sp)
1d00942c:	2000b08f 	lw	s0,32(sp)
1d009430:	2800bd27 	addiu	sp,sp,40
1d009434:	0800e003 	jr	ra
1d009438:	00000000 	nop
1d00943c:	01a0023c 	lui	v0,0xa001
1d009440:	d42f428c 	lw	v0,12244(v0)
1d009444:	0300422c 	sltiu	v0,v0,3
1d009448:	03004014 	bnez	v0,0x1d009458
1d00944c:	21180000 	move	v1,zero
1d009450:	01a0033c 	lui	v1,0xa001
1d009454:	c82f6324 	addiu	v1,v1,12232
1d009458:	01a0023c 	lui	v0,0xa001
1d00945c:	e42f448c 	lw	a0,12260(v0)
1d009460:	0300842c 	sltiu	a0,a0,3
1d009464:	03008014 	bnez	a0,0x1d009474
1d009468:	21100000 	move	v0,zero
1d00946c:	01a0023c 	lui	v0,0xa001
1d009470:	d82f4224 	addiu	v0,v0,12248
1d009474:	01a0043c 	lui	a0,0xa001
1d009478:	f02f858c 	lw	a1,12272(a0)
1d00947c:	0300a010 	beqz	a1,0x1d00948c
1d009480:	21200000 	move	a0,zero
1d009484:	01a0043c 	lui	a0,0xa001
1d009488:	e82f8424 	addiu	a0,a0,12264
1d00948c:	01a0053c 	lui	a1,0xa001
1d009490:	9030a68c 	lw	a2,12432(a1)
1d009494:	0300c010 	beqz	a2,0x1d0094a4
1d009498:	21280000 	move	a1,zero
1d00949c:	01a0053c 	lui	a1,0xa001
1d0094a0:	8830a524 	addiu	a1,a1,12424
1d0094a4:	01a0063c 	lui	a2,0xa001
1d0094a8:	8030c78c 	lw	a3,12416(a2)
1d0094ac:	0300e010 	beqz	a3,0x1d0094bc
1d0094b0:	21300000 	move	a2,zero
1d0094b4:	01a0063c 	lui	a2,0xa001
1d0094b8:	7830c624 	addiu	a2,a2,12408
1d0094bc:	83006010 	beqz	v1,0x1d0096cc
1d0094c0:	00000000 	nop
1d0094c4:	81004010 	beqz	v0,0x1d0096cc
1d0094c8:	00000000 	nop
1d0094cc:	7f008010 	beqz	a0,0x1d0096cc
1d0094d0:	00000000 	nop
1d0094d4:	7d00a010 	beqz	a1,0x1d0096cc
1d0094d8:	00000000 	nop
1d0094dc:	7b00c010 	beqz	a2,0x1d0096cc
1d0094e0:	1800083c 	lui	t0,0x18
1d0094e4:	d8ffbd27 	addiu	sp,sp,-40
1d0094e8:	2400bfaf 	sw	ra,36(sp)
1d0094ec:	1000a0af 	sw	zero,16(sp)
1d0094f0:	1400a0af 	sw	zero,20(sp)
1d0094f4:	1800a0af 	sw	zero,24(sp)
1d0094f8:	1c00a0af 	sw	zero,28(sp)
1d0094fc:	0000848c 	lw	a0,0(a0)
1d009500:	24408800 	and	t0,a0,t0
1d009504:	03000011 	beqz	t0,0x1d009514
1d009508:	21380000 	move	a3,zero
1d00950c:	00048738 	xori	a3,a0,0x400
1d009510:	8002e77c 	ext	a3,a3,0xa,0x1
1d009514:	1800a497 	lhu	a0,24(sp)
1d009518:	c45ae47c 	ins	a0,a3,0xb,0x1
1d00951c:	1800a4a7 	sh	a0,24(sp)
1d009520:	0400478c 	lw	a3,4(v0)
1d009524:	3c00083c 	lui	t0,0x3c
1d009528:	20000825 	addiu	t0,t0,32
1d00952c:	2440e800 	and	t0,a3,t0
1d009530:	2b400800 	sltu	t0,zero,t0
1d009534:	0463047d 	ins	a0,t0,0xc,0x1
1d009538:	1800a4a7 	sh	a0,24(sp)
1d00953c:	0400698c 	lw	t1,4(v1)
1d009540:	0400043c 	lui	a0,0x4
1d009544:	20008824 	addiu	t0,a0,32
1d009548:	24482801 	and	t1,t1,t0
1d00954c:	05002415 	bne	t1,a0,0x1d009564
1d009550:	21400000 	move	t0,zero
1d009554:	0400c88c 	lw	t0,4(a2)
1d009558:	02470800 	srl	t0,t0,0x1c
1d00955c:	01000839 	xori	t0,t0,0x1
1d009560:	01000831 	andi	t0,t0,0x1
1d009564:	1800a497 	lhu	a0,24(sp)
1d009568:	446b047d 	ins	a0,t0,0xd,0x1
1d00956c:	c000063c 	lui	a2,0xc0
1d009570:	2438e600 	and	a3,a3,a2
1d009574:	2b380700 	sltu	a3,zero,a3
1d009578:	8473e47c 	ins	a0,a3,0xe,0x1
1d00957c:	1800a4a7 	sh	a0,24(sp)
1d009580:	0000468c 	lw	a2,0(v0)
1d009584:	c003c67c 	ext	a2,a2,0xf,0x1
1d009588:	c47bc47c 	ins	a0,a2,0xf,0x1
1d00958c:	1800a4a7 	sh	a0,24(sp)
1d009590:	0000a58c 	lw	a1,0(a1)
1d009594:	0007a530 	andi	a1,a1,0x700
1d009598:	0005a538 	xori	a1,a1,0x500
1d00959c:	0100a52c 	sltiu	a1,a1,1
1d0095a0:	1a00a493 	lbu	a0,26(sp)
1d0095a4:	4408a47c 	ins	a0,a1,0x1,0x1
1d0095a8:	1a00a4a3 	sb	a0,26(sp)
1d0095ac:	0400658c 	lw	a1,4(v1)
1d0095b0:	c005a57c 	ext	a1,a1,0x17,0x1
1d0095b4:	8410a47c 	ins	a0,a1,0x2,0x1
1d0095b8:	1a00a4a3 	sb	a0,26(sp)
1d0095bc:	1900a493 	lbu	a0,25(sp)
1d0095c0:	0430047c 	ins	a0,zero,0x0,0x7
1d0095c4:	ff008430 	andi	a0,a0,0xff
1d0095c8:	15008050 	beqzl	a0,0x1d009620
1d0095cc:	1a00a293 	lbu	v0,26(sp)
1d0095d0:	0000448c 	lw	a0,0(v0)
1d0095d4:	001f8430 	andi	a0,a0,0x1f00
1d0095d8:	02004390 	lbu	v1,2(v0)
1d0095dc:	21108300 	addu	v0,a0,v1
1d0095e0:	08140324 	li	v1,5128
1d0095e4:	23106200 	subu	v0,v1,v0
1d0095e8:	03110200 	sra	v0,v0,0x4
1d0095ec:	05004004 	bltz	v0,0x1d009604
1d0095f0:	00014428 	slti	a0,v0,256
1d0095f4:	ff000324 	li	v1,255
1d0095f8:	0a106400 	movz	v0,v1,a0
1d0095fc:	8225400b 	j	0x1d009608
1d009600:	ff004230 	andi	v0,v0,0xff
1d009604:	21100000 	move	v0,zero
1d009608:	1800a2a3 	sb	v0,24(sp)
1d00960c:	1800a297 	lhu	v0,24(sp)
1d009610:	01000324 	li	v1,1
1d009614:	044a627c 	ins	v0,v1,0x8,0x2
1d009618:	a025400b 	j	0x1d009680
1d00961c:	1800a2a7 	sh	v0,24(sp)
1d009620:	04004230 	andi	v0,v0,0x4
1d009624:	ff004230 	andi	v0,v0,0xff
1d009628:	16004010 	beqz	v0,0x1d009684
1d00962c:	1400a28f 	lw	v0,20(sp)
1d009630:	0000628c 	lw	v0,0(v1)
1d009634:	1f004230 	andi	v0,v0,0x1f
1d009638:	00120200 	sll	v0,v0,0x8
1d00963c:	01006390 	lbu	v1,1(v1)
1d009640:	21104300 	addu	v0,v0,v1
1d009644:	08140324 	li	v1,5128
1d009648:	23106200 	subu	v0,v1,v0
1d00964c:	03110200 	sra	v0,v0,0x4
1d009650:	05004004 	bltz	v0,0x1d009668
1d009654:	00014428 	slti	a0,v0,256
1d009658:	ff000324 	li	v1,255
1d00965c:	0a106400 	movz	v0,v1,a0
1d009660:	9b25400b 	j	0x1d00966c
1d009664:	ff004230 	andi	v0,v0,0xff
1d009668:	21100000 	move	v0,zero
1d00966c:	1800a2a3 	sb	v0,24(sp)
1d009670:	1800a297 	lhu	v0,24(sp)
1d009674:	02000324 	li	v1,2
1d009678:	044a627c 	ins	v0,v1,0x8,0x2
1d00967c:	1800a2a7 	sh	v0,24(sp)
1d009680:	1400a28f 	lw	v0,20(sp)
1d009684:	03000324 	li	v1,3
1d009688:	0418627c 	ins	v0,v1,0x0,0x4
1d00968c:	1400a2af 	sw	v0,20(sp)
1d009690:	1000a28f 	lw	v0,16(sp)
1d009694:	79000324 	li	v1,121
1d009698:	0450627c 	ins	v0,v1,0x0,0xb
1d00969c:	1000a2af 	sw	v0,16(sp)
1d0096a0:	01a0043c 	lui	a0,0xa001
1d0096a4:	b42e8424 	addiu	a0,a0,11956
1d0096a8:	b880858f 	lw	a1,-32584(gp)
1d0096ac:	9824400f 	jal	0x1d009260
1d0096b0:	1000a627 	addiu	a2,sp,16
1d0096b4:	04004010 	beqz	v0,0x1d0096c8
1d0096b8:	2400bf8f 	lw	ra,36(sp)
1d0096bc:	204d400f 	jal	0x1d013480
1d0096c0:	21204000 	move	a0,v0
1d0096c4:	2400bf8f 	lw	ra,36(sp)
1d0096c8:	2800bd27 	addiu	sp,sp,40
1d0096cc:	0800e003 	jr	ra
1d0096d0:	00000000 	nop
1d0096d4:	d8ffbd27 	addiu	sp,sp,-40
1d0096d8:	2400bfaf 	sw	ra,36(sp)
1d0096dc:	01a0023c 	lui	v0,0xa001
1d0096e0:	2431438c 	lw	v1,12580(v0)
1d0096e4:	0300632c 	sltiu	v1,v1,3
1d0096e8:	03006014 	bnez	v1,0x1d0096f8
1d0096ec:	21100000 	move	v0,zero
1d0096f0:	01a0023c 	lui	v0,0xa001
1d0096f4:	18314224 	addiu	v0,v0,12568
1d0096f8:	01a0033c 	lui	v1,0xa001
1d0096fc:	3431648c 	lw	a0,12596(v1)
1d009700:	0300842c 	sltiu	a0,a0,3
1d009704:	03008014 	bnez	a0,0x1d009714
1d009708:	21180000 	move	v1,zero
1d00970c:	01a0033c 	lui	v1,0xa001
1d009710:	28316324 	addiu	v1,v1,12584
1d009714:	01a0043c 	lui	a0,0xa001
1d009718:	1033848c 	lw	a0,13072(a0)
1d00971c:	0300842c 	sltiu	a0,a0,3
1d009720:	03008014 	bnez	a0,0x1d009730
1d009724:	21280000 	move	a1,zero
1d009728:	01a0053c 	lui	a1,0xa001
1d00972c:	0433a524 	addiu	a1,a1,13060
1d009730:	01a0043c 	lui	a0,0xa001
1d009734:	2033868c 	lw	a2,13088(a0)
1d009738:	0300c62c 	sltiu	a2,a2,3
1d00973c:	0300c014 	bnez	a2,0x1d00974c
1d009740:	21200000 	move	a0,zero
1d009744:	01a0043c 	lui	a0,0xa001
1d009748:	14338424 	addiu	a0,a0,13076
1d00974c:	ad004054 	bnezl	v0,0x1d009a04
1d009750:	1000a0af 	sw	zero,16(sp)
1d009754:	b4006054 	bnezl	v1,0x1d009a28
1d009758:	1000a0af 	sw	zero,16(sp)
1d00975c:	b600a010 	beqz	a1,0x1d009a38
1d009760:	2400bf8f 	lw	ra,36(sp)
1d009764:	b0008054 	bnezl	a0,0x1d009a28
1d009768:	1000a0af 	sw	zero,16(sp)
1d00976c:	8e26400b 	j	0x1d009a38
1d009770:	00000000 	nop
1d009774:	01000724 	li	a3,1
1d009778:	0400e67c 	ins	a2,a3,0x0,0x1
1d00977c:	1800a6af 	sw	a2,24(sp)
1d009780:	0703073c 	lui	a3,0x307
1d009784:	24384700 	and	a3,v0,a3
1d009788:	0200063c 	lui	a2,0x2
1d00978c:	0600e614 	bne	a3,a2,0x1d0097a8
1d009790:	e000073c 	lui	a3,0xe0
1d009794:	1800a68f 	lw	a2,24(sp)
1d009798:	01000724 	li	a3,1
1d00979c:	4408e67c 	ins	a2,a3,0x1,0x1
1d0097a0:	1800a6af 	sw	a2,24(sp)
1d0097a4:	e000073c 	lui	a3,0xe0
1d0097a8:	24384700 	and	a3,v0,a3
1d0097ac:	2000063c 	lui	a2,0x20
1d0097b0:	0600e614 	bne	a3,a2,0x1d0097cc
1d0097b4:	1800063c 	lui	a2,0x18
1d0097b8:	1800a68f 	lw	a2,24(sp)
1d0097bc:	01000724 	li	a3,1
1d0097c0:	8410e67c 	ins	a2,a3,0x2,0x1
1d0097c4:	1800a6af 	sw	a2,24(sp)
1d0097c8:	1800063c 	lui	a2,0x18
1d0097cc:	00f8c734 	ori	a3,a2,0xf800
1d0097d0:	24104700 	and	v0,v0,a3
1d0097d4:	0040c624 	addiu	a2,a2,16384
1d0097d8:	04004614 	bne	v0,a2,0x1d0097ec
1d0097dc:	1800a28f 	lw	v0,24(sp)
1d0097e0:	01000624 	li	a2,1
1d0097e4:	c418c27c 	ins	v0,a2,0x3,0x1
1d0097e8:	1800a2af 	sw	v0,24(sp)
1d0097ec:	24006010 	beqz	v1,0x1d009880
1d0097f0:	00000000 	nop
1d0097f4:	0000628c 	lw	v0,0(v1)
1d0097f8:	00014330 	andi	v1,v0,0x100
1d0097fc:	06006010 	beqz	v1,0x1d009818
1d009800:	0703063c 	lui	a2,0x307
1d009804:	1800a38f 	lw	v1,24(sp)
1d009808:	01000624 	li	a2,1
1d00980c:	0421c37c 	ins	v1,a2,0x4,0x1
1d009810:	1800a3af 	sw	v1,24(sp)
1d009814:	0703063c 	lui	a2,0x307
1d009818:	24304600 	and	a2,v0,a2
1d00981c:	0200033c 	lui	v1,0x2
1d009820:	0600c314 	bne	a2,v1,0x1d00983c
1d009824:	e000063c 	lui	a2,0xe0
1d009828:	1800a38f 	lw	v1,24(sp)
1d00982c:	01000624 	li	a2,1
1d009830:	4429c37c 	ins	v1,a2,0x5,0x1
1d009834:	1800a3af 	sw	v1,24(sp)
1d009838:	e000063c 	lui	a2,0xe0
1d00983c:	24304600 	and	a2,v0,a2
1d009840:	2000033c 	lui	v1,0x20
1d009844:	0600c314 	bne	a2,v1,0x1d009860
1d009848:	1800033c 	lui	v1,0x18
1d00984c:	1800a38f 	lw	v1,24(sp)
1d009850:	01000624 	li	a2,1
1d009854:	8431c37c 	ins	v1,a2,0x6,0x1
1d009858:	1800a3af 	sw	v1,24(sp)
1d00985c:	1800033c 	lui	v1,0x18
1d009860:	00f86634 	ori	a2,v1,0xf800
1d009864:	24104600 	and	v0,v0,a2
1d009868:	00406324 	addiu	v1,v1,16384
1d00986c:	04004314 	bne	v0,v1,0x1d009880
1d009870:	1800a28f 	lw	v0,24(sp)
1d009874:	01000324 	li	v1,1
1d009878:	c439627c 	ins	v0,v1,0x7,0x1
1d00987c:	1800a2af 	sw	v0,24(sp)
1d009880:	4e00a010 	beqz	a1,0x1d0099bc
1d009884:	1400a28f 	lw	v0,20(sp)
1d009888:	4d008010 	beqz	a0,0x1d0099c0
1d00988c:	08000324 	li	v1,8
1d009890:	0000828c 	lw	v0,0(a0)
1d009894:	e0004330 	andi	v1,v0,0xe0
1d009898:	44006054 	bnezl	v1,0x1d0099ac
1d00989c:	1c00a28f 	lw	v0,28(sp)
1d0098a0:	06004230 	andi	v0,v0,0x6
1d0098a4:	06000324 	li	v1,6
1d0098a8:	3f004310 	beq	v0,v1,0x1d0099a8
1d0098ac:	c0000624 	li	a2,192
1d0098b0:	0400838c 	lw	v1,4(a0)
1d0098b4:	c0006330 	andi	v1,v1,0xc0
1d0098b8:	3b006610 	beq	v1,a2,0x1d0099a8
1d0098bc:	02000624 	li	a2,2
1d0098c0:	3e004614 	bne	v0,a2,0x1d0099bc
1d0098c4:	1400a28f 	lw	v0,20(sp)
1d0098c8:	40000224 	li	v0,64
1d0098cc:	3b006214 	bne	v1,v0,0x1d0099bc
1d0098d0:	1400a28f 	lw	v0,20(sp)
1d0098d4:	1c00a28f 	lw	v0,28(sp)
1d0098d8:	01000324 	li	v1,1
1d0098dc:	84f7627c 	ins	v0,v1,0x1e,0x1
1d0098e0:	1c00a2af 	sw	v0,28(sp)
1d0098e4:	0400a68c 	lw	a2,4(a1)
1d0098e8:	0019c67c 	ext	a2,a2,0x4,0x4
1d0098ec:	1800a38f 	lw	v1,24(sp)
1d0098f0:	045ac37c 	ins	v1,a2,0x8,0x4
1d0098f4:	1800a3af 	sw	v1,24(sp)
1d0098f8:	0000a68c 	lw	a2,0(a1)
1d0098fc:	001ec67c 	ext	a2,a2,0x18,0x4
1d009900:	047bc37c 	ins	v1,a2,0xc,0x4
1d009904:	1800a3af 	sw	v1,24(sp)
1d009908:	0000a68c 	lw	a2,0(a1)
1d00990c:	001fc67c 	ext	a2,a2,0x1c,0x4
1d009910:	049cc37c 	ins	v1,a2,0x10,0x4
1d009914:	1800a3af 	sw	v1,24(sp)
1d009918:	0400a68c 	lw	a2,4(a1)
1d00991c:	04bdc37c 	ins	v1,a2,0x14,0x4
1d009920:	1800a3af 	sw	v1,24(sp)
1d009924:	0400a68c 	lw	a2,4(a1)
1d009928:	001bc67c 	ext	a2,a2,0xc,0x4
1d00992c:	04dec37c 	ins	v1,a2,0x18,0x4
1d009930:	1800a3af 	sw	v1,24(sp)
1d009934:	0400a58c 	lw	a1,4(a1)
1d009938:	001aa57c 	ext	a1,a1,0x8,0x4
1d00993c:	04ffa37c 	ins	v1,a1,0x1c,0x4
1d009940:	1800a3af 	sw	v1,24(sp)
1d009944:	0000838c 	lw	v1,0(a0)
1d009948:	001d637c 	ext	v1,v1,0x14,0x4
1d00994c:	0418627c 	ins	v0,v1,0x0,0x4
1d009950:	1c00a2af 	sw	v0,28(sp)
1d009954:	0000838c 	lw	v1,0(a0)
1d009958:	001a637c 	ext	v1,v1,0x8,0x4
1d00995c:	0439627c 	ins	v0,v1,0x4,0x4
1d009960:	1c00a2af 	sw	v0,28(sp)
1d009964:	0000838c 	lw	v1,0(a0)
1d009968:	001b637c 	ext	v1,v1,0xc,0x4
1d00996c:	045a627c 	ins	v0,v1,0x8,0x4
1d009970:	1c00a2af 	sw	v0,28(sp)
1d009974:	0000838c 	lw	v1,0(a0)
1d009978:	001c637c 	ext	v1,v1,0x10,0x4
1d00997c:	047b627c 	ins	v0,v1,0xc,0x4
1d009980:	1c00a2af 	sw	v0,28(sp)
1d009984:	0000838c 	lw	v1,0(a0)
1d009988:	001f637c 	ext	v1,v1,0x1c,0x4
1d00998c:	049c627c 	ins	v0,v1,0x10,0x4
1d009990:	1c00a2af 	sw	v0,28(sp)
1d009994:	0000838c 	lw	v1,0(a0)
1d009998:	001e637c 	ext	v1,v1,0x18,0x4
1d00999c:	04bd627c 	ins	v0,v1,0x14,0x4
1d0099a0:	6e26400b 	j	0x1d0099b8
1d0099a4:	1c00a2af 	sw	v0,28(sp)
1d0099a8:	1c00a28f 	lw	v0,28(sp)
1d0099ac:	01000324 	li	v1,1
1d0099b0:	c4ff627c 	ins	v0,v1,0x1f,0x1
1d0099b4:	1c00a2af 	sw	v0,28(sp)
1d0099b8:	1400a28f 	lw	v0,20(sp)
1d0099bc:	08000324 	li	v1,8
1d0099c0:	0418627c 	ins	v0,v1,0x0,0x4
1d0099c4:	1400a2af 	sw	v0,20(sp)
1d0099c8:	1000a28f 	lw	v0,16(sp)
1d0099cc:	73000324 	li	v1,115
1d0099d0:	0450627c 	ins	v0,v1,0x0,0xb
1d0099d4:	1000a2af 	sw	v0,16(sp)
1d0099d8:	01a0043c 	lui	a0,0xa001
1d0099dc:	e02e8424 	addiu	a0,a0,12000
1d0099e0:	b880858f 	lw	a1,-32584(gp)
1d0099e4:	9824400f 	jal	0x1d009260
1d0099e8:	1000a627 	addiu	a2,sp,16
1d0099ec:	12004050 	beqzl	v0,0x1d009a38
1d0099f0:	2400bf8f 	lw	ra,36(sp)
1d0099f4:	204d400f 	jal	0x1d013480
1d0099f8:	21204000 	move	a0,v0
1d0099fc:	8e26400b 	j	0x1d009a38
1d009a00:	2400bf8f 	lw	ra,36(sp)
1d009a04:	1400a0af 	sw	zero,20(sp)
1d009a08:	1800a0af 	sw	zero,24(sp)
1d009a0c:	1c00a0af 	sw	zero,28(sp)
1d009a10:	0000428c 	lw	v0,0(v0)
1d009a14:	00014630 	andi	a2,v0,0x100
1d009a18:	56ffc014 	bnez	a2,0x1d009774
1d009a1c:	1800a68f 	lw	a2,24(sp)
1d009a20:	e125400b 	j	0x1d009784
1d009a24:	0703073c 	lui	a3,0x307
1d009a28:	1400a0af 	sw	zero,20(sp)
1d009a2c:	1800a0af 	sw	zero,24(sp)
1d009a30:	fb25400b 	j	0x1d0097ec
1d009a34:	1c00a0af 	sw	zero,28(sp)
1d009a38:	0800e003 	jr	ra
1d009a3c:	2800bd27 	addiu	sp,sp,40
1d009a40:	e8ffbd27 	addiu	sp,sp,-24
1d009a44:	1400bfaf 	sw	ra,20(sp)
1d009a48:	3b24400f 	jal	0x1d0090ec
1d009a4c:	01000424 	li	a0,1
1d009a50:	1400bf8f 	lw	ra,20(sp)
1d009a54:	0800e003 	jr	ra
1d009a58:	1800bd27 	addiu	sp,sp,24
1d009a5c:	e8ffbd27 	addiu	sp,sp,-24
1d009a60:	1400bfaf 	sw	ra,20(sp)
1d009a64:	3b24400f 	jal	0x1d0090ec
1d009a68:	21200000 	move	a0,zero
1d009a6c:	1400bf8f 	lw	ra,20(sp)
1d009a70:	0800e003 	jr	ra
1d009a74:	1800bd27 	addiu	sp,sp,24
1d009a78:	e8ffbd27 	addiu	sp,sp,-24
1d009a7c:	1400bfaf 	sw	ra,20(sp)
1d009a80:	9c4a400f 	jal	0x1d012a70
1d009a84:	1000b0af 	sw	s0,16(sp)
1d009a88:	5754400f 	jal	0x1d01515c
1d009a8c:	0700103c 	lui	s0,0x7
1d009a90:	f260400f 	jal	0x1d0183c8
1d009a94:	00000000 	nop
1d009a98:	9e55400f 	jal	0x1d015678
1d009a9c:	20a10436 	ori	a0,s0,0xa120
1d009aa0:	d256400f 	jal	0x1d015b48
1d009aa4:	20a10436 	ori	a0,s0,0xa120
1d009aa8:	0658400f 	jal	0x1d016018
1d009aac:	20a10436 	ori	a0,s0,0xa120
1d009ab0:	ca58400f 	jal	0x1d016328
1d009ab4:	20a10436 	ori	a0,s0,0xa120
1d009ab8:	01a0023c 	lui	v0,0xa001
1d009abc:	68354224 	addiu	v0,v0,13672
1d009ac0:	05000424 	li	a0,5
1d009ac4:	080044ac 	sw	a0,8(v0)
1d009ac8:	0c0040ac 	sw	zero,12(v0)
1d009acc:	1e000324 	li	v1,30
1d009ad0:	100043ac 	sw	v1,16(v0)
1d009ad4:	140040a0 	sb	zero,20(v0)
1d009ad8:	01a0033c 	lui	v1,0xa001
1d009adc:	803560ac 	sw	zero,13696(v1)
1d009ae0:	80356324 	addiu	v1,v1,13696
1d009ae4:	040060ac 	sw	zero,4(v1)
1d009ae8:	080060ac 	sw	zero,8(v1)
1d009aec:	0c0060ac 	sw	zero,12(v1)
1d009af0:	100060ac 	sw	zero,16(v1)
1d009af4:	140060ac 	sw	zero,20(v1)
1d009af8:	180060ac 	sw	zero,24(v1)
1d009afc:	340044ac 	sw	a0,52(v0)
1d009b00:	32000324 	li	v1,50
1d009b04:	380043ac 	sw	v1,56(v0)
1d009b08:	3c0040ac 	sw	zero,60(v0)
1d009b0c:	400040a0 	sb	zero,64(v0)
1d009b10:	01a0023c 	lui	v0,0xa001
1d009b14:	ac3540ac 	sw	zero,13740(v0)
1d009b18:	ac354224 	addiu	v0,v0,13740
1d009b1c:	040040ac 	sw	zero,4(v0)
1d009b20:	080040ac 	sw	zero,8(v0)
1d009b24:	0c0040ac 	sw	zero,12(v0)
1d009b28:	100040ac 	sw	zero,16(v0)
1d009b2c:	140040ac 	sw	zero,20(v0)
1d009b30:	180040ac 	sw	zero,24(v0)
1d009b34:	01a0023c 	lui	v0,0xa001
1d009b38:	e02e44ac 	sw	a0,12000(v0)
1d009b3c:	e02e4224 	addiu	v0,v0,12000
1d009b40:	c8000524 	li	a1,200
1d009b44:	040045ac 	sw	a1,4(v0)
1d009b48:	080040ac 	sw	zero,8(v0)
1d009b4c:	01000324 	li	v1,1
1d009b50:	0c0043a0 	sb	v1,12(v0)
1d009b54:	01a0023c 	lui	v0,0xa001
1d009b58:	f02e40ac 	sw	zero,12016(v0)
1d009b5c:	f02e4224 	addiu	v0,v0,12016
1d009b60:	040040ac 	sw	zero,4(v0)
1d009b64:	080040ac 	sw	zero,8(v0)
1d009b68:	0c0040ac 	sw	zero,12(v0)
1d009b6c:	100040ac 	sw	zero,16(v0)
1d009b70:	140040ac 	sw	zero,20(v0)
1d009b74:	180040ac 	sw	zero,24(v0)
1d009b78:	01a0023c 	lui	v0,0xa001
1d009b7c:	b42e44ac 	sw	a0,11956(v0)
1d009b80:	b42e4224 	addiu	v0,v0,11956
1d009b84:	040045ac 	sw	a1,4(v0)
1d009b88:	080040ac 	sw	zero,8(v0)
1d009b8c:	0c0043a0 	sb	v1,12(v0)
1d009b90:	01a0023c 	lui	v0,0xa001
1d009b94:	c42e40ac 	sw	zero,11972(v0)
1d009b98:	c42e4224 	addiu	v0,v0,11972
1d009b9c:	040040ac 	sw	zero,4(v0)
1d009ba0:	080040ac 	sw	zero,8(v0)
1d009ba4:	0c0040ac 	sw	zero,12(v0)
1d009ba8:	100040ac 	sw	zero,16(v0)
1d009bac:	140040ac 	sw	zero,20(v0)
1d009bb0:	180040ac 	sw	zero,24(v0)
1d009bb4:	1400bf8f 	lw	ra,20(sp)
1d009bb8:	1000b08f 	lw	s0,16(sp)
1d009bbc:	0800e003 	jr	ra
1d009bc0:	1800bd27 	addiu	sp,sp,24
1d009bc4:	98ffbd27 	addiu	sp,sp,-104
1d009bc8:	6400bfaf 	sw	ra,100(sp)
1d009bcc:	6000b0af 	sw	s0,96(sp)
1d009bd0:	01a0023c 	lui	v0,0xa001
1d009bd4:	b02f4290 	lbu	v0,12208(v0)
1d009bd8:	0a004010 	beqz	v0,0x1d009c04
1d009bdc:	01000324 	li	v1,1
1d009be0:	01a0033c 	lui	v1,0xa001
1d009be4:	a82f6224 	addiu	v0,v1,12200
1d009be8:	0400458c 	lw	a1,4(v0)
1d009bec:	ffffa524 	addiu	a1,a1,-1
1d009bf0:	a82f638c 	lw	v1,12200(v1)
1d009bf4:	23188300 	subu	v1,a0,v1
1d009bf8:	2118a300 	addu	v1,a1,v1
1d009bfc:	0327400b 	j	0x1d009c0c
1d009c00:	040043ac 	sw	v1,4(v0)
1d009c04:	01a0023c 	lui	v0,0xa001
1d009c08:	b02f43a0 	sb	v1,12208(v0)
1d009c0c:	01a0023c 	lui	v0,0xa001
1d009c10:	3150400f 	jal	0x1d0140c4
1d009c14:	a82f44ac 	sw	a0,12200(v0)
1d009c18:	b880828f 	lw	v0,-32584(gp)
1d009c1c:	01004224 	addiu	v0,v0,1
1d009c20:	b88082af 	sw	v0,-32584(gp)
1d009c24:	a880828f 	lw	v0,-32600(gp)
1d009c28:	01004224 	addiu	v0,v0,1
1d009c2c:	cccc033c 	lui	v1,0xcccc
1d009c30:	cdcc6334 	ori	v1,v1,0xcccd
1d009c34:	19004300 	multu	v0,v1
1d009c38:	10180000 	mfhi	v1
1d009c3c:	02190300 	srl	v1,v1,0x4
1d009c40:	80200300 	sll	a0,v1,0x2
1d009c44:	00190300 	sll	v1,v1,0x4
1d009c48:	21188300 	addu	v1,a0,v1
1d009c4c:	23104300 	subu	v0,v0,v1
1d009c50:	a88082af 	sw	v0,-32600(gp)
1d009c54:	2480828f 	lw	v0,-32732(gp)
1d009c58:	01004224 	addiu	v0,v0,1
1d009c5c:	eb51043c 	lui	a0,0x51eb
1d009c60:	1f858434 	ori	a0,a0,0x851f
1d009c64:	19004400 	multu	v0,a0
1d009c68:	10200000 	mfhi	a0
1d009c6c:	02210400 	srl	a0,a0,0x4
1d009c70:	40180400 	sll	v1,a0,0x1
1d009c74:	c0200400 	sll	a0,a0,0x3
1d009c78:	21186400 	addu	v1,v1,a0
1d009c7c:	80200300 	sll	a0,v1,0x2
1d009c80:	21186400 	addu	v1,v1,a0
1d009c84:	23104300 	subu	v0,v0,v1
1d009c88:	248082af 	sw	v0,-32732(gp)
1d009c8c:	2080838f 	lw	v1,-32736(gp)
1d009c90:	01006324 	addiu	v1,v1,1
1d009c94:	6210023c 	lui	v0,0x1062
1d009c98:	d34d4224 	addiu	v0,v0,19923
1d009c9c:	19006200 	multu	v1,v0
1d009ca0:	10100000 	mfhi	v0
1d009ca4:	02110200 	srl	v0,v0,0x4
1d009ca8:	80200200 	sll	a0,v0,0x2
1d009cac:	c0290200 	sll	a1,v0,0x7
1d009cb0:	2320a400 	subu	a0,a1,a0
1d009cb4:	21108200 	addu	v0,a0,v0
1d009cb8:	40100200 	sll	v0,v0,0x1
1d009cbc:	23186200 	subu	v1,v1,v0
1d009cc0:	a259400f 	jal	0x1d016688
1d009cc4:	208083af 	sw	v1,-32736(gp)
1d009cc8:	a65c400f 	jal	0x1d017298
1d009ccc:	00000000 	nop
1d009cd0:	04004010 	beqz	v0,0x1d009ce4
1d009cd4:	01a0023c 	lui	v0,0xa001
1d009cd8:	e8030224 	li	v0,1000
1d009cdc:	ac8082af 	sw	v0,-32596(gp)
1d009ce0:	01a0023c 	lui	v0,0xa001
1d009ce4:	2832438c 	lw	v1,12840(v0)
1d009ce8:	01000224 	li	v0,1
1d009cec:	2c006214 	bne	v1,v0,0x1d009da0
1d009cf0:	01a0023c 	lui	v0,0xa001
1d009cf4:	01a0023c 	lui	v0,0xa001
1d009cf8:	b831428c 	lw	v0,12728(v0)
1d009cfc:	0400422c 	sltiu	v0,v0,4
1d009d00:	27004014 	bnez	v0,0x1d009da0
1d009d04:	01a0023c 	lui	v0,0xa001
1d009d08:	01a0023c 	lui	v0,0xa001
1d009d0c:	d831428c 	lw	v0,12760(v0)
1d009d10:	0400422c 	sltiu	v0,v0,4
1d009d14:	c5064050 	beqzl	v0,0x1d00b82c
1d009d18:	01a0023c 	lui	v0,0xa001
1d009d1c:	6827400b 	j	0x1d009da0
1d009d20:	01a0023c 	lui	v0,0xa001
1d009d24:	b430428c 	lw	v0,12468(v0)
1d009d28:	0400422c 	sltiu	v0,v0,4
1d009d2c:	c5064050 	beqzl	v0,0x1d00b844
1d009d30:	01a0023c 	lui	v0,0xa001
1d009d34:	6827400b 	j	0x1d009da0
1d009d38:	01a0023c 	lui	v0,0xa001
1d009d3c:	6e354290 	lbu	v0,13678(v0)
1d009d40:	16004014 	bnez	v0,0x1d009d9c
1d009d44:	01a0023c 	lui	v0,0xa001
1d009d48:	6f354290 	lbu	v0,13679(v0)
1d009d4c:	14004014 	bnez	v0,0x1d009da0
1d009d50:	01a0023c 	lui	v0,0xa001
1d009d54:	a25c400f 	jal	0x1d017288
1d009d58:	00000000 	nop
1d009d5c:	05004010 	beqz	v0,0x1d009d74
1d009d60:	00000000 	nop
1d009d64:	ad5c400f 	jal	0x1d0172b4
1d009d68:	00000000 	nop
1d009d6c:	0c004010 	beqz	v0,0x1d009da0
1d009d70:	01a0023c 	lui	v0,0xa001
1d009d74:	5361400f 	jal	0x1d01854c
1d009d78:	00000000 	nop
1d009d7c:	07004014 	bnez	v0,0x1d009d9c
1d009d80:	01a0023c 	lui	v0,0xa001
1d009d84:	ac31438c 	lw	v1,12716(v0)
1d009d88:	c000023c 	lui	v0,0xc0
1d009d8c:	24186200 	and	v1,v1,v0
1d009d90:	8000023c 	lui	v0,0x80
1d009d94:	b1066210 	beq	v1,v0,0x1d00b85c
1d009d98:	e8030224 	li	v0,1000
1d009d9c:	01a0023c 	lui	v0,0xa001
1d009da0:	c02f428c 	lw	v0,12224(v0)
1d009da4:	05004050 	beqzl	v0,0x1d009dbc
1d009da8:	01a0023c 	lui	v0,0xa001
1d009dac:	ffff4224 	addiu	v0,v0,-1
1d009db0:	01a0033c 	lui	v1,0xa001
1d009db4:	7027400b 	j	0x1d009dc0
1d009db8:	c02f62ac 	sw	v0,12224(v1)
1d009dbc:	c42f40ac 	sw	zero,12228(v0)
1d009dc0:	01a0023c 	lui	v0,0xa001
1d009dc4:	d02f428c 	lw	v0,12240(v0)
1d009dc8:	05004050 	beqzl	v0,0x1d009de0
1d009dcc:	01a0023c 	lui	v0,0xa001
1d009dd0:	ffff4224 	addiu	v0,v0,-1
1d009dd4:	01a0033c 	lui	v1,0xa001
1d009dd8:	7927400b 	j	0x1d009de4
1d009ddc:	d02f62ac 	sw	v0,12240(v1)
1d009de0:	d42f40ac 	sw	zero,12244(v0)
1d009de4:	01a0023c 	lui	v0,0xa001
1d009de8:	e02f428c 	lw	v0,12256(v0)
1d009dec:	05004050 	beqzl	v0,0x1d009e04
1d009df0:	01a0023c 	lui	v0,0xa001
1d009df4:	ffff4224 	addiu	v0,v0,-1
1d009df8:	01a0033c 	lui	v1,0xa001
1d009dfc:	8227400b 	j	0x1d009e08
1d009e00:	e02f62ac 	sw	v0,12256(v1)
1d009e04:	e42f40ac 	sw	zero,12260(v0)
1d009e08:	01a0023c 	lui	v0,0xa001
1d009e0c:	f02f428c 	lw	v0,12272(v0)
1d009e10:	05004050 	beqzl	v0,0x1d009e28
1d009e14:	01a0023c 	lui	v0,0xa001
1d009e18:	ffff4224 	addiu	v0,v0,-1
1d009e1c:	01a0033c 	lui	v1,0xa001
1d009e20:	8b27400b 	j	0x1d009e2c
1d009e24:	f02f62ac 	sw	v0,12272(v1)
1d009e28:	f42f40ac 	sw	zero,12276(v0)
1d009e2c:	01a0023c 	lui	v0,0xa001
1d009e30:	0030428c 	lw	v0,12288(v0)
1d009e34:	05004050 	beqzl	v0,0x1d009e4c
1d009e38:	01a0023c 	lui	v0,0xa001
1d009e3c:	ffff4224 	addiu	v0,v0,-1
1d009e40:	01a0033c 	lui	v1,0xa001
1d009e44:	9427400b 	j	0x1d009e50
1d009e48:	003062ac 	sw	v0,12288(v1)
1d009e4c:	043040ac 	sw	zero,12292(v0)
1d009e50:	01a0023c 	lui	v0,0xa001
1d009e54:	1030428c 	lw	v0,12304(v0)
1d009e58:	05004050 	beqzl	v0,0x1d009e70
1d009e5c:	01a0023c 	lui	v0,0xa001
1d009e60:	ffff4224 	addiu	v0,v0,-1
1d009e64:	01a0033c 	lui	v1,0xa001
1d009e68:	9d27400b 	j	0x1d009e74
1d009e6c:	103062ac 	sw	v0,12304(v1)
1d009e70:	143040ac 	sw	zero,12308(v0)
1d009e74:	01a0023c 	lui	v0,0xa001
1d009e78:	2030428c 	lw	v0,12320(v0)
1d009e7c:	05004050 	beqzl	v0,0x1d009e94
1d009e80:	01a0023c 	lui	v0,0xa001
1d009e84:	ffff4224 	addiu	v0,v0,-1
1d009e88:	01a0033c 	lui	v1,0xa001
1d009e8c:	a627400b 	j	0x1d009e98
1d009e90:	203062ac 	sw	v0,12320(v1)
1d009e94:	243040ac 	sw	zero,12324(v0)
1d009e98:	01a0023c 	lui	v0,0xa001
1d009e9c:	3030428c 	lw	v0,12336(v0)
1d009ea0:	05004050 	beqzl	v0,0x1d009eb8
1d009ea4:	01a0023c 	lui	v0,0xa001
1d009ea8:	ffff4224 	addiu	v0,v0,-1
1d009eac:	01a0033c 	lui	v1,0xa001
1d009eb0:	af27400b 	j	0x1d009ebc
1d009eb4:	303062ac 	sw	v0,12336(v1)
1d009eb8:	343040ac 	sw	zero,12340(v0)
1d009ebc:	01a0023c 	lui	v0,0xa001
1d009ec0:	4030428c 	lw	v0,12352(v0)
1d009ec4:	05004050 	beqzl	v0,0x1d009edc
1d009ec8:	01a0023c 	lui	v0,0xa001
1d009ecc:	ffff4224 	addiu	v0,v0,-1
1d009ed0:	01a0033c 	lui	v1,0xa001
1d009ed4:	b827400b 	j	0x1d009ee0
1d009ed8:	403062ac 	sw	v0,12352(v1)
1d009edc:	443040ac 	sw	zero,12356(v0)
1d009ee0:	01a0023c 	lui	v0,0xa001
1d009ee4:	5030428c 	lw	v0,12368(v0)
1d009ee8:	05004050 	beqzl	v0,0x1d009f00
1d009eec:	01a0023c 	lui	v0,0xa001
1d009ef0:	ffff4224 	addiu	v0,v0,-1
1d009ef4:	01a0033c 	lui	v1,0xa001
1d009ef8:	c127400b 	j	0x1d009f04
1d009efc:	503062ac 	sw	v0,12368(v1)
1d009f00:	543040ac 	sw	zero,12372(v0)
1d009f04:	01a0023c 	lui	v0,0xa001
1d009f08:	6030428c 	lw	v0,12384(v0)
1d009f0c:	05004050 	beqzl	v0,0x1d009f24
1d009f10:	01a0023c 	lui	v0,0xa001
1d009f14:	ffff4224 	addiu	v0,v0,-1
1d009f18:	01a0033c 	lui	v1,0xa001
1d009f1c:	ca27400b 	j	0x1d009f28
1d009f20:	603062ac 	sw	v0,12384(v1)
1d009f24:	643040ac 	sw	zero,12388(v0)
1d009f28:	01a0023c 	lui	v0,0xa001
1d009f2c:	7030428c 	lw	v0,12400(v0)
1d009f30:	05004050 	beqzl	v0,0x1d009f48
1d009f34:	01a0023c 	lui	v0,0xa001
1d009f38:	ffff4224 	addiu	v0,v0,-1
1d009f3c:	01a0033c 	lui	v1,0xa001
1d009f40:	d327400b 	j	0x1d009f4c
1d009f44:	703062ac 	sw	v0,12400(v1)
1d009f48:	743040ac 	sw	zero,12404(v0)
1d009f4c:	01a0023c 	lui	v0,0xa001
1d009f50:	8030428c 	lw	v0,12416(v0)
1d009f54:	05004050 	beqzl	v0,0x1d009f6c
1d009f58:	01a0023c 	lui	v0,0xa001
1d009f5c:	ffff4224 	addiu	v0,v0,-1
1d009f60:	01a0033c 	lui	v1,0xa001
1d009f64:	dc27400b 	j	0x1d009f70
1d009f68:	803062ac 	sw	v0,12416(v1)
1d009f6c:	843040ac 	sw	zero,12420(v0)
1d009f70:	01a0023c 	lui	v0,0xa001
1d009f74:	9030428c 	lw	v0,12432(v0)
1d009f78:	05004050 	beqzl	v0,0x1d009f90
1d009f7c:	01a0023c 	lui	v0,0xa001
1d009f80:	ffff4224 	addiu	v0,v0,-1
1d009f84:	01a0033c 	lui	v1,0xa001
1d009f88:	e527400b 	j	0x1d009f94
1d009f8c:	903062ac 	sw	v0,12432(v1)
1d009f90:	943040ac 	sw	zero,12436(v0)
1d009f94:	01a0023c 	lui	v0,0xa001
1d009f98:	a030428c 	lw	v0,12448(v0)
1d009f9c:	05004050 	beqzl	v0,0x1d009fb4
1d009fa0:	01a0023c 	lui	v0,0xa001
1d009fa4:	ffff4224 	addiu	v0,v0,-1
1d009fa8:	01a0033c 	lui	v1,0xa001
1d009fac:	ee27400b 	j	0x1d009fb8
1d009fb0:	a03062ac 	sw	v0,12448(v1)
1d009fb4:	a43040ac 	sw	zero,12452(v0)
1d009fb8:	01a0023c 	lui	v0,0xa001
1d009fbc:	b030428c 	lw	v0,12464(v0)
1d009fc0:	05004050 	beqzl	v0,0x1d009fd8
1d009fc4:	01a0023c 	lui	v0,0xa001
1d009fc8:	ffff4224 	addiu	v0,v0,-1
1d009fcc:	01a0033c 	lui	v1,0xa001
1d009fd0:	f727400b 	j	0x1d009fdc
1d009fd4:	b03062ac 	sw	v0,12464(v1)
1d009fd8:	b43040ac 	sw	zero,12468(v0)
1d009fdc:	01a0023c 	lui	v0,0xa001
1d009fe0:	c030428c 	lw	v0,12480(v0)
1d009fe4:	05004050 	beqzl	v0,0x1d009ffc
1d009fe8:	01a0023c 	lui	v0,0xa001
1d009fec:	ffff4224 	addiu	v0,v0,-1
1d009ff0:	01a0033c 	lui	v1,0xa001
1d009ff4:	0028400b 	j	0x1d00a000
1d009ff8:	c03062ac 	sw	v0,12480(v1)
1d009ffc:	c43040ac 	sw	zero,12484(v0)
1d00a000:	01a0023c 	lui	v0,0xa001
1d00a004:	d030428c 	lw	v0,12496(v0)
1d00a008:	05004050 	beqzl	v0,0x1d00a020
1d00a00c:	01a0023c 	lui	v0,0xa001
1d00a010:	ffff4224 	addiu	v0,v0,-1
1d00a014:	01a0033c 	lui	v1,0xa001
1d00a018:	0928400b 	j	0x1d00a024
1d00a01c:	d03062ac 	sw	v0,12496(v1)
1d00a020:	d43040ac 	sw	zero,12500(v0)
1d00a024:	01a0023c 	lui	v0,0xa001
1d00a028:	e030428c 	lw	v0,12512(v0)
1d00a02c:	05004050 	beqzl	v0,0x1d00a044
1d00a030:	01a0023c 	lui	v0,0xa001
1d00a034:	ffff4224 	addiu	v0,v0,-1
1d00a038:	01a0033c 	lui	v1,0xa001
1d00a03c:	1228400b 	j	0x1d00a048
1d00a040:	e03062ac 	sw	v0,12512(v1)
1d00a044:	e43040ac 	sw	zero,12516(v0)
1d00a048:	01a0023c 	lui	v0,0xa001
1d00a04c:	f030428c 	lw	v0,12528(v0)
1d00a050:	05004050 	beqzl	v0,0x1d00a068
1d00a054:	01a0023c 	lui	v0,0xa001
1d00a058:	ffff4224 	addiu	v0,v0,-1
1d00a05c:	01a0033c 	lui	v1,0xa001
1d00a060:	1b28400b 	j	0x1d00a06c
1d00a064:	f03062ac 	sw	v0,12528(v1)
1d00a068:	f43040ac 	sw	zero,12532(v0)
1d00a06c:	01a0023c 	lui	v0,0xa001
1d00a070:	0031428c 	lw	v0,12544(v0)
1d00a074:	05004050 	beqzl	v0,0x1d00a08c
1d00a078:	01a0023c 	lui	v0,0xa001
1d00a07c:	ffff4224 	addiu	v0,v0,-1
1d00a080:	01a0033c 	lui	v1,0xa001
1d00a084:	2428400b 	j	0x1d00a090
1d00a088:	003162ac 	sw	v0,12544(v1)
1d00a08c:	043140ac 	sw	zero,12548(v0)
1d00a090:	01a0023c 	lui	v0,0xa001
1d00a094:	1031428c 	lw	v0,12560(v0)
1d00a098:	05004050 	beqzl	v0,0x1d00a0b0
1d00a09c:	01a0023c 	lui	v0,0xa001
1d00a0a0:	ffff4224 	addiu	v0,v0,-1
1d00a0a4:	01a0033c 	lui	v1,0xa001
1d00a0a8:	2d28400b 	j	0x1d00a0b4
1d00a0ac:	103162ac 	sw	v0,12560(v1)
1d00a0b0:	143140ac 	sw	zero,12564(v0)
1d00a0b4:	01a0023c 	lui	v0,0xa001
1d00a0b8:	2031428c 	lw	v0,12576(v0)
1d00a0bc:	05004050 	beqzl	v0,0x1d00a0d4
1d00a0c0:	01a0023c 	lui	v0,0xa001
1d00a0c4:	ffff4224 	addiu	v0,v0,-1
1d00a0c8:	01a0033c 	lui	v1,0xa001
1d00a0cc:	3628400b 	j	0x1d00a0d8
1d00a0d0:	203162ac 	sw	v0,12576(v1)
1d00a0d4:	243140ac 	sw	zero,12580(v0)
1d00a0d8:	01a0023c 	lui	v0,0xa001
1d00a0dc:	3031428c 	lw	v0,12592(v0)
1d00a0e0:	05004050 	beqzl	v0,0x1d00a0f8
1d00a0e4:	01a0023c 	lui	v0,0xa001
1d00a0e8:	ffff4224 	addiu	v0,v0,-1
1d00a0ec:	01a0033c 	lui	v1,0xa001
1d00a0f0:	3f28400b 	j	0x1d00a0fc
1d00a0f4:	303162ac 	sw	v0,12592(v1)
1d00a0f8:	343140ac 	sw	zero,12596(v0)
1d00a0fc:	01a0023c 	lui	v0,0xa001
1d00a100:	4031428c 	lw	v0,12608(v0)
1d00a104:	05004050 	beqzl	v0,0x1d00a11c
1d00a108:	01a0023c 	lui	v0,0xa001
1d00a10c:	ffff4224 	addiu	v0,v0,-1
1d00a110:	01a0033c 	lui	v1,0xa001
1d00a114:	4828400b 	j	0x1d00a120
1d00a118:	403162ac 	sw	v0,12608(v1)
1d00a11c:	443140ac 	sw	zero,12612(v0)
1d00a120:	01a0023c 	lui	v0,0xa001
1d00a124:	5031428c 	lw	v0,12624(v0)
1d00a128:	05004050 	beqzl	v0,0x1d00a140
1d00a12c:	01a0023c 	lui	v0,0xa001
1d00a130:	ffff4224 	addiu	v0,v0,-1
1d00a134:	01a0033c 	lui	v1,0xa001
1d00a138:	5128400b 	j	0x1d00a144
1d00a13c:	503162ac 	sw	v0,12624(v1)
1d00a140:	543140ac 	sw	zero,12628(v0)
1d00a144:	01a0023c 	lui	v0,0xa001
1d00a148:	6031428c 	lw	v0,12640(v0)
1d00a14c:	05004050 	beqzl	v0,0x1d00a164
1d00a150:	01a0023c 	lui	v0,0xa001
1d00a154:	ffff4224 	addiu	v0,v0,-1
1d00a158:	01a0033c 	lui	v1,0xa001
1d00a15c:	5a28400b 	j	0x1d00a168
1d00a160:	603162ac 	sw	v0,12640(v1)
1d00a164:	643140ac 	sw	zero,12644(v0)
1d00a168:	01a0023c 	lui	v0,0xa001
1d00a16c:	7031428c 	lw	v0,12656(v0)
1d00a170:	05004050 	beqzl	v0,0x1d00a188
1d00a174:	01a0023c 	lui	v0,0xa001
1d00a178:	ffff4224 	addiu	v0,v0,-1
1d00a17c:	01a0033c 	lui	v1,0xa001
1d00a180:	6328400b 	j	0x1d00a18c
1d00a184:	703162ac 	sw	v0,12656(v1)
1d00a188:	743140ac 	sw	zero,12660(v0)
1d00a18c:	01a0023c 	lui	v0,0xa001
1d00a190:	8031428c 	lw	v0,12672(v0)
1d00a194:	05004050 	beqzl	v0,0x1d00a1ac
1d00a198:	01a0023c 	lui	v0,0xa001
1d00a19c:	ffff4224 	addiu	v0,v0,-1
1d00a1a0:	01a0033c 	lui	v1,0xa001
1d00a1a4:	6c28400b 	j	0x1d00a1b0
1d00a1a8:	803162ac 	sw	v0,12672(v1)
1d00a1ac:	843140ac 	sw	zero,12676(v0)
1d00a1b0:	01a0023c 	lui	v0,0xa001
1d00a1b4:	9031428c 	lw	v0,12688(v0)
1d00a1b8:	05004050 	beqzl	v0,0x1d00a1d0
1d00a1bc:	01a0023c 	lui	v0,0xa001
1d00a1c0:	ffff4224 	addiu	v0,v0,-1
1d00a1c4:	01a0033c 	lui	v1,0xa001
1d00a1c8:	7528400b 	j	0x1d00a1d4
1d00a1cc:	903162ac 	sw	v0,12688(v1)
1d00a1d0:	943140ac 	sw	zero,12692(v0)
1d00a1d4:	01a0023c 	lui	v0,0xa001
1d00a1d8:	a031428c 	lw	v0,12704(v0)
1d00a1dc:	05004050 	beqzl	v0,0x1d00a1f4
1d00a1e0:	01a0023c 	lui	v0,0xa001
1d00a1e4:	ffff4224 	addiu	v0,v0,-1
1d00a1e8:	01a0033c 	lui	v1,0xa001
1d00a1ec:	7e28400b 	j	0x1d00a1f8
1d00a1f0:	a03162ac 	sw	v0,12704(v1)
1d00a1f4:	a43140ac 	sw	zero,12708(v0)
1d00a1f8:	01a0023c 	lui	v0,0xa001
1d00a1fc:	b431428c 	lw	v0,12724(v0)
1d00a200:	05004050 	beqzl	v0,0x1d00a218
1d00a204:	01a0023c 	lui	v0,0xa001
1d00a208:	ffff4224 	addiu	v0,v0,-1
1d00a20c:	01a0033c 	lui	v1,0xa001
1d00a210:	8728400b 	j	0x1d00a21c
1d00a214:	b43162ac 	sw	v0,12724(v1)
1d00a218:	b83140ac 	sw	zero,12728(v0)
1d00a21c:	01a0023c 	lui	v0,0xa001
1d00a220:	c431428c 	lw	v0,12740(v0)
1d00a224:	05004050 	beqzl	v0,0x1d00a23c
1d00a228:	01a0023c 	lui	v0,0xa001
1d00a22c:	ffff4224 	addiu	v0,v0,-1
1d00a230:	01a0033c 	lui	v1,0xa001
1d00a234:	9028400b 	j	0x1d00a240
1d00a238:	c43162ac 	sw	v0,12740(v1)
1d00a23c:	c83140ac 	sw	zero,12744(v0)
1d00a240:	01a0023c 	lui	v0,0xa001
1d00a244:	d431428c 	lw	v0,12756(v0)
1d00a248:	05004050 	beqzl	v0,0x1d00a260
1d00a24c:	01a0023c 	lui	v0,0xa001
1d00a250:	ffff4224 	addiu	v0,v0,-1
1d00a254:	01a0033c 	lui	v1,0xa001
1d00a258:	9928400b 	j	0x1d00a264
1d00a25c:	d43162ac 	sw	v0,12756(v1)
1d00a260:	d83140ac 	sw	zero,12760(v0)
1d00a264:	01a0023c 	lui	v0,0xa001
1d00a268:	e831428c 	lw	v0,12776(v0)
1d00a26c:	05004050 	beqzl	v0,0x1d00a284
1d00a270:	01a0023c 	lui	v0,0xa001
1d00a274:	ffff4224 	addiu	v0,v0,-1
1d00a278:	01a0033c 	lui	v1,0xa001
1d00a27c:	a228400b 	j	0x1d00a288
1d00a280:	e83162ac 	sw	v0,12776(v1)
1d00a284:	ec3140ac 	sw	zero,12780(v0)
1d00a288:	01a0023c 	lui	v0,0xa001
1d00a28c:	f831428c 	lw	v0,12792(v0)
1d00a290:	05004050 	beqzl	v0,0x1d00a2a8
1d00a294:	01a0023c 	lui	v0,0xa001
1d00a298:	ffff4224 	addiu	v0,v0,-1
1d00a29c:	01a0033c 	lui	v1,0xa001
1d00a2a0:	ab28400b 	j	0x1d00a2ac
1d00a2a4:	f83162ac 	sw	v0,12792(v1)
1d00a2a8:	fc3140ac 	sw	zero,12796(v0)
1d00a2ac:	01a0023c 	lui	v0,0xa001
1d00a2b0:	0832428c 	lw	v0,12808(v0)
1d00a2b4:	05004050 	beqzl	v0,0x1d00a2cc
1d00a2b8:	01a0023c 	lui	v0,0xa001
1d00a2bc:	ffff4224 	addiu	v0,v0,-1
1d00a2c0:	01a0033c 	lui	v1,0xa001
1d00a2c4:	b428400b 	j	0x1d00a2d0
1d00a2c8:	083262ac 	sw	v0,12808(v1)
1d00a2cc:	0c3240ac 	sw	zero,12812(v0)
1d00a2d0:	01a0023c 	lui	v0,0xa001
1d00a2d4:	1832428c 	lw	v0,12824(v0)
1d00a2d8:	05004050 	beqzl	v0,0x1d00a2f0
1d00a2dc:	01a0023c 	lui	v0,0xa001
1d00a2e0:	ffff4224 	addiu	v0,v0,-1
1d00a2e4:	01a0033c 	lui	v1,0xa001
1d00a2e8:	bd28400b 	j	0x1d00a2f4
1d00a2ec:	183262ac 	sw	v0,12824(v1)
1d00a2f0:	1c3240ac 	sw	zero,12828(v0)
1d00a2f4:	01a0023c 	lui	v0,0xa001
1d00a2f8:	2832428c 	lw	v0,12840(v0)
1d00a2fc:	05004050 	beqzl	v0,0x1d00a314
1d00a300:	01a0023c 	lui	v0,0xa001
1d00a304:	ffff4224 	addiu	v0,v0,-1
1d00a308:	01a0033c 	lui	v1,0xa001
1d00a30c:	c628400b 	j	0x1d00a318
1d00a310:	283262ac 	sw	v0,12840(v1)
1d00a314:	2c3240ac 	sw	zero,12844(v0)
1d00a318:	01a0023c 	lui	v0,0xa001
1d00a31c:	3832428c 	lw	v0,12856(v0)
1d00a320:	05004050 	beqzl	v0,0x1d00a338
1d00a324:	01a0023c 	lui	v0,0xa001
1d00a328:	ffff4224 	addiu	v0,v0,-1
1d00a32c:	01a0033c 	lui	v1,0xa001
1d00a330:	cf28400b 	j	0x1d00a33c
1d00a334:	383262ac 	sw	v0,12856(v1)
1d00a338:	3c3240ac 	sw	zero,12860(v0)
1d00a33c:	01a0023c 	lui	v0,0xa001
1d00a340:	4832428c 	lw	v0,12872(v0)
1d00a344:	05004050 	beqzl	v0,0x1d00a35c
1d00a348:	01a0023c 	lui	v0,0xa001
1d00a34c:	ffff4224 	addiu	v0,v0,-1
1d00a350:	01a0033c 	lui	v1,0xa001
1d00a354:	d828400b 	j	0x1d00a360
1d00a358:	483262ac 	sw	v0,12872(v1)
1d00a35c:	4c3240ac 	sw	zero,12876(v0)
1d00a360:	01a0023c 	lui	v0,0xa001
1d00a364:	5832428c 	lw	v0,12888(v0)
1d00a368:	05004050 	beqzl	v0,0x1d00a380
1d00a36c:	01a0023c 	lui	v0,0xa001
1d00a370:	ffff4224 	addiu	v0,v0,-1
1d00a374:	01a0033c 	lui	v1,0xa001
1d00a378:	e128400b 	j	0x1d00a384
1d00a37c:	583262ac 	sw	v0,12888(v1)
1d00a380:	5c3240ac 	sw	zero,12892(v0)
1d00a384:	01a0023c 	lui	v0,0xa001
1d00a388:	6832428c 	lw	v0,12904(v0)
1d00a38c:	05004050 	beqzl	v0,0x1d00a3a4
1d00a390:	01a0023c 	lui	v0,0xa001
1d00a394:	ffff4224 	addiu	v0,v0,-1
1d00a398:	01a0033c 	lui	v1,0xa001
1d00a39c:	ea28400b 	j	0x1d00a3a8
1d00a3a0:	683262ac 	sw	v0,12904(v1)
1d00a3a4:	6c3240ac 	sw	zero,12908(v0)
1d00a3a8:	01a0023c 	lui	v0,0xa001
1d00a3ac:	7832428c 	lw	v0,12920(v0)
1d00a3b0:	05004050 	beqzl	v0,0x1d00a3c8
1d00a3b4:	01a0023c 	lui	v0,0xa001
1d00a3b8:	ffff4224 	addiu	v0,v0,-1
1d00a3bc:	01a0033c 	lui	v1,0xa001
1d00a3c0:	f328400b 	j	0x1d00a3cc
1d00a3c4:	783262ac 	sw	v0,12920(v1)
1d00a3c8:	7c3240ac 	sw	zero,12924(v0)
1d00a3cc:	01a0023c 	lui	v0,0xa001
1d00a3d0:	8832428c 	lw	v0,12936(v0)
1d00a3d4:	05004050 	beqzl	v0,0x1d00a3ec
1d00a3d8:	01a0023c 	lui	v0,0xa001
1d00a3dc:	ffff4224 	addiu	v0,v0,-1
1d00a3e0:	01a0033c 	lui	v1,0xa001
1d00a3e4:	fc28400b 	j	0x1d00a3f0
1d00a3e8:	883262ac 	sw	v0,12936(v1)
1d00a3ec:	8c3240ac 	sw	zero,12940(v0)
1d00a3f0:	01a0023c 	lui	v0,0xa001
1d00a3f4:	9c32428c 	lw	v0,12956(v0)
1d00a3f8:	05004050 	beqzl	v0,0x1d00a410
1d00a3fc:	01a0023c 	lui	v0,0xa001
1d00a400:	ffff4224 	addiu	v0,v0,-1
1d00a404:	01a0033c 	lui	v1,0xa001
1d00a408:	0529400b 	j	0x1d00a414
1d00a40c:	9c3262ac 	sw	v0,12956(v1)
1d00a410:	a03240ac 	sw	zero,12960(v0)
1d00a414:	01a0023c 	lui	v0,0xa001
1d00a418:	ac32428c 	lw	v0,12972(v0)
1d00a41c:	05004050 	beqzl	v0,0x1d00a434
1d00a420:	01a0023c 	lui	v0,0xa001
1d00a424:	ffff4224 	addiu	v0,v0,-1
1d00a428:	01a0033c 	lui	v1,0xa001
1d00a42c:	0e29400b 	j	0x1d00a438
1d00a430:	ac3262ac 	sw	v0,12972(v1)
1d00a434:	b03240ac 	sw	zero,12976(v0)
1d00a438:	01a0023c 	lui	v0,0xa001
1d00a43c:	bc32428c 	lw	v0,12988(v0)
1d00a440:	05004050 	beqzl	v0,0x1d00a458
1d00a444:	01a0023c 	lui	v0,0xa001
1d00a448:	ffff4224 	addiu	v0,v0,-1
1d00a44c:	01a0033c 	lui	v1,0xa001
1d00a450:	1729400b 	j	0x1d00a45c
1d00a454:	bc3262ac 	sw	v0,12988(v1)
1d00a458:	c03240ac 	sw	zero,12992(v0)
1d00a45c:	01a0023c 	lui	v0,0xa001
1d00a460:	cc32428c 	lw	v0,13004(v0)
1d00a464:	05004050 	beqzl	v0,0x1d00a47c
1d00a468:	01a0023c 	lui	v0,0xa001
1d00a46c:	ffff4224 	addiu	v0,v0,-1
1d00a470:	01a0033c 	lui	v1,0xa001
1d00a474:	2029400b 	j	0x1d00a480
1d00a478:	cc3262ac 	sw	v0,13004(v1)
1d00a47c:	d03240ac 	sw	zero,13008(v0)
1d00a480:	01a0023c 	lui	v0,0xa001
1d00a484:	dc32428c 	lw	v0,13020(v0)
1d00a488:	05004050 	beqzl	v0,0x1d00a4a0
1d00a48c:	01a0023c 	lui	v0,0xa001
1d00a490:	ffff4224 	addiu	v0,v0,-1
1d00a494:	01a0033c 	lui	v1,0xa001
1d00a498:	2929400b 	j	0x1d00a4a4
1d00a49c:	dc3262ac 	sw	v0,13020(v1)
1d00a4a0:	e03240ac 	sw	zero,13024(v0)
1d00a4a4:	01a0023c 	lui	v0,0xa001
1d00a4a8:	ec32428c 	lw	v0,13036(v0)
1d00a4ac:	05004050 	beqzl	v0,0x1d00a4c4
1d00a4b0:	01a0023c 	lui	v0,0xa001
1d00a4b4:	ffff4224 	addiu	v0,v0,-1
1d00a4b8:	01a0033c 	lui	v1,0xa001
1d00a4bc:	3229400b 	j	0x1d00a4c8
1d00a4c0:	ec3262ac 	sw	v0,13036(v1)
1d00a4c4:	f03240ac 	sw	zero,13040(v0)
1d00a4c8:	01a0023c 	lui	v0,0xa001
1d00a4cc:	fc32428c 	lw	v0,13052(v0)
1d00a4d0:	05004050 	beqzl	v0,0x1d00a4e8
1d00a4d4:	01a0023c 	lui	v0,0xa001
1d00a4d8:	ffff4224 	addiu	v0,v0,-1
1d00a4dc:	01a0033c 	lui	v1,0xa001
1d00a4e0:	3b29400b 	j	0x1d00a4ec
1d00a4e4:	fc3262ac 	sw	v0,13052(v1)
1d00a4e8:	003340ac 	sw	zero,13056(v0)
1d00a4ec:	01a0023c 	lui	v0,0xa001
1d00a4f0:	0c33428c 	lw	v0,13068(v0)
1d00a4f4:	05004050 	beqzl	v0,0x1d00a50c
1d00a4f8:	01a0023c 	lui	v0,0xa001
1d00a4fc:	ffff4224 	addiu	v0,v0,-1
1d00a500:	01a0033c 	lui	v1,0xa001
1d00a504:	4429400b 	j	0x1d00a510
1d00a508:	0c3362ac 	sw	v0,13068(v1)
1d00a50c:	103340ac 	sw	zero,13072(v0)
1d00a510:	01a0023c 	lui	v0,0xa001
1d00a514:	1c33428c 	lw	v0,13084(v0)
1d00a518:	05004050 	beqzl	v0,0x1d00a530
1d00a51c:	01a0023c 	lui	v0,0xa001
1d00a520:	ffff4224 	addiu	v0,v0,-1
1d00a524:	01a0033c 	lui	v1,0xa001
1d00a528:	4d29400b 	j	0x1d00a534
1d00a52c:	1c3362ac 	sw	v0,13084(v1)
1d00a530:	203340ac 	sw	zero,13088(v0)
1d00a534:	01a0023c 	lui	v0,0xa001
1d00a538:	2c33428c 	lw	v0,13100(v0)
1d00a53c:	05004050 	beqzl	v0,0x1d00a554
1d00a540:	01a0023c 	lui	v0,0xa001
1d00a544:	ffff4224 	addiu	v0,v0,-1
1d00a548:	01a0033c 	lui	v1,0xa001
1d00a54c:	5629400b 	j	0x1d00a558
1d00a550:	2c3362ac 	sw	v0,13100(v1)
1d00a554:	303340ac 	sw	zero,13104(v0)
1d00a558:	01a0023c 	lui	v0,0xa001
1d00a55c:	3c33428c 	lw	v0,13116(v0)
1d00a560:	05004050 	beqzl	v0,0x1d00a578
1d00a564:	01a0023c 	lui	v0,0xa001
1d00a568:	ffff4224 	addiu	v0,v0,-1
1d00a56c:	01a0033c 	lui	v1,0xa001
1d00a570:	5f29400b 	j	0x1d00a57c
1d00a574:	3c3362ac 	sw	v0,13116(v1)
1d00a578:	403340ac 	sw	zero,13120(v0)
1d00a57c:	01a0023c 	lui	v0,0xa001
1d00a580:	4c33428c 	lw	v0,13132(v0)
1d00a584:	05004050 	beqzl	v0,0x1d00a59c
1d00a588:	01a0023c 	lui	v0,0xa001
1d00a58c:	ffff4224 	addiu	v0,v0,-1
1d00a590:	01a0033c 	lui	v1,0xa001
1d00a594:	6829400b 	j	0x1d00a5a0
1d00a598:	4c3362ac 	sw	v0,13132(v1)
1d00a59c:	503340ac 	sw	zero,13136(v0)
1d00a5a0:	01a0023c 	lui	v0,0xa001
1d00a5a4:	5c33428c 	lw	v0,13148(v0)
1d00a5a8:	05004050 	beqzl	v0,0x1d00a5c0
1d00a5ac:	01a0023c 	lui	v0,0xa001
1d00a5b0:	ffff4224 	addiu	v0,v0,-1
1d00a5b4:	01a0033c 	lui	v1,0xa001
1d00a5b8:	7129400b 	j	0x1d00a5c4
1d00a5bc:	5c3362ac 	sw	v0,13148(v1)
1d00a5c0:	603340ac 	sw	zero,13152(v0)
1d00a5c4:	01a0023c 	lui	v0,0xa001
1d00a5c8:	6c33428c 	lw	v0,13164(v0)
1d00a5cc:	05004050 	beqzl	v0,0x1d00a5e4
1d00a5d0:	01a0023c 	lui	v0,0xa001
1d00a5d4:	ffff4224 	addiu	v0,v0,-1
1d00a5d8:	01a0033c 	lui	v1,0xa001
1d00a5dc:	7a29400b 	j	0x1d00a5e8
1d00a5e0:	6c3362ac 	sw	v0,13164(v1)
1d00a5e4:	703340ac 	sw	zero,13168(v0)
1d00a5e8:	01a0023c 	lui	v0,0xa001
1d00a5ec:	7c33428c 	lw	v0,13180(v0)
1d00a5f0:	05004050 	beqzl	v0,0x1d00a608
1d00a5f4:	01a0023c 	lui	v0,0xa001
1d00a5f8:	ffff4224 	addiu	v0,v0,-1
1d00a5fc:	01a0033c 	lui	v1,0xa001
1d00a600:	8329400b 	j	0x1d00a60c
1d00a604:	7c3362ac 	sw	v0,13180(v1)
1d00a608:	803340ac 	sw	zero,13184(v0)
1d00a60c:	01a0023c 	lui	v0,0xa001
1d00a610:	a62f4290 	lbu	v0,12198(v0)
1d00a614:	46004014 	bnez	v0,0x1d00a730
1d00a618:	01a0023c 	lui	v0,0xa001
1d00a61c:	9032428c 	lw	v0,12944(v0)
1d00a620:	6500422c 	sltiu	v0,v0,101
1d00a624:	43004014 	bnez	v0,0x1d00a734
1d00a628:	01a0023c 	lui	v0,0xa001
1d00a62c:	4000a0af 	sw	zero,64(sp)
1d00a630:	01a0043c 	lui	a0,0xa001
1d00a634:	182f8424 	addiu	a0,a0,12056
1d00a638:	21280000 	move	a1,zero
1d00a63c:	4000a627 	addiu	a2,sp,64
1d00a640:	665e400f 	jal	0x1d017998
1d00a644:	c4090724 	li	a3,2500
1d00a648:	3a004010 	beqz	v0,0x1d00a734
1d00a64c:	01a0023c 	lui	v0,0xa001
1d00a650:	11000224 	li	v0,17
1d00a654:	4000a38f 	lw	v1,64(sp)
1d00a658:	23006214 	bne	v1,v0,0x1d00a6e8
1d00a65c:	09000224 	li	v0,9
1d00a660:	21100000 	move	v0,zero
1d00a664:	01a0053c 	lui	a1,0xa001
1d00a668:	182fa524 	addiu	a1,a1,12056
1d00a66c:	11000624 	li	a2,17
1d00a670:	2118a200 	addu	v1,a1,v0
1d00a674:	7c006390 	lbu	v1,124(v1)
1d00a678:	d0ff6424 	addiu	a0,v1,-48
1d00a67c:	ff008430 	andi	a0,a0,0xff
1d00a680:	0a00842c 	sltiu	a0,a0,10
1d00a684:	06008014 	bnez	a0,0x1d00a6a0
1d00a688:	01004224 	addiu	v0,v0,1
1d00a68c:	bfff6324 	addiu	v1,v1,-65
1d00a690:	ff006330 	andi	v1,v1,0xff
1d00a694:	1a00632c 	sltiu	v1,v1,26
1d00a698:	13006050 	beqzl	v1,0x1d00a6e8
1d00a69c:	09000224 	li	v0,9
1d00a6a0:	f4ff4614 	bne	v0,a2,0x1d00a674
1d00a6a4:	2118a200 	addu	v1,a1,v0
1d00a6a8:	01a0033c 	lui	v1,0xa001
1d00a6ac:	942f6324 	addiu	v1,v1,12180
1d00a6b0:	21106200 	addu	v0,v1,v0
1d00a6b4:	00004290 	lbu	v0,0(v0)
1d00a6b8:	0b004054 	bnezl	v0,0x1d00a6e8
1d00a6bc:	09000224 	li	v0,9
1d00a6c0:	01000324 	li	v1,1
1d00a6c4:	01a0023c 	lui	v0,0xa001
1d00a6c8:	a62f43a0 	sb	v1,12198(v0)
1d00a6cc:	01a0043c 	lui	a0,0xa001
1d00a6d0:	824a400f 	jal	0x1d012a08
1d00a6d4:	942f8424 	addiu	a0,a0,12180
1d00a6d8:	9c4a400f 	jal	0x1d012a70
1d00a6dc:	00000000 	nop
1d00a6e0:	cd29400b 	j	0x1d00a734
1d00a6e4:	01a0023c 	lui	v0,0xa001
1d00a6e8:	1000a2af 	sw	v0,16(sp)
1d00a6ec:	02000224 	li	v0,2
1d00a6f0:	1400a2af 	sw	v0,20(sp)
1d00a6f4:	1800a0af 	sw	zero,24(sp)
1d00a6f8:	1c00a0af 	sw	zero,28(sp)
1d00a6fc:	2000a0af 	sw	zero,32(sp)
1d00a700:	01a0023c 	lui	v0,0xa001
1d00a704:	942f4224 	addiu	v0,v0,12180
1d00a708:	2400a2af 	sw	v0,36(sp)
1d00a70c:	11000224 	li	v0,17
1d00a710:	2800a2af 	sw	v0,40(sp)
1d00a714:	01a0043c 	lui	a0,0xa001
1d00a718:	182f8424 	addiu	a0,a0,12056
1d00a71c:	019d053c 	lui	a1,0x9d01
1d00a720:	e485a524 	addiu	a1,a1,-31260
1d00a724:	e0070624 	li	a2,2016
1d00a728:	b65c400f 	jal	0x1d0172d8
1d00a72c:	21380000 	move	a3,zero
1d00a730:	01a0023c 	lui	v0,0xa001
1d00a734:	6835428c 	lw	v0,13672(v0)
1d00a738:	1d004010 	beqz	v0,0x1d00a7b0
1d00a73c:	01a0043c 	lui	a0,0xa001
1d00a740:	e349400f 	jal	0x1d01278c
1d00a744:	00000000 	nop
1d00a748:	19004010 	beqz	v0,0x1d00a7b0
1d00a74c:	01a0043c 	lui	a0,0xa001
1d00a750:	01a0023c 	lui	v0,0xa001
1d00a754:	6835438c 	lw	v1,13672(v0)
1d00a758:	ffff6324 	addiu	v1,v1,-1
1d00a75c:	683543ac 	sw	v1,13672(v0)
1d00a760:	01a0023c 	lui	v0,0xa001
1d00a764:	0431428c 	lw	v0,12548(v0)
1d00a768:	0400422c 	sltiu	v0,v0,4
1d00a76c:	11004014 	bnez	v0,0x1d00a7b4
1d00a770:	70358424 	addiu	a0,a0,13680
1d00a774:	01a0023c 	lui	v0,0xa001
1d00a778:	b430428c 	lw	v0,12468(v0)
1d00a77c:	0400422c 	sltiu	v0,v0,4
1d00a780:	38044010 	beqz	v0,0x1d00b864
1d00a784:	01a0023c 	lui	v0,0xa001
1d00a788:	ec29400b 	j	0x1d00a7b0
1d00a78c:	01a0043c 	lui	a0,0xa001
1d00a790:	d831428c 	lw	v0,12760(v0)
1d00a794:	0400422c 	sltiu	v0,v0,4
1d00a798:	38044010 	beqz	v0,0x1d00b87c
1d00a79c:	01a0023c 	lui	v0,0xa001
1d00a7a0:	ec29400b 	j	0x1d00a7b0
1d00a7a4:	01a0043c 	lui	a0,0xa001
1d00a7a8:	683540ac 	sw	zero,13672(v0)
1d00a7ac:	01a0043c 	lui	a0,0xa001
1d00a7b0:	70358424 	addiu	a0,a0,13680
1d00a7b4:	b880858f 	lw	a1,-32584(gp)
1d00a7b8:	9824400f 	jal	0x1d009260
1d00a7bc:	21300000 	move	a2,zero
1d00a7c0:	09004010 	beqz	v0,0x1d00a7e8
1d00a7c4:	21804000 	move	s0,v0
1d00a7c8:	1d5c400f 	jal	0x1d017074
1d00a7cc:	08004424 	addiu	a0,v0,8
1d00a7d0:	204d400f 	jal	0x1d013480
1d00a7d4:	21200002 	move	a0,s0
1d00a7d8:	8220400f 	jal	0x1d008208
1d00a7dc:	21200002 	move	a0,s0
1d00a7e0:	012a400b 	j	0x1d00a804
1d00a7e4:	01a0023c 	lui	v0,0xa001
1d00a7e8:	01a0023c 	lui	v0,0xa001
1d00a7ec:	80354290 	lbu	v0,13696(v0)
1d00a7f0:	04004014 	bnez	v0,0x1d00a804
1d00a7f4:	01a0023c 	lui	v0,0xa001
1d00a7f8:	f124400f 	jal	0x1d0093c4
1d00a7fc:	00000000 	nop
1d00a800:	01a0023c 	lui	v0,0xa001
1d00a804:	b831428c 	lw	v0,12728(v0)
1d00a808:	0400422c 	sltiu	v0,v0,4
1d00a80c:	4e004014 	bnez	v0,0x1d00a948
1d00a810:	01a0023c 	lui	v0,0xa001
1d00a814:	01a0023c 	lui	v0,0xa001
1d00a818:	d831428c 	lw	v0,12760(v0)
1d00a81c:	0400422c 	sltiu	v0,v0,4
1d00a820:	1b044050 	beqzl	v0,0x1d00b890
1d00a824:	01a0023c 	lui	v0,0xa001
1d00a828:	522a400b 	j	0x1d00a948
1d00a82c:	01a0023c 	lui	v0,0xa001
1d00a830:	b430428c 	lw	v0,12468(v0)
1d00a834:	0400422c 	sltiu	v0,v0,4
1d00a838:	1b044050 	beqzl	v0,0x1d00b8a8
1d00a83c:	01a0023c 	lui	v0,0xa001
1d00a840:	522a400b 	j	0x1d00a948
1d00a844:	01a0023c 	lui	v0,0xa001
1d00a848:	2032428c 	lw	v0,12832(v0)
1d00a84c:	0004427c 	ext	v0,v0,0x10,0x1
1d00a850:	3c004010 	beqz	v0,0x1d00a944
1d00a854:	01a0023c 	lui	v0,0xa001
1d00a858:	6e354290 	lbu	v0,13678(v0)
1d00a85c:	39004014 	bnez	v0,0x1d00a944
1d00a860:	01a0023c 	lui	v0,0xa001
1d00a864:	6f354290 	lbu	v0,13679(v0)
1d00a868:	37004014 	bnez	v0,0x1d00a948
1d00a86c:	01a0023c 	lui	v0,0xa001
1d00a870:	a25c400f 	jal	0x1d017288
1d00a874:	00000000 	nop
1d00a878:	05004010 	beqz	v0,0x1d00a890
1d00a87c:	00000000 	nop
1d00a880:	ad5c400f 	jal	0x1d0172b4
1d00a884:	00000000 	nop
1d00a888:	2f004010 	beqz	v0,0x1d00a948
1d00a88c:	01a0023c 	lui	v0,0xa001
1d00a890:	5361400f 	jal	0x1d01854c
1d00a894:	00000000 	nop
1d00a898:	2a004014 	bnez	v0,0x1d00a944
1d00a89c:	01a0023c 	lui	v0,0xa001
1d00a8a0:	ac31438c 	lw	v1,12716(v0)
1d00a8a4:	c000023c 	lui	v0,0xc0
1d00a8a8:	24186200 	and	v1,v1,v0
1d00a8ac:	8000023c 	lui	v0,0x80
1d00a8b0:	25006254 	bnel	v1,v0,0x1d00a948
1d00a8b4:	01a0023c 	lui	v0,0xa001
1d00a8b8:	2f2e400b 	j	0x1d00b8bc
1d00a8bc:	01a0023c 	lui	v0,0xa001
1d00a8c0:	cc35438c 	lw	v1,13772(v0)
1d00a8c4:	80100300 	sll	v0,v1,0x2
1d00a8c8:	00190300 	sll	v1,v1,0x4
1d00a8cc:	21104300 	addu	v0,v0,v1
1d00a8d0:	80200200 	sll	a0,v0,0x2
1d00a8d4:	fd53400f 	jal	0x1d014ff4
1d00a8d8:	21804400 	addu	s0,v0,a0
1d00a8dc:	07004010 	beqz	v0,0x1d00a8fc
1d00a8e0:	01a0023c 	lui	v0,0xa001
1d00a8e4:	01a0023c 	lui	v0,0xa001
1d00a8e8:	c835438c 	lw	v1,13768(v0)
1d00a8ec:	f9036014 	bnez	v1,0x1d00b8d4
1d00a8f0:	01a0023c 	lui	v0,0xa001
1d00a8f4:	512a400b 	j	0x1d00a944
1d00a8f8:	d03550ac 	sw	s0,13776(v0)
1d00a8fc:	68354224 	addiu	v0,v0,13672
1d00a900:	6800458c 	lw	a1,104(v0)
1d00a904:	23200502 	subu	a0,s0,a1
1d00a908:	6000438c 	lw	v1,96(v0)
1d00a90c:	04006010 	beqz	v1,0x1d00a920
1d00a910:	f4010224 	li	v0,500
1d00a914:	f5016628 	slti	a2,v1,501
1d00a918:	f4010224 	li	v0,500
1d00a91c:	0b106600 	movn	v0,v1,a2
1d00a920:	2a184400 	slt	v1,v0,a0
1d00a924:	05006054 	bnezl	v1,0x1d00a93c
1d00a928:	2110a200 	addu	v0,a1,v0
1d00a92c:	23100200 	negu	v0,v0
1d00a930:	2a184400 	slt	v1,v0,a0
1d00a934:	0b108300 	movn	v0,a0,v1
1d00a938:	2110a200 	addu	v0,a1,v0
1d00a93c:	01a0033c 	lui	v1,0xa001
1d00a940:	d03562ac 	sw	v0,13776(v1)
1d00a944:	01a0023c 	lui	v0,0xa001
1d00a948:	4035428c 	lw	v0,13632(v0)
1d00a94c:	1e004010 	beqz	v0,0x1d00a9c8
1d00a950:	01a0023c 	lui	v0,0xa001
1d00a954:	e349400f 	jal	0x1d01278c
1d00a958:	00000000 	nop
1d00a95c:	1a004010 	beqz	v0,0x1d00a9c8
1d00a960:	01a0023c 	lui	v0,0xa001
1d00a964:	01a0023c 	lui	v0,0xa001
1d00a968:	4035438c 	lw	v1,13632(v0)
1d00a96c:	ffff6324 	addiu	v1,v1,-1
1d00a970:	403543ac 	sw	v1,13632(v0)
1d00a974:	01a0023c 	lui	v0,0xa001
1d00a978:	c430428c 	lw	v0,12484(v0)
1d00a97c:	0300422c 	sltiu	v0,v0,3
1d00a980:	11004014 	bnez	v0,0x1d00a9c8
1d00a984:	01a0023c 	lui	v0,0xa001
1d00a988:	01a0023c 	lui	v0,0xa001
1d00a98c:	d430428c 	lw	v0,12500(v0)
1d00a990:	0300422c 	sltiu	v0,v0,3
1d00a994:	0c004014 	bnez	v0,0x1d00a9c8
1d00a998:	01a0023c 	lui	v0,0xa001
1d00a99c:	01a0023c 	lui	v0,0xa001
1d00a9a0:	e430428c 	lw	v0,12516(v0)
1d00a9a4:	0300422c 	sltiu	v0,v0,3
1d00a9a8:	07004014 	bnez	v0,0x1d00a9c8
1d00a9ac:	01a0023c 	lui	v0,0xa001
1d00a9b0:	01a0023c 	lui	v0,0xa001
1d00a9b4:	6431428c 	lw	v0,12644(v0)
1d00a9b8:	0300422c 	sltiu	v0,v0,3
1d00a9bc:	c8034010 	beqz	v0,0x1d00b8e0
1d00a9c0:	01a0023c 	lui	v0,0xa001
1d00a9c4:	01a0023c 	lui	v0,0xa001
1d00a9c8:	4435428c 	lw	v0,13636(v0)
1d00a9cc:	05004050 	beqzl	v0,0x1d00a9e4
1d00a9d0:	01a0023c 	lui	v0,0xa001
1d00a9d4:	ffff4224 	addiu	v0,v0,-1
1d00a9d8:	01a0033c 	lui	v1,0xa001
1d00a9dc:	443562ac 	sw	v0,13636(v1)
1d00a9e0:	01a0023c 	lui	v0,0xa001
1d00a9e4:	4c35428c 	lw	v0,13644(v0)
1d00a9e8:	04004014 	bnez	v0,0x1d00a9fc
1d00a9ec:	01a0033c 	lui	v1,0xa001
1d00a9f0:	01a0033c 	lui	v1,0xa001
1d00a9f4:	603560ac 	sw	zero,13664(v1)
1d00a9f8:	01a0033c 	lui	v1,0xa001
1d00a9fc:	6435638c 	lw	v1,13668(v1)
1d00aa00:	0200632c 	sltiu	v1,v1,2
1d00aa04:	b8036014 	bnez	v1,0x1d00b8e8
1d00aa08:	01a0033c 	lui	v1,0xa001
1d00aa0c:	4835648c 	lw	a0,13640(v1)
1d00aa10:	01000324 	li	v1,1
1d00aa14:	bb038354 	bnel	a0,v1,0x1d00b904
1d00aa18:	01a0023c 	lui	v0,0xa001
1d00aa1c:	01a0033c 	lui	v1,0xa001
1d00aa20:	0200422c 	sltiu	v0,v0,2
1d00aa24:	94004014 	bnez	v0,0x1d00ac78
1d00aa28:	603560ac 	sw	zero,13664(v1)
1d00aa2c:	01a0023c 	lui	v0,0xa001
1d00aa30:	40354224 	addiu	v0,v0,13632
1d00aa34:	0c0040ac 	sw	zero,12(v0)
1d00aa38:	04000324 	li	v1,4
1d00aa3c:	402e400b 	j	0x1d00b900
1d00aa40:	180043ac 	sw	v1,24(v0)
1d00aa44:	01a0023c 	lui	v0,0xa001
1d00aa48:	603543ac 	sw	v1,13664(v0)
1d00aa4c:	01a0023c 	lui	v0,0xa001
1d00aa50:	5c35428c 	lw	v0,13660(v0)
1d00aa54:	05004050 	beqzl	v0,0x1d00aa6c
1d00aa58:	01a0023c 	lui	v0,0xa001
1d00aa5c:	ffff4224 	addiu	v0,v0,-1
1d00aa60:	01a0033c 	lui	v1,0xa001
1d00aa64:	222b400b 	j	0x1d00ac88
1d00aa68:	5c3562ac 	sw	v0,13660(v1)
1d00aa6c:	4c35448c 	lw	a0,13644(v0)
1d00aa70:	85008010 	beqz	a0,0x1d00ac88
1d00aa74:	31000324 	li	v1,49
1d00aa78:	01a0023c 	lui	v0,0xa001
1d00aa7c:	5c3543ac 	sw	v1,13660(v0)
1d00aa80:	01a0023c 	lui	v0,0xa001
1d00aa84:	c430428c 	lw	v0,12484(v0)
1d00aa88:	0300422c 	sltiu	v0,v0,3
1d00aa8c:	7f004014 	bnez	v0,0x1d00ac8c
1d00aa90:	01a0023c 	lui	v0,0xa001
1d00aa94:	01a0023c 	lui	v0,0xa001
1d00aa98:	d430428c 	lw	v0,12500(v0)
1d00aa9c:	0300422c 	sltiu	v0,v0,3
1d00aaa0:	7a004014 	bnez	v0,0x1d00ac8c
1d00aaa4:	01a0023c 	lui	v0,0xa001
1d00aaa8:	01a0023c 	lui	v0,0xa001
1d00aaac:	e430428c 	lw	v0,12516(v0)
1d00aab0:	0300422c 	sltiu	v0,v0,3
1d00aab4:	75004014 	bnez	v0,0x1d00ac8c
1d00aab8:	01a0023c 	lui	v0,0xa001
1d00aabc:	01a0023c 	lui	v0,0xa001
1d00aac0:	6431428c 	lw	v0,12644(v0)
1d00aac4:	0300422c 	sltiu	v0,v0,3
1d00aac8:	93034010 	beqz	v0,0x1d00b918
1d00aacc:	01a0053c 	lui	a1,0xa001
1d00aad0:	232b400b 	j	0x1d00ac8c
1d00aad4:	01a0023c 	lui	v0,0xa001
1d00aad8:	5000a48f 	lw	a0,80(sp)
1d00aadc:	01000524 	li	a1,1
1d00aae0:	c4fea47c 	ins	a0,a1,0x1b,0x5
1d00aae4:	db2a400b 	j	0x1d00ab6c
1d00aae8:	5000a4af 	sw	a0,80(sp)
1d00aaec:	5000a48f 	lw	a0,80(sp)
1d00aaf0:	02000524 	li	a1,2
1d00aaf4:	c4fea47c 	ins	a0,a1,0x1b,0x5
1d00aaf8:	db2a400b 	j	0x1d00ab6c
1d00aafc:	5000a4af 	sw	a0,80(sp)
1d00ab00:	5000a48f 	lw	a0,80(sp)
1d00ab04:	04000524 	li	a1,4
1d00ab08:	c4fea47c 	ins	a0,a1,0x1b,0x5
1d00ab0c:	db2a400b 	j	0x1d00ab6c
1d00ab10:	5000a4af 	sw	a0,80(sp)
1d00ab14:	5000a48f 	lw	a0,80(sp)
1d00ab18:	08000524 	li	a1,8
1d00ab1c:	c4fea47c 	ins	a0,a1,0x1b,0x5
1d00ab20:	5000a4af 	sw	a0,80(sp)
1d00ab24:	01a0043c 	lui	a0,0xa001
1d00ab28:	4835858c 	lw	a1,13640(a0)
1d00ab2c:	05000424 	li	a0,5
1d00ab30:	0f00a454 	bnel	a1,a0,0x1d00ab70
1d00ab34:	5300a493 	lbu	a0,83(sp)
1d00ab38:	5000a58f 	lw	a1,80(sp)
1d00ab3c:	0004043c 	lui	a0,0x400
1d00ab40:	2620a400 	xor	a0,a1,a0
1d00ab44:	db2a400b 	j	0x1d00ab6c
1d00ab48:	5000a4af 	sw	a0,80(sp)
1d00ab4c:	5000a48f 	lw	a0,80(sp)
1d00ab50:	10000524 	li	a1,16
1d00ab54:	c4fea47c 	ins	a0,a1,0x1b,0x5
1d00ab58:	db2a400b 	j	0x1d00ab6c
1d00ab5c:	5000a4af 	sw	a0,80(sp)
1d00ab60:	5000a48f 	lw	a0,80(sp)
1d00ab64:	c4fe047c 	ins	a0,zero,0x1b,0x5
1d00ab68:	5000a4af 	sw	a0,80(sp)
1d00ab6c:	5300a493 	lbu	a0,83(sp)
1d00ab70:	5500a593 	lbu	a1,85(sp)
1d00ab74:	02410500 	srl	t0,a1,0x4
1d00ab78:	03008730 	andi	a3,a0,0x3
1d00ab7c:	21380701 	addu	a3,t0,a3
1d00ab80:	ff00e738 	xori	a3,a3,0xff
1d00ab84:	0700a830 	andi	t0,a1,0x7
1d00ab88:	2338e800 	subu	a3,a3,t0
1d00ab8c:	01006830 	andi	t0,v1,0x1
1d00ab90:	2338e800 	subu	a3,a3,t0
1d00ab94:	c2400400 	srl	t0,a0,0x3
1d00ab98:	2338e800 	subu	a3,a3,t0
1d00ab9c:	01004830 	andi	t0,v0,0x1
1d00aba0:	2338e800 	subu	a3,a3,t0
1d00aba4:	82410600 	srl	t0,a2,0x6
1d00aba8:	2338e800 	subu	a3,a3,t0
1d00abac:	c000a57c 	ext	a1,a1,0x3,0x1
1d00abb0:	2328e500 	subu	a1,a3,a1
1d00abb4:	8001477c 	ext	a3,v0,0x6,0x1
1d00abb8:	2328a700 	subu	a1,a1,a3
1d00abbc:	203c037c 	seb	a3,v1
1d00abc0:	c3390700 	sra	a3,a3,0x7
1d00abc4:	2128a700 	addu	a1,a1,a3
1d00abc8:	203c027c 	seb	a3,v0
1d00abcc:	c3390700 	sra	a3,a3,0x7
1d00abd0:	2128a700 	addu	a1,a1,a3
1d00abd4:	0001477c 	ext	a3,v0,0x4,0x1
1d00abd8:	2328a700 	subu	a1,a1,a3
1d00abdc:	4001477c 	ext	a3,v0,0x5,0x1
1d00abe0:	2328a700 	subu	a1,a1,a3
1d00abe4:	c000477c 	ext	a3,v0,0x3,0x1
1d00abe8:	2328a700 	subu	a1,a1,a3
1d00abec:	8000847c 	ext	a0,a0,0x2,0x1
1d00abf0:	2328a400 	subu	a1,a1,a0
1d00abf4:	8001677c 	ext	a3,v1,0x6,0x1
1d00abf8:	2328a700 	subu	a1,a1,a3
1d00abfc:	4001677c 	ext	a3,v1,0x5,0x1
1d00ac00:	2328a700 	subu	a1,a1,a3
1d00ac04:	4000447c 	ext	a0,v0,0x1,0x1
1d00ac08:	2328a400 	subu	a1,a1,a0
1d00ac0c:	0001647c 	ext	a0,v1,0x4,0x1
1d00ac10:	2328a400 	subu	a1,a1,a0
1d00ac14:	c000647c 	ext	a0,v1,0x3,0x1
1d00ac18:	2328a400 	subu	a1,a1,a0
1d00ac1c:	8000447c 	ext	a0,v0,0x2,0x1
1d00ac20:	2328a400 	subu	a1,a1,a0
1d00ac24:	ff00a530 	andi	a1,a1,0xff
1d00ac28:	08000424 	li	a0,8
1d00ac2c:	4400a4af 	sw	a0,68(sp)
1d00ac30:	5a000424 	li	a0,90
1d00ac34:	4000a4af 	sw	a0,64(sp)
1d00ac38:	5000a3a3 	sb	v1,80(sp)
1d00ac3c:	5100a2a3 	sb	v0,81(sp)
1d00ac40:	8000647c 	ext	a0,v1,0x2,0x1
1d00ac44:	2310a400 	subu	v0,a1,a0
1d00ac48:	4000637c 	ext	v1,v1,0x1,0x1
1d00ac4c:	23184300 	subu	v1,v0,v1
1d00ac50:	5400a3a3 	sb	v1,84(sp)
1d00ac54:	5600a6a3 	sb	a2,86(sp)
1d00ac58:	5000a28f 	lw	v0,80(sp)
1d00ac5c:	4800a2af 	sw	v0,72(sp)
1d00ac60:	5400a28f 	lw	v0,84(sp)
1d00ac64:	4c00a2af 	sw	v0,76(sp)
1d00ac68:	684e400f 	jal	0x1d0139a0
1d00ac6c:	4000a427 	addiu	a0,sp,64
1d00ac70:	232b400b 	j	0x1d00ac8c
1d00ac74:	01a0023c 	lui	v0,0xa001
1d00ac78:	01a0023c 	lui	v0,0xa001
1d00ac7c:	40354224 	addiu	v0,v0,13632
1d00ac80:	0c0040ac 	sw	zero,12(v0)
1d00ac84:	1c0040ac 	sw	zero,28(v0)
1d00ac88:	01a0023c 	lui	v0,0xa001
1d00ac8c:	102f428c 	lw	v0,12048(v0)
1d00ac90:	28004010 	beqz	v0,0x1d00ad34
1d00ac94:	01a0033c 	lui	v1,0xa001
1d00ac98:	0c2f6324 	addiu	v1,v1,12044
1d00ac9c:	ffff4224 	addiu	v0,v0,-1
1d00aca0:	040062ac 	sw	v0,4(v1)
1d00aca4:	0800628c 	lw	v0,8(v1)
1d00aca8:	05004050 	beqzl	v0,0x1d00acc0
1d00acac:	01a0023c 	lui	v0,0xa001
1d00acb0:	ffff4224 	addiu	v0,v0,-1
1d00acb4:	01a0033c 	lui	v1,0xa001
1d00acb8:	4d2b400b 	j	0x1d00ad34
1d00acbc:	142f62ac 	sw	v0,12052(v1)
1d00acc0:	4431428c 	lw	v0,12612(v0)
1d00acc4:	0300422c 	sltiu	v0,v0,3
1d00acc8:	1a004014 	bnez	v0,0x1d00ad34
1d00accc:	01a0023c 	lui	v0,0xa001
1d00acd0:	3831428c 	lw	v0,12600(v0)
1d00acd4:	30004230 	andi	v0,v0,0x30
1d00acd8:	16004014 	bnez	v0,0x1d00ad34
1d00acdc:	01a0023c 	lui	v0,0xa001
1d00ace0:	0c2f428c 	lw	v0,12044(v0)
1d00ace4:	14004050 	beqzl	v0,0x1d00ad38
1d00ace8:	01a0023c 	lui	v0,0xa001
1d00acec:	33000424 	li	a0,51
1d00acf0:	01a0033c 	lui	v1,0xa001
1d00acf4:	142f64ac 	sw	a0,12052(v1)
1d00acf8:	01a0043c 	lui	a0,0xa001
1d00acfc:	b42f8424 	addiu	a0,a0,12212
1d00ad00:	8401838c 	lw	v1,388(a0)
1d00ad04:	8801848c 	lw	a0,392(a0)
1d00ad08:	5400a4af 	sw	a0,84(sp)
1d00ad0c:	08000524 	li	a1,8
1d00ad10:	4400a5af 	sw	a1,68(sp)
1d00ad14:	83000524 	li	a1,131
1d00ad18:	4000a5af 	sw	a1,64(sp)
1d00ad1c:	0429437c 	ins	v1,v0,0x4,0x2
1d00ad20:	5000a3af 	sw	v1,80(sp)
1d00ad24:	4800a3af 	sw	v1,72(sp)
1d00ad28:	4c00a4af 	sw	a0,76(sp)
1d00ad2c:	684e400f 	jal	0x1d0139a0
1d00ad30:	4000a427 	addiu	a0,sp,64
1d00ad34:	01a0023c 	lui	v0,0xa001
1d00ad38:	2832428c 	lw	v0,12840(v0)
1d00ad3c:	08004010 	beqz	v0,0x1d00ad60
1d00ad40:	ac80828f 	lw	v0,-32596(gp)
1d00ad44:	01a0023c 	lui	v0,0xa001
1d00ad48:	2032428c 	lw	v0,12832(v0)
1d00ad4c:	0005427c 	ext	v0,v0,0x14,0x1
1d00ad50:	03004010 	beqz	v0,0x1d00ad60
1d00ad54:	ac80828f 	lw	v0,-32596(gp)
1d00ad58:	7c2b400b 	j	0x1d00adf0
1d00ad5c:	ac8080af 	sw	zero,-32596(gp)
1d00ad60:	23004010 	beqz	v0,0x1d00adf0
1d00ad64:	ffff4224 	addiu	v0,v0,-1
1d00ad68:	14004014 	bnez	v0,0x1d00adbc
1d00ad6c:	ac8082af 	sw	v0,-32596(gp)
1d00ad70:	01a0023c 	lui	v0,0xa001
1d00ad74:	1033428c 	lw	v0,13072(v0)
1d00ad78:	0300422c 	sltiu	v0,v0,3
1d00ad7c:	10004010 	beqz	v0,0x1d00adc0
1d00ad80:	b080828f 	lw	v0,-32592(gp)
1d00ad84:	01a0023c 	lui	v0,0xa001
1d00ad88:	9032428c 	lw	v0,12944(v0)
1d00ad8c:	6500422c 	sltiu	v0,v0,101
1d00ad90:	08004014 	bnez	v0,0x1d00adb4
1d00ad94:	08000224 	li	v0,8
1d00ad98:	4400a2af 	sw	v0,68(sp)
1d00ad9c:	aa030224 	li	v0,938
1d00ada0:	4000a2af 	sw	v0,64(sp)
1d00ada4:	4c00a0af 	sw	zero,76(sp)
1d00ada8:	4800a0af 	sw	zero,72(sp)
1d00adac:	c44d400f 	jal	0x1d013710
1d00adb0:	4000a427 	addiu	a0,sp,64
1d00adb4:	7c2b400b 	j	0x1d00adf0
1d00adb8:	b08080af 	sw	zero,-32592(gp)
1d00adbc:	b080828f 	lw	v0,-32592(gp)
1d00adc0:	04004050 	beqzl	v0,0x1d00add4
1d00adc4:	01a0023c 	lui	v0,0xa001
1d00adc8:	ffff4224 	addiu	v0,v0,-1
1d00adcc:	7c2b400b 	j	0x1d00adf0
1d00add0:	b08082af 	sw	v0,-32592(gp)
1d00add4:	1033428c 	lw	v0,13072(v0)
1d00add8:	0300422c 	sltiu	v0,v0,3
1d00addc:	12000324 	li	v1,18
1d00ade0:	c7000424 	li	a0,199
1d00ade4:	0b188200 	movn	v1,a0,v0
1d00ade8:	8021400f 	jal	0x1d008600
1d00adec:	b08083af 	sw	v1,-32592(gp)
1d00adf0:	b480828f 	lw	v0,-32588(gp)
1d00adf4:	03004010 	beqz	v0,0x1d00ae04
1d00adf8:	ffff4224 	addiu	v0,v0,-1
1d00adfc:	842b400b 	j	0x1d00ae10
1d00ae00:	b48082af 	sw	v0,-32588(gp)
1d00ae04:	33000224 	li	v0,51
1d00ae08:	a721400f 	jal	0x1d00869c
1d00ae0c:	b48082af 	sw	v0,-32588(gp)
1d00ae10:	01a0023c 	lui	v0,0xa001
1d00ae14:	802d428c 	lw	v0,11648(v0)
1d00ae18:	1000432c 	sltiu	v1,v0,16
1d00ae1c:	1e026010 	beqz	v1,0x1d00b698
1d00ae20:	01a0033c 	lui	v1,0xa001
1d00ae24:	a62f6b90 	lbu	t3,12198(v1)
1d00ae28:	01a0033c 	lui	v1,0xa001
1d00ae2c:	b431638c 	lw	v1,12724(v1)
1d00ae30:	06006010 	beqz	v1,0x1d00ae4c
1d00ae34:	21500000 	move	t2,zero
1d00ae38:	01a0043c 	lui	a0,0xa001
1d00ae3c:	ac318a8c 	lw	t2,12716(a0)
1d00ae40:	c000043c 	lui	a0,0xc0
1d00ae44:	24504401 	and	t2,t2,a0
1d00ae48:	01004a2d 	sltiu	t2,t2,1
1d00ae4c:	01a0043c 	lui	a0,0xa001
1d00ae50:	6031848c 	lw	a0,12640(a0)
1d00ae54:	05008010 	beqz	a0,0x1d00ae6c
1d00ae58:	21480000 	move	t1,zero
1d00ae5c:	01a0043c 	lui	a0,0xa001
1d00ae60:	5831898c 	lw	t1,12632(a0)
1d00ae64:	001e2931 	andi	t1,t1,0x1e00
1d00ae68:	0100292d 	sltiu	t1,t1,1
1d00ae6c:	01a0043c 	lui	a0,0xa001
1d00ae70:	5030848c 	lw	a0,12368(a0)
1d00ae74:	08008010 	beqz	a0,0x1d00ae98
1d00ae78:	21400000 	move	t0,zero
1d00ae7c:	01a0043c 	lui	a0,0xa001
1d00ae80:	4830888c 	lw	t0,12360(a0)
1d00ae84:	c000043c 	lui	a0,0xc0
1d00ae88:	ffff8534 	ori	a1,a0,0xffff
1d00ae8c:	24400501 	and	t0,t0,a1
1d00ae90:	23400401 	subu	t0,t0,a0
1d00ae94:	0100082d 	sltiu	t0,t0,1
1d00ae98:	01a0043c 	lui	a0,0xa001
1d00ae9c:	c02f848c 	lw	a0,12224(a0)
1d00aea0:	07008010 	beqz	a0,0x1d00aec0
1d00aea4:	21380000 	move	a3,zero
1d00aea8:	01a0043c 	lui	a0,0xa001
1d00aeac:	bc2f848c 	lw	a0,12220(a0)
1d00aeb0:	f800073c 	lui	a3,0xf8
1d00aeb4:	00ffe734 	ori	a3,a3,0xff00
1d00aeb8:	24388700 	and	a3,a0,a3
1d00aebc:	0100e72c 	sltiu	a3,a3,1
1d00aec0:	01a0043c 	lui	a0,0xa001
1d00aec4:	a030848c 	lw	a0,12448(a0)
1d00aec8:	06008010 	beqz	a0,0x1d00aee4
1d00aecc:	21300000 	move	a2,zero
1d00aed0:	01a0043c 	lui	a0,0xa001
1d00aed4:	9830868c 	lw	a2,12440(a0)
1d00aed8:	c3ffc630 	andi	a2,a2,0xffc3
1d00aedc:	c000c638 	xori	a2,a2,0xc0
1d00aee0:	0100c62c 	sltiu	a2,a2,1
1d00aee4:	01a0043c 	lui	a0,0xa001
1d00aee8:	d431848c 	lw	a0,12756(a0)
1d00aeec:	08008010 	beqz	a0,0x1d00af10
1d00aef0:	21280000 	move	a1,zero
1d00aef4:	01a0043c 	lui	a0,0xa001
1d00aef8:	d435858c 	lw	a1,13780(a0)
1d00aefc:	01a0043c 	lui	a0,0xa001
1d00af00:	082e848c 	lw	a0,11784(a0)
1d00af04:	2328a400 	subu	a1,a1,a0
1d00af08:	0200a524 	addiu	a1,a1,2
1d00af0c:	0500a52c 	sltiu	a1,a1,5
1d00af10:	9e026010 	beqz	v1,0x1d00b98c
1d00af14:	01a0033c 	lui	v1,0xa001
1d00af18:	01a0033c 	lui	v1,0xa001
1d00af1c:	ac316390 	lbu	v1,12716(v1)
1d00af20:	8fff6324 	addiu	v1,v1,-113
1d00af24:	1f00632c 	sltiu	v1,v1,31
1d00af28:	98026010 	beqz	v1,0x1d00b98c
1d00af2c:	01a0033c 	lui	v1,0xa001
1d00af30:	d435648c 	lw	a0,13780(v1)
1d00af34:	01a0033c 	lui	v1,0xa001
1d00af38:	24504b01 	and	t2,t2,t3
1d00af3c:	24482a01 	and	t1,t1,t2
1d00af40:	24400901 	and	t0,t0,t1
1d00af44:	2438e800 	and	a3,a3,t0
1d00af48:	2430c700 	and	a2,a2,a3
1d00af4c:	2428a600 	and	a1,a1,a2
1d00af50:	0b00a010 	beqz	a1,0x1d00af80
1d00af54:	082e64ac 	sw	a0,11784(v1)
1d00af58:	01a0033c 	lui	v1,0xa001
1d00af5c:	002e638c 	lw	v1,11776(v1)
1d00af60:	1027652c 	sltiu	a1,v1,10000
1d00af64:	0900a010 	beqz	a1,0x1d00af8c
1d00af68:	01000424 	li	a0,1
1d00af6c:	01006324 	addiu	v1,v1,1
1d00af70:	01a0043c 	lui	a0,0xa001
1d00af74:	002e83ac 	sw	v1,11776(a0)
1d00af78:	e32b400b 	j	0x1d00af8c
1d00af7c:	21200000 	move	a0,zero
1d00af80:	01a0033c 	lui	v1,0xa001
1d00af84:	002e60ac 	sw	zero,11776(v1)
1d00af88:	21200000 	move	a0,zero
1d00af8c:	01a0033c 	lui	v1,0xa001
1d00af90:	042e638c 	lw	v1,11780(v1)
1d00af94:	05006050 	beqzl	v1,0x1d00afac
1d00af98:	5800a0a3 	sb	zero,88(sp)
1d00af9c:	ffff6324 	addiu	v1,v1,-1
1d00afa0:	01a0023c 	lui	v0,0xa001
1d00afa4:	a62d400b 	j	0x1d00b698
1d00afa8:	042e43ac 	sw	v1,11780(v0)
1d00afac:	04008014 	bnez	a0,0x1d00afc0
1d00afb0:	5000a0af 	sw	zero,80(sp)
1d00afb4:	0500432c 	sltiu	v1,v0,5
1d00afb8:	b6016054 	bnezl	v1,0x1d00b694
1d00afbc:	01a0023c 	lui	v0,0xa001
1d00afc0:	1000432c 	sltiu	v1,v0,16
1d00afc4:	af016010 	beqz	v1,0x1d00b684
1d00afc8:	80100200 	sll	v0,v0,0x2
1d00afcc:	019d033c 	lui	v1,0x9d01
1d00afd0:	e4af6324 	addiu	v1,v1,-20508
1d00afd4:	21106200 	addu	v0,v1,v0
1d00afd8:	0000428c 	lw	v0,0(v0)
1d00afdc:	08004000 	jr	v0
1d00afe0:	00000000 	nop
1d00afe4:	24b0009d 	0x9d00b024
1d00afe8:	34b0009d 	0x9d00b034
1d00afec:	b0b0009d 	0x9d00b0b0
1d00aff0:	08b1009d 	0x9d00b108
1d00aff4:	84b1009d 	0x9d00b184
1d00aff8:	dcb1009d 	0x9d00b1dc
1d00affc:	60b2009d 	0x9d00b260
1d00b000:	d4b2009d 	0x9d00b2d4
1d00b004:	34b3009d 	0x9d00b334
1d00b008:	bcb3009d 	0x9d00b3bc
1d00b00c:	14b4009d 	0x9d00b414
1d00b010:	9cb4009d 	0x9d00b49c
1d00b014:	f4b4009d 	0x9d00b4f4
1d00b018:	68b5009d 	0x9d00b568
1d00b01c:	d4b5009d 	0x9d00b5d4
1d00b020:	3cb6009d 	0x9d00b63c
1d00b024:	01000324 	li	v1,1
1d00b028:	01a0023c 	lui	v0,0xa001
1d00b02c:	a62d400b 	j	0x1d00b698
1d00b030:	802d43ac 	sw	v1,11648(v0)
1d00b034:	22000224 	li	v0,34
1d00b038:	1000a2af 	sw	v0,16(sp)
1d00b03c:	00de0234 	li	v0,0xde00
1d00b040:	1400a2af 	sw	v0,20(sp)
1d00b044:	01000224 	li	v0,1
1d00b048:	1800a2af 	sw	v0,24(sp)
1d00b04c:	1c00a0af 	sw	zero,28(sp)
1d00b050:	2000a0af 	sw	zero,32(sp)
1d00b054:	01a0023c 	lui	v0,0xa001
1d00b058:	0c2e4224 	addiu	v0,v0,11788
1d00b05c:	2400a2af 	sw	v0,36(sp)
1d00b060:	42000224 	li	v0,66
1d00b064:	2800a2af 	sw	v0,40(sp)
1d00b068:	01a0043c 	lui	a0,0xa001
1d00b06c:	842d8424 	addiu	a0,a0,11652
1d00b070:	019d053c 	lui	a1,0x9d01
1d00b074:	b483a524 	addiu	a1,a1,-31820
1d00b078:	30070624 	li	a2,1840
1d00b07c:	b65c400f 	jal	0x1d0172d8
1d00b080:	21380000 	move	a3,zero
1d00b084:	05004010 	beqz	v0,0x1d00b09c
1d00b088:	01a0023c 	lui	v0,0xa001
1d00b08c:	802d438c 	lw	v1,11648(v0)
1d00b090:	01006324 	addiu	v1,v1,1
1d00b094:	a62d400b 	j	0x1d00b698
1d00b098:	802d43ac 	sw	v1,11648(v0)
1d00b09c:	802d4324 	addiu	v1,v0,11648
1d00b0a0:	e8030424 	li	a0,1000
1d00b0a4:	840064ac 	sw	a0,132(v1)
1d00b0a8:	a62d400b 	j	0x1d00b698
1d00b0ac:	802d40ac 	sw	zero,11648(v0)
1d00b0b0:	01a0043c 	lui	a0,0xa001
1d00b0b4:	842d8424 	addiu	a0,a0,11652
1d00b0b8:	5800a527 	addiu	a1,sp,88
1d00b0bc:	5000a627 	addiu	a2,sp,80
1d00b0c0:	665e400f 	jal	0x1d017998
1d00b0c4:	d0070724 	li	a3,2000
1d00b0c8:	73014010 	beqz	v0,0x1d00b698
1d00b0cc:	5800a293 	lbu	v0,88(sp)
1d00b0d0:	08004010 	beqz	v0,0x1d00b0f4
1d00b0d4:	01a0023c 	lui	v0,0xa001
1d00b0d8:	802d4324 	addiu	v1,v0,11648
1d00b0dc:	5000a48f 	lw	a0,80(sp)
1d00b0e0:	d00064ac 	sw	a0,208(v1)
1d00b0e4:	802d438c 	lw	v1,11648(v0)
1d00b0e8:	01006324 	addiu	v1,v1,1
1d00b0ec:	a62d400b 	j	0x1d00b698
1d00b0f0:	802d43ac 	sw	v1,11648(v0)
1d00b0f4:	802d4324 	addiu	v1,v0,11648
1d00b0f8:	e8030424 	li	a0,1000
1d00b0fc:	840064ac 	sw	a0,132(v1)
1d00b100:	a62d400b 	j	0x1d00b698
1d00b104:	802d40ac 	sw	zero,11648(v0)
1d00b108:	22000224 	li	v0,34
1d00b10c:	1000a2af 	sw	v0,16(sp)
1d00b110:	01de0234 	li	v0,0xde01
1d00b114:	1400a2af 	sw	v0,20(sp)
1d00b118:	01000224 	li	v0,1
1d00b11c:	1800a2af 	sw	v0,24(sp)
1d00b120:	1c00a0af 	sw	zero,28(sp)
1d00b124:	2000a0af 	sw	zero,32(sp)
1d00b128:	01a0023c 	lui	v0,0xa001
1d00b12c:	542e4224 	addiu	v0,v0,11860
1d00b130:	2400a2af 	sw	v0,36(sp)
1d00b134:	42000224 	li	v0,66
1d00b138:	2800a2af 	sw	v0,40(sp)
1d00b13c:	01a0043c 	lui	a0,0xa001
1d00b140:	842d8424 	addiu	a0,a0,11652
1d00b144:	019d053c 	lui	a1,0x9d01
1d00b148:	b483a524 	addiu	a1,a1,-31820
1d00b14c:	30070624 	li	a2,1840
1d00b150:	b65c400f 	jal	0x1d0172d8
1d00b154:	21380000 	move	a3,zero
1d00b158:	05004010 	beqz	v0,0x1d00b170
1d00b15c:	01a0023c 	lui	v0,0xa001
1d00b160:	802d438c 	lw	v1,11648(v0)
1d00b164:	01006324 	addiu	v1,v1,1
1d00b168:	a62d400b 	j	0x1d00b698
1d00b16c:	802d43ac 	sw	v1,11648(v0)
1d00b170:	802d4324 	addiu	v1,v0,11648
1d00b174:	e8030424 	li	a0,1000
1d00b178:	840064ac 	sw	a0,132(v1)
1d00b17c:	a62d400b 	j	0x1d00b698
1d00b180:	802d40ac 	sw	zero,11648(v0)
1d00b184:	01a0043c 	lui	a0,0xa001
1d00b188:	842d8424 	addiu	a0,a0,11652
1d00b18c:	5800a527 	addiu	a1,sp,88
1d00b190:	5000a627 	addiu	a2,sp,80
1d00b194:	665e400f 	jal	0x1d017998
1d00b198:	d0070724 	li	a3,2000
1d00b19c:	3e014010 	beqz	v0,0x1d00b698
1d00b1a0:	5800a293 	lbu	v0,88(sp)
1d00b1a4:	08004010 	beqz	v0,0x1d00b1c8
1d00b1a8:	01a0023c 	lui	v0,0xa001
1d00b1ac:	802d4324 	addiu	v1,v0,11648
1d00b1b0:	5000a48f 	lw	a0,80(sp)
1d00b1b4:	180164ac 	sw	a0,280(v1)
1d00b1b8:	802d438c 	lw	v1,11648(v0)
1d00b1bc:	01006324 	addiu	v1,v1,1
1d00b1c0:	a62d400b 	j	0x1d00b698
1d00b1c4:	802d43ac 	sw	v1,11648(v0)
1d00b1c8:	802d4324 	addiu	v1,v0,11648
1d00b1cc:	e8030424 	li	a0,1000
1d00b1d0:	840064ac 	sw	a0,132(v1)
1d00b1d4:	a62d400b 	j	0x1d00b698
1d00b1d8:	802d40ac 	sw	zero,11648(v0)
1d00b1dc:	01a0023c 	lui	v0,0xa001
1d00b1e0:	502e438c 	lw	v1,11856(v0)
1d00b1e4:	18000224 	li	v0,24
1d00b1e8:	1a006214 	bne	v1,v0,0x1d00b254
1d00b1ec:	10000324 	li	v1,16
1d00b1f0:	01a0023c 	lui	v0,0xa001
1d00b1f4:	982e438c 	lw	v1,11928(v0)
1d00b1f8:	18000224 	li	v0,24
1d00b1fc:	15006214 	bne	v1,v0,0x1d00b254
1d00b200:	10000324 	li	v1,16
1d00b204:	01a0023c 	lui	v0,0xa001
1d00b208:	0e2e4390 	lbu	v1,11790(v0)
1d00b20c:	01000224 	li	v0,1
1d00b210:	06006214 	bne	v1,v0,0x1d00b22c
1d00b214:	01a0023c 	lui	v0,0xa001
1d00b218:	01a0023c 	lui	v0,0xa001
1d00b21c:	562e4390 	lbu	v1,11862(v0)
1d00b220:	01000224 	li	v0,1
1d00b224:	08006210 	beq	v1,v0,0x1d00b248
1d00b228:	01a0023c 	lui	v0,0xa001
1d00b22c:	802d4324 	addiu	v1,v0,11648
1d00b230:	01000424 	li	a0,1
1d00b234:	8e0064a0 	sb	a0,142(v1)
1d00b238:	d60064a0 	sb	a0,214(v1)
1d00b23c:	06000324 	li	v1,6
1d00b240:	a62d400b 	j	0x1d00b698
1d00b244:	802d43ac 	sw	v1,11648(v0)
1d00b248:	10000324 	li	v1,16
1d00b24c:	a62d400b 	j	0x1d00b698
1d00b250:	802d43ac 	sw	v1,11648(v0)
1d00b254:	01a0023c 	lui	v0,0xa001
1d00b258:	a62d400b 	j	0x1d00b698
1d00b25c:	802d43ac 	sw	v1,11648(v0)
1d00b260:	10000224 	li	v0,16
1d00b264:	1000a2af 	sw	v0,16(sp)
1d00b268:	03000224 	li	v0,3
1d00b26c:	1400a2af 	sw	v0,20(sp)
1d00b270:	1800a0af 	sw	zero,24(sp)
1d00b274:	1c00a0af 	sw	zero,28(sp)
1d00b278:	2000a0af 	sw	zero,32(sp)
1d00b27c:	01a0023c 	lui	v0,0xa001
1d00b280:	be2d4224 	addiu	v0,v0,11710
1d00b284:	2400a2af 	sw	v0,36(sp)
1d00b288:	42000224 	li	v0,66
1d00b28c:	2800a2af 	sw	v0,40(sp)
1d00b290:	01a0043c 	lui	a0,0xa001
1d00b294:	842d8424 	addiu	a0,a0,11652
1d00b298:	019d053c 	lui	a1,0x9d01
1d00b29c:	b483a524 	addiu	a1,a1,-31820
1d00b2a0:	30070624 	li	a2,1840
1d00b2a4:	b65c400f 	jal	0x1d0172d8
1d00b2a8:	21380000 	move	a3,zero
1d00b2ac:	06004010 	beqz	v0,0x1d00b2c8
1d00b2b0:	10000324 	li	v1,16
1d00b2b4:	01a0023c 	lui	v0,0xa001
1d00b2b8:	802d438c 	lw	v1,11648(v0)
1d00b2bc:	01006324 	addiu	v1,v1,1
1d00b2c0:	a62d400b 	j	0x1d00b698
1d00b2c4:	802d43ac 	sw	v1,11648(v0)
1d00b2c8:	01a0023c 	lui	v0,0xa001
1d00b2cc:	a62d400b 	j	0x1d00b698
1d00b2d0:	802d43ac 	sw	v1,11648(v0)
1d00b2d4:	4000a0af 	sw	zero,64(sp)
1d00b2d8:	01a0043c 	lui	a0,0xa001
1d00b2dc:	842d8424 	addiu	a0,a0,11652
1d00b2e0:	5800a527 	addiu	a1,sp,88
1d00b2e4:	4000a627 	addiu	a2,sp,64
1d00b2e8:	665e400f 	jal	0x1d017998
1d00b2ec:	d0070724 	li	a3,2000
1d00b2f0:	e9004010 	beqz	v0,0x1d00b698
1d00b2f4:	4000a38f 	lw	v1,64(sp)
1d00b2f8:	04006338 	xori	v1,v1,0x4
1d00b2fc:	0100632c 	sltiu	v1,v1,1
1d00b300:	5800a293 	lbu	v0,88(sp)
1d00b304:	24106200 	and	v0,v1,v0
1d00b308:	06004010 	beqz	v0,0x1d00b324
1d00b30c:	5800a2a3 	sb	v0,88(sp)
1d00b310:	01a0023c 	lui	v0,0xa001
1d00b314:	802d438c 	lw	v1,11648(v0)
1d00b318:	01006324 	addiu	v1,v1,1
1d00b31c:	a62d400b 	j	0x1d00b698
1d00b320:	802d43ac 	sw	v1,11648(v0)
1d00b324:	10000324 	li	v1,16
1d00b328:	01a0023c 	lui	v0,0xa001
1d00b32c:	a62d400b 	j	0x1d00b698
1d00b330:	802d43ac 	sw	v1,11648(v0)
1d00b334:	2e000224 	li	v0,46
1d00b338:	1000a2af 	sw	v0,16(sp)
1d00b33c:	00de0234 	li	v0,0xde00
1d00b340:	1400a2af 	sw	v0,20(sp)
1d00b344:	01000224 	li	v0,1
1d00b348:	1800a2af 	sw	v0,24(sp)
1d00b34c:	01a0023c 	lui	v0,0xa001
1d00b350:	0c2e4224 	addiu	v0,v0,11788
1d00b354:	1c00a2af 	sw	v0,28(sp)
1d00b358:	01a0023c 	lui	v0,0xa001
1d00b35c:	502e428c 	lw	v0,11856(v0)
1d00b360:	2000a2af 	sw	v0,32(sp)
1d00b364:	01a0023c 	lui	v0,0xa001
1d00b368:	be2d4224 	addiu	v0,v0,11710
1d00b36c:	2400a2af 	sw	v0,36(sp)
1d00b370:	42000224 	li	v0,66
1d00b374:	2800a2af 	sw	v0,40(sp)
1d00b378:	01a0043c 	lui	a0,0xa001
1d00b37c:	842d8424 	addiu	a0,a0,11652
1d00b380:	019d053c 	lui	a1,0x9d01
1d00b384:	b483a524 	addiu	a1,a1,-31820
1d00b388:	30070624 	li	a2,1840
1d00b38c:	b65c400f 	jal	0x1d0172d8
1d00b390:	21380000 	move	a3,zero
1d00b394:	06004010 	beqz	v0,0x1d00b3b0
1d00b398:	10000324 	li	v1,16
1d00b39c:	01a0023c 	lui	v0,0xa001
1d00b3a0:	802d438c 	lw	v1,11648(v0)
1d00b3a4:	01006324 	addiu	v1,v1,1
1d00b3a8:	a62d400b 	j	0x1d00b698
1d00b3ac:	802d43ac 	sw	v1,11648(v0)
1d00b3b0:	01a0023c 	lui	v0,0xa001
1d00b3b4:	a62d400b 	j	0x1d00b698
1d00b3b8:	802d43ac 	sw	v1,11648(v0)
1d00b3bc:	4000a0af 	sw	zero,64(sp)
1d00b3c0:	01a0043c 	lui	a0,0xa001
1d00b3c4:	842d8424 	addiu	a0,a0,11652
1d00b3c8:	5800a527 	addiu	a1,sp,88
1d00b3cc:	4000a627 	addiu	a2,sp,64
1d00b3d0:	665e400f 	jal	0x1d017998
1d00b3d4:	d0070724 	li	a3,2000
1d00b3d8:	af004010 	beqz	v0,0x1d00b698
1d00b3dc:	5800a293 	lbu	v0,88(sp)
1d00b3e0:	09004010 	beqz	v0,0x1d00b408
1d00b3e4:	10000324 	li	v1,16
1d00b3e8:	01a0023c 	lui	v0,0xa001
1d00b3ec:	802d4324 	addiu	v1,v0,11648
1d00b3f0:	f4010424 	li	a0,500
1d00b3f4:	840064ac 	sw	a0,132(v1)
1d00b3f8:	802d438c 	lw	v1,11648(v0)
1d00b3fc:	01006324 	addiu	v1,v1,1
1d00b400:	a62d400b 	j	0x1d00b698
1d00b404:	802d43ac 	sw	v1,11648(v0)
1d00b408:	01a0023c 	lui	v0,0xa001
1d00b40c:	a62d400b 	j	0x1d00b698
1d00b410:	802d43ac 	sw	v1,11648(v0)
1d00b414:	2e000224 	li	v0,46
1d00b418:	1000a2af 	sw	v0,16(sp)
1d00b41c:	01de0234 	li	v0,0xde01
1d00b420:	1400a2af 	sw	v0,20(sp)
1d00b424:	01000224 	li	v0,1
1d00b428:	1800a2af 	sw	v0,24(sp)
1d00b42c:	01a0023c 	lui	v0,0xa001
1d00b430:	542e4224 	addiu	v0,v0,11860
1d00b434:	1c00a2af 	sw	v0,28(sp)
1d00b438:	01a0023c 	lui	v0,0xa001
1d00b43c:	982e428c 	lw	v0,11928(v0)
1d00b440:	2000a2af 	sw	v0,32(sp)
1d00b444:	01a0023c 	lui	v0,0xa001
1d00b448:	be2d4224 	addiu	v0,v0,11710
1d00b44c:	2400a2af 	sw	v0,36(sp)
1d00b450:	42000224 	li	v0,66
1d00b454:	2800a2af 	sw	v0,40(sp)
1d00b458:	01a0043c 	lui	a0,0xa001
1d00b45c:	842d8424 	addiu	a0,a0,11652
1d00b460:	019d053c 	lui	a1,0x9d01
1d00b464:	b483a524 	addiu	a1,a1,-31820
1d00b468:	30070624 	li	a2,1840
1d00b46c:	b65c400f 	jal	0x1d0172d8
1d00b470:	21380000 	move	a3,zero
1d00b474:	06004010 	beqz	v0,0x1d00b490
1d00b478:	10000324 	li	v1,16
1d00b47c:	01a0023c 	lui	v0,0xa001
1d00b480:	802d438c 	lw	v1,11648(v0)
1d00b484:	01006324 	addiu	v1,v1,1
1d00b488:	a62d400b 	j	0x1d00b698
1d00b48c:	802d43ac 	sw	v1,11648(v0)
1d00b490:	01a0023c 	lui	v0,0xa001
1d00b494:	a62d400b 	j	0x1d00b698
1d00b498:	802d43ac 	sw	v1,11648(v0)
1d00b49c:	4000a0af 	sw	zero,64(sp)
1d00b4a0:	01a0043c 	lui	a0,0xa001
1d00b4a4:	842d8424 	addiu	a0,a0,11652
1d00b4a8:	5800a527 	addiu	a1,sp,88
1d00b4ac:	4000a627 	addiu	a2,sp,64
1d00b4b0:	665e400f 	jal	0x1d017998
1d00b4b4:	d0070724 	li	a3,2000
1d00b4b8:	77004010 	beqz	v0,0x1d00b698
1d00b4bc:	5800a293 	lbu	v0,88(sp)
1d00b4c0:	09004010 	beqz	v0,0x1d00b4e8
1d00b4c4:	10000324 	li	v1,16
1d00b4c8:	01a0023c 	lui	v0,0xa001
1d00b4cc:	802d4324 	addiu	v1,v0,11648
1d00b4d0:	f4010424 	li	a0,500
1d00b4d4:	840064ac 	sw	a0,132(v1)
1d00b4d8:	802d438c 	lw	v1,11648(v0)
1d00b4dc:	01006324 	addiu	v1,v1,1
1d00b4e0:	a62d400b 	j	0x1d00b698
1d00b4e4:	802d43ac 	sw	v1,11648(v0)
1d00b4e8:	01a0023c 	lui	v0,0xa001
1d00b4ec:	a62d400b 	j	0x1d00b698
1d00b4f0:	802d43ac 	sw	v1,11648(v0)
1d00b4f4:	10000224 	li	v0,16
1d00b4f8:	1000a2af 	sw	v0,16(sp)
1d00b4fc:	01000224 	li	v0,1
1d00b500:	1400a2af 	sw	v0,20(sp)
1d00b504:	1800a0af 	sw	zero,24(sp)
1d00b508:	1c00a0af 	sw	zero,28(sp)
1d00b50c:	2000a0af 	sw	zero,32(sp)
1d00b510:	01a0023c 	lui	v0,0xa001
1d00b514:	be2d4224 	addiu	v0,v0,11710
1d00b518:	2400a2af 	sw	v0,36(sp)
1d00b51c:	42000224 	li	v0,66
1d00b520:	2800a2af 	sw	v0,40(sp)
1d00b524:	01a0043c 	lui	a0,0xa001
1d00b528:	842d8424 	addiu	a0,a0,11652
1d00b52c:	019d053c 	lui	a1,0x9d01
1d00b530:	b483a524 	addiu	a1,a1,-31820
1d00b534:	30070624 	li	a2,1840
1d00b538:	b65c400f 	jal	0x1d0172d8
1d00b53c:	21380000 	move	a3,zero
1d00b540:	06004010 	beqz	v0,0x1d00b55c
1d00b544:	10000324 	li	v1,16
1d00b548:	01a0023c 	lui	v0,0xa001
1d00b54c:	802d438c 	lw	v1,11648(v0)
1d00b550:	01006324 	addiu	v1,v1,1
1d00b554:	a62d400b 	j	0x1d00b698
1d00b558:	802d43ac 	sw	v1,11648(v0)
1d00b55c:	01a0023c 	lui	v0,0xa001
1d00b560:	a62d400b 	j	0x1d00b698
1d00b564:	802d43ac 	sw	v1,11648(v0)
1d00b568:	4000a0af 	sw	zero,64(sp)
1d00b56c:	01a0043c 	lui	a0,0xa001
1d00b570:	842d8424 	addiu	a0,a0,11652
1d00b574:	5800a527 	addiu	a1,sp,88
1d00b578:	4000a627 	addiu	a2,sp,64
1d00b57c:	665e400f 	jal	0x1d017998
1d00b580:	d0070724 	li	a3,2000
1d00b584:	44004010 	beqz	v0,0x1d00b698
1d00b588:	4000a38f 	lw	v1,64(sp)
1d00b58c:	04006338 	xori	v1,v1,0x4
1d00b590:	0100632c 	sltiu	v1,v1,1
1d00b594:	5800a293 	lbu	v0,88(sp)
1d00b598:	24106200 	and	v0,v1,v0
1d00b59c:	09004010 	beqz	v0,0x1d00b5c4
1d00b5a0:	5800a2a3 	sb	v0,88(sp)
1d00b5a4:	01a0023c 	lui	v0,0xa001
1d00b5a8:	802d4324 	addiu	v1,v0,11648
1d00b5ac:	f4010424 	li	a0,500
1d00b5b0:	840064ac 	sw	a0,132(v1)
1d00b5b4:	802d438c 	lw	v1,11648(v0)
1d00b5b8:	01006324 	addiu	v1,v1,1
1d00b5bc:	a62d400b 	j	0x1d00b698
1d00b5c0:	802d43ac 	sw	v1,11648(v0)
1d00b5c4:	10000324 	li	v1,16
1d00b5c8:	01a0023c 	lui	v0,0xa001
1d00b5cc:	a62d400b 	j	0x1d00b698
1d00b5d0:	802d43ac 	sw	v1,11648(v0)
1d00b5d4:	11000224 	li	v0,17
1d00b5d8:	1000a2af 	sw	v0,16(sp)
1d00b5dc:	01000224 	li	v0,1
1d00b5e0:	1400a2af 	sw	v0,20(sp)
1d00b5e4:	1800a0af 	sw	zero,24(sp)
1d00b5e8:	1c00a0af 	sw	zero,28(sp)
1d00b5ec:	2000a0af 	sw	zero,32(sp)
1d00b5f0:	2400a0af 	sw	zero,36(sp)
1d00b5f4:	2800a0af 	sw	zero,40(sp)
1d00b5f8:	01a0043c 	lui	a0,0xa001
1d00b5fc:	842d8424 	addiu	a0,a0,11652
1d00b600:	019d053c 	lui	a1,0x9d01
1d00b604:	b483a524 	addiu	a1,a1,-31820
1d00b608:	30070624 	li	a2,1840
1d00b60c:	b65c400f 	jal	0x1d0172d8
1d00b610:	21380000 	move	a3,zero
1d00b614:	06004010 	beqz	v0,0x1d00b630
1d00b618:	10000324 	li	v1,16
1d00b61c:	01a0023c 	lui	v0,0xa001
1d00b620:	802d438c 	lw	v1,11648(v0)
1d00b624:	01006324 	addiu	v1,v1,1
1d00b628:	a62d400b 	j	0x1d00b698
1d00b62c:	802d43ac 	sw	v1,11648(v0)
1d00b630:	01a0023c 	lui	v0,0xa001
1d00b634:	a62d400b 	j	0x1d00b698
1d00b638:	802d43ac 	sw	v1,11648(v0)
1d00b63c:	01a0043c 	lui	a0,0xa001
1d00b640:	842d8424 	addiu	a0,a0,11652
1d00b644:	5800a527 	addiu	a1,sp,88
1d00b648:	21300000 	move	a2,zero
1d00b64c:	665e400f 	jal	0x1d017998
1d00b650:	d0070724 	li	a3,2000
1d00b654:	10004010 	beqz	v0,0x1d00b698
1d00b658:	5800a293 	lbu	v0,88(sp)
1d00b65c:	06004010 	beqz	v0,0x1d00b678
1d00b660:	10000324 	li	v1,16
1d00b664:	01a0023c 	lui	v0,0xa001
1d00b668:	802d438c 	lw	v1,11648(v0)
1d00b66c:	01006324 	addiu	v1,v1,1
1d00b670:	a62d400b 	j	0x1d00b698
1d00b674:	802d43ac 	sw	v1,11648(v0)
1d00b678:	01a0023c 	lui	v0,0xa001
1d00b67c:	a62d400b 	j	0x1d00b698
1d00b680:	802d43ac 	sw	v1,11648(v0)
1d00b684:	10000324 	li	v1,16
1d00b688:	01a0023c 	lui	v0,0xa001
1d00b68c:	a62d400b 	j	0x1d00b698
1d00b690:	802d43ac 	sw	v1,11648(v0)
1d00b694:	802d40ac 	sw	zero,11648(v0)
1d00b698:	e349400f 	jal	0x1d01278c
1d00b69c:	00000000 	nop
1d00b6a0:	49004010 	beqz	v0,0x1d00b7c8
1d00b6a4:	2080828f 	lw	v0,-32736(gp)
1d00b6a8:	a880828f 	lw	v0,-32600(gp)
1d00b6ac:	20004014 	bnez	v0,0x1d00b730
1d00b6b0:	2480828f 	lw	v0,-32732(gp)
1d00b6b4:	01a0023c 	lui	v0,0xa001
1d00b6b8:	6c354290 	lbu	v0,13676(v0)
1d00b6bc:	1c004014 	bnez	v0,0x1d00b730
1d00b6c0:	2480828f 	lw	v0,-32732(gp)
1d00b6c4:	01a0023c 	lui	v0,0xa001
1d00b6c8:	b430428c 	lw	v0,12468(v0)
1d00b6cc:	0200422c 	sltiu	v0,v0,2
1d00b6d0:	16004014 	bnez	v0,0x1d00b72c
1d00b6d4:	08000224 	li	v0,8
1d00b6d8:	3800a0af 	sw	zero,56(sp)
1d00b6dc:	3c00a0af 	sw	zero,60(sp)
1d00b6e0:	3400a2af 	sw	v0,52(sp)
1d00b6e4:	a8030224 	li	v0,936
1d00b6e8:	3000a2af 	sw	v0,48(sp)
1d00b6ec:	01a0023c 	lui	v0,0xa001
1d00b6f0:	b42f4224 	addiu	v0,v0,12212
1d00b6f4:	440140ac 	sw	zero,324(v0)
1d00b6f8:	480140ac 	sw	zero,328(v0)
1d00b6fc:	c8000324 	li	v1,200
1d00b700:	4c0143ac 	sw	v1,332(v0)
1d00b704:	5001428c 	lw	v0,336(v0)
1d00b708:	ffff0324 	li	v1,-1
1d00b70c:	03004310 	beq	v0,v1,0x1d00b71c
1d00b710:	01004224 	addiu	v0,v0,1
1d00b714:	01a0033c 	lui	v1,0xa001
1d00b718:	043162ac 	sw	v0,12548(v1)
1d00b71c:	aa22400f 	jal	0x1d008aa8
1d00b720:	3800a427 	addiu	a0,sp,56
1d00b724:	ab4e400f 	jal	0x1d013aac
1d00b728:	3000a427 	addiu	a0,sp,48
1d00b72c:	2480828f 	lw	v0,-32732(gp)
1d00b730:	05004010 	beqz	v0,0x1d00b748
1d00b734:	0a000324 	li	v1,10
1d00b738:	19004350 	beql	v0,v1,0x1d00b7a0
1d00b73c:	08000224 	li	v0,8
1d00b740:	f22d400b 	j	0x1d00b7c8
1d00b744:	2080828f 	lw	v0,-32736(gp)
1d00b748:	01a0023c 	lui	v0,0xa001
1d00b74c:	4035428c 	lw	v0,13632(v0)
1d00b750:	1d004014 	bnez	v0,0x1d00b7c8
1d00b754:	2080828f 	lw	v0,-32736(gp)
1d00b758:	01a0023c 	lui	v0,0xa001
1d00b75c:	4435428c 	lw	v0,13636(v0)
1d00b760:	19004054 	bnezl	v0,0x1d00b7c8
1d00b764:	2080828f 	lw	v0,-32736(gp)
1d00b768:	02000224 	li	v0,2
1d00b76c:	3400a2af 	sw	v0,52(sp)
1d00b770:	67000224 	li	v0,103
1d00b774:	3000a2af 	sw	v0,48(sp)
1d00b778:	0e22400f 	jal	0x1d008838
1d00b77c:	3800a427 	addiu	a0,sp,56
1d00b780:	8c5c400f 	jal	0x1d017230
1d00b784:	3800a427 	addiu	a0,sp,56
1d00b788:	204d400f 	jal	0x1d013480
1d00b78c:	3000a427 	addiu	a0,sp,48
1d00b790:	8220400f 	jal	0x1d008208
1d00b794:	3000a427 	addiu	a0,sp,48
1d00b798:	f22d400b 	j	0x1d00b7c8
1d00b79c:	2080828f 	lw	v0,-32736(gp)
1d00b7a0:	3400a2af 	sw	v0,52(sp)
1d00b7a4:	69000224 	li	v0,105
1d00b7a8:	3000a2af 	sw	v0,48(sp)
1d00b7ac:	801f400f 	jal	0x1d007e00
1d00b7b0:	3800a427 	addiu	a0,sp,56
1d00b7b4:	925c400f 	jal	0x1d017248
1d00b7b8:	3800a427 	addiu	a0,sp,56
1d00b7bc:	204d400f 	jal	0x1d013480
1d00b7c0:	3000a427 	addiu	a0,sp,48
1d00b7c4:	2080828f 	lw	v0,-32736(gp)
1d00b7c8:	0a004014 	bnez	v0,0x1d00b7f4
1d00b7cc:	00000000 	nop
1d00b7d0:	6966400f 	jal	0x1d0199a4
1d00b7d4:	3800a427 	addiu	a0,sp,56
1d00b7d8:	06004010 	beqz	v0,0x1d00b7f4
1d00b7dc:	08000224 	li	v0,8
1d00b7e0:	3400a2af 	sw	v0,52(sp)
1d00b7e4:	7e000224 	li	v0,126
1d00b7e8:	3000a2af 	sw	v0,48(sp)
1d00b7ec:	204d400f 	jal	0x1d013480
1d00b7f0:	3000a427 	addiu	a0,sp,48
1d00b7f4:	b86e400f 	jal	0x1d01bae0
1d00b7f8:	00000000 	nop
1d00b7fc:	67004050 	beqzl	v0,0x1d00b99c
1d00b800:	6400bf8f 	lw	ra,100(sp)
1d00b804:	08000224 	li	v0,8
1d00b808:	3400a2af 	sw	v0,52(sp)
1d00b80c:	7f000224 	li	v0,127
1d00b810:	3000a2af 	sw	v0,48(sp)
1d00b814:	d16e400f 	jal	0x1d01bb44
1d00b818:	3800a427 	addiu	a0,sp,56
1d00b81c:	204d400f 	jal	0x1d013480
1d00b820:	3000a427 	addiu	a0,sp,48
1d00b824:	672e400b 	j	0x1d00b99c
1d00b828:	6400bf8f 	lw	ra,100(sp)
1d00b82c:	0431428c 	lw	v0,12548(v0)
1d00b830:	0400422c 	sltiu	v0,v0,4
1d00b834:	3bf94050 	beqzl	v0,0x1d009d24
1d00b838:	01a0023c 	lui	v0,0xa001
1d00b83c:	6827400b 	j	0x1d009da0
1d00b840:	01a0023c 	lui	v0,0xa001
1d00b844:	2032428c 	lw	v0,12832(v0)
1d00b848:	0004427c 	ext	v0,v0,0x10,0x1
1d00b84c:	3bf94054 	bnezl	v0,0x1d009d3c
1d00b850:	01a0023c 	lui	v0,0xa001
1d00b854:	6827400b 	j	0x1d009da0
1d00b858:	01a0023c 	lui	v0,0xa001
1d00b85c:	6727400b 	j	0x1d009d9c
1d00b860:	ac8082af 	sw	v0,-32596(gp)
1d00b864:	b831428c 	lw	v0,12728(v0)
1d00b868:	0400422c 	sltiu	v0,v0,4
1d00b86c:	c8fb4010 	beqz	v0,0x1d00a790
1d00b870:	01a0023c 	lui	v0,0xa001
1d00b874:	ec29400b 	j	0x1d00a7b0
1d00b878:	01a0043c 	lui	a0,0xa001
1d00b87c:	6f354290 	lbu	v0,13679(v0)
1d00b880:	cbfb4014 	bnez	v0,0x1d00a7b0
1d00b884:	01a0043c 	lui	a0,0xa001
1d00b888:	ea29400b 	j	0x1d00a7a8
1d00b88c:	01a0023c 	lui	v0,0xa001
1d00b890:	0431428c 	lw	v0,12548(v0)
1d00b894:	0400422c 	sltiu	v0,v0,4
1d00b898:	e5fb4050 	beqzl	v0,0x1d00a830
1d00b89c:	01a0023c 	lui	v0,0xa001
1d00b8a0:	522a400b 	j	0x1d00a948
1d00b8a4:	01a0023c 	lui	v0,0xa001
1d00b8a8:	2832428c 	lw	v0,12840(v0)
1d00b8ac:	e6fb4054 	bnezl	v0,0x1d00a848
1d00b8b0:	01a0023c 	lui	v0,0xa001
1d00b8b4:	522a400b 	j	0x1d00a948
1d00b8b8:	01a0023c 	lui	v0,0xa001
1d00b8bc:	dc35428c 	lw	v0,13788(v0)
1d00b8c0:	0300422c 	sltiu	v0,v0,3
1d00b8c4:	20fc4054 	bnezl	v0,0x1d00a948
1d00b8c8:	01a0023c 	lui	v0,0xa001
1d00b8cc:	302a400b 	j	0x1d00a8c0
1d00b8d0:	01a0023c 	lui	v0,0xa001
1d00b8d4:	d035458c 	lw	a1,13776(v0)
1d00b8d8:	452a400b 	j	0x1d00a914
1d00b8dc:	23200502 	subu	a0,s0,a1
1d00b8e0:	712a400b 	j	0x1d00a9c4
1d00b8e4:	403540ac 	sw	zero,13632(v0)
1d00b8e8:	01a0023c 	lui	v0,0xa001
1d00b8ec:	6035438c 	lw	v1,13664(v0)
1d00b8f0:	54fc6054 	bnezl	v1,0x1d00aa44
1d00b8f4:	ffff6324 	addiu	v1,v1,-1
1d00b8f8:	1f2b400b 	j	0x1d00ac7c
1d00b8fc:	01a0023c 	lui	v0,0xa001
1d00b900:	01a0023c 	lui	v0,0xa001
1d00b904:	6035428c 	lw	v0,13664(v0)
1d00b908:	51fc4054 	bnezl	v0,0x1d00aa50
1d00b90c:	01a0023c 	lui	v0,0xa001
1d00b910:	1f2b400b 	j	0x1d00ac7c
1d00b914:	01a0023c 	lui	v0,0xa001
1d00b918:	b42fa524 	addiu	a1,a1,12212
1d00b91c:	0801a78c 	lw	a3,264(a1)
1d00b920:	0401a390 	lbu	v1,260(a1)
1d00b924:	0501a290 	lbu	v0,261(a1)
1d00b928:	0a01a690 	lbu	a2,266(a1)
1d00b92c:	0401a58c 	lw	a1,260(a1)
1d00b930:	03000824 	li	t0,3
1d00b934:	04ce057d 	ins	a1,t0,0x18,0x2
1d00b938:	5000a5af 	sw	a1,80(sp)
1d00b93c:	001be87c 	ext	t0,a3,0xc,0x4
1d00b940:	01000825 	addiu	t0,t0,1
1d00b944:	2128e000 	move	a1,a3
1d00b948:	047b057d 	ins	a1,t0,0xc,0x4
1d00b94c:	5400a5af 	sw	a1,84(sp)
1d00b950:	0600852c 	sltiu	a1,a0,6
1d00b954:	82fca010 	beqz	a1,0x1d00ab60
1d00b958:	019d053c 	lui	a1,0x9d01
1d00b95c:	80200400 	sll	a0,a0,0x2
1d00b960:	74b9a524 	addiu	a1,a1,-18060
1d00b964:	2120a400 	addu	a0,a1,a0
1d00b968:	0000848c 	lw	a0,0(a0)
1d00b96c:	08008000 	jr	a0
1d00b970:	00000000 	nop
1d00b974:	60ab009d 	0x9d00ab60
1d00b978:	d8aa009d 	0x9d00aad8
1d00b97c:	ecaa009d 	0x9d00aaec
1d00b980:	00ab009d 	0x9d00ab00
1d00b984:	14ab009d 	0x9d00ab14
1d00b988:	4cab009d 	0x9d00ab4c
1d00b98c:	d435648c 	lw	a0,13780(v1)
1d00b990:	01a0033c 	lui	v1,0xa001
1d00b994:	e02b400b 	j	0x1d00af80
1d00b998:	082e64ac 	sw	a0,11784(v1)
1d00b99c:	6000b08f 	lw	s0,96(sp)
1d00b9a0:	0800e003 	jr	ra
1d00b9a4:	6800bd27 	addiu	sp,sp,104
1d00b9a8:	98ffbd27 	addiu	sp,sp,-104
1d00b9ac:	6400bfaf 	sw	ra,100(sp)
1d00b9b0:	6000beaf 	sw	s8,96(sp)
1d00b9b4:	5c00b7af 	sw	s7,92(sp)
1d00b9b8:	5800b6af 	sw	s6,88(sp)
1d00b9bc:	5400b5af 	sw	s5,84(sp)
1d00b9c0:	5000b4af 	sw	s4,80(sp)
1d00b9c4:	4c00b3af 	sw	s3,76(sp)
1d00b9c8:	4800b2af 	sw	s2,72(sp)
1d00b9cc:	4400b1af 	sw	s1,68(sp)
1d00b9d0:	3c61400f 	jal	0x1d0184f0
1d00b9d4:	4000b0af 	sw	s0,64(sp)
1d00b9d8:	01a0103c 	lui	s0,0xa001
1d00b9dc:	01a0153c 	lui	s5,0xa001
1d00b9e0:	01a0163c 	lui	s6,0xa001
1d00b9e4:	01a0143c 	lui	s4,0xa001
1d00b9e8:	01a0173c 	lui	s7,0xa001
1d00b9ec:	019d1e3c 	lui	s8,0x9d01
1d00b9f0:	c933400b 	j	0x1d00cf24
1d00b9f4:	44c8de27 	addiu	s8,s8,-14268
1d00b9f8:	2000a2af 	sw	v0,32(sp)
1d00b9fc:	1400a28f 	lw	v0,20(sp)
1d00ba00:	2400a2af 	sw	v0,36(sp)
1d00ba04:	1800a28f 	lw	v0,24(sp)
1d00ba08:	2800a2af 	sw	v0,40(sp)
1d00ba0c:	1c00a28f 	lw	v0,28(sp)
1d00ba10:	2c00a2af 	sw	v0,44(sp)
1d00ba14:	b42f028e 	lw	v0,12212(s0)
1d00ba18:	02005110 	beq	v0,s1,0x1d00ba24
1d00ba1c:	01004224 	addiu	v0,v0,1
1d00ba20:	b42f02ae 	sw	v0,12212(s0)
1d00ba24:	e349400f 	jal	0x1d01278c
1d00ba28:	00000000 	nop
1d00ba2c:	3b054010 	beqz	v0,0x1d00cf1c
1d00ba30:	1400a28f 	lw	v0,20(sp)
1d00ba34:	0f004430 	andi	a0,v0,0xf
1d00ba38:	0007437c 	ext	v1,v0,0x1c,0x1
1d00ba3c:	24105200 	and	v0,v0,s2
1d00ba40:	08004050 	beqzl	v0,0x1d00ba64
1d00ba44:	1000a28f 	lw	v0,16(sp)
1d00ba48:	1000a58f 	lw	a1,16(sp)
1d00ba4c:	ff07a530 	andi	a1,a1,0x7ff
1d00ba50:	802c0500 	sll	a1,a1,0x12
1d00ba54:	1400a28f 	lw	v0,20(sp)
1d00ba58:	808a427c 	ext	v0,v0,0xa,0x12
1d00ba5c:	9a2e400b 	j	0x1d00ba68
1d00ba60:	2510a200 	or	v0,a1,v0
1d00ba64:	ff074230 	andi	v0,v0,0x7ff
1d00ba68:	2c056014 	bnez	v1,0x1d00cf1c
1d00ba6c:	00000000 	nop
1d00ba70:	98005310 	beq	v0,s3,0x1d00bcd4
1d00ba74:	8b01432c 	sltiu	v1,v0,395
1d00ba78:	30006010 	beqz	v1,0x1d00bb3c
1d00ba7c:	81000324 	li	v1,129
1d00ba80:	31044310 	beq	v0,v1,0x1d00cb48
1d00ba84:	8200432c 	sltiu	v1,v0,130
1d00ba88:	17006010 	beqz	v1,0x1d00bae8
1d00ba8c:	65010324 	li	v1,357
1d00ba90:	5d000324 	li	v1,93
1d00ba94:	42034310 	beq	v0,v1,0x1d00c7a0
1d00ba98:	5e00432c 	sltiu	v1,v0,94
1d00ba9c:	0a006010 	beqz	v1,0x1d00bac8
1d00baa0:	77000324 	li	v1,119
1d00baa4:	5a000324 	li	v1,90
1d00baa8:	81024310 	beq	v0,v1,0x1d00c4b0
1d00baac:	5c000324 	li	v1,92
1d00bab0:	20034310 	beq	v0,v1,0x1d00c734
1d00bab4:	4c000324 	li	v1,76
1d00bab8:	18054314 	bne	v0,v1,0x1d00cf1c
1d00babc:	0800842c 	sltiu	a0,a0,8
1d00bac0:	8832400b 	j	0x1d00ca20
1d00bac4:	00000000 	nop
1d00bac8:	fd004310 	beq	v0,v1,0x1d00bec0
1d00bacc:	7d000324 	li	v1,125
1d00bad0:	0b014310 	beq	v0,v1,0x1d00bf00
1d00bad4:	76000324 	li	v1,118
1d00bad8:	10054314 	bne	v0,v1,0x1d00cf1c
1d00badc:	0800842c 	sltiu	a0,a0,8
1d00bae0:	992f400b 	j	0x1d00be64
1d00bae4:	00000000 	nop
1d00bae8:	25024310 	beq	v0,v1,0x1d00c380
1d00baec:	6601432c 	sltiu	v1,v0,358
1d00baf0:	0a006010 	beqz	v1,0x1d00bb1c
1d00baf4:	86010324 	li	v1,390
1d00baf8:	91000324 	li	v1,145
1d00bafc:	d6044310 	beq	v0,v1,0x1d00ce58
1d00bb00:	92000324 	li	v1,146
1d00bb04:	83004310 	beq	v0,v1,0x1d00bd14
1d00bb08:	83000324 	li	v1,131
1d00bb0c:	03054314 	bne	v0,v1,0x1d00cf1c
1d00bb10:	0800842c 	sltiu	a0,a0,8
1d00bb14:	c132400b 	j	0x1d00cb04
1d00bb18:	00000000 	nop
1d00bb1c:	47004310 	beq	v0,v1,0x1d00bc3c
1d00bb20:	87010324 	li	v1,391
1d00bb24:	58004310 	beq	v0,v1,0x1d00bc88
1d00bb28:	67010324 	li	v1,359
1d00bb2c:	fb044314 	bne	v0,v1,0x1d00cf1c
1d00bb30:	0800842c 	sltiu	a0,a0,8
1d00bb34:	0b33400b 	j	0x1d00cc2c
1d00bb38:	00000000 	nop
1d00bb3c:	a6030324 	li	v1,934
1d00bb40:	ca034310 	beq	v0,v1,0x1d00ca6c
1d00bb44:	a703432c 	sltiu	v1,v0,935
1d00bb48:	17006010 	beqz	v1,0x1d00bba8
1d00bb4c:	15040324 	li	v1,1045
1d00bb50:	16020324 	li	v1,534
1d00bb54:	44044310 	beq	v0,v1,0x1d00cc68
1d00bb58:	1702432c 	sltiu	v1,v0,535
1d00bb5c:	0a006010 	beqz	v1,0x1d00bb88
1d00bb60:	30020324 	li	v1,560
1d00bb64:	04020324 	li	v1,516
1d00bb68:	15024310 	beq	v0,v1,0x1d00c3c0
1d00bb6c:	13020324 	li	v1,531
1d00bb70:	f3014310 	beq	v0,v1,0x1d00c340
1d00bb74:	02020324 	li	v1,514
1d00bb78:	e8044314 	bne	v0,v1,0x1d00cf1c
1d00bb7c:	0800842c 	sltiu	a0,a0,8
1d00bb80:	0031400b 	j	0x1d00c400
1d00bb84:	00000000 	nop
1d00bb88:	ff034310 	beq	v0,v1,0x1d00cb88
1d00bb8c:	42020324 	li	v1,578
1d00bb90:	a4004310 	beq	v0,v1,0x1d00be24
1d00bb94:	17020324 	li	v1,535
1d00bb98:	e0044314 	bne	v0,v1,0x1d00cf1c
1d00bb9c:	0800842c 	sltiu	a0,a0,8
1d00bba0:	7833400b 	j	0x1d00cde0
1d00bba4:	00000000 	nop
1d00bba8:	a2014310 	beq	v0,v1,0x1d00c234
1d00bbac:	1604432c 	sltiu	v1,v0,1046
1d00bbb0:	0a006010 	beqz	v1,0x1d00bbdc
1d00bbb4:	30040324 	li	v1,1072
1d00bbb8:	a8030324 	li	v1,936
1d00bbbc:	82034310 	beq	v0,v1,0x1d00c9c8
1d00bbc0:	a803432c 	sltiu	v1,v0,936
1d00bbc4:	bc036014 	bnez	v1,0x1d00cab8
1d00bbc8:	ca030324 	li	v1,970
1d00bbcc:	46034310 	beq	v0,v1,0x1d00c8e8
1d00bbd0:	0800842c 	sltiu	a0,a0,8
1d00bbd4:	c733400b 	j	0x1d00cf1c
1d00bbd8:	00000000 	nop
1d00bbdc:	c8014310 	beq	v0,v1,0x1d00c300
1d00bbe0:	b0040324 	li	v1,1200
1d00bbe4:	05004310 	beq	v0,v1,0x1d00bbfc
1d00bbe8:	16040324 	li	v1,1046
1d00bbec:	cb044314 	bne	v0,v1,0x1d00cf1c
1d00bbf0:	0800842c 	sltiu	a0,a0,8
1d00bbf4:	b130400b 	j	0x1d00c2c4
1d00bbf8:	00000000 	nop
1d00bbfc:	0800842c 	sltiu	a0,a0,8
1d00bc00:	cb048014 	bnez	a0,0x1d00cf30
1d00bc04:	b42f0226 	addiu	v0,s0,12212
1d00bc08:	1800a38f 	lw	v1,24(sp)
1d00bc0c:	040043ac 	sw	v1,4(v0)
1d00bc10:	1c00a38f 	lw	v1,28(sp)
1d00bc14:	080043ac 	sw	v1,8(v0)
1d00bc18:	c8000324 	li	v1,200
1d00bc1c:	0c0043ac 	sw	v1,12(v0)
1d00bc20:	1000428c 	lw	v0,16(v0)
1d00bc24:	ffff0324 	li	v1,-1
1d00bc28:	bc044310 	beq	v0,v1,0x1d00cf1c
1d00bc2c:	b42f0326 	addiu	v1,s0,12212
1d00bc30:	01004224 	addiu	v0,v0,1
1d00bc34:	c733400b 	j	0x1d00cf1c
1d00bc38:	100062ac 	sw	v0,16(v1)
1d00bc3c:	0800842c 	sltiu	a0,a0,8
1d00bc40:	bb048014 	bnez	a0,0x1d00cf30
1d00bc44:	b42f0226 	addiu	v0,s0,12212
1d00bc48:	1800a38f 	lw	v1,24(sp)
1d00bc4c:	140043ac 	sw	v1,20(v0)
1d00bc50:	1c00a38f 	lw	v1,28(sp)
1d00bc54:	180043ac 	sw	v1,24(v0)
1d00bc58:	c8000324 	li	v1,200
1d00bc5c:	1c0043ac 	sw	v1,28(v0)
1d00bc60:	2000428c 	lw	v0,32(v0)
1d00bc64:	ffff0324 	li	v1,-1
1d00bc68:	03004310 	beq	v0,v1,0x1d00bc78
1d00bc6c:	b42f0326 	addiu	v1,s0,12212
1d00bc70:	01004224 	addiu	v0,v0,1
1d00bc74:	200062ac 	sw	v0,32(v1)
1d00bc78:	0f25400f 	jal	0x1d00943c
1d00bc7c:	00000000 	nop
1d00bc80:	c733400b 	j	0x1d00cf1c
1d00bc84:	00000000 	nop
1d00bc88:	0800842c 	sltiu	a0,a0,8
1d00bc8c:	a8048014 	bnez	a0,0x1d00cf30
1d00bc90:	b42f0226 	addiu	v0,s0,12212
1d00bc94:	1800a38f 	lw	v1,24(sp)
1d00bc98:	240043ac 	sw	v1,36(v0)
1d00bc9c:	1c00a38f 	lw	v1,28(sp)
1d00bca0:	280043ac 	sw	v1,40(v0)
1d00bca4:	c8000324 	li	v1,200
1d00bca8:	2c0043ac 	sw	v1,44(v0)
1d00bcac:	3000428c 	lw	v0,48(v0)
1d00bcb0:	ffff0324 	li	v1,-1
1d00bcb4:	03004310 	beq	v0,v1,0x1d00bcc4
1d00bcb8:	b42f0326 	addiu	v1,s0,12212
1d00bcbc:	01004224 	addiu	v0,v0,1
1d00bcc0:	300062ac 	sw	v0,48(v1)
1d00bcc4:	0f25400f 	jal	0x1d00943c
1d00bcc8:	00000000 	nop
1d00bccc:	c733400b 	j	0x1d00cf1c
1d00bcd0:	00000000 	nop
1d00bcd4:	0800842c 	sltiu	a0,a0,8
1d00bcd8:	95048014 	bnez	a0,0x1d00cf30
1d00bcdc:	b42f0226 	addiu	v0,s0,12212
1d00bce0:	1800a38f 	lw	v1,24(sp)
1d00bce4:	340043ac 	sw	v1,52(v0)
1d00bce8:	1c00a38f 	lw	v1,28(sp)
1d00bcec:	380043ac 	sw	v1,56(v0)
1d00bcf0:	fa000324 	li	v1,250
1d00bcf4:	3c0043ac 	sw	v1,60(v0)
1d00bcf8:	4000428c 	lw	v0,64(v0)
1d00bcfc:	ffff0324 	li	v1,-1
1d00bd00:	86044310 	beq	v0,v1,0x1d00cf1c
1d00bd04:	b42f0326 	addiu	v1,s0,12212
1d00bd08:	01004224 	addiu	v0,v0,1
1d00bd0c:	c733400b 	j	0x1d00cf1c
1d00bd10:	400062ac 	sw	v0,64(v1)
1d00bd14:	0800842c 	sltiu	a0,a0,8
1d00bd18:	85048014 	bnez	a0,0x1d00cf30
1d00bd1c:	b42f0226 	addiu	v0,s0,12212
1d00bd20:	1800a38f 	lw	v1,24(sp)
1d00bd24:	440043ac 	sw	v1,68(v0)
1d00bd28:	1c00a38f 	lw	v1,28(sp)
1d00bd2c:	480043ac 	sw	v1,72(v0)
1d00bd30:	06010324 	li	v1,262
1d00bd34:	4c0043ac 	sw	v1,76(v0)
1d00bd38:	5000428c 	lw	v0,80(v0)
1d00bd3c:	ffff0324 	li	v1,-1
1d00bd40:	03004310 	beq	v0,v1,0x1d00bd50
1d00bd44:	b42f0326 	addiu	v1,s0,12212
1d00bd48:	01004224 	addiu	v0,v0,1
1d00bd4c:	500062ac 	sw	v0,80(v1)
1d00bd50:	b42f0226 	addiu	v0,s0,12212
1d00bd54:	5000428c 	lw	v0,80(v0)
1d00bd58:	0300422c 	sltiu	v0,v0,3
1d00bd5c:	6f044014 	bnez	v0,0x1d00cf1c
1d00bd60:	06000224 	li	v0,6
1d00bd64:	3400a2af 	sw	v0,52(sp)
1d00bd68:	6b000224 	li	v0,107
1d00bd6c:	3000a2af 	sw	v0,48(sp)
1d00bd70:	3800a0af 	sw	zero,56(sp)
1d00bd74:	3c00a0a7 	sh	zero,60(sp)
1d00bd78:	b42f0226 	addiu	v0,s0,12212
1d00bd7c:	4400438c 	lw	v1,68(v0)
1d00bd80:	60006430 	andi	a0,v1,0x60
1d00bd84:	60000224 	li	v0,96
1d00bd88:	0a008214 	bne	a0,v0,0x1d00bdb4
1d00bd8c:	6000023c 	lui	v0,0x60
1d00bd90:	b42f0226 	addiu	v0,s0,12212
1d00bd94:	45004490 	lbu	a0,69(v0)
1d00bd98:	60f08424 	addiu	a0,a0,-4000
1d00bd9c:	0020627c 	ext	v0,v1,0x0,0x5
1d00bda0:	ff004230 	andi	v0,v0,0xff
1d00bda4:	00120200 	sll	v0,v0,0x8
1d00bda8:	21108200 	addu	v0,a0,v0
1d00bdac:	3800a2a7 	sh	v0,56(sp)
1d00bdb0:	6000023c 	lui	v0,0x60
1d00bdb4:	24186200 	and	v1,v1,v0
1d00bdb8:	09006214 	bne	v1,v0,0x1d00bde0
1d00bdbc:	b42f0226 	addiu	v0,s0,12212
1d00bdc0:	47004390 	lbu	v1,71(v0)
1d00bdc4:	60f06324 	addiu	v1,v1,-4000
1d00bdc8:	4400428c 	lw	v0,68(v0)
1d00bdcc:	0024427c 	ext	v0,v0,0x10,0x5
1d00bdd0:	00120200 	sll	v0,v0,0x8
1d00bdd4:	21106200 	addu	v0,v1,v0
1d00bdd8:	3a00a2a7 	sh	v0,58(sp)
1d00bddc:	b42f0226 	addiu	v0,s0,12212
1d00bde0:	4800438c 	lw	v1,72(v0)
1d00bde4:	60006330 	andi	v1,v1,0x60
1d00bde8:	60000224 	li	v0,96
1d00bdec:	09006214 	bne	v1,v0,0x1d00be14
1d00bdf0:	b42f0226 	addiu	v0,s0,12212
1d00bdf4:	49004390 	lbu	v1,73(v0)
1d00bdf8:	60f06324 	addiu	v1,v1,-4000
1d00bdfc:	4800428c 	lw	v0,72(v0)
1d00be00:	0020427c 	ext	v0,v0,0x0,0x5
1d00be04:	ff004230 	andi	v0,v0,0xff
1d00be08:	00120200 	sll	v0,v0,0x8
1d00be0c:	21106200 	addu	v0,v1,v0
1d00be10:	3c00a2a7 	sh	v0,60(sp)
1d00be14:	204d400f 	jal	0x1d013480
1d00be18:	3000a427 	addiu	a0,sp,48
1d00be1c:	c733400b 	j	0x1d00cf1c
1d00be20:	00000000 	nop
1d00be24:	0800842c 	sltiu	a0,a0,8
1d00be28:	41048014 	bnez	a0,0x1d00cf30
1d00be2c:	b42f0226 	addiu	v0,s0,12212
1d00be30:	1800a38f 	lw	v1,24(sp)
1d00be34:	540043ac 	sw	v1,84(v0)
1d00be38:	1c00a38f 	lw	v1,28(sp)
1d00be3c:	580043ac 	sw	v1,88(v0)
1d00be40:	fa000324 	li	v1,250
1d00be44:	5c0043ac 	sw	v1,92(v0)
1d00be48:	6000428c 	lw	v0,96(v0)
1d00be4c:	ffff0324 	li	v1,-1
1d00be50:	32044310 	beq	v0,v1,0x1d00cf1c
1d00be54:	b42f0326 	addiu	v1,s0,12212
1d00be58:	01004224 	addiu	v0,v0,1
1d00be5c:	c733400b 	j	0x1d00cf1c
1d00be60:	600062ac 	sw	v0,96(v1)
1d00be64:	32048014 	bnez	a0,0x1d00cf30
1d00be68:	b42f0226 	addiu	v0,s0,12212
1d00be6c:	1800a38f 	lw	v1,24(sp)
1d00be70:	640043ac 	sw	v1,100(v0)
1d00be74:	1c00a38f 	lw	v1,28(sp)
1d00be78:	680043ac 	sw	v1,104(v0)
1d00be7c:	c8000324 	li	v1,200
1d00be80:	6c0043ac 	sw	v1,108(v0)
1d00be84:	7000428c 	lw	v0,112(v0)
1d00be88:	ffff0324 	li	v1,-1
1d00be8c:	03004310 	beq	v0,v1,0x1d00be9c
1d00be90:	b42f0326 	addiu	v1,s0,12212
1d00be94:	01004224 	addiu	v0,v0,1
1d00be98:	700062ac 	sw	v0,112(v1)
1d00be9c:	c000023c 	lui	v0,0xc0
1d00bea0:	2800a38f 	lw	v1,40(sp)
1d00bea4:	24186200 	and	v1,v1,v0
1d00bea8:	1c046210 	beq	v1,v0,0x1d00cf1c
1d00beac:	2800a28f 	lw	v0,40(sp)
1d00beb0:	03000324 	li	v1,3
1d00beb4:	84bd627c 	ins	v0,v1,0x16,0x2
1d00beb8:	c733400b 	j	0x1d00cf1c
1d00bebc:	2800a2af 	sw	v0,40(sp)
1d00bec0:	0800842c 	sltiu	a0,a0,8
1d00bec4:	1a048014 	bnez	a0,0x1d00cf30
1d00bec8:	b42f0226 	addiu	v0,s0,12212
1d00becc:	1800a38f 	lw	v1,24(sp)
1d00bed0:	740043ac 	sw	v1,116(v0)
1d00bed4:	1c00a38f 	lw	v1,28(sp)
1d00bed8:	780043ac 	sw	v1,120(v0)
1d00bedc:	c8000324 	li	v1,200
1d00bee0:	7c0043ac 	sw	v1,124(v0)
1d00bee4:	8000428c 	lw	v0,128(v0)
1d00bee8:	ffff0324 	li	v1,-1
1d00beec:	0b044310 	beq	v0,v1,0x1d00cf1c
1d00bef0:	b42f0326 	addiu	v1,s0,12212
1d00bef4:	01004224 	addiu	v0,v0,1
1d00bef8:	c733400b 	j	0x1d00cf1c
1d00befc:	800062ac 	sw	v0,128(v1)
1d00bf00:	0800842c 	sltiu	a0,a0,8
1d00bf04:	0a048014 	bnez	a0,0x1d00cf30
1d00bf08:	b42f0226 	addiu	v0,s0,12212
1d00bf0c:	1800a38f 	lw	v1,24(sp)
1d00bf10:	840043ac 	sw	v1,132(v0)
1d00bf14:	1c00a38f 	lw	v1,28(sp)
1d00bf18:	880043ac 	sw	v1,136(v0)
1d00bf1c:	c8000324 	li	v1,200
1d00bf20:	8c0043ac 	sw	v1,140(v0)
1d00bf24:	9000428c 	lw	v0,144(v0)
1d00bf28:	ffff0324 	li	v1,-1
1d00bf2c:	03004310 	beq	v0,v1,0x1d00bf3c
1d00bf30:	b42f0326 	addiu	v1,s0,12212
1d00bf34:	01004224 	addiu	v0,v0,1
1d00bf38:	900062ac 	sw	v0,144(v1)
1d00bf3c:	b42f0226 	addiu	v0,s0,12212
1d00bf40:	9000428c 	lw	v0,144(v0)
1d00bf44:	0b00422c 	sltiu	v0,v0,11
1d00bf48:	f4034014 	bnez	v0,0x1d00cf1c
1d00bf4c:	b42f0226 	addiu	v0,s0,12212
1d00bf50:	3800a0af 	sw	zero,56(sp)
1d00bf54:	3c00a0af 	sw	zero,60(sp)
1d00bf58:	8400438c 	lw	v1,132(v0)
1d00bf5c:	001e657c 	ext	a1,v1,0x18,0x4
1d00bf60:	402a0500 	sll	a1,a1,0x9
1d00bf64:	88004490 	lbu	a0,136(v0)
1d00bf68:	40200400 	sll	a0,a0,0x1
1d00bf6c:	2128a400 	addu	a1,a1,a0
1d00bf70:	8800448c 	lw	a0,136(v0)
1d00bf74:	c003847c 	ext	a0,a0,0xf,0x1
1d00bf78:	2120a400 	addu	a0,a1,a0
1d00bf7c:	0020637c 	ext	v1,v1,0x0,0x5
1d00bf80:	ff006330 	andi	v1,v1,0xff
1d00bf84:	001a0300 	sll	v1,v1,0x8
1d00bf88:	85004290 	lbu	v0,133(v0)
1d00bf8c:	21106200 	addu	v0,v1,v0
1d00bf90:	21184000 	move	v1,v0
1d00bf94:	ffff4230 	andi	v0,v0,0xffff
1d00bf98:	0010422c 	sltiu	v0,v0,4096
1d00bf9c:	02004014 	bnez	v0,0x1d00bfa8
1d00bfa0:	ffff8430 	andi	a0,a0,0xffff
1d00bfa4:	ff0f0324 	li	v1,4095
1d00bfa8:	3800a28f 	lw	v0,56(sp)
1d00bfac:	0458627c 	ins	v0,v1,0x0,0xc
1d00bfb0:	b42f0326 	addiu	v1,s0,12212
1d00bfb4:	8400638c 	lw	v1,132(v1)
1d00bfb8:	4011637c 	ext	v1,v1,0x5,0x3
1d00bfbc:	0473627c 	ins	v0,v1,0xc,0x3
1d00bfc0:	21188000 	move	v1,a0
1d00bfc4:	0010842c 	sltiu	a0,a0,4096
1d00bfc8:	02008014 	bnez	a0,0x1d00bfd4
1d00bfcc:	3800a2af 	sw	v0,56(sp)
1d00bfd0:	ff0f0324 	li	v1,4095
1d00bfd4:	3800a28f 	lw	v0,56(sp)
1d00bfd8:	04dc627c 	ins	v0,v1,0x10,0xc
1d00bfdc:	3800a2af 	sw	v0,56(sp)
1d00bfe0:	b42f0226 	addiu	v0,s0,12212
1d00bfe4:	b000428c 	lw	v0,176(v0)
1d00bfe8:	0300422c 	sltiu	v0,v0,3
1d00bfec:	15004014 	bnez	v0,0x1d00c044
1d00bff0:	3800a28f 	lw	v0,56(sp)
1d00bff4:	b42f0226 	addiu	v0,s0,12212
1d00bff8:	a800438c 	lw	v1,168(v0)
1d00bffc:	3800a48f 	lw	a0,56(sp)
1d00c000:	04ef647c 	ins	a0,v1,0x1c,0x2
1d00c004:	3800a4af 	sw	a0,56(sp)
1d00c008:	a400428c 	lw	v0,164(v0)
1d00c00c:	20004538 	xori	a1,v0,0x20
1d00c010:	4001a57c 	ext	a1,a1,0x5,0x1
1d00c014:	3c00a48f 	lw	a0,60(sp)
1d00c018:	c4dea47c 	ins	a0,a1,0x1b,0x1
1d00c01c:	0001457c 	ext	a1,v0,0x4,0x1
1d00c020:	44efa47c 	ins	a0,a1,0x1d,0x1
1d00c024:	0007457c 	ext	a1,v0,0x1c,0x1
1d00c028:	21108000 	move	v0,a0
1d00c02c:	84f7a27c 	ins	v0,a1,0x1e,0x1
1d00c030:	00186330 	andi	v1,v1,0x1800
1d00c034:	0100632c 	sltiu	v1,v1,1
1d00c038:	c4ff627c 	ins	v0,v1,0x1f,0x1
1d00c03c:	1430400b 	j	0x1d00c050
1d00c040:	3c00a2af 	sw	v0,60(sp)
1d00c044:	03000324 	li	v1,3
1d00c048:	04ef627c 	ins	v0,v1,0x1c,0x2
1d00c04c:	3800a2af 	sw	v0,56(sp)
1d00c050:	b42f0226 	addiu	v0,s0,12212
1d00c054:	d000428c 	lw	v0,208(v0)
1d00c058:	0300422c 	sltiu	v0,v0,3
1d00c05c:	39004014 	bnez	v0,0x1d00c144
1d00c060:	3800a28f 	lw	v0,56(sp)
1d00c064:	b42f0226 	addiu	v0,s0,12212
1d00c068:	ca004390 	lbu	v1,202(v0)
1d00c06c:	01fe6324 	addiu	v1,v1,-511
1d00c070:	c800428c 	lw	v0,200(v0)
1d00c074:	00034230 	andi	v0,v0,0x300
1d00c078:	21106200 	addu	v0,v1,v0
1d00c07c:	2016027c 	seh	v0,v0
1d00c080:	ff014328 	slti	v1,v0,511
1d00c084:	07006010 	beqz	v1,0x1d00c0a4
1d00c088:	ff010424 	li	a0,511
1d00c08c:	21184000 	move	v1,v0
1d00c090:	00fe4228 	slti	v0,v0,-512
1d00c094:	01004054 	bnezl	v0,0x1d00c09c
1d00c098:	00fe0324 	li	v1,-512
1d00c09c:	801d0300 	sll	v1,v1,0x16
1d00c0a0:	83250300 	sra	a0,v1,0x16
1d00c0a4:	3c00a38f 	lw	v1,60(sp)
1d00c0a8:	04cc837c 	ins	v1,a0,0x10,0xa
1d00c0ac:	b42f0226 	addiu	v0,s0,12212
1d00c0b0:	c800448c 	lw	a0,200(v0)
1d00c0b4:	c001867c 	ext	a2,a0,0x7,0x1
1d00c0b8:	3800a58f 	lw	a1,56(sp)
1d00c0bc:	c47bc57c 	ins	a1,a2,0xf,0x1
1d00c0c0:	3800a5af 	sw	a1,56(sp)
1d00c0c4:	4003847c 	ext	a0,a0,0xd,0x1
1d00c0c8:	84d6837c 	ins	v1,a0,0x1a,0x1
1d00c0cc:	c400428c 	lw	v0,196(v0)
1d00c0d0:	c005447c 	ext	a0,v0,0x17,0x1
1d00c0d4:	04e7837c 	ins	v1,a0,0x1c,0x1
1d00c0d8:	3c00a3af 	sw	v1,60(sp)
1d00c0dc:	0016427c 	ext	v0,v0,0x18,0x3
1d00c0e0:	02000324 	li	v1,2
1d00c0e4:	0b004310 	beq	v0,v1,0x1d00c114
1d00c0e8:	04000324 	li	v1,4
1d00c0ec:	05004310 	beq	v0,v1,0x1d00c104
1d00c0f0:	01000324 	li	v1,1
1d00c0f4:	0f004314 	bne	v0,v1,0x1d00c134
1d00c0f8:	3800a28f 	lw	v0,56(sp)
1d00c0fc:	4a30400b 	j	0x1d00c128
1d00c100:	02000324 	li	v1,2
1d00c104:	3800a28f 	lw	v0,56(sp)
1d00c108:	84ff027c 	ins	v0,zero,0x1e,0x2
1d00c10c:	5430400b 	j	0x1d00c150
1d00c110:	3800a2af 	sw	v0,56(sp)
1d00c114:	3800a28f 	lw	v0,56(sp)
1d00c118:	01000324 	li	v1,1
1d00c11c:	84ff627c 	ins	v0,v1,0x1e,0x2
1d00c120:	5430400b 	j	0x1d00c150
1d00c124:	3800a2af 	sw	v0,56(sp)
1d00c128:	84ff627c 	ins	v0,v1,0x1e,0x2
1d00c12c:	5430400b 	j	0x1d00c150
1d00c130:	3800a2af 	sw	v0,56(sp)
1d00c134:	03000324 	li	v1,3
1d00c138:	84ff627c 	ins	v0,v1,0x1e,0x2
1d00c13c:	5430400b 	j	0x1d00c150
1d00c140:	3800a2af 	sw	v0,56(sp)
1d00c144:	03000324 	li	v1,3
1d00c148:	84ff627c 	ins	v0,v1,0x1e,0x2
1d00c14c:	3800a2af 	sw	v0,56(sp)
1d00c150:	b42f0226 	addiu	v0,s0,12212
1d00c154:	8c03428c 	lw	v0,908(v0)
1d00c158:	0300422c 	sltiu	v0,v0,3
1d00c15c:	14004014 	bnez	v0,0x1d00c1b0
1d00c160:	b42f0226 	addiu	v0,s0,12212
1d00c164:	82034390 	lbu	v1,898(v0)
1d00c168:	00806324 	addiu	v1,v1,-32768
1d00c16c:	81034290 	lbu	v0,897(v0)
1d00c170:	00120200 	sll	v0,v0,0x8
1d00c174:	21106200 	addu	v0,v1,v0
1d00c178:	2016027c 	seh	v0,v0
1d00c17c:	ff1f4428 	slti	a0,v0,8191
1d00c180:	07008010 	beqz	a0,0x1d00c1a0
1d00c184:	ff1f0324 	li	v1,8191
1d00c188:	21184000 	move	v1,v0
1d00c18c:	00e04228 	slti	v0,v0,-8192
1d00c190:	01004054 	bnezl	v0,0x1d00c198
1d00c194:	00e00324 	li	v1,-8192
1d00c198:	801c0300 	sll	v1,v1,0x12
1d00c19c:	831c0300 	sra	v1,v1,0x12
1d00c1a0:	3c00a28f 	lw	v0,60(sp)
1d00c1a4:	0468627c 	ins	v0,v1,0x0,0xe
1d00c1a8:	8330400b 	j	0x1d00c20c
1d00c1ac:	3c00a2af 	sw	v0,60(sp)
1d00c1b0:	c001428c 	lw	v0,448(v0)
1d00c1b4:	0300422c 	sltiu	v0,v0,3
1d00c1b8:	15004014 	bnez	v0,0x1d00c210
1d00c1bc:	08000224 	li	v0,8
1d00c1c0:	b42f0226 	addiu	v0,s0,12212
1d00c1c4:	b6014390 	lbu	v1,438(v0)
1d00c1c8:	00806324 	addiu	v1,v1,-32768
1d00c1cc:	b5014290 	lbu	v0,437(v0)
1d00c1d0:	00120200 	sll	v0,v0,0x8
1d00c1d4:	21106200 	addu	v0,v1,v0
1d00c1d8:	2016027c 	seh	v0,v0
1d00c1dc:	ff1f4428 	slti	a0,v0,8191
1d00c1e0:	07008010 	beqz	a0,0x1d00c200
1d00c1e4:	ff1f0324 	li	v1,8191
1d00c1e8:	21184000 	move	v1,v0
1d00c1ec:	00e04228 	slti	v0,v0,-8192
1d00c1f0:	01004054 	bnezl	v0,0x1d00c1f8
1d00c1f4:	00e00324 	li	v1,-8192
1d00c1f8:	801c0300 	sll	v1,v1,0x12
1d00c1fc:	831c0300 	sra	v1,v1,0x12
1d00c200:	3c00a28f 	lw	v0,60(sp)
1d00c204:	0468627c 	ins	v0,v1,0x0,0xe
1d00c208:	3c00a2af 	sw	v0,60(sp)
1d00c20c:	08000224 	li	v0,8
1d00c210:	3400a2af 	sw	v0,52(sp)
1d00c214:	74000224 	li	v0,116
1d00c218:	3000a2af 	sw	v0,48(sp)
1d00c21c:	204d400f 	jal	0x1d013480
1d00c220:	3000a427 	addiu	a0,sp,48
1d00c224:	8220400f 	jal	0x1d008208
1d00c228:	3000a427 	addiu	a0,sp,48
1d00c22c:	c733400b 	j	0x1d00cf1c
1d00c230:	00000000 	nop
1d00c234:	0800842c 	sltiu	a0,a0,8
1d00c238:	3d038014 	bnez	a0,0x1d00cf30
1d00c23c:	b42f0226 	addiu	v0,s0,12212
1d00c240:	1800a38f 	lw	v1,24(sp)
1d00c244:	940043ac 	sw	v1,148(v0)
1d00c248:	1c00a38f 	lw	v1,28(sp)
1d00c24c:	980043ac 	sw	v1,152(v0)
1d00c250:	c8000324 	li	v1,200
1d00c254:	9c0043ac 	sw	v1,156(v0)
1d00c258:	a000428c 	lw	v0,160(v0)
1d00c25c:	ffff0324 	li	v1,-1
1d00c260:	03004310 	beq	v0,v1,0x1d00c270
1d00c264:	b42f0326 	addiu	v1,s0,12212
1d00c268:	01004224 	addiu	v0,v0,1
1d00c26c:	a00062ac 	sw	v0,160(v1)
1d00c270:	6835a226 	addiu	v0,s5,13672
1d00c274:	07004290 	lbu	v0,7(v0)
1d00c278:	06004050 	beqzl	v0,0x1d00c294
1d00c27c:	2800a0a3 	sb	zero,40(sp)
1d00c280:	6835a226 	addiu	v0,s5,13672
1d00c284:	05004290 	lbu	v0,5(v0)
1d00c288:	24034010 	beqz	v0,0x1d00cf1c
1d00c28c:	00000000 	nop
1d00c290:	2800a0a3 	sb	zero,40(sp)
1d00c294:	2900a0a3 	sb	zero,41(sp)
1d00c298:	2800a28f 	lw	v0,40(sp)
1d00c29c:	03000324 	li	v1,3
1d00c2a0:	84bd627c 	ins	v0,v1,0x16,0x2
1d00c2a4:	2800a2af 	sw	v0,40(sp)
1d00c2a8:	003c427c 	ext	v0,v0,0x10,0x8
1d00c2ac:	8018437c 	ext	v1,v0,0x2,0x4
1d00c2b0:	ff006338 	xori	v1,v1,0xff
1d00c2b4:	82110200 	srl	v0,v0,0x6
1d00c2b8:	23106200 	subu	v0,v1,v0
1d00c2bc:	c733400b 	j	0x1d00cf1c
1d00c2c0:	2b00a2a3 	sb	v0,43(sp)
1d00c2c4:	1a038014 	bnez	a0,0x1d00cf30
1d00c2c8:	b42f0226 	addiu	v0,s0,12212
1d00c2cc:	1800a38f 	lw	v1,24(sp)
1d00c2d0:	a40043ac 	sw	v1,164(v0)
1d00c2d4:	1c00a38f 	lw	v1,28(sp)
1d00c2d8:	a80043ac 	sw	v1,168(v0)
1d00c2dc:	fa000324 	li	v1,250
1d00c2e0:	ac0043ac 	sw	v1,172(v0)
1d00c2e4:	b000428c 	lw	v0,176(v0)
1d00c2e8:	ffff0324 	li	v1,-1
1d00c2ec:	0b034310 	beq	v0,v1,0x1d00cf1c
1d00c2f0:	b42f0326 	addiu	v1,s0,12212
1d00c2f4:	01004224 	addiu	v0,v0,1
1d00c2f8:	c733400b 	j	0x1d00cf1c
1d00c2fc:	b00062ac 	sw	v0,176(v1)
1d00c300:	0800842c 	sltiu	a0,a0,8
1d00c304:	0a038014 	bnez	a0,0x1d00cf30
1d00c308:	b42f0226 	addiu	v0,s0,12212
1d00c30c:	1800a38f 	lw	v1,24(sp)
1d00c310:	b40043ac 	sw	v1,180(v0)
1d00c314:	1c00a38f 	lw	v1,28(sp)
1d00c318:	b80043ac 	sw	v1,184(v0)
1d00c31c:	fa000324 	li	v1,250
1d00c320:	bc0043ac 	sw	v1,188(v0)
1d00c324:	c000428c 	lw	v0,192(v0)
1d00c328:	ffff0324 	li	v1,-1
1d00c32c:	fb024310 	beq	v0,v1,0x1d00cf1c
1d00c330:	b42f0326 	addiu	v1,s0,12212
1d00c334:	01004224 	addiu	v0,v0,1
1d00c338:	c733400b 	j	0x1d00cf1c
1d00c33c:	c00062ac 	sw	v0,192(v1)
1d00c340:	0800842c 	sltiu	a0,a0,8
1d00c344:	fa028014 	bnez	a0,0x1d00cf30
1d00c348:	b42f0226 	addiu	v0,s0,12212
1d00c34c:	1800a38f 	lw	v1,24(sp)
1d00c350:	c40043ac 	sw	v1,196(v0)
1d00c354:	1c00a38f 	lw	v1,28(sp)
1d00c358:	c80043ac 	sw	v1,200(v0)
1d00c35c:	c8000324 	li	v1,200
1d00c360:	cc0043ac 	sw	v1,204(v0)
1d00c364:	d000428c 	lw	v0,208(v0)
1d00c368:	ffff0324 	li	v1,-1
1d00c36c:	eb024310 	beq	v0,v1,0x1d00cf1c
1d00c370:	b42f0326 	addiu	v1,s0,12212
1d00c374:	01004224 	addiu	v0,v0,1
1d00c378:	c733400b 	j	0x1d00cf1c
1d00c37c:	d00062ac 	sw	v0,208(v1)
1d00c380:	0800842c 	sltiu	a0,a0,8
1d00c384:	ea028014 	bnez	a0,0x1d00cf30
1d00c388:	b42f0226 	addiu	v0,s0,12212
1d00c38c:	1800a38f 	lw	v1,24(sp)
1d00c390:	d40043ac 	sw	v1,212(v0)
1d00c394:	1c00a38f 	lw	v1,28(sp)
1d00c398:	d80043ac 	sw	v1,216(v0)
1d00c39c:	c8000324 	li	v1,200
1d00c3a0:	dc0043ac 	sw	v1,220(v0)
1d00c3a4:	e000428c 	lw	v0,224(v0)
1d00c3a8:	ffff0324 	li	v1,-1
1d00c3ac:	db024310 	beq	v0,v1,0x1d00cf1c
1d00c3b0:	b42f0326 	addiu	v1,s0,12212
1d00c3b4:	01004224 	addiu	v0,v0,1
1d00c3b8:	c733400b 	j	0x1d00cf1c
1d00c3bc:	e00062ac 	sw	v0,224(v1)
1d00c3c0:	0800842c 	sltiu	a0,a0,8
1d00c3c4:	da028014 	bnez	a0,0x1d00cf30
1d00c3c8:	b42f0226 	addiu	v0,s0,12212
1d00c3cc:	1800a38f 	lw	v1,24(sp)
1d00c3d0:	e40043ac 	sw	v1,228(v0)
1d00c3d4:	1c00a38f 	lw	v1,28(sp)
1d00c3d8:	e80043ac 	sw	v1,232(v0)
1d00c3dc:	c8000324 	li	v1,200
1d00c3e0:	ec0043ac 	sw	v1,236(v0)
1d00c3e4:	f000428c 	lw	v0,240(v0)
1d00c3e8:	ffff0324 	li	v1,-1
1d00c3ec:	cb024310 	beq	v0,v1,0x1d00cf1c
1d00c3f0:	b42f0326 	addiu	v1,s0,12212
1d00c3f4:	01004224 	addiu	v0,v0,1
1d00c3f8:	c733400b 	j	0x1d00cf1c
1d00c3fc:	f00062ac 	sw	v0,240(v1)
1d00c400:	cb028014 	bnez	a0,0x1d00cf30
1d00c404:	b42f0226 	addiu	v0,s0,12212
1d00c408:	1800a38f 	lw	v1,24(sp)
1d00c40c:	f40043ac 	sw	v1,244(v0)
1d00c410:	1c00a38f 	lw	v1,28(sp)
1d00c414:	f80043ac 	sw	v1,248(v0)
1d00c418:	c8000324 	li	v1,200
1d00c41c:	fc0043ac 	sw	v1,252(v0)
1d00c420:	0001428c 	lw	v0,256(v0)
1d00c424:	ffff0324 	li	v1,-1
1d00c428:	03004310 	beq	v0,v1,0x1d00c438
1d00c42c:	b42f0326 	addiu	v1,s0,12212
1d00c430:	01004224 	addiu	v0,v0,1
1d00c434:	000162ac 	sw	v0,256(v1)
1d00c438:	6835a226 	addiu	v0,s5,13672
1d00c43c:	07004290 	lbu	v0,7(v0)
1d00c440:	06004050 	beqzl	v0,0x1d00c45c
1d00c444:	2e00a0a3 	sb	zero,46(sp)
1d00c448:	6835a226 	addiu	v0,s5,13672
1d00c44c:	05004290 	lbu	v0,5(v0)
1d00c450:	15004010 	beqz	v0,0x1d00c4a8
1d00c454:	6835a226 	addiu	v0,s5,13672
1d00c458:	2e00a0a3 	sb	zero,46(sp)
1d00c45c:	2f00a0a3 	sb	zero,47(sp)
1d00c460:	2c00a28f 	lw	v0,44(sp)
1d00c464:	03000324 	li	v1,3
1d00c468:	4431627c 	ins	v0,v1,0x5,0x2
1d00c46c:	2c00a2af 	sw	v0,44(sp)
1d00c470:	2a00a393 	lbu	v1,42(sp)
1d00c474:	c018637c 	ext	v1,v1,0x3,0x4
1d00c478:	ff006338 	xori	v1,v1,0xff
1d00c47c:	4009427c 	ext	v0,v0,0x5,0x2
1d00c480:	23106200 	subu	v0,v1,v0
1d00c484:	2900a2a3 	sb	v0,41(sp)
1d00c488:	6835a226 	addiu	v0,s5,13672
1d00c48c:	7400428c 	lw	v0,116(v0)
1d00c490:	ffff0324 	li	v1,-1
1d00c494:	a1024310 	beq	v0,v1,0x1d00cf1c
1d00c498:	6835a326 	addiu	v1,s5,13672
1d00c49c:	01004224 	addiu	v0,v0,1
1d00c4a0:	c733400b 	j	0x1d00cf1c
1d00c4a4:	740062ac 	sw	v0,116(v1)
1d00c4a8:	c733400b 	j	0x1d00cf1c
1d00c4ac:	740040ac 	sw	zero,116(v0)
1d00c4b0:	0800842c 	sltiu	a0,a0,8
1d00c4b4:	9e028014 	bnez	a0,0x1d00cf30
1d00c4b8:	b42f0226 	addiu	v0,s0,12212
1d00c4bc:	1800a38f 	lw	v1,24(sp)
1d00c4c0:	040143ac 	sw	v1,260(v0)
1d00c4c4:	1c00a38f 	lw	v1,28(sp)
1d00c4c8:	080143ac 	sw	v1,264(v0)
1d00c4cc:	fa000324 	li	v1,250
1d00c4d0:	0c0143ac 	sw	v1,268(v0)
1d00c4d4:	1001428c 	lw	v0,272(v0)
1d00c4d8:	ffff0324 	li	v1,-1
1d00c4dc:	03004310 	beq	v0,v1,0x1d00c4ec
1d00c4e0:	b42f0326 	addiu	v1,s0,12212
1d00c4e4:	01004224 	addiu	v0,v0,1
1d00c4e8:	100162ac 	sw	v0,272(v1)
1d00c4ec:	2800a38f 	lw	v1,40(sp)
1d00c4f0:	0003023c 	lui	v0,0x300
1d00c4f4:	24206200 	and	a0,v1,v0
1d00c4f8:	78008214 	bne	a0,v0,0x1d00c6dc
1d00c4fc:	40358226 	addiu	v0,s4,13632
1d00c500:	04d0037c 	ins	v1,zero,0x0,0x1b
1d00c504:	76006050 	beqzl	v1,0x1d00c6e0
1d00c508:	100040ac 	sw	zero,16(v0)
1d00c50c:	2800a28f 	lw	v0,40(sp)
1d00c510:	c2160200 	srl	v0,v0,0x1b
1d00c514:	02000324 	li	v1,2
1d00c518:	11004310 	beq	v0,v1,0x1d00c560
1d00c51c:	0300432c 	sltiu	v1,v0,3
1d00c520:	06006010 	beqz	v1,0x1d00c53c
1d00c524:	04000324 	li	v1,4
1d00c528:	01000324 	li	v1,1
1d00c52c:	09004310 	beq	v0,v1,0x1d00c554
1d00c530:	40358226 	addiu	v0,s4,13632
1d00c534:	6331400b 	j	0x1d00c58c
1d00c538:	100040ac 	sw	zero,16(v0)
1d00c53c:	0c004310 	beq	v0,v1,0x1d00c570
1d00c540:	08000324 	li	v1,8
1d00c544:	0e004310 	beq	v0,v1,0x1d00c580
1d00c548:	40358226 	addiu	v0,s4,13632
1d00c54c:	6231400b 	j	0x1d00c588
1d00c550:	100040ac 	sw	zero,16(v0)
1d00c554:	01000324 	li	v1,1
1d00c558:	6231400b 	j	0x1d00c588
1d00c55c:	100043ac 	sw	v1,16(v0)
1d00c560:	40358226 	addiu	v0,s4,13632
1d00c564:	02000324 	li	v1,2
1d00c568:	6331400b 	j	0x1d00c58c
1d00c56c:	100043ac 	sw	v1,16(v0)
1d00c570:	40358226 	addiu	v0,s4,13632
1d00c574:	03000324 	li	v1,3
1d00c578:	6331400b 	j	0x1d00c58c
1d00c57c:	100043ac 	sw	v1,16(v0)
1d00c580:	04000324 	li	v1,4
1d00c584:	100043ac 	sw	v1,16(v0)
1d00c588:	40358226 	addiu	v0,s4,13632
1d00c58c:	0400428c 	lw	v0,4(v0)
1d00c590:	50004014 	bnez	v0,0x1d00c6d4
1d00c594:	40358226 	addiu	v0,s4,13632
1d00c598:	2400428c 	lw	v0,36(v0)
1d00c59c:	0200422c 	sltiu	v0,v0,2
1d00c5a0:	0f004014 	bnez	v0,0x1d00c5e0
1d00c5a4:	40358226 	addiu	v0,s4,13632
1d00c5a8:	1000438c 	lw	v1,16(v0)
1d00c5ac:	01000224 	li	v0,1
1d00c5b0:	0c006214 	bne	v1,v0,0x1d00c5e4
1d00c5b4:	40358226 	addiu	v0,s4,13632
1d00c5b8:	0c00428c 	lw	v0,12(v0)
1d00c5bc:	01000324 	li	v1,1
1d00c5c0:	44004350 	beql	v0,v1,0x1d00c6d4
1d00c5c4:	40358226 	addiu	v0,s4,13632
1d00c5c8:	06004014 	bnez	v0,0x1d00c5e4
1d00c5cc:	40358226 	addiu	v0,s4,13632
1d00c5d0:	0800438c 	lw	v1,8(v0)
1d00c5d4:	01000224 	li	v0,1
1d00c5d8:	3e006210 	beq	v1,v0,0x1d00c6d4
1d00c5dc:	40358226 	addiu	v0,s4,13632
1d00c5e0:	40358226 	addiu	v0,s4,13632
1d00c5e4:	01000324 	li	v1,1
1d00c5e8:	140043a0 	sb	v1,20(v0)
1d00c5ec:	b42f0226 	addiu	v0,s0,12212
1d00c5f0:	4402428c 	lw	v0,580(v0)
1d00c5f4:	06004010 	beqz	v0,0x1d00c610
1d00c5f8:	b42f0226 	addiu	v0,s0,12212
1d00c5fc:	4002428c 	lw	v0,576(v0)
1d00c600:	0006427c 	ext	v0,v0,0x18,0x1
1d00c604:	31004014 	bnez	v0,0x1d00c6cc
1d00c608:	e8030224 	li	v0,1000
1d00c60c:	b42f0226 	addiu	v0,s0,12212
1d00c610:	6402428c 	lw	v0,612(v0)
1d00c614:	05004010 	beqz	v0,0x1d00c62c
1d00c618:	b42f0226 	addiu	v0,s0,12212
1d00c61c:	6002428c 	lw	v0,608(v0)
1d00c620:	0006427c 	ext	v0,v0,0x18,0x1
1d00c624:	29004014 	bnez	v0,0x1d00c6cc
1d00c628:	e8030224 	li	v0,1000
1d00c62c:	b42f0226 	addiu	v0,s0,12212
1d00c630:	0402428c 	lw	v0,516(v0)
1d00c634:	0400422c 	sltiu	v0,v0,4
1d00c638:	26004014 	bnez	v0,0x1d00c6d4
1d00c63c:	40358226 	addiu	v0,s4,13632
1d00c640:	b42f0226 	addiu	v0,s0,12212
1d00c644:	2402428c 	lw	v0,548(v0)
1d00c648:	0400422c 	sltiu	v0,v0,4
1d00c64c:	2d074050 	beqzl	v0,0x1d00e304
1d00c650:	b42f0226 	addiu	v0,s0,12212
1d00c654:	b531400b 	j	0x1d00c6d4
1d00c658:	40358226 	addiu	v0,s4,13632
1d00c65c:	0001428c 	lw	v0,256(v0)
1d00c660:	0400422c 	sltiu	v0,v0,4
1d00c664:	2d074050 	beqzl	v0,0x1d00e31c
1d00c668:	b42f0226 	addiu	v0,s0,12212
1d00c66c:	b531400b 	j	0x1d00c6d4
1d00c670:	40358226 	addiu	v0,s4,13632
1d00c674:	6c02428c 	lw	v0,620(v0)
1d00c678:	0004427c 	ext	v0,v0,0x10,0x1
1d00c67c:	14004010 	beqz	v0,0x1d00c6d0
1d00c680:	6835a226 	addiu	v0,s5,13672
1d00c684:	06004290 	lbu	v0,6(v0)
1d00c688:	11004014 	bnez	v0,0x1d00c6d0
1d00c68c:	6835a226 	addiu	v0,s5,13672
1d00c690:	07004290 	lbu	v0,7(v0)
1d00c694:	0f004014 	bnez	v0,0x1d00c6d4
1d00c698:	40358226 	addiu	v0,s4,13632
1d00c69c:	a25c400f 	jal	0x1d017288
1d00c6a0:	00000000 	nop
1d00c6a4:	05004010 	beqz	v0,0x1d00c6bc
1d00c6a8:	00000000 	nop
1d00c6ac:	ad5c400f 	jal	0x1d0172b4
1d00c6b0:	00000000 	nop
1d00c6b4:	07004010 	beqz	v0,0x1d00c6d4
1d00c6b8:	40358226 	addiu	v0,s4,13632
1d00c6bc:	5361400f 	jal	0x1d01854c
1d00c6c0:	00000000 	nop
1d00c6c4:	02004014 	bnez	v0,0x1d00c6d0
1d00c6c8:	e8030224 	li	v0,1000
1d00c6cc:	ac8082af 	sw	v0,-32596(gp)
1d00c6d0:	40358226 	addiu	v0,s4,13632
1d00c6d4:	b831400b 	j	0x1d00c6e0
1d00c6d8:	200040ac 	sw	zero,32(v0)
1d00c6dc:	100040ac 	sw	zero,16(v0)
1d00c6e0:	0003023c 	lui	v0,0x300
1d00c6e4:	2800a38f 	lw	v1,40(sp)
1d00c6e8:	24106200 	and	v0,v1,v0
1d00c6ec:	0001033c 	lui	v1,0x100
1d00c6f0:	08004314 	bne	v0,v1,0x1d00c714
1d00c6f4:	ffff0324 	li	v1,-1
1d00c6f8:	40358226 	addiu	v0,s4,13632
1d00c6fc:	2400428c 	lw	v0,36(v0)
1d00c700:	06024310 	beq	v0,v1,0x1d00cf1c
1d00c704:	40358326 	addiu	v1,s4,13632
1d00c708:	01004224 	addiu	v0,v0,1
1d00c70c:	c733400b 	j	0x1d00cf1c
1d00c710:	240062ac 	sw	v0,36(v1)
1d00c714:	01024014 	bnez	v0,0x1d00cf1c
1d00c718:	40358226 	addiu	v0,s4,13632
1d00c71c:	2400428c 	lw	v0,36(v0)
1d00c720:	fe014010 	beqz	v0,0x1d00cf1c
1d00c724:	40358326 	addiu	v1,s4,13632
1d00c728:	ffff4224 	addiu	v0,v0,-1
1d00c72c:	c733400b 	j	0x1d00cf1c
1d00c730:	240062ac 	sw	v0,36(v1)
1d00c734:	0800842c 	sltiu	a0,a0,8
1d00c738:	fd018014 	bnez	a0,0x1d00cf30
1d00c73c:	b42f0226 	addiu	v0,s0,12212
1d00c740:	1800a38f 	lw	v1,24(sp)
1d00c744:	140143ac 	sw	v1,276(v0)
1d00c748:	1c00a38f 	lw	v1,28(sp)
1d00c74c:	180143ac 	sw	v1,280(v0)
1d00c750:	fa000324 	li	v1,250
1d00c754:	1c0143ac 	sw	v1,284(v0)
1d00c758:	2001428c 	lw	v0,288(v0)
1d00c75c:	ffff0324 	li	v1,-1
1d00c760:	03004310 	beq	v0,v1,0x1d00c770
1d00c764:	b42f0326 	addiu	v1,s0,12212
1d00c768:	01004224 	addiu	v0,v0,1
1d00c76c:	200162ac 	sw	v0,288(v1)
1d00c770:	40358226 	addiu	v0,s4,13632
1d00c774:	0c00428c 	lw	v0,12(v0)
1d00c778:	e8014010 	beqz	v0,0x1d00cf1c
1d00c77c:	2800a38f 	lw	v1,40(sp)
1d00c780:	000c6330 	andi	v1,v1,0xc00
1d00c784:	00080224 	li	v0,2048
1d00c788:	e4016214 	bne	v1,v0,0x1d00cf1c
1d00c78c:	40358226 	addiu	v0,s4,13632
1d00c790:	0c0040ac 	sw	zero,12(v0)
1d00c794:	05000324 	li	v1,5
1d00c798:	c733400b 	j	0x1d00cf1c
1d00c79c:	180043ac 	sw	v1,24(v0)
1d00c7a0:	0800842c 	sltiu	a0,a0,8
1d00c7a4:	e2018014 	bnez	a0,0x1d00cf30
1d00c7a8:	b42f0226 	addiu	v0,s0,12212
1d00c7ac:	1800a38f 	lw	v1,24(sp)
1d00c7b0:	240143ac 	sw	v1,292(v0)
1d00c7b4:	1c00a38f 	lw	v1,28(sp)
1d00c7b8:	280143ac 	sw	v1,296(v0)
1d00c7bc:	fa000324 	li	v1,250
1d00c7c0:	2c0143ac 	sw	v1,300(v0)
1d00c7c4:	3001428c 	lw	v0,304(v0)
1d00c7c8:	ffff0324 	li	v1,-1
1d00c7cc:	03004310 	beq	v0,v1,0x1d00c7dc
1d00c7d0:	b42f0326 	addiu	v1,s0,12212
1d00c7d4:	01004224 	addiu	v0,v0,1
1d00c7d8:	300162ac 	sw	v0,304(v1)
1d00c7dc:	40358226 	addiu	v0,s4,13632
1d00c7e0:	0c00428c 	lw	v0,12(v0)
1d00c7e4:	cd014010 	beqz	v0,0x1d00cf1c
1d00c7e8:	2800a38f 	lw	v1,40(sp)
1d00c7ec:	c005637c 	ext	v1,v1,0x17,0x1
1d00c7f0:	ca016010 	beqz	v1,0x1d00cf1c
1d00c7f4:	2800a38f 	lw	v1,40(sp)
1d00c7f8:	4011637c 	ext	v1,v1,0x5,0x3
1d00c7fc:	c7014314 	bne	v0,v1,0x1d00cf1c
1d00c800:	40358326 	addiu	v1,s4,13632
1d00c804:	2400638c 	lw	v1,36(v1)
1d00c808:	0200632c 	sltiu	v1,v1,2
1d00c80c:	04006010 	beqz	v1,0x1d00c820
1d00c810:	b42f0326 	addiu	v1,s0,12212
1d00c814:	40358226 	addiu	v0,s4,13632
1d00c818:	c733400b 	j	0x1d00cf1c
1d00c81c:	0c0040ac 	sw	zero,12(v0)
1d00c820:	0c01638c 	lw	v1,268(v1)
1d00c824:	bd016010 	beqz	v1,0x1d00cf1c
1d00c828:	0800432c 	sltiu	v1,v0,8
1d00c82c:	29006010 	beqz	v1,0x1d00c8d4
1d00c830:	80100200 	sll	v0,v0,0x2
1d00c834:	2110c203 	addu	v0,s8,v0
1d00c838:	0000428c 	lw	v0,0(v0)
1d00c83c:	08004000 	jr	v0
1d00c840:	00000000 	nop
1d00c844:	d4c8009d 	0x9d00c8d4
1d00c848:	64c8009d 	0x9d00c864
1d00c84c:	80c8009d 	0x9d00c880
1d00c850:	9cc8009d 	0x9d00c89c
1d00c854:	b8c8009d 	0x9d00c8b8
1d00c858:	b8c8009d 	0x9d00c8b8
1d00c85c:	b8c8009d 	0x9d00c8b8
1d00c860:	b8c8009d 	0x9d00c8b8
1d00c864:	b42f0226 	addiu	v0,s0,12212
1d00c868:	0401438c 	lw	v1,260(v0)
1d00c86c:	04d0037c 	ins	v1,zero,0x0,0x1b
1d00c870:	00f8023c 	lui	v0,0xf800
1d00c874:	21106200 	addu	v0,v1,v0
1d00c878:	3632400b 	j	0x1d00c8d8
1d00c87c:	0100422c 	sltiu	v0,v0,1
1d00c880:	b42f0226 	addiu	v0,s0,12212
1d00c884:	0401438c 	lw	v1,260(v0)
1d00c888:	04d0037c 	ins	v1,zero,0x0,0x1b
1d00c88c:	00f0023c 	lui	v0,0xf000
1d00c890:	21106200 	addu	v0,v1,v0
1d00c894:	3632400b 	j	0x1d00c8d8
1d00c898:	0100422c 	sltiu	v0,v0,1
1d00c89c:	b42f0226 	addiu	v0,s0,12212
1d00c8a0:	0401438c 	lw	v1,260(v0)
1d00c8a4:	04d0037c 	ins	v1,zero,0x0,0x1b
1d00c8a8:	00e0023c 	lui	v0,0xe000
1d00c8ac:	21106200 	addu	v0,v1,v0
1d00c8b0:	3632400b 	j	0x1d00c8d8
1d00c8b4:	0100422c 	sltiu	v0,v0,1
1d00c8b8:	b42f0226 	addiu	v0,s0,12212
1d00c8bc:	0401438c 	lw	v1,260(v0)
1d00c8c0:	04d0037c 	ins	v1,zero,0x0,0x1b
1d00c8c4:	00c0023c 	lui	v0,0xc000
1d00c8c8:	21106200 	addu	v0,v1,v0
1d00c8cc:	3632400b 	j	0x1d00c8d8
1d00c8d0:	0100422c 	sltiu	v0,v0,1
1d00c8d4:	21100000 	move	v0,zero
1d00c8d8:	90014010 	beqz	v0,0x1d00cf1c
1d00c8dc:	40358226 	addiu	v0,s4,13632
1d00c8e0:	c733400b 	j	0x1d00cf1c
1d00c8e4:	0c0040ac 	sw	zero,12(v0)
1d00c8e8:	91018014 	bnez	a0,0x1d00cf30
1d00c8ec:	b42f0226 	addiu	v0,s0,12212
1d00c8f0:	1800a38f 	lw	v1,24(sp)
1d00c8f4:	340143ac 	sw	v1,308(v0)
1d00c8f8:	1c00a38f 	lw	v1,28(sp)
1d00c8fc:	380143ac 	sw	v1,312(v0)
1d00c900:	c8000324 	li	v1,200
1d00c904:	3c0143ac 	sw	v1,316(v0)
1d00c908:	4001428c 	lw	v0,320(v0)
1d00c90c:	ffff0324 	li	v1,-1
1d00c910:	03004310 	beq	v0,v1,0x1d00c920
1d00c914:	b42f0326 	addiu	v1,s0,12212
1d00c918:	01004224 	addiu	v0,v0,1
1d00c91c:	400162ac 	sw	v0,320(v1)
1d00c920:	b42f0226 	addiu	v0,s0,12212
1d00c924:	0402428c 	lw	v0,516(v0)
1d00c928:	0400422c 	sltiu	v0,v0,4
1d00c92c:	7b014014 	bnez	v0,0x1d00cf1c
1d00c930:	b42f0226 	addiu	v0,s0,12212
1d00c934:	2402428c 	lw	v0,548(v0)
1d00c938:	0400422c 	sltiu	v0,v0,4
1d00c93c:	7c064010 	beqz	v0,0x1d00e330
1d00c940:	b42f0226 	addiu	v0,s0,12212
1d00c944:	c733400b 	j	0x1d00cf1c
1d00c948:	00000000 	nop
1d00c94c:	0001428c 	lw	v0,256(v0)
1d00c950:	0400422c 	sltiu	v0,v0,4
1d00c954:	7c064010 	beqz	v0,0x1d00e348
1d00c958:	b42f0226 	addiu	v0,s0,12212
1d00c95c:	c733400b 	j	0x1d00cf1c
1d00c960:	00000000 	nop
1d00c964:	6c02428c 	lw	v0,620(v0)
1d00c968:	0004427c 	ext	v0,v0,0x10,0x1
1d00c96c:	6b014010 	beqz	v0,0x1d00cf1c
1d00c970:	6835a226 	addiu	v0,s5,13672
1d00c974:	06004290 	lbu	v0,6(v0)
1d00c978:	68014014 	bnez	v0,0x1d00cf1c
1d00c97c:	6835a226 	addiu	v0,s5,13672
1d00c980:	07004290 	lbu	v0,7(v0)
1d00c984:	65014014 	bnez	v0,0x1d00cf1c
1d00c988:	00000000 	nop
1d00c98c:	a25c400f 	jal	0x1d017288
1d00c990:	00000000 	nop
1d00c994:	05004010 	beqz	v0,0x1d00c9ac
1d00c998:	00000000 	nop
1d00c99c:	ad5c400f 	jal	0x1d0172b4
1d00c9a0:	00000000 	nop
1d00c9a4:	5d014010 	beqz	v0,0x1d00cf1c
1d00c9a8:	00000000 	nop
1d00c9ac:	5361400f 	jal	0x1d01854c
1d00c9b0:	00000000 	nop
1d00c9b4:	59014014 	bnez	v0,0x1d00cf1c
1d00c9b8:	00000000 	nop
1d00c9bc:	2800a0af 	sw	zero,40(sp)
1d00c9c0:	c733400b 	j	0x1d00cf1c
1d00c9c4:	2c00a0af 	sw	zero,44(sp)
1d00c9c8:	0800842c 	sltiu	a0,a0,8
1d00c9cc:	58018014 	bnez	a0,0x1d00cf30
1d00c9d0:	b42f0226 	addiu	v0,s0,12212
1d00c9d4:	1800a38f 	lw	v1,24(sp)
1d00c9d8:	440143ac 	sw	v1,324(v0)
1d00c9dc:	1c00a38f 	lw	v1,28(sp)
1d00c9e0:	480143ac 	sw	v1,328(v0)
1d00c9e4:	c8000324 	li	v1,200
1d00c9e8:	4c0143ac 	sw	v1,332(v0)
1d00c9ec:	5001428c 	lw	v0,336(v0)
1d00c9f0:	ffff0324 	li	v1,-1
1d00c9f4:	03004310 	beq	v0,v1,0x1d00ca04
1d00c9f8:	b42f0326 	addiu	v1,s0,12212
1d00c9fc:	01004224 	addiu	v0,v0,1
1d00ca00:	500162ac 	sw	v0,336(v1)
1d00ca04:	6835a226 	addiu	v0,s5,13672
1d00ca08:	01000324 	li	v1,1
1d00ca0c:	040043a0 	sb	v1,4(v0)
1d00ca10:	aa22400f 	jal	0x1d008aa8
1d00ca14:	2800a427 	addiu	a0,sp,40
1d00ca18:	c733400b 	j	0x1d00cf1c
1d00ca1c:	00000000 	nop
1d00ca20:	43018014 	bnez	a0,0x1d00cf30
1d00ca24:	b42f0226 	addiu	v0,s0,12212
1d00ca28:	1800a38f 	lw	v1,24(sp)
1d00ca2c:	540143ac 	sw	v1,340(v0)
1d00ca30:	1c00a38f 	lw	v1,28(sp)
1d00ca34:	580143ac 	sw	v1,344(v0)
1d00ca38:	fa000324 	li	v1,250
1d00ca3c:	5c0143ac 	sw	v1,348(v0)
1d00ca40:	6001428c 	lw	v0,352(v0)
1d00ca44:	ffff0324 	li	v1,-1
1d00ca48:	03004310 	beq	v0,v1,0x1d00ca58
1d00ca4c:	b42f0326 	addiu	v1,s0,12212
1d00ca50:	01004224 	addiu	v0,v0,1
1d00ca54:	600162ac 	sw	v0,352(v1)
1d00ca58:	a721400f 	jal	0x1d00869c
1d00ca5c:	00000000 	nop
1d00ca60:	01000224 	li	v0,1
1d00ca64:	c733400b 	j	0x1d00cf1c
1d00ca68:	b48082af 	sw	v0,-32588(gp)
1d00ca6c:	0800842c 	sltiu	a0,a0,8
1d00ca70:	2f018014 	bnez	a0,0x1d00cf30
1d00ca74:	b42f0226 	addiu	v0,s0,12212
1d00ca78:	1800a38f 	lw	v1,24(sp)
1d00ca7c:	640143ac 	sw	v1,356(v0)
1d00ca80:	1c00a38f 	lw	v1,28(sp)
1d00ca84:	680143ac 	sw	v1,360(v0)
1d00ca88:	f4010324 	li	v1,500
1d00ca8c:	6c0143ac 	sw	v1,364(v0)
1d00ca90:	7001428c 	lw	v0,368(v0)
1d00ca94:	ffff0324 	li	v1,-1
1d00ca98:	03004310 	beq	v0,v1,0x1d00caa8
1d00ca9c:	b42f0326 	addiu	v1,s0,12212
1d00caa0:	01004224 	addiu	v0,v0,1
1d00caa4:	700162ac 	sw	v0,368(v1)
1d00caa8:	b525400f 	jal	0x1d0096d4
1d00caac:	00000000 	nop
1d00cab0:	c733400b 	j	0x1d00cf1c
1d00cab4:	00000000 	nop
1d00cab8:	0800842c 	sltiu	a0,a0,8
1d00cabc:	1c018014 	bnez	a0,0x1d00cf30
1d00cac0:	b42f0226 	addiu	v0,s0,12212
1d00cac4:	1800a38f 	lw	v1,24(sp)
1d00cac8:	740143ac 	sw	v1,372(v0)
1d00cacc:	1c00a38f 	lw	v1,28(sp)
1d00cad0:	780143ac 	sw	v1,376(v0)
1d00cad4:	f4010324 	li	v1,500
1d00cad8:	7c0143ac 	sw	v1,380(v0)
1d00cadc:	8001428c 	lw	v0,384(v0)
1d00cae0:	ffff0324 	li	v1,-1
1d00cae4:	03004310 	beq	v0,v1,0x1d00caf4
1d00cae8:	b42f0326 	addiu	v1,s0,12212
1d00caec:	01004224 	addiu	v0,v0,1
1d00caf0:	800162ac 	sw	v0,384(v1)
1d00caf4:	b525400f 	jal	0x1d0096d4
1d00caf8:	00000000 	nop
1d00cafc:	c733400b 	j	0x1d00cf1c
1d00cb00:	00000000 	nop
1d00cb04:	0a018014 	bnez	a0,0x1d00cf30
1d00cb08:	b42f0226 	addiu	v0,s0,12212
1d00cb0c:	1800a38f 	lw	v1,24(sp)
1d00cb10:	840143ac 	sw	v1,388(v0)
1d00cb14:	1c00a38f 	lw	v1,28(sp)
1d00cb18:	880143ac 	sw	v1,392(v0)
1d00cb1c:	fa000324 	li	v1,250
1d00cb20:	8c0143ac 	sw	v1,396(v0)
1d00cb24:	9001428c 	lw	v0,400(v0)
1d00cb28:	ffff0324 	li	v1,-1
1d00cb2c:	03004310 	beq	v0,v1,0x1d00cb3c
1d00cb30:	b42f0326 	addiu	v1,s0,12212
1d00cb34:	01004224 	addiu	v0,v0,1
1d00cb38:	900162ac 	sw	v0,400(v1)
1d00cb3c:	0c2fe226 	addiu	v0,s7,12044
1d00cb40:	c733400b 	j	0x1d00cf1c
1d00cb44:	080040ac 	sw	zero,8(v0)
1d00cb48:	0800842c 	sltiu	a0,a0,8
1d00cb4c:	f8008014 	bnez	a0,0x1d00cf30
1d00cb50:	b42f0226 	addiu	v0,s0,12212
1d00cb54:	1800a38f 	lw	v1,24(sp)
1d00cb58:	940143ac 	sw	v1,404(v0)
1d00cb5c:	1c00a38f 	lw	v1,28(sp)
1d00cb60:	980143ac 	sw	v1,408(v0)
1d00cb64:	c4090324 	li	v1,2500
1d00cb68:	9c0143ac 	sw	v1,412(v0)
1d00cb6c:	a001428c 	lw	v0,416(v0)
1d00cb70:	ffff0324 	li	v1,-1
1d00cb74:	e9004310 	beq	v0,v1,0x1d00cf1c
1d00cb78:	b42f0326 	addiu	v1,s0,12212
1d00cb7c:	01004224 	addiu	v0,v0,1
1d00cb80:	c733400b 	j	0x1d00cf1c
1d00cb84:	a00162ac 	sw	v0,416(v1)
1d00cb88:	0800842c 	sltiu	a0,a0,8
1d00cb8c:	e8008014 	bnez	a0,0x1d00cf30
1d00cb90:	b42f0226 	addiu	v0,s0,12212
1d00cb94:	1800a38f 	lw	v1,24(sp)
1d00cb98:	a40143ac 	sw	v1,420(v0)
1d00cb9c:	1c00a38f 	lw	v1,28(sp)
1d00cba0:	a80143ac 	sw	v1,424(v0)
1d00cba4:	c8000324 	li	v1,200
1d00cba8:	ac0143ac 	sw	v1,428(v0)
1d00cbac:	b001428c 	lw	v0,432(v0)
1d00cbb0:	ffff0324 	li	v1,-1
1d00cbb4:	03004310 	beq	v0,v1,0x1d00cbc4
1d00cbb8:	b42f0326 	addiu	v1,s0,12212
1d00cbbc:	01004224 	addiu	v0,v0,1
1d00cbc0:	b00162ac 	sw	v0,432(v1)
1d00cbc4:	2800a28f 	lw	v0,40(sp)
1d00cbc8:	401a427c 	ext	v0,v0,0x9,0x4
1d00cbcc:	01000324 	li	v1,1
1d00cbd0:	0d004350 	beql	v0,v1,0x1d00cc08
1d00cbd4:	40358226 	addiu	v0,s4,13632
1d00cbd8:	07004010 	beqz	v0,0x1d00cbf8
1d00cbdc:	02000324 	li	v1,2
1d00cbe0:	0c004310 	beq	v0,v1,0x1d00cc14
1d00cbe4:	03000324 	li	v1,3
1d00cbe8:	0d004310 	beq	v0,v1,0x1d00cc20
1d00cbec:	40358226 	addiu	v0,s4,13632
1d00cbf0:	c733400b 	j	0x1d00cf1c
1d00cbf4:	080040ac 	sw	zero,8(v0)
1d00cbf8:	40358226 	addiu	v0,s4,13632
1d00cbfc:	01000324 	li	v1,1
1d00cc00:	c733400b 	j	0x1d00cf1c
1d00cc04:	080043ac 	sw	v1,8(v0)
1d00cc08:	02000324 	li	v1,2
1d00cc0c:	c733400b 	j	0x1d00cf1c
1d00cc10:	080043ac 	sw	v1,8(v0)
1d00cc14:	40358226 	addiu	v0,s4,13632
1d00cc18:	c733400b 	j	0x1d00cf1c
1d00cc1c:	080043ac 	sw	v1,8(v0)
1d00cc20:	04000324 	li	v1,4
1d00cc24:	c733400b 	j	0x1d00cf1c
1d00cc28:	080043ac 	sw	v1,8(v0)
1d00cc2c:	c0008014 	bnez	a0,0x1d00cf30
1d00cc30:	b42f0226 	addiu	v0,s0,12212
1d00cc34:	1800a38f 	lw	v1,24(sp)
1d00cc38:	b40143ac 	sw	v1,436(v0)
1d00cc3c:	1c00a38f 	lw	v1,28(sp)
1d00cc40:	b80143ac 	sw	v1,440(v0)
1d00cc44:	c8000324 	li	v1,200
1d00cc48:	bc0143ac 	sw	v1,444(v0)
1d00cc4c:	c001428c 	lw	v0,448(v0)
1d00cc50:	ffff0324 	li	v1,-1
1d00cc54:	b1004310 	beq	v0,v1,0x1d00cf1c
1d00cc58:	b42f0326 	addiu	v1,s0,12212
1d00cc5c:	01004224 	addiu	v0,v0,1
1d00cc60:	c733400b 	j	0x1d00cf1c
1d00cc64:	c00162ac 	sw	v0,448(v1)
1d00cc68:	0800842c 	sltiu	a0,a0,8
1d00cc6c:	b0008014 	bnez	a0,0x1d00cf30
1d00cc70:	b42f0226 	addiu	v0,s0,12212
1d00cc74:	1800a38f 	lw	v1,24(sp)
1d00cc78:	c40143ac 	sw	v1,452(v0)
1d00cc7c:	1c00a38f 	lw	v1,28(sp)
1d00cc80:	c80143ac 	sw	v1,456(v0)
1d00cc84:	fa000324 	li	v1,250
1d00cc88:	cc0143ac 	sw	v1,460(v0)
1d00cc8c:	d001428c 	lw	v0,464(v0)
1d00cc90:	ffff0324 	li	v1,-1
1d00cc94:	03004310 	beq	v0,v1,0x1d00cca4
1d00cc98:	b42f0326 	addiu	v1,s0,12212
1d00cc9c:	01004224 	addiu	v0,v0,1
1d00cca0:	d00162ac 	sw	v0,464(v1)
1d00cca4:	b42f0226 	addiu	v0,s0,12212
1d00cca8:	d001428c 	lw	v0,464(v0)
1d00ccac:	0300422c 	sltiu	v0,v0,3
1d00ccb0:	45004014 	bnez	v0,0x1d00cdc8
1d00ccb4:	9c2ec226 	addiu	v0,s6,11932
1d00ccb8:	2900a693 	lbu	a2,41(sp)
1d00ccbc:	11004390 	lbu	v1,17(v0)
1d00ccc0:	2330c300 	subu	a2,a2,v1
1d00ccc4:	ff00c630 	andi	a2,a2,0xff
1d00ccc8:	2800a493 	lbu	a0,40(sp)
1d00cccc:	10004390 	lbu	v1,16(v0)
1d00ccd0:	23208300 	subu	a0,a0,v1
1d00ccd4:	ff008430 	andi	a0,a0,0xff
1d00ccd8:	2b00a593 	lbu	a1,43(sp)
1d00ccdc:	13004390 	lbu	v1,19(v0)
1d00cce0:	2328a300 	subu	a1,a1,v1
1d00cce4:	ff00a530 	andi	a1,a1,0xff
1d00cce8:	2a00a393 	lbu	v1,42(sp)
1d00ccec:	12004290 	lbu	v0,18(v0)
1d00ccf0:	23186200 	subu	v1,v1,v0
1d00ccf4:	2c00a78f 	lw	a3,44(sp)
1d00ccf8:	c000e730 	andi	a3,a3,0xc0
1d00ccfc:	40000224 	li	v0,64
1d00cd00:	0900e214 	bne	a3,v0,0x1d00cd28
1d00cd04:	ff006330 	andi	v1,v1,0xff
1d00cd08:	9c2ec28e 	lw	v0,11932(s6)
1d00cd0c:	23304600 	subu	a2,v0,a2
1d00cd10:	9c2ec6ae 	sw	a2,11932(s6)
1d00cd14:	9c2ec226 	addiu	v0,s6,11932
1d00cd18:	0800468c 	lw	a2,8(v0)
1d00cd1c:	2328c500 	subu	a1,a2,a1
1d00cd20:	5133400b 	j	0x1d00cd44
1d00cd24:	080045ac 	sw	a1,8(v0)
1d00cd28:	9c2ec28e 	lw	v0,11932(s6)
1d00cd2c:	21304600 	addu	a2,v0,a2
1d00cd30:	9c2ec6ae 	sw	a2,11932(s6)
1d00cd34:	9c2ec226 	addiu	v0,s6,11932
1d00cd38:	0800468c 	lw	a2,8(v0)
1d00cd3c:	2128c500 	addu	a1,a2,a1
1d00cd40:	080045ac 	sw	a1,8(v0)
1d00cd44:	2c00a58f 	lw	a1,44(sp)
1d00cd48:	0300a530 	andi	a1,a1,0x3
1d00cd4c:	01000224 	li	v0,1
1d00cd50:	0800a214 	bne	a1,v0,0x1d00cd74
1d00cd54:	9c2ec226 	addiu	v0,s6,11932
1d00cd58:	0400458c 	lw	a1,4(v0)
1d00cd5c:	2320a400 	subu	a0,a1,a0
1d00cd60:	040044ac 	sw	a0,4(v0)
1d00cd64:	0c00448c 	lw	a0,12(v0)
1d00cd68:	23188300 	subu	v1,a0,v1
1d00cd6c:	6333400b 	j	0x1d00cd8c
1d00cd70:	0c0043ac 	sw	v1,12(v0)
1d00cd74:	0400458c 	lw	a1,4(v0)
1d00cd78:	2120a400 	addu	a0,a1,a0
1d00cd7c:	040044ac 	sw	a0,4(v0)
1d00cd80:	0c00448c 	lw	a0,12(v0)
1d00cd84:	21188300 	addu	v1,a0,v1
1d00cd88:	0c0043ac 	sw	v1,12(v0)
1d00cd8c:	08000224 	li	v0,8
1d00cd90:	3400a2af 	sw	v0,52(sp)
1d00cd94:	70000224 	li	v0,112
1d00cd98:	3000a2af 	sw	v0,48(sp)
1d00cd9c:	9c2ec28e 	lw	v0,11932(s6)
1d00cda0:	3800a2a7 	sh	v0,56(sp)
1d00cda4:	9c2ec226 	addiu	v0,s6,11932
1d00cda8:	0400438c 	lw	v1,4(v0)
1d00cdac:	3a00a3a7 	sh	v1,58(sp)
1d00cdb0:	0800438c 	lw	v1,8(v0)
1d00cdb4:	3c00a3a7 	sh	v1,60(sp)
1d00cdb8:	0c00428c 	lw	v0,12(v0)
1d00cdbc:	3e00a2a7 	sh	v0,62(sp)
1d00cdc0:	204d400f 	jal	0x1d013480
1d00cdc4:	3000a427 	addiu	a0,sp,48
1d00cdc8:	9c2ec226 	addiu	v0,s6,11932
1d00cdcc:	2800a38f 	lw	v1,40(sp)
1d00cdd0:	100043ac 	sw	v1,16(v0)
1d00cdd4:	2c00a38f 	lw	v1,44(sp)
1d00cdd8:	c733400b 	j	0x1d00cf1c
1d00cddc:	140043ac 	sw	v1,20(v0)
1d00cde0:	53008014 	bnez	a0,0x1d00cf30
1d00cde4:	b42f0226 	addiu	v0,s0,12212
1d00cde8:	1800a38f 	lw	v1,24(sp)
1d00cdec:	d40143ac 	sw	v1,468(v0)
1d00cdf0:	1c00a38f 	lw	v1,28(sp)
1d00cdf4:	d80143ac 	sw	v1,472(v0)
1d00cdf8:	c8000324 	li	v1,200
1d00cdfc:	dc0143ac 	sw	v1,476(v0)
1d00ce00:	e001428c 	lw	v0,480(v0)
1d00ce04:	ffff0324 	li	v1,-1
1d00ce08:	03004310 	beq	v0,v1,0x1d00ce18
1d00ce0c:	b42f0326 	addiu	v1,s0,12212
1d00ce10:	01004224 	addiu	v0,v0,1
1d00ce14:	e00162ac 	sw	v0,480(v1)
1d00ce18:	b42f0226 	addiu	v0,s0,12212
1d00ce1c:	e001428c 	lw	v0,480(v0)
1d00ce20:	0300422c 	sltiu	v0,v0,3
1d00ce24:	3d004014 	bnez	v0,0x1d00cf1c
1d00ce28:	08000224 	li	v0,8
1d00ce2c:	3400a2af 	sw	v0,52(sp)
1d00ce30:	6a000224 	li	v0,106
1d00ce34:	3000a2af 	sw	v0,48(sp)
1d00ce38:	4420400f 	jal	0x1d008110
1d00ce3c:	3800a427 	addiu	a0,sp,56
1d00ce40:	204d400f 	jal	0x1d013480
1d00ce44:	3000a427 	addiu	a0,sp,48
1d00ce48:	8220400f 	jal	0x1d008208
1d00ce4c:	3000a427 	addiu	a0,sp,48
1d00ce50:	c733400b 	j	0x1d00cf1c
1d00ce54:	00000000 	nop
1d00ce58:	0800842c 	sltiu	a0,a0,8
1d00ce5c:	34008014 	bnez	a0,0x1d00cf30
1d00ce60:	b42f0226 	addiu	v0,s0,12212
1d00ce64:	1800a38f 	lw	v1,24(sp)
1d00ce68:	e40143ac 	sw	v1,484(v0)
1d00ce6c:	1c00a38f 	lw	v1,28(sp)
1d00ce70:	e80143ac 	sw	v1,488(v0)
1d00ce74:	c8000324 	li	v1,200
1d00ce78:	ec0143ac 	sw	v1,492(v0)
1d00ce7c:	f001428c 	lw	v0,496(v0)
1d00ce80:	ffff0324 	li	v1,-1
1d00ce84:	03004310 	beq	v0,v1,0x1d00ce94
1d00ce88:	b42f0326 	addiu	v1,s0,12212
1d00ce8c:	01004224 	addiu	v0,v0,1
1d00ce90:	f00162ac 	sw	v0,496(v1)
1d00ce94:	b42f0226 	addiu	v0,s0,12212
1d00ce98:	f001428c 	lw	v0,496(v0)
1d00ce9c:	0300422c 	sltiu	v0,v0,3
1d00cea0:	1e004014 	bnez	v0,0x1d00cf1c
1d00cea4:	04000224 	li	v0,4
1d00cea8:	3400a2af 	sw	v0,52(sp)
1d00ceac:	6c000224 	li	v0,108
1d00ceb0:	3000a2af 	sw	v0,48(sp)
1d00ceb4:	3800a0af 	sw	zero,56(sp)
1d00ceb8:	b42f0226 	addiu	v0,s0,12212
1d00cebc:	e801438c 	lw	v1,488(v0)
1d00cec0:	c000023c 	lui	v0,0xc0
1d00cec4:	24206200 	and	a0,v1,v0
1d00cec8:	09008214 	bne	a0,v0,0x1d00cef0
1d00cecc:	3000023c 	lui	v0,0x30
1d00ced0:	b42f0226 	addiu	v0,s0,12212
1d00ced4:	e5014490 	lbu	a0,485(v0)
1d00ced8:	0c818424 	addiu	a0,a0,-32500
1d00cedc:	e4014290 	lbu	v0,484(v0)
1d00cee0:	00120200 	sll	v0,v0,0x8
1d00cee4:	21108200 	addu	v0,a0,v0
1d00cee8:	3800a2a7 	sh	v0,56(sp)
1d00ceec:	3000023c 	lui	v0,0x30
1d00cef0:	24186200 	and	v1,v1,v0
1d00cef4:	07006214 	bne	v1,v0,0x1d00cf14
1d00cef8:	b42f0226 	addiu	v0,s0,12212
1d00cefc:	e7014390 	lbu	v1,487(v0)
1d00cf00:	0c816324 	addiu	v1,v1,-32500
1d00cf04:	e6014290 	lbu	v0,486(v0)
1d00cf08:	00120200 	sll	v0,v0,0x8
1d00cf0c:	21106200 	addu	v0,v1,v0
1d00cf10:	3a00a2a7 	sh	v0,58(sp)
1d00cf14:	204d400f 	jal	0x1d013480
1d00cf18:	3000a427 	addiu	a0,sp,48
1d00cf1c:	ab4e400f 	jal	0x1d013aac
1d00cf20:	2000a427 	addiu	a0,sp,32
1d00cf24:	ffff1124 	li	s1,-1
1d00cf28:	0010123c 	lui	s2,0x1000
1d00cf2c:	8a011324 	li	s3,394
1d00cf30:	ee4e400f 	jal	0x1d013bb8
1d00cf34:	1000a427 	addiu	a0,sp,16
1d00cf38:	affa4014 	bnez	v0,0x1d00b9f8
1d00cf3c:	1000a28f 	lw	v0,16(sp)
1d00cf40:	01a0123c 	lui	s2,0xa001
1d00cf44:	842d5226 	addiu	s2,s2,11652
1d00cf48:	01a0103c 	lui	s0,0xa001
1d00cf4c:	b634400b 	j	0x1d00d2d8
1d00cf50:	01a0133c 	lui	s3,0xa001
1d00cf54:	2000a2af 	sw	v0,32(sp)
1d00cf58:	1400a28f 	lw	v0,20(sp)
1d00cf5c:	2400a2af 	sw	v0,36(sp)
1d00cf60:	1800a28f 	lw	v0,24(sp)
1d00cf64:	2800a2af 	sw	v0,40(sp)
1d00cf68:	1c00a28f 	lw	v0,28(sp)
1d00cf6c:	2c00a2af 	sw	v0,44(sp)
1d00cf70:	21204002 	move	a0,s2
1d00cf74:	385d400f 	jal	0x1d0174e0
1d00cf78:	1000a527 	addiu	a1,sp,16
1d00cf7c:	b42f0226 	addiu	v0,s0,12212
1d00cf80:	f401428c 	lw	v0,500(v0)
1d00cf84:	03005110 	beq	v0,s1,0x1d00cf94
1d00cf88:	b42f0326 	addiu	v1,s0,12212
1d00cf8c:	01004224 	addiu	v0,v0,1
1d00cf90:	f40162ac 	sw	v0,500(v1)
1d00cf94:	e349400f 	jal	0x1d01278c
1d00cf98:	00000000 	nop
1d00cf9c:	cc004010 	beqz	v0,0x1d00d2d0
1d00cfa0:	1400a28f 	lw	v0,20(sp)
1d00cfa4:	0007437c 	ext	v1,v0,0x1c,0x1
1d00cfa8:	08006010 	beqz	v1,0x1d00cfcc
1d00cfac:	0f004430 	andi	a0,v0,0xf
1d00cfb0:	1000a58f 	lw	a1,16(sp)
1d00cfb4:	ff07a530 	andi	a1,a1,0x7ff
1d00cfb8:	802c0500 	sll	a1,a1,0x12
1d00cfbc:	1400a28f 	lw	v0,20(sp)
1d00cfc0:	808a427c 	ext	v0,v0,0xa,0x12
1d00cfc4:	f533400b 	j	0x1d00cfd4
1d00cfc8:	2510a200 	or	v0,a1,v0
1d00cfcc:	1000a28f 	lw	v0,16(sp)
1d00cfd0:	ff074230 	andi	v0,v0,0x7ff
1d00cfd4:	be006014 	bnez	v1,0x1d00d2d0
1d00cfd8:	85000324 	li	v1,133
1d00cfdc:	8d004310 	beq	v0,v1,0x1d00d214
1d00cfe0:	cc030324 	li	v1,972
1d00cfe4:	7b004310 	beq	v0,v1,0x1d00d1d4
1d00cfe8:	82000324 	li	v1,130
1d00cfec:	b8004314 	bne	v0,v1,0x1d00d2d0
1d00cff0:	0800842c 	sltiu	a0,a0,8
1d00cff4:	b9008014 	bnez	a0,0x1d00d2dc
1d00cff8:	b42f0226 	addiu	v0,s0,12212
1d00cffc:	1800a38f 	lw	v1,24(sp)
1d00d000:	f80143ac 	sw	v1,504(v0)
1d00d004:	1c00a38f 	lw	v1,28(sp)
1d00d008:	fc0143ac 	sw	v1,508(v0)
1d00d00c:	c8000324 	li	v1,200
1d00d010:	000243ac 	sw	v1,512(v0)
1d00d014:	0402428c 	lw	v0,516(v0)
1d00d018:	ffff0324 	li	v1,-1
1d00d01c:	03004310 	beq	v0,v1,0x1d00d02c
1d00d020:	b42f0326 	addiu	v1,s0,12212
1d00d024:	01004224 	addiu	v0,v0,1
1d00d028:	040262ac 	sw	v0,516(v1)
1d00d02c:	68356226 	addiu	v0,s3,13672
1d00d030:	2800a493 	lbu	a0,40(sp)
1d00d034:	80ff8424 	addiu	a0,a0,-128
1d00d038:	2026047c 	seh	a0,a0
1d00d03c:	7a004384 	lh	v1,122(v0)
1d00d040:	23188300 	subu	v1,a0,v1
1d00d044:	80200300 	sll	a0,v1,0x2
1d00d048:	00290300 	sll	a1,v1,0x4
1d00d04c:	2320a400 	subu	a0,a1,a0
1d00d050:	40290400 	sll	a1,a0,0x5
1d00d054:	21208500 	addu	a0,a0,a1
1d00d058:	23208300 	subu	a0,a0,v1
1d00d05c:	c0200400 	sll	a0,a0,0x3
1d00d060:	21188300 	addu	v1,a0,v1
1d00d064:	80180300 	sll	v1,v1,0x2
1d00d068:	7800448c 	lw	a0,120(v0)
1d00d06c:	21188300 	addu	v1,a0,v1
1d00d070:	780043ac 	sw	v1,120(v0)
1d00d074:	7000438c 	lw	v1,112(v0)
1d00d078:	02000224 	li	v0,2
1d00d07c:	4f006214 	bne	v1,v0,0x1d00d1bc
1d00d080:	68356326 	addiu	v1,s3,13672
1d00d084:	f853400f 	jal	0x1d014fe0
1d00d088:	00000000 	nop
1d00d08c:	68356326 	addiu	v1,s3,13672
1d00d090:	7a006484 	lh	a0,122(v1)
1d00d094:	c31f0400 	sra	v1,a0,0x1f
1d00d098:	26206400 	xor	a0,v1,a0
1d00d09c:	23188300 	subu	v1,a0,v1
1d00d0a0:	2a184300 	slt	v1,v0,v1
1d00d0a4:	ad046010 	beqz	v1,0x1d00e35c
1d00d0a8:	c000033c 	lui	v1,0xc0
1d00d0ac:	4800422c 	sltiu	v0,v0,72
1d00d0b0:	ab044010 	beqz	v0,0x1d00e360
1d00d0b4:	2800a28f 	lw	v0,40(sp)
1d00d0b8:	b42f0226 	addiu	v0,s0,12212
1d00d0bc:	7402428c 	lw	v0,628(v0)
1d00d0c0:	09004010 	beqz	v0,0x1d00d0e8
1d00d0c4:	b42f0226 	addiu	v0,s0,12212
1d00d0c8:	6c02428c 	lw	v0,620(v0)
1d00d0cc:	8004427c 	ext	v0,v0,0x12,0x1
1d00d0d0:	06004010 	beqz	v0,0x1d00d0ec
1d00d0d4:	b42f0226 	addiu	v0,s0,12212
1d00d0d8:	f353400f 	jal	0x1d014fcc
1d00d0dc:	00000000 	nop
1d00d0e0:	36004014 	bnez	v0,0x1d00d1bc
1d00d0e4:	68356326 	addiu	v1,s3,13672
1d00d0e8:	b42f0226 	addiu	v0,s0,12212
1d00d0ec:	0402428c 	lw	v0,516(v0)
1d00d0f0:	0400422c 	sltiu	v0,v0,4
1d00d0f4:	26004014 	bnez	v0,0x1d00d190
1d00d0f8:	68356226 	addiu	v0,s3,13672
1d00d0fc:	b42f0226 	addiu	v0,s0,12212
1d00d100:	2402428c 	lw	v0,548(v0)
1d00d104:	0400422c 	sltiu	v0,v0,4
1d00d108:	9a044050 	beqzl	v0,0x1d00e374
1d00d10c:	b42f0226 	addiu	v0,s0,12212
1d00d110:	6434400b 	j	0x1d00d190
1d00d114:	68356226 	addiu	v0,s3,13672
1d00d118:	0001428c 	lw	v0,256(v0)
1d00d11c:	0400422c 	sltiu	v0,v0,4
1d00d120:	9a044050 	beqzl	v0,0x1d00e38c
1d00d124:	b42f0226 	addiu	v0,s0,12212
1d00d128:	6434400b 	j	0x1d00d190
1d00d12c:	68356226 	addiu	v0,s3,13672
1d00d130:	6c02428c 	lw	v0,620(v0)
1d00d134:	0004427c 	ext	v0,v0,0x10,0x1
1d00d138:	14004010 	beqz	v0,0x1d00d18c
1d00d13c:	68356226 	addiu	v0,s3,13672
1d00d140:	06004290 	lbu	v0,6(v0)
1d00d144:	11004014 	bnez	v0,0x1d00d18c
1d00d148:	68356226 	addiu	v0,s3,13672
1d00d14c:	07004290 	lbu	v0,7(v0)
1d00d150:	0f004014 	bnez	v0,0x1d00d190
1d00d154:	68356226 	addiu	v0,s3,13672
1d00d158:	a25c400f 	jal	0x1d017288
1d00d15c:	00000000 	nop
1d00d160:	05004010 	beqz	v0,0x1d00d178
1d00d164:	00000000 	nop
1d00d168:	ad5c400f 	jal	0x1d0172b4
1d00d16c:	00000000 	nop
1d00d170:	07004010 	beqz	v0,0x1d00d190
1d00d174:	68356226 	addiu	v0,s3,13672
1d00d178:	5361400f 	jal	0x1d01854c
1d00d17c:	00000000 	nop
1d00d180:	02004014 	bnez	v0,0x1d00d18c
1d00d184:	e8030224 	li	v0,1000
1d00d188:	ac8082af 	sw	v0,-32596(gp)
1d00d18c:	68356226 	addiu	v0,s3,13672
1d00d190:	01000324 	li	v1,1
1d00d194:	6e34400b 	j	0x1d00d1b8
1d00d198:	060043a0 	sb	v1,6(v0)
1d00d19c:	06004310 	beq	v0,v1,0x1d00d1b8
1d00d1a0:	b42f0226 	addiu	v0,s0,12212
1d00d1a4:	6c02428c 	lw	v0,620(v0)
1d00d1a8:	0004427c 	ext	v0,v0,0x10,0x1
1d00d1ac:	02004010 	beqz	v0,0x1d00d1b8
1d00d1b0:	e8030224 	li	v0,1000
1d00d1b4:	ac8082af 	sw	v0,-32596(gp)
1d00d1b8:	68356326 	addiu	v1,s3,13672
1d00d1bc:	2800a28f 	lw	v0,40(sp)
1d00d1c0:	800d447c 	ext	a0,v0,0x16,0x2
1d00d1c4:	700064ac 	sw	a0,112(v1)
1d00d1c8:	84bd027c 	ins	v0,zero,0x16,0x2
1d00d1cc:	b434400b 	j	0x1d00d2d0
1d00d1d0:	2800a2af 	sw	v0,40(sp)
1d00d1d4:	0800842c 	sltiu	a0,a0,8
1d00d1d8:	40008014 	bnez	a0,0x1d00d2dc
1d00d1dc:	b42f0226 	addiu	v0,s0,12212
1d00d1e0:	1800a38f 	lw	v1,24(sp)
1d00d1e4:	080243ac 	sw	v1,520(v0)
1d00d1e8:	1c00a38f 	lw	v1,28(sp)
1d00d1ec:	0c0243ac 	sw	v1,524(v0)
1d00d1f0:	c8000324 	li	v1,200
1d00d1f4:	100243ac 	sw	v1,528(v0)
1d00d1f8:	1402428c 	lw	v0,532(v0)
1d00d1fc:	ffff0324 	li	v1,-1
1d00d200:	33004310 	beq	v0,v1,0x1d00d2d0
1d00d204:	b42f0326 	addiu	v1,s0,12212
1d00d208:	01004224 	addiu	v0,v0,1
1d00d20c:	b434400b 	j	0x1d00d2d0
1d00d210:	140262ac 	sw	v0,532(v1)
1d00d214:	0800842c 	sltiu	a0,a0,8
1d00d218:	30008014 	bnez	a0,0x1d00d2dc
1d00d21c:	b42f0226 	addiu	v0,s0,12212
1d00d220:	1800a38f 	lw	v1,24(sp)
1d00d224:	180243ac 	sw	v1,536(v0)
1d00d228:	1c00a38f 	lw	v1,28(sp)
1d00d22c:	1c0243ac 	sw	v1,540(v0)
1d00d230:	c8000324 	li	v1,200
1d00d234:	200243ac 	sw	v1,544(v0)
1d00d238:	2402428c 	lw	v0,548(v0)
1d00d23c:	ffff0324 	li	v1,-1
1d00d240:	03004310 	beq	v0,v1,0x1d00d250
1d00d244:	b42f0326 	addiu	v1,s0,12212
1d00d248:	01004224 	addiu	v0,v0,1
1d00d24c:	240262ac 	sw	v0,548(v1)
1d00d250:	2800a393 	lbu	v1,40(sp)
1d00d254:	001a0300 	sll	v1,v1,0x8
1d00d258:	2900a293 	lbu	v0,41(sp)
1d00d25c:	21106200 	addu	v0,v1,v0
1d00d260:	ffff4230 	andi	v0,v0,0xffff
1d00d264:	2e00a693 	lbu	a2,46(sp)
1d00d268:	ffff4424 	addiu	a0,v0,-1
1d00d26c:	ffff8430 	andi	a0,a0,0xffff
1d00d270:	fdff0334 	li	v1,0xfffd
1d00d274:	2b188300 	sltu	v1,a0,v1
1d00d278:	0f006010 	beqz	v1,0x1d00d2b8
1d00d27c:	2f00a593 	lbu	a1,47(sp)
1d00d280:	00320600 	sll	a2,a2,0x8
1d00d284:	2128a600 	addu	a1,a1,a2
1d00d288:	ffffa530 	andi	a1,a1,0xffff
1d00d28c:	ffffa424 	addiu	a0,a1,-1
1d00d290:	ffff8430 	andi	a0,a0,0xffff
1d00d294:	fdff0334 	li	v1,0xfffd
1d00d298:	2b188300 	sltu	v1,a0,v1
1d00d29c:	07006050 	beqzl	v1,0x1d00d2bc
1d00d2a0:	68356226 	addiu	v0,s3,13672
1d00d2a4:	68356326 	addiu	v1,s3,13672
1d00d2a8:	23104500 	subu	v0,v0,a1
1d00d2ac:	6c0062ac 	sw	v0,108(v1)
1d00d2b0:	b234400b 	j	0x1d00d2c8
1d00d2b4:	070060a0 	sb	zero,7(v1)
1d00d2b8:	68356226 	addiu	v0,s3,13672
1d00d2bc:	6c0040ac 	sw	zero,108(v0)
1d00d2c0:	01000324 	li	v1,1
1d00d2c4:	070043a0 	sb	v1,7(v0)
1d00d2c8:	f124400f 	jal	0x1d0093c4
1d00d2cc:	00000000 	nop
1d00d2d0:	684e400f 	jal	0x1d0139a0
1d00d2d4:	2000a427 	addiu	a0,sp,32
1d00d2d8:	ffff1124 	li	s1,-1
1d00d2dc:	3e4f400f 	jal	0x1d013cf8
1d00d2e0:	1000a427 	addiu	a0,sp,16
1d00d2e4:	1bff4014 	bnez	v0,0x1d00cf54
1d00d2e8:	1000a28f 	lw	v0,16(sp)
1d00d2ec:	01a0103c 	lui	s0,0xa001
1d00d2f0:	019d113c 	lui	s1,0x9d01
1d00d2f4:	94d33126 	addiu	s1,s1,-11372
1d00d2f8:	01a0123c 	lui	s2,0xa001
1d00d2fc:	5f36400b 	j	0x1d00d97c
1d00d300:	01a0133c 	lui	s3,0xa001
1d00d304:	2802428c 	lw	v0,552(v0)
1d00d308:	ffff0324 	li	v1,-1
1d00d30c:	03004310 	beq	v0,v1,0x1d00d31c
1d00d310:	b42f0326 	addiu	v1,s0,12212
1d00d314:	01004224 	addiu	v0,v0,1
1d00d318:	280262ac 	sw	v0,552(v1)
1d00d31c:	1400a28f 	lw	v0,20(sp)
1d00d320:	0007557c 	ext	s5,v0,0x1c,0x1
1d00d324:	0800a012 	beqz	s5,0x1d00d348
1d00d328:	0f005630 	andi	s6,v0,0xf
1d00d32c:	1000b48f 	lw	s4,16(sp)
1d00d330:	ff079432 	andi	s4,s4,0x7ff
1d00d334:	80a41400 	sll	s4,s4,0x12
1d00d338:	1400a28f 	lw	v0,20(sp)
1d00d33c:	808a427c 	ext	v0,v0,0xa,0x12
1d00d340:	d434400b 	j	0x1d00d350
1d00d344:	25a08202 	or	s4,s4,v0
1d00d348:	1000b48f 	lw	s4,16(sp)
1d00d34c:	ff079432 	andi	s4,s4,0x7ff
1d00d350:	e349400f 	jal	0x1d01278c
1d00d354:	00000000 	nop
1d00d358:	05004014 	bnez	v0,0x1d00d370
1d00d35c:	7f000224 	li	v0,127
1d00d360:	86018216 	bne	s4,v0,0x1d00d97c
1d00d364:	00000000 	nop
1d00d368:	e838400b 	j	0x1d00e3a0
1d00d36c:	00000000 	nop
1d00d370:	8201a016 	bnez	s5,0x1d00d97c
1d00d374:	a0ff8226 	addiu	v0,s4,-96
1d00d378:	2000432c 	sltiu	v1,v0,32
1d00d37c:	68016010 	beqz	v1,0x1d00d920
1d00d380:	80100200 	sll	v0,v0,0x2
1d00d384:	21102202 	addu	v0,s1,v0
1d00d388:	0000428c 	lw	v0,0(v0)
1d00d38c:	08004000 	jr	v0
1d00d390:	00000000 	nop
1d00d394:	14d4009d 	0x9d00d414
1d00d398:	60d4009d 	0x9d00d460
1d00d39c:	18d5009d 	0x9d00d518
1d00d3a0:	64d5009d 	0x9d00d564
1d00d3a4:	1cd6009d 	0x9d00d61c
1d00d3a8:	20d9009d 	0x9d00d920
1d00d3ac:	70d6009d 	0x9d00d670
1d00d3b0:	b4d6009d 	0x9d00d6b4
1d00d3b4:	10d8009d 	0x9d00d810
1d00d3b8:	20d9009d 	0x9d00d920
1d00d3bc:	20d9009d 	0x9d00d920
1d00d3c0:	20d9009d 	0x9d00d920
1d00d3c4:	20d9009d 	0x9d00d920
1d00d3c8:	20d9009d 	0x9d00d920
1d00d3cc:	20d9009d 	0x9d00d920
1d00d3d0:	20d9009d 	0x9d00d920
1d00d3d4:	20d9009d 	0x9d00d920
1d00d3d8:	20d9009d 	0x9d00d920
1d00d3dc:	20d9009d 	0x9d00d920
1d00d3e0:	20d9009d 	0x9d00d920
1d00d3e4:	20d9009d 	0x9d00d920
1d00d3e8:	20d9009d 	0x9d00d920
1d00d3ec:	58d8009d 	0x9d00d858
1d00d3f0:	98d8009d 	0x9d00d898
1d00d3f4:	20d9009d 	0x9d00d920
1d00d3f8:	20d9009d 	0x9d00d920
1d00d3fc:	20d9009d 	0x9d00d920
1d00d400:	20d9009d 	0x9d00d920
1d00d404:	20d9009d 	0x9d00d920
1d00d408:	20d9009d 	0x9d00d920
1d00d40c:	20d9009d 	0x9d00d920
1d00d410:	d8d8009d 	0x9d00d8d8
1d00d414:	0800d62e 	sltiu	s6,s6,8
1d00d418:	5801c016 	bnez	s6,0x1d00d97c
1d00d41c:	00000000 	nop
1d00d420:	955a400f 	jal	0x1d016a54
1d00d424:	1800a427 	addiu	a0,sp,24
1d00d428:	b42f0226 	addiu	v0,s0,12212
1d00d42c:	1800a38f 	lw	v1,24(sp)
1d00d430:	2c0243ac 	sw	v1,556(v0)
1d00d434:	1c00a38f 	lw	v1,28(sp)
1d00d438:	300243ac 	sw	v1,560(v0)
1d00d43c:	64000324 	li	v1,100
1d00d440:	340243ac 	sw	v1,564(v0)
1d00d444:	3802428c 	lw	v0,568(v0)
1d00d448:	ffff0324 	li	v1,-1
1d00d44c:	4b014310 	beq	v0,v1,0x1d00d97c
1d00d450:	b42f0326 	addiu	v1,s0,12212
1d00d454:	01004224 	addiu	v0,v0,1
1d00d458:	5f36400b 	j	0x1d00d97c
1d00d45c:	380262ac 	sw	v0,568(v1)
1d00d460:	0800d62e 	sltiu	s6,s6,8
1d00d464:	4501c016 	bnez	s6,0x1d00d97c
1d00d468:	00000000 	nop
1d00d46c:	445b400f 	jal	0x1d016d10
1d00d470:	1800a427 	addiu	a0,sp,24
1d00d474:	1c00a28f 	lw	v0,28(sp)
1d00d478:	0006437c 	ext	v1,v0,0x18,0x1
1d00d47c:	18006014 	bnez	v1,0x1d00d4e0
1d00d480:	b42f0326 	addiu	v1,s0,12212
1d00d484:	4402638c 	lw	v1,580(v1)
1d00d488:	15006010 	beqz	v1,0x1d00d4e0
1d00d48c:	b42f0326 	addiu	v1,s0,12212
1d00d490:	4002638c 	lw	v1,576(v1)
1d00d494:	0006647c 	ext	a0,v1,0x18,0x1
1d00d498:	11008010 	beqz	a0,0x1d00d4e0
1d00d49c:	b42f0426 	addiu	a0,s0,12212
1d00d4a0:	2c02848c 	lw	a0,556(a0)
1d00d4a4:	0006847c 	ext	a0,a0,0x18,0x1
1d00d4a8:	0c008054 	bnezl	a0,0x1d00d4dc
1d00d4ac:	e8030224 	li	v0,1000
1d00d4b0:	4006447c 	ext	a0,v0,0x19,0x1
1d00d4b4:	09008054 	bnezl	a0,0x1d00d4dc
1d00d4b8:	e8030224 	li	v0,1000
1d00d4bc:	04004304 	bgezl	v0,0x1d00d4d0
1d00d4c0:	0030033c 	lui	v1,0x3000
1d00d4c4:	05006304 	bgezl	v1,0x1d00d4dc
1d00d4c8:	e8030224 	li	v0,1000
1d00d4cc:	0030033c 	lui	v1,0x3000
1d00d4d0:	24104300 	and	v0,v0,v1
1d00d4d4:	02004010 	beqz	v0,0x1d00d4e0
1d00d4d8:	e8030224 	li	v0,1000
1d00d4dc:	ac8082af 	sw	v0,-32596(gp)
1d00d4e0:	b42f0226 	addiu	v0,s0,12212
1d00d4e4:	1800a38f 	lw	v1,24(sp)
1d00d4e8:	3c0243ac 	sw	v1,572(v0)
1d00d4ec:	1c00a38f 	lw	v1,28(sp)
1d00d4f0:	400243ac 	sw	v1,576(v0)
1d00d4f4:	64000324 	li	v1,100
1d00d4f8:	440243ac 	sw	v1,580(v0)
1d00d4fc:	4802428c 	lw	v0,584(v0)
1d00d500:	ffff0324 	li	v1,-1
1d00d504:	1d014310 	beq	v0,v1,0x1d00d97c
1d00d508:	b42f0326 	addiu	v1,s0,12212
1d00d50c:	01004224 	addiu	v0,v0,1
1d00d510:	5f36400b 	j	0x1d00d97c
1d00d514:	480262ac 	sw	v0,584(v1)
1d00d518:	0800d62e 	sltiu	s6,s6,8
1d00d51c:	1701c016 	bnez	s6,0x1d00d97c
1d00d520:	00000000 	nop
1d00d524:	cf5a400f 	jal	0x1d016b3c
1d00d528:	1800a427 	addiu	a0,sp,24
1d00d52c:	b42f0226 	addiu	v0,s0,12212
1d00d530:	1800a38f 	lw	v1,24(sp)
1d00d534:	4c0243ac 	sw	v1,588(v0)
1d00d538:	1c00a38f 	lw	v1,28(sp)
1d00d53c:	500243ac 	sw	v1,592(v0)
1d00d540:	64000324 	li	v1,100
1d00d544:	540243ac 	sw	v1,596(v0)
1d00d548:	5802428c 	lw	v0,600(v0)
1d00d54c:	ffff0324 	li	v1,-1
1d00d550:	0a014310 	beq	v0,v1,0x1d00d97c
1d00d554:	b42f0326 	addiu	v1,s0,12212
1d00d558:	01004224 	addiu	v0,v0,1
1d00d55c:	5f36400b 	j	0x1d00d97c
1d00d560:	580262ac 	sw	v0,600(v1)
1d00d564:	0800d62e 	sltiu	s6,s6,8
1d00d568:	0401c016 	bnez	s6,0x1d00d97c
1d00d56c:	00000000 	nop
1d00d570:	b05b400f 	jal	0x1d016ec0
1d00d574:	1800a427 	addiu	a0,sp,24
1d00d578:	1c00a28f 	lw	v0,28(sp)
1d00d57c:	0006437c 	ext	v1,v0,0x18,0x1
1d00d580:	18006014 	bnez	v1,0x1d00d5e4
1d00d584:	b42f0326 	addiu	v1,s0,12212
1d00d588:	6402638c 	lw	v1,612(v1)
1d00d58c:	15006010 	beqz	v1,0x1d00d5e4
1d00d590:	b42f0326 	addiu	v1,s0,12212
1d00d594:	6002638c 	lw	v1,608(v1)
1d00d598:	0006647c 	ext	a0,v1,0x18,0x1
1d00d59c:	11008010 	beqz	a0,0x1d00d5e4
1d00d5a0:	b42f0426 	addiu	a0,s0,12212
1d00d5a4:	4c02848c 	lw	a0,588(a0)
1d00d5a8:	0006847c 	ext	a0,a0,0x18,0x1
1d00d5ac:	0c008054 	bnezl	a0,0x1d00d5e0
1d00d5b0:	e8030224 	li	v0,1000
1d00d5b4:	4006447c 	ext	a0,v0,0x19,0x1
1d00d5b8:	09008054 	bnezl	a0,0x1d00d5e0
1d00d5bc:	e8030224 	li	v0,1000
1d00d5c0:	04004304 	bgezl	v0,0x1d00d5d4
1d00d5c4:	0030033c 	lui	v1,0x3000
1d00d5c8:	05006304 	bgezl	v1,0x1d00d5e0
1d00d5cc:	e8030224 	li	v0,1000
1d00d5d0:	0030033c 	lui	v1,0x3000
1d00d5d4:	24104300 	and	v0,v0,v1
1d00d5d8:	02004010 	beqz	v0,0x1d00d5e4
1d00d5dc:	e8030224 	li	v0,1000
1d00d5e0:	ac8082af 	sw	v0,-32596(gp)
1d00d5e4:	b42f0226 	addiu	v0,s0,12212
1d00d5e8:	1800a38f 	lw	v1,24(sp)
1d00d5ec:	5c0243ac 	sw	v1,604(v0)
1d00d5f0:	1c00a38f 	lw	v1,28(sp)
1d00d5f4:	600243ac 	sw	v1,608(v0)
1d00d5f8:	64000324 	li	v1,100
1d00d5fc:	640243ac 	sw	v1,612(v0)
1d00d600:	6802428c 	lw	v0,616(v0)
1d00d604:	ffff0324 	li	v1,-1
1d00d608:	dc004310 	beq	v0,v1,0x1d00d97c
1d00d60c:	b42f0326 	addiu	v1,s0,12212
1d00d610:	01004224 	addiu	v0,v0,1
1d00d614:	5f36400b 	j	0x1d00d97c
1d00d618:	680262ac 	sw	v0,616(v1)
1d00d61c:	0800c22e 	sltiu	v0,s6,8
1d00d620:	c3004054 	bnezl	v0,0x1d00d930
1d00d624:	fcffd626 	addiu	s6,s6,-4
1d00d628:	095b400f 	jal	0x1d016c24
1d00d62c:	1800a427 	addiu	a0,sp,24
1d00d630:	2423400f 	jal	0x1d008c90
1d00d634:	1800a427 	addiu	a0,sp,24
1d00d638:	b42f0226 	addiu	v0,s0,12212
1d00d63c:	1800a38f 	lw	v1,24(sp)
1d00d640:	6c0243ac 	sw	v1,620(v0)
1d00d644:	1c00a38f 	lw	v1,28(sp)
1d00d648:	700243ac 	sw	v1,624(v0)
1d00d64c:	64000324 	li	v1,100
1d00d650:	740243ac 	sw	v1,628(v0)
1d00d654:	7802428c 	lw	v0,632(v0)
1d00d658:	ffff0324 	li	v1,-1
1d00d65c:	b3004310 	beq	v0,v1,0x1d00d92c
1d00d660:	b42f0326 	addiu	v1,s0,12212
1d00d664:	01004224 	addiu	v0,v0,1
1d00d668:	4b36400b 	j	0x1d00d92c
1d00d66c:	780262ac 	sw	v0,632(v1)
1d00d670:	c200c012 	beqz	s6,0x1d00d97c
1d00d674:	00000000 	nop
1d00d678:	f420400f 	jal	0x1d0083d0
1d00d67c:	1800a427 	addiu	a0,sp,24
1d00d680:	b42f0226 	addiu	v0,s0,12212
1d00d684:	1800a38f 	lw	v1,24(sp)
1d00d688:	7c0243ac 	sw	v1,636(v0)
1d00d68c:	1c00a38f 	lw	v1,28(sp)
1d00d690:	800243ac 	sw	v1,640(v0)
1d00d694:	840240ac 	sw	zero,644(v0)
1d00d698:	8802428c 	lw	v0,648(v0)
1d00d69c:	ffff0324 	li	v1,-1
1d00d6a0:	b6004310 	beq	v0,v1,0x1d00d97c
1d00d6a4:	b42f0326 	addiu	v1,s0,12212
1d00d6a8:	01004224 	addiu	v0,v0,1
1d00d6ac:	5f36400b 	j	0x1d00d97c
1d00d6b0:	880262ac 	sw	v0,648(v1)
1d00d6b4:	0200d62e 	sltiu	s6,s6,2
1d00d6b8:	b000c016 	bnez	s6,0x1d00d97c
1d00d6bc:	40354226 	addiu	v0,s2,13632
1d00d6c0:	f4010324 	li	v1,500
1d00d6c4:	040043ac 	sw	v1,4(v0)
1d00d6c8:	0c0040ac 	sw	zero,12(v0)
1d00d6cc:	b42f0226 	addiu	v0,s0,12212
1d00d6d0:	9402428c 	lw	v0,660(v0)
1d00d6d4:	40004010 	beqz	v0,0x1d00d7d8
1d00d6d8:	b42f0226 	addiu	v0,s0,12212
1d00d6dc:	8c02428c 	lw	v0,652(v0)
1d00d6e0:	08004230 	andi	v0,v0,0x8
1d00d6e4:	3c004014 	bnez	v0,0x1d00d7d8
1d00d6e8:	1800a297 	lhu	v0,24(sp)
1d00d6ec:	08004230 	andi	v0,v0,0x8
1d00d6f0:	ffff4230 	andi	v0,v0,0xffff
1d00d6f4:	38004010 	beqz	v0,0x1d00d7d8
1d00d6f8:	b42f0226 	addiu	v0,s0,12212
1d00d6fc:	4402428c 	lw	v0,580(v0)
1d00d700:	06004010 	beqz	v0,0x1d00d71c
1d00d704:	b42f0226 	addiu	v0,s0,12212
1d00d708:	4002428c 	lw	v0,576(v0)
1d00d70c:	0006427c 	ext	v0,v0,0x18,0x1
1d00d710:	30004014 	bnez	v0,0x1d00d7d4
1d00d714:	e8030224 	li	v0,1000
1d00d718:	b42f0226 	addiu	v0,s0,12212
1d00d71c:	6402428c 	lw	v0,612(v0)
1d00d720:	05004010 	beqz	v0,0x1d00d738
1d00d724:	b42f0226 	addiu	v0,s0,12212
1d00d728:	6002428c 	lw	v0,608(v0)
1d00d72c:	0006427c 	ext	v0,v0,0x18,0x1
1d00d730:	28004014 	bnez	v0,0x1d00d7d4
1d00d734:	e8030224 	li	v0,1000
1d00d738:	b42f0226 	addiu	v0,s0,12212
1d00d73c:	0402428c 	lw	v0,516(v0)
1d00d740:	0400422c 	sltiu	v0,v0,4
1d00d744:	25004014 	bnez	v0,0x1d00d7dc
1d00d748:	b42f0226 	addiu	v0,s0,12212
1d00d74c:	2402428c 	lw	v0,548(v0)
1d00d750:	0400422c 	sltiu	v0,v0,4
1d00d754:	16034010 	beqz	v0,0x1d00e3b0
1d00d758:	b42f0226 	addiu	v0,s0,12212
1d00d75c:	f835400b 	j	0x1d00d7e0
1d00d760:	1800a38f 	lw	v1,24(sp)
1d00d764:	0001428c 	lw	v0,256(v0)
1d00d768:	0400422c 	sltiu	v0,v0,4
1d00d76c:	16034010 	beqz	v0,0x1d00e3c8
1d00d770:	b42f0226 	addiu	v0,s0,12212
1d00d774:	f835400b 	j	0x1d00d7e0
1d00d778:	1800a38f 	lw	v1,24(sp)
1d00d77c:	6c02428c 	lw	v0,620(v0)
1d00d780:	0004427c 	ext	v0,v0,0x10,0x1
1d00d784:	14004010 	beqz	v0,0x1d00d7d8
1d00d788:	68356226 	addiu	v0,s3,13672
1d00d78c:	06004290 	lbu	v0,6(v0)
1d00d790:	11004014 	bnez	v0,0x1d00d7d8
1d00d794:	68356226 	addiu	v0,s3,13672
1d00d798:	07004290 	lbu	v0,7(v0)
1d00d79c:	0f004014 	bnez	v0,0x1d00d7dc
1d00d7a0:	b42f0226 	addiu	v0,s0,12212
1d00d7a4:	a25c400f 	jal	0x1d017288
1d00d7a8:	00000000 	nop
1d00d7ac:	05004010 	beqz	v0,0x1d00d7c4
1d00d7b0:	00000000 	nop
1d00d7b4:	ad5c400f 	jal	0x1d0172b4
1d00d7b8:	00000000 	nop
1d00d7bc:	07004010 	beqz	v0,0x1d00d7dc
1d00d7c0:	b42f0226 	addiu	v0,s0,12212
1d00d7c4:	5361400f 	jal	0x1d01854c
1d00d7c8:	00000000 	nop
1d00d7cc:	02004014 	bnez	v0,0x1d00d7d8
1d00d7d0:	e8030224 	li	v0,1000
1d00d7d4:	ac8082af 	sw	v0,-32596(gp)
1d00d7d8:	b42f0226 	addiu	v0,s0,12212
1d00d7dc:	1800a38f 	lw	v1,24(sp)
1d00d7e0:	8c0243ac 	sw	v1,652(v0)
1d00d7e4:	1c00a38f 	lw	v1,28(sp)
1d00d7e8:	900243ac 	sw	v1,656(v0)
1d00d7ec:	c8000324 	li	v1,200
1d00d7f0:	940243ac 	sw	v1,660(v0)
1d00d7f4:	9802428c 	lw	v0,664(v0)
1d00d7f8:	ffff0324 	li	v1,-1
1d00d7fc:	5f004310 	beq	v0,v1,0x1d00d97c
1d00d800:	b42f0326 	addiu	v1,s0,12212
1d00d804:	01004224 	addiu	v0,v0,1
1d00d808:	5f36400b 	j	0x1d00d97c
1d00d80c:	980262ac 	sw	v0,664(v1)
1d00d810:	5a00c012 	beqz	s6,0x1d00d97c
1d00d814:	00000000 	nop
1d00d818:	d721400f 	jal	0x1d00875c
1d00d81c:	1800a427 	addiu	a0,sp,24
1d00d820:	b42f0226 	addiu	v0,s0,12212
1d00d824:	1800a38f 	lw	v1,24(sp)
1d00d828:	9c0243ac 	sw	v1,668(v0)
1d00d82c:	1c00a38f 	lw	v1,28(sp)
1d00d830:	a00243ac 	sw	v1,672(v0)
1d00d834:	c8000324 	li	v1,200
1d00d838:	a40243ac 	sw	v1,676(v0)
1d00d83c:	a802428c 	lw	v0,680(v0)
1d00d840:	ffff0324 	li	v1,-1
1d00d844:	4d004310 	beq	v0,v1,0x1d00d97c
1d00d848:	b42f0326 	addiu	v1,s0,12212
1d00d84c:	01004224 	addiu	v0,v0,1
1d00d850:	5f36400b 	j	0x1d00d97c
1d00d854:	a80262ac 	sw	v0,680(v1)
1d00d858:	0800d62e 	sltiu	s6,s6,8
1d00d85c:	4700c016 	bnez	s6,0x1d00d97c
1d00d860:	b42f0226 	addiu	v0,s0,12212
1d00d864:	1800a38f 	lw	v1,24(sp)
1d00d868:	ac0243ac 	sw	v1,684(v0)
1d00d86c:	1c00a38f 	lw	v1,28(sp)
1d00d870:	b00243ac 	sw	v1,688(v0)
1d00d874:	64000324 	li	v1,100
1d00d878:	b40243ac 	sw	v1,692(v0)
1d00d87c:	b802428c 	lw	v0,696(v0)
1d00d880:	ffff0324 	li	v1,-1
1d00d884:	3d004310 	beq	v0,v1,0x1d00d97c
1d00d888:	b42f0326 	addiu	v1,s0,12212
1d00d88c:	01004224 	addiu	v0,v0,1
1d00d890:	5f36400b 	j	0x1d00d97c
1d00d894:	b80262ac 	sw	v0,696(v1)
1d00d898:	0800d62e 	sltiu	s6,s6,8
1d00d89c:	3700c016 	bnez	s6,0x1d00d97c
1d00d8a0:	b42f0226 	addiu	v0,s0,12212
1d00d8a4:	1800a38f 	lw	v1,24(sp)
1d00d8a8:	bc0243ac 	sw	v1,700(v0)
1d00d8ac:	1c00a38f 	lw	v1,28(sp)
1d00d8b0:	c00243ac 	sw	v1,704(v0)
1d00d8b4:	e8030324 	li	v1,1000
1d00d8b8:	c40243ac 	sw	v1,708(v0)
1d00d8bc:	c802428c 	lw	v0,712(v0)
1d00d8c0:	ffff0324 	li	v1,-1
1d00d8c4:	2d004310 	beq	v0,v1,0x1d00d97c
1d00d8c8:	b42f0326 	addiu	v1,s0,12212
1d00d8cc:	01004224 	addiu	v0,v0,1
1d00d8d0:	5f36400b 	j	0x1d00d97c
1d00d8d4:	c80262ac 	sw	v0,712(v1)
1d00d8d8:	0800d62e 	sltiu	s6,s6,8
1d00d8dc:	2700c016 	bnez	s6,0x1d00d97c
1d00d8e0:	00000000 	nop
1d00d8e4:	c96e400f 	jal	0x1d01bb24
1d00d8e8:	1800a427 	addiu	a0,sp,24
1d00d8ec:	b42f0226 	addiu	v0,s0,12212
1d00d8f0:	1800a38f 	lw	v1,24(sp)
1d00d8f4:	cc0243ac 	sw	v1,716(v0)
1d00d8f8:	1c00a38f 	lw	v1,28(sp)
1d00d8fc:	d00243ac 	sw	v1,720(v0)
1d00d900:	d40240ac 	sw	zero,724(v0)
1d00d904:	d802428c 	lw	v0,728(v0)
1d00d908:	ffff0324 	li	v1,-1
1d00d90c:	1b004310 	beq	v0,v1,0x1d00d97c
1d00d910:	b42f0326 	addiu	v1,s0,12212
1d00d914:	01004224 	addiu	v0,v0,1
1d00d918:	5f36400b 	j	0x1d00d97c
1d00d91c:	d80262ac 	sw	v0,728(v1)
1d00d920:	64000224 	li	v0,100
1d00d924:	15008216 	bne	s4,v0,0x1d00d97c
1d00d928:	00000000 	nop
1d00d92c:	fcffd626 	addiu	s6,s6,-4
1d00d930:	ff00d632 	andi	s6,s6,0xff
1d00d934:	0400d62e 	sltiu	s6,s6,4
1d00d938:	1000c012 	beqz	s6,0x1d00d97c
1d00d93c:	00000000 	nop
1d00d940:	2423400f 	jal	0x1d008c90
1d00d944:	1800a427 	addiu	a0,sp,24
1d00d948:	b42f0226 	addiu	v0,s0,12212
1d00d94c:	1800a38f 	lw	v1,24(sp)
1d00d950:	6c0243ac 	sw	v1,620(v0)
1d00d954:	1c00a38f 	lw	v1,28(sp)
1d00d958:	700243ac 	sw	v1,624(v0)
1d00d95c:	64000324 	li	v1,100
1d00d960:	740243ac 	sw	v1,628(v0)
1d00d964:	7802428c 	lw	v0,632(v0)
1d00d968:	ffff0324 	li	v1,-1
1d00d96c:	03004310 	beq	v0,v1,0x1d00d97c
1d00d970:	b42f0326 	addiu	v1,s0,12212
1d00d974:	01004224 	addiu	v0,v0,1
1d00d978:	780262ac 	sw	v0,632(v1)
1d00d97c:	8f4f400f 	jal	0x1d013e3c
1d00d980:	1000a427 	addiu	a0,sp,16
1d00d984:	5ffe4014 	bnez	v0,0x1d00d304
1d00d988:	b42f0226 	addiu	v0,s0,12212
1d00d98c:	01a0113c 	lui	s1,0xa001
1d00d990:	182f3126 	addiu	s1,s1,12056
1d00d994:	01a0103c 	lui	s0,0xa001
1d00d998:	2d00123c 	lui	s2,0x2d
1d00d99c:	b938400b 	j	0x1d00e2e4
1d00d9a0:	c0c65236 	ori	s2,s2,0xc6c0
1d00d9a4:	385d400f 	jal	0x1d0174e0
1d00d9a8:	1000a527 	addiu	a1,sp,16
1d00d9ac:	b42f0226 	addiu	v0,s0,12212
1d00d9b0:	dc02428c 	lw	v0,732(v0)
1d00d9b4:	ffff0324 	li	v1,-1
1d00d9b8:	03004310 	beq	v0,v1,0x1d00d9c8
1d00d9bc:	b42f0326 	addiu	v1,s0,12212
1d00d9c0:	01004224 	addiu	v0,v0,1
1d00d9c4:	dc0262ac 	sw	v0,732(v1)
1d00d9c8:	e349400f 	jal	0x1d01278c
1d00d9cc:	00000000 	nop
1d00d9d0:	44024010 	beqz	v0,0x1d00e2e4
1d00d9d4:	1400a28f 	lw	v0,20(sp)
1d00d9d8:	0007437c 	ext	v1,v0,0x1c,0x1
1d00d9dc:	08006010 	beqz	v1,0x1d00da00
1d00d9e0:	0f004430 	andi	a0,v0,0xf
1d00d9e4:	1000a58f 	lw	a1,16(sp)
1d00d9e8:	ff07a530 	andi	a1,a1,0x7ff
1d00d9ec:	802c0500 	sll	a1,a1,0x12
1d00d9f0:	1400a28f 	lw	v0,20(sp)
1d00d9f4:	808a427c 	ext	v0,v0,0xa,0x12
1d00d9f8:	8236400b 	j	0x1d00da08
1d00d9fc:	2510a200 	or	v0,a1,v0
1d00da00:	1000a28f 	lw	v0,16(sp)
1d00da04:	ff074230 	andi	v0,v0,0x7ff
1d00da08:	36026014 	bnez	v1,0x1d00e2e4
1d00da0c:	b5030324 	li	v1,949
1d00da10:	f6014310 	beq	v0,v1,0x1d00e1ec
1d00da14:	b603432c 	sltiu	v1,v0,950
1d00da18:	12006010 	beqz	v1,0x1d00da64
1d00da1c:	aa030324 	li	v1,938
1d00da20:	cb014310 	beq	v0,v1,0x1d00e150
1d00da24:	ab03432c 	sltiu	v1,v0,939
1d00da28:	08006010 	beqz	v1,0x1d00da4c
1d00da2c:	ab030324 	li	v1,939
1d00da30:	67010324 	li	v1,359
1d00da34:	1c024310 	beq	v0,v1,0x1d00e2a8
1d00da38:	04020324 	li	v1,516
1d00da3c:	77004310 	beq	v0,v1,0x1d00dc1c
1d00da40:	0800842c 	sltiu	a0,a0,8
1d00da44:	b938400b 	j	0x1d00e2e4
1d00da48:	00000000 	nop
1d00da4c:	d4014310 	beq	v0,v1,0x1d00e1a0
1d00da50:	b3030324 	li	v1,947
1d00da54:	15004310 	beq	v0,v1,0x1d00daac
1d00da58:	0800842c 	sltiu	a0,a0,8
1d00da5c:	b938400b 	j	0x1d00e2e4
1d00da60:	00000000 	nop
1d00da64:	65040324 	li	v1,1125
1d00da68:	9f004310 	beq	v0,v1,0x1d00dce8
1d00da6c:	6604432c 	sltiu	v1,v0,1126
1d00da70:	08006010 	beqz	v1,0x1d00da94
1d00da74:	66040324 	li	v1,1126
1d00da78:	34040324 	li	v1,1076
1d00da7c:	1a004310 	beq	v0,v1,0x1d00dae8
1d00da80:	35040324 	li	v1,1077
1d00da84:	45004310 	beq	v0,v1,0x1d00db9c
1d00da88:	0800842c 	sltiu	a0,a0,8
1d00da8c:	b938400b 	j	0x1d00e2e4
1d00da90:	00000000 	nop
1d00da94:	38014310 	beq	v0,v1,0x1d00df78
1d00da98:	67040324 	li	v1,1127
1d00da9c:	6e014310 	beq	v0,v1,0x1d00e058
1d00daa0:	0800842c 	sltiu	a0,a0,8
1d00daa4:	b938400b 	j	0x1d00e2e4
1d00daa8:	00000000 	nop
1d00daac:	0d028014 	bnez	a0,0x1d00e2e4
1d00dab0:	b42f0226 	addiu	v0,s0,12212
1d00dab4:	1800a38f 	lw	v1,24(sp)
1d00dab8:	e00243ac 	sw	v1,736(v0)
1d00dabc:	1c00a38f 	lw	v1,28(sp)
1d00dac0:	e40243ac 	sw	v1,740(v0)
1d00dac4:	e2040324 	li	v1,1250
1d00dac8:	e80243ac 	sw	v1,744(v0)
1d00dacc:	ec02428c 	lw	v0,748(v0)
1d00dad0:	ffff0324 	li	v1,-1
1d00dad4:	03024310 	beq	v0,v1,0x1d00e2e4
1d00dad8:	b42f0326 	addiu	v1,s0,12212
1d00dadc:	01004224 	addiu	v0,v0,1
1d00dae0:	b938400b 	j	0x1d00e2e4
1d00dae4:	ec0262ac 	sw	v0,748(v1)
1d00dae8:	0800842c 	sltiu	a0,a0,8
1d00daec:	fd018014 	bnez	a0,0x1d00e2e4
1d00daf0:	b42f0226 	addiu	v0,s0,12212
1d00daf4:	1800a38f 	lw	v1,24(sp)
1d00daf8:	f00243ac 	sw	v1,752(v0)
1d00dafc:	1c00a38f 	lw	v1,28(sp)
1d00db00:	f40243ac 	sw	v1,756(v0)
1d00db04:	fa000324 	li	v1,250
1d00db08:	f80243ac 	sw	v1,760(v0)
1d00db0c:	fc02428c 	lw	v0,764(v0)
1d00db10:	ffff0324 	li	v1,-1
1d00db14:	03004310 	beq	v0,v1,0x1d00db24
1d00db18:	b42f0326 	addiu	v1,s0,12212
1d00db1c:	01004224 	addiu	v0,v0,1
1d00db20:	fc0262ac 	sw	v0,764(v1)
1d00db24:	0254400f 	jal	0x1d015008
1d00db28:	00000000 	nop
1d00db2c:	ed014010 	beqz	v0,0x1d00e2e4
1d00db30:	1c80838f 	lw	v1,-32740(gp)
1d00db34:	01006324 	addiu	v1,v1,1
1d00db38:	cccc023c 	lui	v0,0xcccc
1d00db3c:	cdcc4234 	ori	v0,v0,0xcccd
1d00db40:	19006200 	multu	v1,v0
1d00db44:	10100000 	mfhi	v0
1d00db48:	c2100200 	srl	v0,v0,0x3
1d00db4c:	40200200 	sll	a0,v0,0x1
1d00db50:	c0100200 	sll	v0,v0,0x3
1d00db54:	21108200 	addu	v0,a0,v0
1d00db58:	23106200 	subu	v0,v1,v0
1d00db5c:	e1014014 	bnez	v0,0x1d00e2e4
1d00db60:	1c8082af 	sw	v0,-32740(gp)
1d00db64:	1800a28f 	lw	v0,24(sp)
1d00db68:	3800a2af 	sw	v0,56(sp)
1d00db6c:	1c00a28f 	lw	v0,28(sp)
1d00db70:	01000324 	li	v1,1
1d00db74:	84f7627c 	ins	v0,v1,0x1e,0x1
1d00db78:	3c00a2af 	sw	v0,60(sp)
1d00db7c:	08000224 	li	v0,8
1d00db80:	3400a2af 	sw	v0,52(sp)
1d00db84:	34040224 	li	v0,1076
1d00db88:	3000a2af 	sw	v0,48(sp)
1d00db8c:	c44d400f 	jal	0x1d013710
1d00db90:	3000a427 	addiu	a0,sp,48
1d00db94:	b938400b 	j	0x1d00e2e4
1d00db98:	00000000 	nop
1d00db9c:	d1018014 	bnez	a0,0x1d00e2e4
1d00dba0:	b42f0226 	addiu	v0,s0,12212
1d00dba4:	1800a38f 	lw	v1,24(sp)
1d00dba8:	000343ac 	sw	v1,768(v0)
1d00dbac:	1c00a38f 	lw	v1,28(sp)
1d00dbb0:	040343ac 	sw	v1,772(v0)
1d00dbb4:	fa000324 	li	v1,250
1d00dbb8:	080343ac 	sw	v1,776(v0)
1d00dbbc:	0c03428c 	lw	v0,780(v0)
1d00dbc0:	ffff0324 	li	v1,-1
1d00dbc4:	03004310 	beq	v0,v1,0x1d00dbd4
1d00dbc8:	b42f0326 	addiu	v1,s0,12212
1d00dbcc:	01004224 	addiu	v0,v0,1
1d00dbd0:	0c0362ac 	sw	v0,780(v1)
1d00dbd4:	b42f0226 	addiu	v0,s0,12212
1d00dbd8:	0c03428c 	lw	v0,780(v0)
1d00dbdc:	0300422c 	sltiu	v0,v0,3
1d00dbe0:	c0014014 	bnez	v0,0x1d00e2e4
1d00dbe4:	1c00a393 	lbu	v1,28(sp)
1d00dbe8:	d0ff6324 	addiu	v1,v1,-48
1d00dbec:	1a00a297 	lhu	v0,26(sp)
1d00dbf0:	00034230 	andi	v0,v0,0x300
1d00dbf4:	21106200 	addu	v0,v1,v0
1d00dbf8:	3800a2a7 	sh	v0,56(sp)
1d00dbfc:	02000224 	li	v0,2
1d00dc00:	3400a2af 	sw	v0,52(sp)
1d00dc04:	72000224 	li	v0,114
1d00dc08:	3000a2af 	sw	v0,48(sp)
1d00dc0c:	204d400f 	jal	0x1d013480
1d00dc10:	3000a427 	addiu	a0,sp,48
1d00dc14:	b938400b 	j	0x1d00e2e4
1d00dc18:	00000000 	nop
1d00dc1c:	b1018014 	bnez	a0,0x1d00e2e4
1d00dc20:	b42f0226 	addiu	v0,s0,12212
1d00dc24:	1800a38f 	lw	v1,24(sp)
1d00dc28:	100343ac 	sw	v1,784(v0)
1d00dc2c:	1c00a38f 	lw	v1,28(sp)
1d00dc30:	140343ac 	sw	v1,788(v0)
1d00dc34:	c8000324 	li	v1,200
1d00dc38:	180343ac 	sw	v1,792(v0)
1d00dc3c:	1c03428c 	lw	v0,796(v0)
1d00dc40:	ffff0324 	li	v1,-1
1d00dc44:	03004310 	beq	v0,v1,0x1d00dc54
1d00dc48:	b42f0326 	addiu	v1,s0,12212
1d00dc4c:	01004224 	addiu	v0,v0,1
1d00dc50:	1c0362ac 	sw	v0,796(v1)
1d00dc54:	b42f0226 	addiu	v0,s0,12212
1d00dc58:	1c03428c 	lw	v0,796(v0)
1d00dc5c:	0300422c 	sltiu	v0,v0,3
1d00dc60:	a0014014 	bnez	v0,0x1d00e2e4
1d00dc64:	00000000 	nop
1d00dc68:	3800a0af 	sw	zero,56(sp)
1d00dc6c:	3c00a0af 	sw	zero,60(sp)
1d00dc70:	1a00a293 	lbu	v0,26(sp)
1d00dc74:	83ff4224 	addiu	v0,v0,-125
1d00dc78:	2016027c 	seh	v0,v0
1d00dc7c:	1e00a493 	lbu	a0,30(sp)
1d00dc80:	00220400 	sll	a0,a0,0x8
1d00dc84:	1f00a393 	lbu	v1,31(sp)
1d00dc88:	21188300 	addu	v1,a0,v1
1d00dc8c:	3800a3a7 	sh	v1,56(sp)
1d00dc90:	1800a48f 	lw	a0,24(sp)
1d00dc94:	0008847c 	ext	a0,a0,0x0,0x2
1d00dc98:	ff008430 	andi	a0,a0,0xff
1d00dc9c:	00220400 	sll	a0,a0,0x8
1d00dca0:	1900a393 	lbu	v1,25(sp)
1d00dca4:	21208300 	addu	a0,a0,v1
1d00dca8:	3800a38f 	lw	v1,56(sp)
1d00dcac:	04cc837c 	ins	v1,a0,0x10,0xa
1d00dcb0:	3800a3af 	sw	v1,56(sp)
1d00dcb4:	21184000 	move	v1,v0
1d00dcb8:	80004228 	slti	v0,v0,128
1d00dcbc:	01004050 	beqzl	v0,0x1d00dcc4
1d00dcc0:	7f000324 	li	v1,127
1d00dcc4:	3c00a3a3 	sb	v1,60(sp)
1d00dcc8:	08000224 	li	v0,8
1d00dccc:	3400a2af 	sw	v0,52(sp)
1d00dcd0:	75000224 	li	v0,117
1d00dcd4:	3000a2af 	sw	v0,48(sp)
1d00dcd8:	204d400f 	jal	0x1d013480
1d00dcdc:	3000a427 	addiu	a0,sp,48
1d00dce0:	b938400b 	j	0x1d00e2e4
1d00dce4:	00000000 	nop
1d00dce8:	0800842c 	sltiu	a0,a0,8
1d00dcec:	7d018014 	bnez	a0,0x1d00e2e4
1d00dcf0:	b42f0226 	addiu	v0,s0,12212
1d00dcf4:	1800a38f 	lw	v1,24(sp)
1d00dcf8:	200343ac 	sw	v1,800(v0)
1d00dcfc:	1c00a38f 	lw	v1,28(sp)
1d00dd00:	240343ac 	sw	v1,804(v0)
1d00dd04:	c4090324 	li	v1,2500
1d00dd08:	280343ac 	sw	v1,808(v0)
1d00dd0c:	2c03428c 	lw	v0,812(v0)
1d00dd10:	ffff0324 	li	v1,-1
1d00dd14:	03004310 	beq	v0,v1,0x1d00dd24
1d00dd18:	b42f0326 	addiu	v1,s0,12212
1d00dd1c:	01004224 	addiu	v0,v0,1
1d00dd20:	2c0362ac 	sw	v0,812(v1)
1d00dd24:	b42f0226 	addiu	v0,s0,12212
1d00dd28:	2c03428c 	lw	v0,812(v0)
1d00dd2c:	0200422c 	sltiu	v0,v0,2
1d00dd30:	6c014014 	bnez	v0,0x1d00e2e4
1d00dd34:	15f0023c 	lui	v0,0xf015
1d00dd38:	3800a0af 	sw	zero,56(sp)
1d00dd3c:	3c00a0af 	sw	zero,60(sp)
1d00dd40:	1800a393 	lbu	v1,24(sp)
1d00dd44:	40e74234 	ori	v0,v0,0xe740
1d00dd48:	02207270 	mul	a0,v1,s2
1d00dd4c:	21108200 	addu	v0,a0,v0
1d00dd50:	17004018 	blez	v0,0x1d00ddb0
1d00dd54:	1800a48f 	lw	a0,24(sp)
1d00dd58:	802a837c 	ext	v1,a0,0xa,0x6
1d00dd5c:	80280300 	sll	a1,v1,0x2
1d00dd60:	c0310300 	sll	a2,v1,0x7
1d00dd64:	2328c500 	subu	a1,a2,a1
1d00dd68:	2118a300 	addu	v1,a1,v1
1d00dd6c:	80280300 	sll	a1,v1,0x2
1d00dd70:	21186500 	addu	v1,v1,a1
1d00dd74:	80280300 	sll	a1,v1,0x2
1d00dd78:	21186500 	addu	v1,v1,a1
1d00dd7c:	00190300 	sll	v1,v1,0x4
1d00dd80:	21104300 	addu	v0,v0,v1
1d00dd84:	1a00a393 	lbu	v1,26(sp)
1d00dd88:	80190300 	sll	v1,v1,0x6
1d00dd8c:	82260400 	srl	a0,a0,0x1a
1d00dd90:	21186400 	addu	v1,v1,a0
1d00dd94:	80200300 	sll	a0,v1,0x2
1d00dd98:	21188300 	addu	v1,a0,v1
1d00dd9c:	21184300 	addu	v1,v0,v1
1d00dda0:	21100000 	move	v0,zero
1d00dda4:	04f0627c 	ins	v0,v1,0x0,0x1f
1d00dda8:	8137400b 	j	0x1d00de04
1d00ddac:	3800a2af 	sw	v0,56(sp)
1d00ddb0:	802a837c 	ext	v1,a0,0xa,0x6
1d00ddb4:	80280300 	sll	a1,v1,0x2
1d00ddb8:	c0310300 	sll	a2,v1,0x7
1d00ddbc:	2328c500 	subu	a1,a2,a1
1d00ddc0:	2118a300 	addu	v1,a1,v1
1d00ddc4:	80280300 	sll	a1,v1,0x2
1d00ddc8:	21186500 	addu	v1,v1,a1
1d00ddcc:	80280300 	sll	a1,v1,0x2
1d00ddd0:	21186500 	addu	v1,v1,a1
1d00ddd4:	00190300 	sll	v1,v1,0x4
1d00ddd8:	23104300 	subu	v0,v0,v1
1d00dddc:	1a00a393 	lbu	v1,26(sp)
1d00dde0:	80190300 	sll	v1,v1,0x6
1d00dde4:	82260400 	srl	a0,a0,0x1a
1d00dde8:	21186400 	addu	v1,v1,a0
1d00ddec:	80200300 	sll	a0,v1,0x2
1d00ddf0:	21188300 	addu	v1,a0,v1
1d00ddf4:	23184300 	subu	v1,v0,v1
1d00ddf8:	3800a28f 	lw	v0,56(sp)
1d00ddfc:	04f0627c 	ins	v0,v1,0x0,0x1f
1d00de00:	3800a2af 	sw	v0,56(sp)
1d00de04:	1800a28f 	lw	v0,24(sp)
1d00de08:	0003033c 	lui	v1,0x300
1d00de0c:	24184300 	and	v1,v0,v1
1d00de10:	0002043c 	lui	a0,0x200
1d00de14:	06006414 	bne	v1,a0,0x1d00de30
1d00de18:	0001043c 	lui	a0,0x100
1d00de1c:	3800a38f 	lw	v1,56(sp)
1d00de20:	ffff0424 	li	a0,-1
1d00de24:	c4ff837c 	ins	v1,a0,0x1f,0x1
1d00de28:	9237400b 	j	0x1d00de48
1d00de2c:	3800a3af 	sw	v1,56(sp)
1d00de30:	06006414 	bne	v1,a0,0x1d00de4c
1d00de34:	1c00a493 	lbu	a0,28(sp)
1d00de38:	3800a38f 	lw	v1,56(sp)
1d00de3c:	ffff0424 	li	a0,-1
1d00de40:	c4ff837c 	ins	v1,a0,0x1f,0x1
1d00de44:	3800a3af 	sw	v1,56(sp)
1d00de48:	1c00a493 	lbu	a0,28(sp)
1d00de4c:	40200400 	sll	a0,a0,0x1
1d00de50:	1c00a38f 	lw	v1,28(sp)
1d00de54:	c003637c 	ext	v1,v1,0xf,0x1
1d00de58:	21188300 	addu	v1,a0,v1
1d00de5c:	4dff6324 	addiu	v1,v1,-179
1d00de60:	02187270 	mul	v1,v1,s2
1d00de64:	17006018 	blez	v1,0x1d00dec4
1d00de68:	1e00a693 	lbu	a2,30(sp)
1d00de6c:	80310600 	sll	a2,a2,0x6
1d00de70:	1c00a48f 	lw	a0,28(sp)
1d00de74:	822e0400 	srl	a1,a0,0x1a
1d00de78:	2128c500 	addu	a1,a2,a1
1d00de7c:	80300500 	sll	a2,a1,0x2
1d00de80:	2128c500 	addu	a1,a2,a1
1d00de84:	402a847c 	ext	a0,a0,0x9,0x6
1d00de88:	80300400 	sll	a2,a0,0x2
1d00de8c:	c0390400 	sll	a3,a0,0x7
1d00de90:	2330e600 	subu	a2,a3,a2
1d00de94:	2120c400 	addu	a0,a2,a0
1d00de98:	80300400 	sll	a2,a0,0x2
1d00de9c:	21208600 	addu	a0,a0,a2
1d00dea0:	80300400 	sll	a2,a0,0x2
1d00dea4:	21208600 	addu	a0,a0,a2
1d00dea8:	00210400 	sll	a0,a0,0x4
1d00deac:	2120a400 	addu	a0,a1,a0
1d00deb0:	21188300 	addu	v1,a0,v1
1d00deb4:	3c00a48f 	lw	a0,60(sp)
1d00deb8:	04f0647c 	ins	a0,v1,0x0,0x1f
1d00debc:	c737400b 	j	0x1d00df1c
1d00dec0:	3c00a4af 	sw	a0,60(sp)
1d00dec4:	1c00a58f 	lw	a1,28(sp)
1d00dec8:	402aa47c 	ext	a0,a1,0x9,0x6
1d00decc:	80300400 	sll	a2,a0,0x2
1d00ded0:	c0390400 	sll	a3,a0,0x7
1d00ded4:	2330e600 	subu	a2,a3,a2
1d00ded8:	2120c400 	addu	a0,a2,a0
1d00dedc:	80300400 	sll	a2,a0,0x2
1d00dee0:	21208600 	addu	a0,a0,a2
1d00dee4:	80300400 	sll	a2,a0,0x2
1d00dee8:	21208600 	addu	a0,a0,a2
1d00deec:	00210400 	sll	a0,a0,0x4
1d00def0:	23186400 	subu	v1,v1,a0
1d00def4:	1e00a493 	lbu	a0,30(sp)
1d00def8:	80210400 	sll	a0,a0,0x6
1d00defc:	822e0500 	srl	a1,a1,0x1a
1d00df00:	21208500 	addu	a0,a0,a1
1d00df04:	80280400 	sll	a1,a0,0x2
1d00df08:	2120a400 	addu	a0,a1,a0
1d00df0c:	23206400 	subu	a0,v1,a0
1d00df10:	3c00a38f 	lw	v1,60(sp)
1d00df14:	04f0837c 	ins	v1,a0,0x0,0x1f
1d00df18:	3c00a3af 	sw	v1,60(sp)
1d00df1c:	00034230 	andi	v0,v0,0x300
1d00df20:	00010324 	li	v1,256
1d00df24:	06004314 	bne	v0,v1,0x1d00df40
1d00df28:	00020324 	li	v1,512
1d00df2c:	3c00a28f 	lw	v0,60(sp)
1d00df30:	ffff0324 	li	v1,-1
1d00df34:	c4ff627c 	ins	v0,v1,0x1f,0x1
1d00df38:	d637400b 	j	0x1d00df58
1d00df3c:	3c00a2af 	sw	v0,60(sp)
1d00df40:	06004314 	bne	v0,v1,0x1d00df5c
1d00df44:	08000224 	li	v0,8
1d00df48:	3c00a28f 	lw	v0,60(sp)
1d00df4c:	ffff0324 	li	v1,-1
1d00df50:	c4ff627c 	ins	v0,v1,0x1f,0x1
1d00df54:	3c00a2af 	sw	v0,60(sp)
1d00df58:	08000224 	li	v0,8
1d00df5c:	3400a2af 	sw	v0,52(sp)
1d00df60:	6d000224 	li	v0,109
1d00df64:	3000a2af 	sw	v0,48(sp)
1d00df68:	204d400f 	jal	0x1d013480
1d00df6c:	3000a427 	addiu	a0,sp,48
1d00df70:	b938400b 	j	0x1d00e2e4
1d00df74:	00000000 	nop
1d00df78:	0800842c 	sltiu	a0,a0,8
1d00df7c:	d9008014 	bnez	a0,0x1d00e2e4
1d00df80:	b42f0226 	addiu	v0,s0,12212
1d00df84:	1800a38f 	lw	v1,24(sp)
1d00df88:	300343ac 	sw	v1,816(v0)
1d00df8c:	1c00a38f 	lw	v1,28(sp)
1d00df90:	340343ac 	sw	v1,820(v0)
1d00df94:	c4090324 	li	v1,2500
1d00df98:	380343ac 	sw	v1,824(v0)
1d00df9c:	3c03428c 	lw	v0,828(v0)
1d00dfa0:	ffff0324 	li	v1,-1
1d00dfa4:	03004310 	beq	v0,v1,0x1d00dfb4
1d00dfa8:	b42f0326 	addiu	v1,s0,12212
1d00dfac:	01004224 	addiu	v0,v0,1
1d00dfb0:	3c0362ac 	sw	v0,828(v1)
1d00dfb4:	b42f0226 	addiu	v0,s0,12212
1d00dfb8:	3c03428c 	lw	v0,828(v0)
1d00dfbc:	0200422c 	sltiu	v0,v0,2
1d00dfc0:	c8004014 	bnez	v0,0x1d00e2e4
1d00dfc4:	1c00a38f 	lw	v1,28(sp)
1d00dfc8:	c024647c 	ext	a0,v1,0x13,0x5
1d00dfcc:	001b627c 	ext	v0,v1,0xc,0x4
1d00dfd0:	01004224 	addiu	v0,v0,1
1d00dfd4:	0a008424 	addiu	a0,a0,10
1d00dfd8:	045a447c 	ins	a0,v0,0x8,0x4
1d00dfdc:	4020627c 	ext	v0,v1,0x1,0x5
1d00dfe0:	01004224 	addiu	v0,v0,1
1d00dfe4:	04a4447c 	ins	a0,v0,0x10,0x5
1d00dfe8:	1800a28f 	lw	v0,24(sp)
1d00dfec:	c020457c 	ext	a1,v0,0x3,0x5
1d00dff0:	04e6a47c 	ins	a0,a1,0x18,0x5
1d00dff4:	3800a4af 	sw	a0,56(sp)
1d00dff8:	802c457c 	ext	a1,v0,0x12,0x6
1d00dffc:	802a447c 	ext	a0,v0,0xa,0x6
1d00e000:	046aa47c 	ins	a0,a1,0x8,0x6
1d00e004:	0016467c 	ext	a2,v0,0x18,0x3
1d00e008:	40300600 	sll	a2,a2,0x1
1d00e00c:	c001657c 	ext	a1,v1,0x7,0x1
1d00e010:	2128c500 	addu	a1,a2,a1
1d00e014:	049ca47c 	ins	a0,a1,0x10,0x4
1d00e018:	c026457c 	ext	a1,v0,0x1b,0x5
1d00e01c:	04e6a47c 	ins	a0,a1,0x18,0x5
1d00e020:	8000457c 	ext	a1,v0,0x2,0x1
1d00e024:	21108000 	move	v0,a0
1d00e028:	44efa27c 	ins	v0,a1,0x1d,0x1
1d00e02c:	8001637c 	ext	v1,v1,0x6,0x1
1d00e030:	84f7627c 	ins	v0,v1,0x1e,0x1
1d00e034:	3c00a2af 	sw	v0,60(sp)
1d00e038:	08000224 	li	v0,8
1d00e03c:	3400a2af 	sw	v0,52(sp)
1d00e040:	6e000224 	li	v0,110
1d00e044:	3000a2af 	sw	v0,48(sp)
1d00e048:	204d400f 	jal	0x1d013480
1d00e04c:	3000a427 	addiu	a0,sp,48
1d00e050:	b938400b 	j	0x1d00e2e4
1d00e054:	00000000 	nop
1d00e058:	a2008014 	bnez	a0,0x1d00e2e4
1d00e05c:	b42f0226 	addiu	v0,s0,12212
1d00e060:	1800a38f 	lw	v1,24(sp)
1d00e064:	400343ac 	sw	v1,832(v0)
1d00e068:	1c00a38f 	lw	v1,28(sp)
1d00e06c:	440343ac 	sw	v1,836(v0)
1d00e070:	c4090324 	li	v1,2500
1d00e074:	480343ac 	sw	v1,840(v0)
1d00e078:	4c03428c 	lw	v0,844(v0)
1d00e07c:	ffff0324 	li	v1,-1
1d00e080:	03004310 	beq	v0,v1,0x1d00e090
1d00e084:	b42f0326 	addiu	v1,s0,12212
1d00e088:	01004224 	addiu	v0,v0,1
1d00e08c:	4c0362ac 	sw	v0,844(v1)
1d00e090:	b42f0226 	addiu	v0,s0,12212
1d00e094:	4c03428c 	lw	v0,844(v0)
1d00e098:	0200422c 	sltiu	v0,v0,2
1d00e09c:	91004014 	bnez	v0,0x1d00e2e4
1d00e0a0:	1900a493 	lbu	a0,25(sp)
1d00e0a4:	00210400 	sll	a0,a0,0x4
1d00e0a8:	1800a28f 	lw	v0,24(sp)
1d00e0ac:	001c437c 	ext	v1,v0,0x10,0x4
1d00e0b0:	21188300 	addu	v1,a0,v1
1d00e0b4:	02f86324 	addiu	v1,v1,-2046
1d00e0b8:	80200300 	sll	a0,v1,0x2
1d00e0bc:	c0290300 	sll	a1,v1,0x7
1d00e0c0:	2320a400 	subu	a0,a1,a0
1d00e0c4:	21188300 	addu	v1,a0,v1
1d00e0c8:	40190300 	sll	v1,v1,0x5
1d00e0cc:	e763043c 	lui	a0,0x63e7
1d00e0d0:	3f068424 	addiu	a0,a0,1599
1d00e0d4:	18006400 	mult	v1,a0
1d00e0d8:	10200000 	mfhi	a0
1d00e0dc:	c3210400 	sra	a0,a0,0x7
1d00e0e0:	c31f0300 	sra	v1,v1,0x1f
1d00e0e4:	23188300 	subu	v1,a0,v1
1d00e0e8:	3800a3a7 	sh	v1,56(sp)
1d00e0ec:	1b00a493 	lbu	a0,27(sp)
1d00e0f0:	00220400 	sll	a0,a0,0x8
1d00e0f4:	1c00a393 	lbu	v1,28(sp)
1d00e0f8:	21188300 	addu	v1,a0,v1
1d00e0fc:	3a00a3a7 	sh	v1,58(sp)
1d00e100:	1d00a393 	lbu	v1,29(sp)
1d00e104:	3c00a3a3 	sb	v1,60(sp)
1d00e108:	1c00a38f 	lw	v1,28(sp)
1d00e10c:	c024647c 	ext	a0,v1,0x13,0x5
1d00e110:	3d00a4a3 	sb	a0,61(sp)
1d00e114:	c026637c 	ext	v1,v1,0x1b,0x5
1d00e118:	3e00a3a3 	sb	v1,62(sp)
1d00e11c:	21180000 	move	v1,zero
1d00e120:	0410437c 	ins	v1,v0,0x0,0x3
1d00e124:	c020427c 	ext	v0,v0,0x3,0x5
1d00e128:	c438437c 	ins	v1,v0,0x3,0x5
1d00e12c:	3f00a3a3 	sb	v1,63(sp)
1d00e130:	08000224 	li	v0,8
1d00e134:	3400a2af 	sw	v0,52(sp)
1d00e138:	6f000224 	li	v0,111
1d00e13c:	3000a2af 	sw	v0,48(sp)
1d00e140:	204d400f 	jal	0x1d013480
1d00e144:	3000a427 	addiu	a0,sp,48
1d00e148:	b938400b 	j	0x1d00e2e4
1d00e14c:	00000000 	nop
1d00e150:	0800842c 	sltiu	a0,a0,8
1d00e154:	63008014 	bnez	a0,0x1d00e2e4
1d00e158:	b42f0226 	addiu	v0,s0,12212
1d00e15c:	1800a38f 	lw	v1,24(sp)
1d00e160:	500343ac 	sw	v1,848(v0)
1d00e164:	1c00a38f 	lw	v1,28(sp)
1d00e168:	540343ac 	sw	v1,852(v0)
1d00e16c:	f4010324 	li	v1,500
1d00e170:	580343ac 	sw	v1,856(v0)
1d00e174:	5c03428c 	lw	v0,860(v0)
1d00e178:	ffff0324 	li	v1,-1
1d00e17c:	03004310 	beq	v0,v1,0x1d00e18c
1d00e180:	b42f0326 	addiu	v1,s0,12212
1d00e184:	01004224 	addiu	v0,v0,1
1d00e188:	5c0362ac 	sw	v0,860(v1)
1d00e18c:	b525400f 	jal	0x1d0096d4
1d00e190:	00000000 	nop
1d00e194:	0a000224 	li	v0,10
1d00e198:	b938400b 	j	0x1d00e2e4
1d00e19c:	b08082af 	sw	v0,-32592(gp)
1d00e1a0:	0800842c 	sltiu	a0,a0,8
1d00e1a4:	4f008014 	bnez	a0,0x1d00e2e4
1d00e1a8:	b42f0226 	addiu	v0,s0,12212
1d00e1ac:	1800a38f 	lw	v1,24(sp)
1d00e1b0:	600343ac 	sw	v1,864(v0)
1d00e1b4:	1c00a38f 	lw	v1,28(sp)
1d00e1b8:	640343ac 	sw	v1,868(v0)
1d00e1bc:	f4010324 	li	v1,500
1d00e1c0:	680343ac 	sw	v1,872(v0)
1d00e1c4:	6c03428c 	lw	v0,876(v0)
1d00e1c8:	ffff0324 	li	v1,-1
1d00e1cc:	03004310 	beq	v0,v1,0x1d00e1dc
1d00e1d0:	b42f0326 	addiu	v1,s0,12212
1d00e1d4:	01004224 	addiu	v0,v0,1
1d00e1d8:	6c0362ac 	sw	v0,876(v1)
1d00e1dc:	b525400f 	jal	0x1d0096d4
1d00e1e0:	00000000 	nop
1d00e1e4:	b938400b 	j	0x1d00e2e4
1d00e1e8:	00000000 	nop
1d00e1ec:	0800842c 	sltiu	a0,a0,8
1d00e1f0:	3c008014 	bnez	a0,0x1d00e2e4
1d00e1f4:	b42f0226 	addiu	v0,s0,12212
1d00e1f8:	1800a38f 	lw	v1,24(sp)
1d00e1fc:	700343ac 	sw	v1,880(v0)
1d00e200:	1c00a38f 	lw	v1,28(sp)
1d00e204:	740343ac 	sw	v1,884(v0)
1d00e208:	e2040324 	li	v1,1250
1d00e20c:	780343ac 	sw	v1,888(v0)
1d00e210:	7c03428c 	lw	v0,892(v0)
1d00e214:	ffff0324 	li	v1,-1
1d00e218:	03004310 	beq	v0,v1,0x1d00e228
1d00e21c:	b42f0326 	addiu	v1,s0,12212
1d00e220:	01004224 	addiu	v0,v0,1
1d00e224:	7c0362ac 	sw	v0,892(v1)
1d00e228:	b42f0226 	addiu	v0,s0,12212
1d00e22c:	7c03428c 	lw	v0,892(v0)
1d00e230:	0300422c 	sltiu	v0,v0,3
1d00e234:	2b004014 	bnez	v0,0x1d00e2e4
1d00e238:	1800a393 	lbu	v1,24(sp)
1d00e23c:	001a0300 	sll	v1,v1,0x8
1d00e240:	1900a293 	lbu	v0,25(sp)
1d00e244:	21106200 	addu	v0,v1,v0
1d00e248:	3800a2a7 	sh	v0,56(sp)
1d00e24c:	1a00a393 	lbu	v1,26(sp)
1d00e250:	001a0300 	sll	v1,v1,0x8
1d00e254:	1b00a293 	lbu	v0,27(sp)
1d00e258:	21106200 	addu	v0,v1,v0
1d00e25c:	3a00a2a7 	sh	v0,58(sp)
1d00e260:	1e00a393 	lbu	v1,30(sp)
1d00e264:	001a0300 	sll	v1,v1,0x8
1d00e268:	1f00a293 	lbu	v0,31(sp)
1d00e26c:	21106200 	addu	v0,v1,v0
1d00e270:	3c00a2a7 	sh	v0,60(sp)
1d00e274:	1c00a393 	lbu	v1,28(sp)
1d00e278:	001a0300 	sll	v1,v1,0x8
1d00e27c:	1d00a293 	lbu	v0,29(sp)
1d00e280:	21106200 	addu	v0,v1,v0
1d00e284:	3e00a2a7 	sh	v0,62(sp)
1d00e288:	08000224 	li	v0,8
1d00e28c:	3400a2af 	sw	v0,52(sp)
1d00e290:	71000224 	li	v0,113
1d00e294:	3000a2af 	sw	v0,48(sp)
1d00e298:	204d400f 	jal	0x1d013480
1d00e29c:	3000a427 	addiu	a0,sp,48
1d00e2a0:	b938400b 	j	0x1d00e2e4
1d00e2a4:	00000000 	nop
1d00e2a8:	0800842c 	sltiu	a0,a0,8
1d00e2ac:	0d008014 	bnez	a0,0x1d00e2e4
1d00e2b0:	b42f0226 	addiu	v0,s0,12212
1d00e2b4:	1800a38f 	lw	v1,24(sp)
1d00e2b8:	800343ac 	sw	v1,896(v0)
1d00e2bc:	1c00a38f 	lw	v1,28(sp)
1d00e2c0:	840343ac 	sw	v1,900(v0)
1d00e2c4:	c8000324 	li	v1,200
1d00e2c8:	880343ac 	sw	v1,904(v0)
1d00e2cc:	8c03428c 	lw	v0,908(v0)
1d00e2d0:	ffff0324 	li	v1,-1
1d00e2d4:	03004310 	beq	v0,v1,0x1d00e2e4
1d00e2d8:	b42f0326 	addiu	v1,s0,12212
1d00e2dc:	01004224 	addiu	v0,v0,1
1d00e2e0:	8c0362ac 	sw	v0,908(v1)
1d00e2e4:	e04f400f 	jal	0x1d013f80
1d00e2e8:	1000a427 	addiu	a0,sp,16
1d00e2ec:	adfd4014 	bnez	v0,0x1d00d9a4
1d00e2f0:	21202002 	move	a0,s1
1d00e2f4:	4150400f 	jal	0x1d014104
1d00e2f8:	00000000 	nop
1d00e2fc:	f738400b 	j	0x1d00e3dc
1d00e300:	6400bf8f 	lw	ra,100(sp)
1d00e304:	5001428c 	lw	v0,336(v0)
1d00e308:	0400422c 	sltiu	v0,v0,4
1d00e30c:	d3f84050 	beqzl	v0,0x1d00c65c
1d00e310:	b42f0226 	addiu	v0,s0,12212
1d00e314:	b531400b 	j	0x1d00c6d4
1d00e318:	40358226 	addiu	v0,s4,13632
1d00e31c:	7402428c 	lw	v0,628(v0)
1d00e320:	d4f84054 	bnezl	v0,0x1d00c674
1d00e324:	b42f0226 	addiu	v0,s0,12212
1d00e328:	b531400b 	j	0x1d00c6d4
1d00e32c:	40358226 	addiu	v0,s4,13632
1d00e330:	5001428c 	lw	v0,336(v0)
1d00e334:	0400422c 	sltiu	v0,v0,4
1d00e338:	84f94010 	beqz	v0,0x1d00c94c
1d00e33c:	b42f0226 	addiu	v0,s0,12212
1d00e340:	c733400b 	j	0x1d00cf1c
1d00e344:	00000000 	nop
1d00e348:	7402428c 	lw	v0,628(v0)
1d00e34c:	85f94014 	bnez	v0,0x1d00c964
1d00e350:	b42f0226 	addiu	v0,s0,12212
1d00e354:	c733400b 	j	0x1d00cf1c
1d00e358:	00000000 	nop
1d00e35c:	2800a28f 	lw	v0,40(sp)
1d00e360:	24104300 	and	v0,v0,v1
1d00e364:	8dfb4314 	bne	v0,v1,0x1d00d19c
1d00e368:	8000033c 	lui	v1,0x80
1d00e36c:	2f34400b 	j	0x1d00d0bc
1d00e370:	b42f0226 	addiu	v0,s0,12212
1d00e374:	5001428c 	lw	v0,336(v0)
1d00e378:	0400422c 	sltiu	v0,v0,4
1d00e37c:	66fb4050 	beqzl	v0,0x1d00d118
1d00e380:	b42f0226 	addiu	v0,s0,12212
1d00e384:	6434400b 	j	0x1d00d190
1d00e388:	68356226 	addiu	v0,s3,13672
1d00e38c:	7402428c 	lw	v0,628(v0)
1d00e390:	67fb4054 	bnezl	v0,0x1d00d130
1d00e394:	b42f0226 	addiu	v0,s0,12212
1d00e398:	6434400b 	j	0x1d00d190
1d00e39c:	68356226 	addiu	v0,s3,13672
1d00e3a0:	4efda052 	beqzl	s5,0x1d00d8dc
1d00e3a4:	0800d62e 	sltiu	s6,s6,8
1d00e3a8:	5f36400b 	j	0x1d00d97c
1d00e3ac:	00000000 	nop
1d00e3b0:	5001428c 	lw	v0,336(v0)
1d00e3b4:	0400422c 	sltiu	v0,v0,4
1d00e3b8:	eafc4010 	beqz	v0,0x1d00d764
1d00e3bc:	b42f0226 	addiu	v0,s0,12212
1d00e3c0:	f835400b 	j	0x1d00d7e0
1d00e3c4:	1800a38f 	lw	v1,24(sp)
1d00e3c8:	7402428c 	lw	v0,628(v0)
1d00e3cc:	ebfc4014 	bnez	v0,0x1d00d77c
1d00e3d0:	b42f0226 	addiu	v0,s0,12212
1d00e3d4:	f835400b 	j	0x1d00d7e0
1d00e3d8:	1800a38f 	lw	v1,24(sp)
1d00e3dc:	6000be8f 	lw	s8,96(sp)
1d00e3e0:	5c00b78f 	lw	s7,92(sp)
1d00e3e4:	5800b68f 	lw	s6,88(sp)
1d00e3e8:	5400b58f 	lw	s5,84(sp)
1d00e3ec:	5000b48f 	lw	s4,80(sp)
1d00e3f0:	4c00b38f 	lw	s3,76(sp)
1d00e3f4:	4800b28f 	lw	s2,72(sp)
1d00e3f8:	4400b18f 	lw	s1,68(sp)
1d00e3fc:	4000b08f 	lw	s0,64(sp)
1d00e400:	0800e003 	jr	ra
1d00e404:	6800bd27 	addiu	sp,sp,104
1d00e408:	e0ffbd27 	addiu	sp,sp,-32
1d00e40c:	1c00bfaf 	sw	ra,28(sp)
1d00e410:	1800b2af 	sw	s2,24(sp)
1d00e414:	1400b1af 	sw	s1,20(sp)
1d00e418:	1000b0af 	sw	s0,16(sp)
1d00e41c:	21888000 	move	s1,a0
1d00e420:	00008290 	lbu	v0,0(a0)
1d00e424:	81004014 	bnez	v0,0x1d00e62c
1d00e428:	2180a000 	move	s0,a1
1d00e42c:	01008290 	lbu	v0,1(a0)
1d00e430:	19004050 	beqzl	v0,0x1d00e498
1d00e434:	02002292 	lbu	v0,2(s1)
1d00e438:	08009224 	addiu	s2,a0,8
1d00e43c:	095b400f 	jal	0x1d016c24
1d00e440:	21204002 	move	a0,s2
1d00e444:	2423400f 	jal	0x1d008c90
1d00e448:	21204002 	move	a0,s2
1d00e44c:	01a0023c 	lui	v0,0xa001
1d00e450:	0300448a 	lwl	a0,3(s2)
1d00e454:	0000449a 	lwr	a0,0(s2)
1d00e458:	0700438a 	lwl	v1,7(s2)
1d00e45c:	0400439a 	lwr	v1,4(s2)
1d00e460:	203244ac 	sw	a0,12832(v0)
1d00e464:	20324224 	addiu	v0,v0,12832
1d00e468:	040043ac 	sw	v1,4(v0)
1d00e46c:	01a0023c 	lui	v0,0xa001
1d00e470:	b42f4224 	addiu	v0,v0,12212
1d00e474:	64000324 	li	v1,100
1d00e478:	740243ac 	sw	v1,628(v0)
1d00e47c:	7802428c 	lw	v0,632(v0)
1d00e480:	ffff0324 	li	v1,-1
1d00e484:	03004310 	beq	v0,v1,0x1d00e494
1d00e488:	01004224 	addiu	v0,v0,1
1d00e48c:	01a0033c 	lui	v1,0xa001
1d00e490:	2c3262ac 	sw	v0,12844(v1)
1d00e494:	02002292 	lbu	v0,2(s1)
1d00e498:	16004050 	beqzl	v0,0x1d00e4f4
1d00e49c:	03002292 	lbu	v0,3(s1)
1d00e4a0:	10003226 	addiu	s2,s1,16
1d00e4a4:	f420400f 	jal	0x1d0083d0
1d00e4a8:	21204002 	move	a0,s2
1d00e4ac:	01a0023c 	lui	v0,0xa001
1d00e4b0:	0300448a 	lwl	a0,3(s2)
1d00e4b4:	0000449a 	lwr	a0,0(s2)
1d00e4b8:	0700438a 	lwl	v1,7(s2)
1d00e4bc:	0400439a 	lwr	v1,4(s2)
1d00e4c0:	303244ac 	sw	a0,12848(v0)
1d00e4c4:	30324224 	addiu	v0,v0,12848
1d00e4c8:	040043ac 	sw	v1,4(v0)
1d00e4cc:	01a0023c 	lui	v0,0xa001
1d00e4d0:	b42f4224 	addiu	v0,v0,12212
1d00e4d4:	840240ac 	sw	zero,644(v0)
1d00e4d8:	8802428c 	lw	v0,648(v0)
1d00e4dc:	ffff0324 	li	v1,-1
1d00e4e0:	03004310 	beq	v0,v1,0x1d00e4f0
1d00e4e4:	01004224 	addiu	v0,v0,1
1d00e4e8:	01a0033c 	lui	v1,0xa001
1d00e4ec:	3c3262ac 	sw	v0,12860(v1)
1d00e4f0:	03002292 	lbu	v0,3(s1)
1d00e4f4:	17004010 	beqz	v0,0x1d00e554
1d00e4f8:	21200002 	move	a0,s0
1d00e4fc:	18003126 	addiu	s1,s1,24
1d00e500:	d721400f 	jal	0x1d00875c
1d00e504:	21202002 	move	a0,s1
1d00e508:	01a0023c 	lui	v0,0xa001
1d00e50c:	0300248a 	lwl	a0,3(s1)
1d00e510:	0000249a 	lwr	a0,0(s1)
1d00e514:	0700238a 	lwl	v1,7(s1)
1d00e518:	0400239a 	lwr	v1,4(s1)
1d00e51c:	503244ac 	sw	a0,12880(v0)
1d00e520:	50324224 	addiu	v0,v0,12880
1d00e524:	040043ac 	sw	v1,4(v0)
1d00e528:	01a0023c 	lui	v0,0xa001
1d00e52c:	b42f4224 	addiu	v0,v0,12212
1d00e530:	c8000324 	li	v1,200
1d00e534:	a40243ac 	sw	v1,676(v0)
1d00e538:	a802428c 	lw	v0,680(v0)
1d00e53c:	ffff0324 	li	v1,-1
1d00e540:	03004310 	beq	v0,v1,0x1d00e550
1d00e544:	01004224 	addiu	v0,v0,1
1d00e548:	01a0033c 	lui	v1,0xa001
1d00e54c:	5c3262ac 	sw	v0,12892(v1)
1d00e550:	21200002 	move	a0,s0
1d00e554:	21280000 	move	a1,zero
1d00e558:	c96d400f 	jal	0x1d01b724
1d00e55c:	40000624 	li	a2,64
1d00e560:	ffff0224 	li	v0,-1
1d00e564:	000002a2 	sb	v0,0(s0)
1d00e568:	01000224 	li	v0,1
1d00e56c:	020002a6 	sh	v0,2(s0)
1d00e570:	02000224 	li	v0,2
1d00e574:	e349400f 	jal	0x1d01278c
1d00e578:	060002a6 	sh	v0,6(s0)
1d00e57c:	010002a2 	sb	v0,1(s0)
1d00e580:	8f23400f 	jal	0x1d008e3c
1d00e584:	08000426 	addiu	a0,s0,8
1d00e588:	0e22400f 	jal	0x1d008838
1d00e58c:	10000426 	addiu	a0,s0,16
1d00e590:	801f400f 	jal	0x1d007e00
1d00e594:	14000426 	addiu	a0,s0,20
1d00e598:	4420400f 	jal	0x1d008110
1d00e59c:	1c000426 	addiu	a0,s0,28
1d00e5a0:	01a0023c 	lui	v0,0xa001
1d00e5a4:	b42f4224 	addiu	v0,v0,12212
1d00e5a8:	f8014390 	lbu	v1,504(v0)
1d00e5ac:	80ff6324 	addiu	v1,v1,-128
1d00e5b0:	c0180300 	sll	v1,v1,0x3
1d00e5b4:	240003a6 	sh	v1,36(s0)
1d00e5b8:	01a0033c 	lui	v1,0xa001
1d00e5bc:	e2356384 	lh	v1,13794(v1)
1d00e5c0:	c0180300 	sll	v1,v1,0x3
1d00e5c4:	260003a6 	sh	v1,38(s0)
1d00e5c8:	f801428c 	lw	v0,504(v0)
1d00e5cc:	800d427c 	ext	v0,v0,0x16,0x2
1d00e5d0:	a45c400f 	jal	0x1d017290
1d00e5d4:	2c0002a2 	sb	v0,44(s0)
1d00e5d8:	a25c400f 	jal	0x1d017288
1d00e5dc:	2d0002a2 	sb	v0,45(s0)
1d00e5e0:	2e0002a2 	sb	v0,46(s0)
1d00e5e4:	2f000226 	addiu	v0,s0,47
1d00e5e8:	01a0033c 	lui	v1,0xa001
1d00e5ec:	942f678c 	lw	a3,12180(v1)
1d00e5f0:	942f6324 	addiu	v1,v1,12180
1d00e5f4:	0400668c 	lw	a2,4(v1)
1d00e5f8:	0800658c 	lw	a1,8(v1)
1d00e5fc:	0c00648c 	lw	a0,12(v1)
1d00e600:	030047a8 	swl	a3,3(v0)
1d00e604:	000047b8 	swr	a3,0(v0)
1d00e608:	070046a8 	swl	a2,7(v0)
1d00e60c:	040046b8 	swr	a2,4(v0)
1d00e610:	0b0045a8 	swl	a1,11(v0)
1d00e614:	080045b8 	swr	a1,8(v0)
1d00e618:	0f0044a8 	swl	a0,15(v0)
1d00e61c:	0c0044b8 	swr	a0,12(v0)
1d00e620:	10006390 	lbu	v1,16(v1)
1d00e624:	a239400b 	j	0x1d00e688
1d00e628:	100043a0 	sb	v1,16(v0)
1d00e62c:	01000324 	li	v1,1
1d00e630:	03004314 	bne	v0,v1,0x1d00e640
1d00e634:	00000000 	nop
1d00e638:	1e6f400f 	jal	0x1d01bc78
1d00e63c:	00000000 	nop
1d00e640:	9e54400f 	jal	0x1d015278
1d00e644:	00000000 	nop
1d00e648:	10004014 	bnez	v0,0x1d00e68c
1d00e64c:	1c00bf8f 	lw	ra,28(sp)
1d00e650:	21202002 	move	a0,s1
1d00e654:	1064400f 	jal	0x1d019040
1d00e658:	21280002 	move	a1,s0
1d00e65c:	0b004014 	bnez	v0,0x1d00e68c
1d00e660:	1c00bf8f 	lw	ra,28(sp)
1d00e664:	21202002 	move	a0,s1
1d00e668:	4162400f 	jal	0x1d018904
1d00e66c:	21280002 	move	a1,s0
1d00e670:	06004014 	bnez	v0,0x1d00e68c
1d00e674:	1c00bf8f 	lw	ra,28(sp)
1d00e678:	21200002 	move	a0,s0
1d00e67c:	21280000 	move	a1,zero
1d00e680:	c96d400f 	jal	0x1d01b724
1d00e684:	40000624 	li	a2,64
1d00e688:	1c00bf8f 	lw	ra,28(sp)
1d00e68c:	1800b28f 	lw	s2,24(sp)
1d00e690:	1400b18f 	lw	s1,20(sp)
1d00e694:	1000b08f 	lw	s0,16(sp)
1d00e698:	0800e003 	jr	ra
1d00e69c:	2000bd27 	addiu	sp,sp,32
1d00e6a0:	00a0023c 	lui	v0,0xa000
1d00e6a4:	80044224 	addiu	v0,v0,1152
1d00e6a8:	08004294 	lhu	v0,8(v0)
1d00e6ac:	ffff4230 	andi	v0,v0,0xffff
1d00e6b0:	4000422c 	sltiu	v0,v0,64
1d00e6b4:	4c004010 	beqz	v0,0x1d00e7e8
1d00e6b8:	00a0033c 	lui	v1,0xa000
1d00e6bc:	00a0023c 	lui	v0,0xa000
1d00e6c0:	80044224 	addiu	v0,v0,1152
1d00e6c4:	08004394 	lhu	v1,8(v0)
1d00e6c8:	ffff6330 	andi	v1,v1,0xffff
1d00e6cc:	ff006230 	andi	v0,v1,0xff
1d00e6d0:	e0808493 	lbu	a0,-32544(gp)
1d00e6d4:	ff008430 	andi	a0,a0,0xff
1d00e6d8:	04008014 	bnez	a0,0x1d00e6ec
1d00e6dc:	01000424 	li	a0,1
1d00e6e0:	e08084a3 	sb	a0,-32544(gp)
1d00e6e4:	c339400b 	j	0x1d00e70c
1d00e6e8:	00a0043c 	lui	a0,0xa000
1d00e6ec:	e0808593 	lbu	a1,-32544(gp)
1d00e6f0:	ff00a530 	andi	a1,a1,0xff
1d00e6f4:	01000424 	li	a0,1
1d00e6f8:	0400a414 	bne	a1,a0,0x1d00e70c
1d00e6fc:	00a0043c 	lui	a0,0xa000
1d00e700:	02000424 	li	a0,2
1d00e704:	e08084a3 	sb	a0,-32544(gp)
1d00e708:	00a0043c 	lui	a0,0xa000
1d00e70c:	80048424 	addiu	a0,a0,1152
1d00e710:	08008594 	lhu	a1,8(a0)
1d00e714:	ff006330 	andi	v1,v1,0xff
1d00e718:	2318a300 	subu	v1,a1,v1
1d00e71c:	ffff6330 	andi	v1,v1,0xffff
1d00e720:	080083a4 	sh	v1,8(a0)
1d00e724:	00a0033c 	lui	v1,0xa000
1d00e728:	1002638c 	lw	v1,528(v1)
1d00e72c:	ff004530 	andi	a1,v0,0xff
1d00e730:	02006690 	lbu	a2,2(v1)
1d00e734:	020065a0 	sb	a1,2(v1)
1d00e738:	03006590 	lbu	a1,3(v1)
1d00e73c:	0408057c 	ins	a1,zero,0x0,0x2
1d00e740:	030065a0 	sb	a1,3(v1)
1d00e744:	00a0033c 	lui	v1,0xa000
1d00e748:	90046324 	addiu	v1,v1,1168
1d00e74c:	048183af 	sw	v1,-32508(gp)
1d00e750:	0400838c 	lw	v1,4(a0)
1d00e754:	01006330 	andi	v1,v1,0x1
1d00e758:	05006010 	beqz	v1,0x1d00e770
1d00e75c:	00000000 	nop
1d00e760:	13004014 	bnez	v0,0x1d00e7b0
1d00e764:	00a0053c 	lui	a1,0xa000
1d00e768:	0800e003 	jr	ra
1d00e76c:	00000000 	nop
1d00e770:	fdff4010 	beqz	v0,0x1d00e768
1d00e774:	00a0053c 	lui	a1,0xa000
1d00e778:	0481838f 	lw	v1,-32508(gp)
1d00e77c:	01006424 	addiu	a0,v1,1
1d00e780:	048184af 	sw	a0,-32508(gp)
1d00e784:	8004a48c 	lw	a0,1152(a1)
1d00e788:	01008624 	addiu	a2,a0,1
1d00e78c:	8004a6ac 	sw	a2,1152(a1)
1d00e790:	00008490 	lbu	a0,0(a0)
1d00e794:	000064a0 	sb	a0,0(v1)
1d00e798:	ffff4224 	addiu	v0,v0,-1
1d00e79c:	ff004230 	andi	v0,v0,0xff
1d00e7a0:	f6ff4014 	bnez	v0,0x1d00e77c
1d00e7a4:	0481838f 	lw	v1,-32508(gp)
1d00e7a8:	0800e003 	jr	ra
1d00e7ac:	00000000 	nop
1d00e7b0:	0481838f 	lw	v1,-32508(gp)
1d00e7b4:	01006424 	addiu	a0,v1,1
1d00e7b8:	048184af 	sw	a0,-32508(gp)
1d00e7bc:	8004a48c 	lw	a0,1152(a1)
1d00e7c0:	01008624 	addiu	a2,a0,1
1d00e7c4:	8004a6ac 	sw	a2,1152(a1)
1d00e7c8:	00008490 	lbu	a0,0(a0)
1d00e7cc:	000064a0 	sb	a0,0(v1)
1d00e7d0:	ffff4224 	addiu	v0,v0,-1
1d00e7d4:	ff004230 	andi	v0,v0,0xff
1d00e7d8:	f6ff4014 	bnez	v0,0x1d00e7b4
1d00e7dc:	0481838f 	lw	v1,-32508(gp)
1d00e7e0:	0800e003 	jr	ra
1d00e7e4:	00000000 	nop
1d00e7e8:	80046324 	addiu	v1,v1,1152
1d00e7ec:	08006294 	lhu	v0,8(v1)
1d00e7f0:	c0ff4224 	addiu	v0,v0,-64
1d00e7f4:	ffff4230 	andi	v0,v0,0xffff
1d00e7f8:	080062a4 	sh	v0,8(v1)
1d00e7fc:	00a0023c 	lui	v0,0xa000
1d00e800:	1002428c 	lw	v0,528(v0)
1d00e804:	02004490 	lbu	a0,2(v0)
1d00e808:	40000424 	li	a0,64
1d00e80c:	020044a0 	sb	a0,2(v0)
1d00e810:	03004490 	lbu	a0,3(v0)
1d00e814:	0408047c 	ins	a0,zero,0x0,0x2
1d00e818:	030044a0 	sb	a0,3(v0)
1d00e81c:	00a0023c 	lui	v0,0xa000
1d00e820:	90044224 	addiu	v0,v0,1168
1d00e824:	048182af 	sw	v0,-32508(gp)
1d00e828:	0400628c 	lw	v0,4(v1)
1d00e82c:	01004230 	andi	v0,v0,0x1
1d00e830:	cfff4010 	beqz	v0,0x1d00e770
1d00e834:	40000224 	li	v0,64
1d00e838:	ec39400b 	j	0x1d00e7b0
1d00e83c:	00a0053c 	lui	a1,0xa000
1d00e840:	0002033c 	lui	v1,0x200
1d00e844:	88bf023c 	lui	v0,0xbf88
1d00e848:	741043ac 	sw	v1,4212(v0)
1d00e84c:	ff000224 	li	v0,255
1d00e850:	88bf033c 	lui	v1,0xbf88
1d00e854:	205262ac 	sw	v0,21024(v1)
1d00e858:	88bf033c 	lui	v1,0xbf88
1d00e85c:	005262ac 	sw	v0,20992(v1)
1d00e860:	88bf023c 	lui	v0,0xbf88
1d00e864:	005340ac 	sw	zero,21248(v0)
1d00e868:	88bf023c 	lui	v0,0xbf88
1d00e86c:	105340ac 	sw	zero,21264(v0)
1d00e870:	10534224 	addiu	v0,v0,21264
1d00e874:	100040ac 	sw	zero,16(v0)
1d00e878:	200040ac 	sw	zero,32(v0)
1d00e87c:	88bf023c 	lui	v0,0xbf88
1d00e880:	e05240ac 	sw	zero,21216(v0)
1d00e884:	9f000224 	li	v0,159
1d00e888:	88bf033c 	lui	v1,0xbf88
1d00e88c:	305262ac 	sw	v0,21040(v1)
1d00e890:	88bf033c 	lui	v1,0xbf88
1d00e894:	105262ac 	sw	v0,21008(v1)
1d00e898:	88bf023c 	lui	v0,0xbf88
1d00e89c:	7050438c 	lw	v1,20592(v0)
1d00e8a0:	0f006330 	andi	v1,v1,0xf
1d00e8a4:	705043ac 	sw	v1,20592(v0)
1d00e8a8:	7050438c 	lw	v1,20592(v0)
1d00e8ac:	705043ac 	sw	v1,20592(v0)
1d00e8b0:	88bf023c 	lui	v0,0xbf88
1d00e8b4:	80504390 	lbu	v1,20608(v0)
1d00e8b8:	01000424 	li	a0,1
1d00e8bc:	0400837c 	ins	v1,a0,0x0,0x1
1d00e8c0:	805043a0 	sb	v1,20608(v0)
1d00e8c4:	00a0023c 	lui	v0,0xa000
1d00e8c8:	00044224 	addiu	v0,v0,1024
1d00e8cc:	00e0427c 	ext	v0,v0,0x0,0x1d
1d00e8d0:	02260200 	srl	a0,v0,0x18
1d00e8d4:	88bf033c 	lui	v1,0xbf88
1d00e8d8:	d05264ac 	sw	a0,21200(v1)
1d00e8dc:	02240200 	srl	a0,v0,0x10
1d00e8e0:	88bf033c 	lui	v1,0xbf88
1d00e8e4:	c05264ac 	sw	a0,21184(v1)
1d00e8e8:	02120200 	srl	v0,v0,0x8
1d00e8ec:	88bf033c 	lui	v1,0xbf88
1d00e8f0:	705262ac 	sw	v0,21104(v1)
1d00e8f4:	21100000 	move	v0,zero
1d00e8f8:	00a0053c 	lui	a1,0xa000
1d00e8fc:	0004a524 	addiu	a1,a1,1024
1d00e900:	10000424 	li	a0,16
1d00e904:	c0180200 	sll	v1,v0,0x3
1d00e908:	21186500 	addu	v1,v1,a1
1d00e90c:	21300000 	move	a2,zero
1d00e910:	21380000 	move	a3,zero
1d00e914:	000066ac 	sw	a2,0(v1)
1d00e918:	040067ac 	sw	a3,4(v1)
1d00e91c:	01004224 	addiu	v0,v0,1
1d00e920:	f9ff4414 	bne	v0,a0,0x1d00e908
1d00e924:	c0180200 	sll	v1,v0,0x3
1d00e928:	88bf023c 	lui	v0,0xbf88
1d00e92c:	50524390 	lbu	v1,21072(v0)
1d00e930:	01000424 	li	a0,1
1d00e934:	4408837c 	ins	v1,a0,0x1,0x1
1d00e938:	505243a0 	sb	v1,21072(v0)
1d00e93c:	88bf033c 	lui	v1,0xbf88
1d00e940:	605260ac 	sw	zero,21088(v1)
1d00e944:	50524390 	lbu	v1,21072(v0)
1d00e948:	4429037c 	ins	v1,zero,0x5,0x1
1d00e94c:	505243a0 	sb	v1,21072(v0)
1d00e950:	50524390 	lbu	v1,21072(v0)
1d00e954:	4408037c 	ins	v1,zero,0x1,0x1
1d00e958:	505243a0 	sb	v1,21072(v0)
1d00e95c:	88bf023c 	lui	v0,0xbf88
1d00e960:	0052428c 	lw	v0,20992(v0)
1d00e964:	08004230 	andi	v0,v0,0x8
1d00e968:	11004010 	beqz	v0,0x1d00e9b0
1d00e96c:	88bf083c 	lui	t0,0xbf88
1d00e970:	08000724 	li	a3,8
1d00e974:	00a0063c 	lui	a2,0xa000
1d00e978:	00a0053c 	lui	a1,0xa000
1d00e97c:	88bf043c 	lui	a0,0xbf88
1d00e980:	005207ad 	sw	a3,20992(t0)
1d00e984:	8004c224 	addiu	v0,a2,1152
1d00e988:	040040a0 	sb	zero,4(v0)
1d00e98c:	d004a224 	addiu	v0,a1,1232
1d00e990:	040040a0 	sb	zero,4(v0)
1d00e994:	0400438c 	lw	v1,4(v0)
1d00e998:	04ba037c 	ins	v1,zero,0x8,0x10
1d00e99c:	040043ac 	sw	v1,4(v0)
1d00e9a0:	0052828c 	lw	v0,20992(a0)
1d00e9a4:	08004230 	andi	v0,v0,0x8
1d00e9a8:	f5ff4014 	bnez	v0,0x1d00e980
1d00e9ac:	00000000 	nop
1d00e9b0:	01000224 	li	v0,1
1d00e9b4:	d48082af 	sw	v0,-32556(gp)
1d00e9b8:	dc8082af 	sw	v0,-32548(gp)
1d00e9bc:	0c8180af 	sw	zero,-32500(gp)
1d00e9c0:	108180af 	sw	zero,-32496(gp)
1d00e9c4:	f08080af 	sw	zero,-32528(gp)
1d00e9c8:	00a0043c 	lui	a0,0xa000
1d00e9cc:	10028424 	addiu	a0,a0,528
1d00e9d0:	00a0033c 	lui	v1,0xa000
1d00e9d4:	00026324 	addiu	v1,v1,512
1d00e9d8:	21100000 	move	v0,zero
1d00e9dc:	24818827 	addiu	t0,gp,-32476
1d00e9e0:	f4808727 	addiu	a3,gp,-32524
1d00e9e4:	04000624 	li	a2,4
1d00e9e8:	000080ac 	sw	zero,0(a0)
1d00e9ec:	000060ac 	sw	zero,0(v1)
1d00e9f0:	21280201 	addu	a1,t0,v0
1d00e9f4:	0000a0a0 	sb	zero,0(a1)
1d00e9f8:	2128e200 	addu	a1,a3,v0
1d00e9fc:	0000a0a0 	sb	zero,0(a1)
1d00ea00:	01004224 	addiu	v0,v0,1
1d00ea04:	04008424 	addiu	a0,a0,4
1d00ea08:	f7ff4614 	bne	v0,a2,0x1d00e9e8
1d00ea0c:	04006324 	addiu	v1,v1,4
1d00ea10:	00a0033c 	lui	v1,0xa000
1d00ea14:	10046324 	addiu	v1,v1,1040
1d00ea18:	00a0023c 	lui	v0,0xa000
1d00ea1c:	100243ac 	sw	v1,528(v0)
1d00ea20:	0d000324 	li	v1,13
1d00ea24:	88bf023c 	lui	v0,0xbf88
1d00ea28:	005343ac 	sw	v1,21248(v0)
1d00ea2c:	00a0033c 	lui	v1,0xa000
1d00ea30:	00046224 	addiu	v0,v1,1024
1d00ea34:	e8808427 	addiu	a0,gp,-32536
1d00ea38:	00e0847c 	ext	a0,a0,0x0,0x1d
1d00ea3c:	040044ac 	sw	a0,4(v0)
1d00ea40:	02004494 	lhu	a0,2(v0)
1d00ea44:	40000524 	li	a1,64
1d00ea48:	0448a47c 	ins	a0,a1,0x0,0xa
1d00ea4c:	020044a4 	sh	a0,2(v0)
1d00ea50:	84000224 	li	v0,132
1d00ea54:	000462a4 	sh	v0,1024(v1)
1d00ea58:	d88080a3 	sb	zero,-32552(gp)
1d00ea5c:	148180af 	sw	zero,-32492(gp)
1d00ea60:	0800e003 	jr	ra
1d00ea64:	00000000 	nop
1d00ea68:	0800a230 	andi	v0,a1,0x8
1d00ea6c:	ff004230 	andi	v0,v0,0xff
1d00ea70:	15004010 	beqz	v0,0x1d00eac8
1d00ea74:	0400a230 	andi	v0,a1,0x4
1d00ea78:	40190400 	sll	v1,a0,0x5
1d00ea7c:	00a0023c 	lui	v0,0xa000
1d00ea80:	00044224 	addiu	v0,v0,1024
1d00ea84:	21104300 	addu	v0,v0,v1
1d00ea88:	00004390 	lbu	v1,0(v0)
1d00ea8c:	c439037c 	ins	v1,zero,0x7,0x1
1d00ea90:	000043a0 	sb	v1,0(v0)
1d00ea94:	80300400 	sll	a2,a0,0x2
1d00ea98:	00a0033c 	lui	v1,0xa000
1d00ea9c:	00026324 	addiu	v1,v1,512
1d00eaa0:	2118c300 	addu	v1,a2,v1
1d00eaa4:	000062ac 	sw	v0,0(v1)
1d00eaa8:	00004390 	lbu	v1,0(v0)
1d00eaac:	8431037c 	ins	v1,zero,0x6,0x1
1d00eab0:	000043a0 	sb	v1,0(v0)
1d00eab4:	08004390 	lbu	v1,8(v0)
1d00eab8:	01000624 	li	a2,1
1d00eabc:	8431c37c 	ins	v1,a2,0x6,0x1
1d00eac0:	080043a0 	sb	v1,8(v0)
1d00eac4:	0400a230 	andi	v0,a1,0x4
1d00eac8:	ff004230 	andi	v0,v0,0xff
1d00eacc:	16004050 	beqzl	v0,0x1d00eb28
1d00ead0:	00210400 	sll	a0,a0,0x4
1d00ead4:	40190400 	sll	v1,a0,0x5
1d00ead8:	10006324 	addiu	v1,v1,16
1d00eadc:	00a0023c 	lui	v0,0xa000
1d00eae0:	00044224 	addiu	v0,v0,1024
1d00eae4:	21104300 	addu	v0,v0,v1
1d00eae8:	00004390 	lbu	v1,0(v0)
1d00eaec:	c439037c 	ins	v1,zero,0x7,0x1
1d00eaf0:	000043a0 	sb	v1,0(v0)
1d00eaf4:	80300400 	sll	a2,a0,0x2
1d00eaf8:	00a0033c 	lui	v1,0xa000
1d00eafc:	10026324 	addiu	v1,v1,528
1d00eb00:	2118c300 	addu	v1,a2,v1
1d00eb04:	000062ac 	sw	v0,0(v1)
1d00eb08:	00004390 	lbu	v1,0(v0)
1d00eb0c:	8431037c 	ins	v1,zero,0x6,0x1
1d00eb10:	000043a0 	sb	v1,0(v0)
1d00eb14:	08004390 	lbu	v1,8(v0)
1d00eb18:	01000624 	li	a2,1
1d00eb1c:	8431c37c 	ins	v1,a2,0x6,0x1
1d00eb20:	080043a0 	sb	v1,8(v0)
1d00eb24:	00210400 	sll	a0,a0,0x4
1d00eb28:	88bf023c 	lui	v0,0xbf88
1d00eb2c:	00534224 	addiu	v0,v0,21248
1d00eb30:	21204400 	addu	a0,v0,a0
1d00eb34:	0800e003 	jr	ra
1d00eb38:	000085a0 	sb	a1,0(a0)
1d00eb3c:	0600a010 	beqz	a1,0x1d00eb58
1d00eb40:	80180400 	sll	v1,a0,0x2
1d00eb44:	00a0023c 	lui	v0,0xa000
1d00eb48:	10024224 	addiu	v0,v0,528
1d00eb4c:	21106200 	addu	v0,v1,v0
1d00eb50:	da3a400b 	j	0x1d00eb68
1d00eb54:	0000428c 	lw	v0,0(v0)
1d00eb58:	00a0023c 	lui	v0,0xa000
1d00eb5c:	00024224 	addiu	v0,v0,512
1d00eb60:	21106200 	addu	v0,v1,v0
1d00eb64:	0000428c 	lw	v0,0(v0)
1d00eb68:	2f004010 	beqz	v0,0x1d00ec28
1d00eb6c:	00e0c67c 	ext	a2,a2,0x0,0x1d
1d00eb70:	070046a8 	swl	a2,7(v0)
1d00eb74:	040046b8 	swr	a2,4(v0)
1d00eb78:	ff00e730 	andi	a3,a3,0xff
1d00eb7c:	02004390 	lbu	v1,2(v0)
1d00eb80:	020047a0 	sb	a3,2(v0)
1d00eb84:	03004390 	lbu	v1,3(v0)
1d00eb88:	0408037c 	ins	v1,zero,0x0,0x2
1d00eb8c:	030043a0 	sb	v1,3(v0)
1d00eb90:	00004390 	lbu	v1,0(v0)
1d00eb94:	01004690 	lbu	a2,1(v0)
1d00eb98:	40006330 	andi	v1,v1,0x40
1d00eb9c:	ffff6330 	andi	v1,v1,0xffff
1d00eba0:	ff006330 	andi	v1,v1,0xff
1d00eba4:	00004690 	lbu	a2,0(v0)
1d00eba8:	000043a0 	sb	v1,0(v0)
1d00ebac:	01004390 	lbu	v1,1(v0)
1d00ebb0:	010040a0 	sb	zero,1(v0)
1d00ebb4:	00004690 	lbu	a2,0(v0)
1d00ebb8:	ff00c630 	andi	a2,a2,0xff
1d00ebbc:	01004390 	lbu	v1,1(v0)
1d00ebc0:	ff006330 	andi	v1,v1,0xff
1d00ebc4:	001a0300 	sll	v1,v1,0x8
1d00ebc8:	25186600 	or	v1,v1,a2
1d00ebcc:	88006334 	ori	v1,v1,0x88
1d00ebd0:	ff006630 	andi	a2,v1,0xff
1d00ebd4:	00004790 	lbu	a3,0(v0)
1d00ebd8:	000046a0 	sb	a2,0(v0)
1d00ebdc:	021a0300 	srl	v1,v1,0x8
1d00ebe0:	01004690 	lbu	a2,1(v0)
1d00ebe4:	010043a0 	sb	v1,1(v0)
1d00ebe8:	0800a010 	beqz	a1,0x1d00ec0c
1d00ebec:	80200400 	sll	a0,a0,0x2
1d00ebf0:	00a0033c 	lui	v1,0xa000
1d00ebf4:	10026324 	addiu	v1,v1,528
1d00ebf8:	21206400 	addu	a0,v1,a0
1d00ebfc:	00008390 	lbu	v1,0(a0)
1d00ec00:	08006338 	xori	v1,v1,0x8
1d00ec04:	0800e003 	jr	ra
1d00ec08:	000083a0 	sb	v1,0(a0)
1d00ec0c:	00a0033c 	lui	v1,0xa000
1d00ec10:	00026324 	addiu	v1,v1,512
1d00ec14:	21206400 	addu	a0,v1,a0
1d00ec18:	00008390 	lbu	v1,0(a0)
1d00ec1c:	08006338 	xori	v1,v1,0x8
1d00ec20:	0800e003 	jr	ra
1d00ec24:	000083a0 	sb	v1,0(a0)
1d00ec28:	0800e003 	jr	ra
1d00ec2c:	21100000 	move	v0,zero
1d00ec30:	1b008054 	bnezl	a0,0x1d00eca0
1d00ec34:	40200400 	sll	a0,a0,0x1
1d00ec38:	f880828f 	lw	v0,-32520(gp)
1d00ec3c:	02004390 	lbu	v1,2(v0)
1d00ec40:	40000324 	li	v1,64
1d00ec44:	020043a0 	sb	v1,2(v0)
1d00ec48:	03004390 	lbu	v1,3(v0)
1d00ec4c:	0408037c 	ins	v1,zero,0x0,0x2
1d00ec50:	030043a0 	sb	v1,3(v0)
1d00ec54:	f880828f 	lw	v0,-32520(gp)
1d00ec58:	e8808327 	addiu	v1,gp,-32536
1d00ec5c:	00e0637c 	ext	v1,v1,0x0,0x1d
1d00ec60:	070043a8 	swl	v1,7(v0)
1d00ec64:	040043b8 	swr	v1,4(v0)
1d00ec68:	00004390 	lbu	v1,0(v0)
1d00ec6c:	8cff0324 	li	v1,-116
1d00ec70:	000043a0 	sb	v1,0(v0)
1d00ec74:	01004390 	lbu	v1,1(v0)
1d00ec78:	010040a0 	sb	zero,1(v0)
1d00ec7c:	00a0023c 	lui	v0,0xa000
1d00ec80:	1002428c 	lw	v0,528(v0)
1d00ec84:	00004390 	lbu	v1,0(v0)
1d00ec88:	84ff0324 	li	v1,-124
1d00ec8c:	000043a0 	sb	v1,0(v0)
1d00ec90:	01004390 	lbu	v1,1(v0)
1d00ec94:	010040a0 	sb	zero,1(v0)
1d00ec98:	0800e003 	jr	ra
1d00ec9c:	00000000 	nop
1d00eca0:	21288500 	addu	a1,a0,a1
1d00eca4:	00110500 	sll	v0,a1,0x4
1d00eca8:	00a0033c 	lui	v1,0xa000
1d00ecac:	00046324 	addiu	v1,v1,1024
1d00ecb0:	21106200 	addu	v0,v1,v0
1d00ecb4:	00004494 	lhu	a0,0(v0)
1d00ecb8:	84008434 	ori	a0,a0,0x84
1d00ecbc:	000044a4 	sh	a0,0(v0)
1d00ecc0:	00110500 	sll	v0,a1,0x4
1d00ecc4:	08004224 	addiu	v0,v0,8
1d00ecc8:	21106200 	addu	v0,v1,v0
1d00eccc:	00004394 	lhu	v1,0(v0)
1d00ecd0:	84006334 	ori	v1,v1,0x84
1d00ecd4:	0800e003 	jr	ra
1d00ecd8:	000043a4 	sh	v1,0(v0)
1d00ecdc:	88bf023c 	lui	v0,0xbf88
1d00ece0:	5052428c 	lw	v0,21072(v0)
1d00ece4:	20004230 	andi	v0,v0,0x20
1d00ece8:	34004010 	beqz	v0,0x1d00edbc
1d00ecec:	80200400 	sll	a0,a0,0x2
1d00ecf0:	00a0023c 	lui	v0,0xa000
1d00ecf4:	10024224 	addiu	v0,v0,528
1d00ecf8:	21208200 	addu	a0,a0,v0
1d00ecfc:	0000828c 	lw	v0,0(a0)
1d00ed00:	03004588 	lwl	a1,3(v0)
1d00ed04:	00004598 	lwr	a1,0(v0)
1d00ed08:	07004388 	lwl	v1,7(v0)
1d00ed0c:	04004398 	lwr	v1,4(v0)
1d00ed10:	4000a530 	andi	a1,a1,0x40
1d00ed14:	21180000 	move	v1,zero
1d00ed18:	030045a8 	swl	a1,3(v0)
1d00ed1c:	000045b8 	swr	a1,0(v0)
1d00ed20:	070043a8 	swl	v1,7(v0)
1d00ed24:	040043b8 	swr	v1,4(v0)
1d00ed28:	0000828c 	lw	v0,0(a0)
1d00ed2c:	03004588 	lwl	a1,3(v0)
1d00ed30:	00004598 	lwr	a1,0(v0)
1d00ed34:	07004388 	lwl	v1,7(v0)
1d00ed38:	04004398 	lwr	v1,4(v0)
1d00ed3c:	4000a538 	xori	a1,a1,0x40
1d00ed40:	030045a8 	swl	a1,3(v0)
1d00ed44:	000045b8 	swr	a1,0(v0)
1d00ed48:	070043a8 	swl	v1,7(v0)
1d00ed4c:	040043b8 	swr	v1,4(v0)
1d00ed50:	00008290 	lbu	v0,0(a0)
1d00ed54:	08004238 	xori	v0,v0,0x8
1d00ed58:	000082a0 	sb	v0,0(a0)
1d00ed5c:	0000828c 	lw	v0,0(a0)
1d00ed60:	00004390 	lbu	v1,0(v0)
1d00ed64:	01004590 	lbu	a1,1(v0)
1d00ed68:	40006330 	andi	v1,v1,0x40
1d00ed6c:	ffff6330 	andi	v1,v1,0xffff
1d00ed70:	ff006330 	andi	v1,v1,0xff
1d00ed74:	00004590 	lbu	a1,0(v0)
1d00ed78:	000043a0 	sb	v1,0(v0)
1d00ed7c:	01004390 	lbu	v1,1(v0)
1d00ed80:	010040a0 	sb	zero,1(v0)
1d00ed84:	0000828c 	lw	v0,0(a0)
1d00ed88:	00004490 	lbu	a0,0(v0)
1d00ed8c:	ff008430 	andi	a0,a0,0xff
1d00ed90:	01004390 	lbu	v1,1(v0)
1d00ed94:	ff006330 	andi	v1,v1,0xff
1d00ed98:	001a0300 	sll	v1,v1,0x8
1d00ed9c:	25186400 	or	v1,v1,a0
1d00eda0:	40006338 	xori	v1,v1,0x40
1d00eda4:	ff006430 	andi	a0,v1,0xff
1d00eda8:	00004590 	lbu	a1,0(v0)
1d00edac:	000044a0 	sb	a0,0(v0)
1d00edb0:	021a0300 	srl	v1,v1,0x8
1d00edb4:	01004490 	lbu	a0,1(v0)
1d00edb8:	010043a0 	sb	v1,1(v0)
1d00edbc:	0800e003 	jr	ra
1d00edc0:	00000000 	nop
1d00edc4:	88bf023c 	lui	v0,0xbf88
1d00edc8:	505240ac 	sw	zero,21072(v0)
1d00edcc:	88bf023c 	lui	v0,0xbf88
1d00edd0:	105240ac 	sw	zero,21008(v0)
1d00edd4:	148180af 	sw	zero,-32492(gp)
1d00edd8:	0800e003 	jr	ra
1d00eddc:	00000000 	nop
1d00ede0:	e8ffbd27 	addiu	sp,sp,-24
1d00ede4:	1400bfaf 	sw	ra,20(sp)
1d00ede8:	1481828f 	lw	v0,-32492(gp)
1d00edec:	2e004014 	bnez	v0,0x1d00eea8
1d00edf0:	1400bf8f 	lw	ra,20(sp)
1d00edf4:	88bf023c 	lui	v0,0xbf88
1d00edf8:	505240ac 	sw	zero,21072(v0)
1d00edfc:	88bf023c 	lui	v0,0xbf88
1d00ee00:	105240ac 	sw	zero,21008(v0)
1d00ee04:	88bf033c 	lui	v1,0xbf88
1d00ee08:	e05260ac 	sw	zero,21216(v1)
1d00ee0c:	9f000324 	li	v1,159
1d00ee10:	88bf043c 	lui	a0,0xbf88
1d00ee14:	305283ac 	sw	v1,21040(a0)
1d00ee18:	105243ac 	sw	v1,21008(v0)
1d00ee1c:	88bf023c 	lui	v0,0xbf88
1d00ee20:	7050438c 	lw	v1,20592(v0)
1d00ee24:	0f006330 	andi	v1,v1,0xf
1d00ee28:	705043ac 	sw	v1,20592(v0)
1d00ee2c:	7050438c 	lw	v1,20592(v0)
1d00ee30:	705043ac 	sw	v1,20592(v0)
1d00ee34:	0002033c 	lui	v1,0x200
1d00ee38:	88bf023c 	lui	v0,0xbf88
1d00ee3c:	781043ac 	sw	v1,4216(v0)
1d00ee40:	00ff0334 	li	v1,0xff00
1d00ee44:	88bf023c 	lui	v0,0xbf88
1d00ee48:	441143ac 	sw	v1,4420(v0)
1d00ee4c:	00100324 	li	v1,4096
1d00ee50:	88bf023c 	lui	v0,0xbf88
1d00ee54:	481143ac 	sw	v1,4424(v0)
1d00ee58:	8870400f 	jal	0x1d01c220
1d00ee5c:	00000000 	nop
1d00ee60:	4d71400f 	jal	0x1d01c534
1d00ee64:	00000000 	nop
1d00ee68:	88bf023c 	lui	v0,0xbf88
1d00ee6c:	5052428c 	lw	v0,21072(v0)
1d00ee70:	01004230 	andi	v0,v0,0x1
1d00ee74:	09004014 	bnez	v0,0x1d00ee9c
1d00ee78:	88bf023c 	lui	v0,0xbf88
1d00ee7c:	01000424 	li	a0,1
1d00ee80:	50524390 	lbu	v1,21072(v0)
1d00ee84:	0400837c 	ins	v1,a0,0x0,0x1
1d00ee88:	505243a0 	sb	v1,21072(v0)
1d00ee8c:	5052438c 	lw	v1,21072(v0)
1d00ee90:	01006330 	andi	v1,v1,0x1
1d00ee94:	faff6010 	beqz	v1,0x1d00ee80
1d00ee98:	00000000 	nop
1d00ee9c:	01000224 	li	v0,1
1d00eea0:	148182af 	sw	v0,-32492(gp)
1d00eea4:	1400bf8f 	lw	ra,20(sp)
1d00eea8:	0800e003 	jr	ra
1d00eeac:	1800bd27 	addiu	sp,sp,24
1d00eeb0:	d480828f 	lw	v0,-32556(gp)
1d00eeb4:	17004014 	bnez	v0,0x1d00ef14
1d00eeb8:	01000224 	li	v0,1
1d00eebc:	d48082af 	sw	v0,-32556(gp)
1d00eec0:	dc80828f 	lw	v0,-32548(gp)
1d00eec4:	13004014 	bnez	v0,0x1d00ef14
1d00eec8:	01000224 	li	v0,1
1d00eecc:	dc8082af 	sw	v0,-32548(gp)
1d00eed0:	fc808393 	lbu	v1,-32516(gp)
1d00eed4:	ff006330 	andi	v1,v1,0xff
1d00eed8:	02000224 	li	v0,2
1d00eedc:	0f006214 	bne	v1,v0,0x1d00ef1c
1d00eee0:	00a0033c 	lui	v1,0xa000
1d00eee4:	1002628c 	lw	v0,528(v1)
1d00eee8:	02004490 	lbu	a0,2(v0)
1d00eeec:	020040a0 	sb	zero,2(v0)
1d00eef0:	03004490 	lbu	a0,3(v0)
1d00eef4:	0408047c 	ins	a0,zero,0x0,0x2
1d00eef8:	030044a0 	sb	a0,3(v0)
1d00eefc:	1002628c 	lw	v0,528(v1)
1d00ef00:	00004390 	lbu	v1,0(v0)
1d00ef04:	c8ff0324 	li	v1,-56
1d00ef08:	000043a0 	sb	v1,0(v0)
1d00ef0c:	01004390 	lbu	v1,1(v0)
1d00ef10:	010040a0 	sb	zero,1(v0)
1d00ef14:	0800e003 	jr	ra
1d00ef18:	00000000 	nop
1d00ef1c:	fc808393 	lbu	v1,-32516(gp)
1d00ef20:	ff006330 	andi	v1,v1,0xff
1d00ef24:	01000224 	li	v0,1
1d00ef28:	23006214 	bne	v1,v0,0x1d00efb8
1d00ef2c:	00000000 	nop
1d00ef30:	cc8080af 	sw	zero,-32564(gp)
1d00ef34:	0081828f 	lw	v0,-32512(gp)
1d00ef38:	02004390 	lbu	v1,2(v0)
1d00ef3c:	40000424 	li	a0,64
1d00ef40:	020044a0 	sb	a0,2(v0)
1d00ef44:	03004390 	lbu	v1,3(v0)
1d00ef48:	0408037c 	ins	v1,zero,0x0,0x2
1d00ef4c:	030043a0 	sb	v1,3(v0)
1d00ef50:	0081828f 	lw	v0,-32512(gp)
1d00ef54:	e8808327 	addiu	v1,gp,-32536
1d00ef58:	00e0637c 	ext	v1,v1,0x0,0x1d
1d00ef5c:	070043a8 	swl	v1,7(v0)
1d00ef60:	040043b8 	swr	v1,4(v0)
1d00ef64:	00004590 	lbu	a1,0(v0)
1d00ef68:	84ff0524 	li	a1,-124
1d00ef6c:	000045a0 	sb	a1,0(v0)
1d00ef70:	01004590 	lbu	a1,1(v0)
1d00ef74:	010040a0 	sb	zero,1(v0)
1d00ef78:	01000224 	li	v0,1
1d00ef7c:	cc8082af 	sw	v0,-32564(gp)
1d00ef80:	f880828f 	lw	v0,-32520(gp)
1d00ef84:	02004590 	lbu	a1,2(v0)
1d00ef88:	020044a0 	sb	a0,2(v0)
1d00ef8c:	03004490 	lbu	a0,3(v0)
1d00ef90:	0408047c 	ins	a0,zero,0x0,0x2
1d00ef94:	030044a0 	sb	a0,3(v0)
1d00ef98:	f880828f 	lw	v0,-32520(gp)
1d00ef9c:	070043a8 	swl	v1,7(v0)
1d00efa0:	040043b8 	swr	v1,4(v0)
1d00efa4:	00004390 	lbu	v1,0(v0)
1d00efa8:	80ff0324 	li	v1,-128
1d00efac:	000043a0 	sb	v1,0(v0)
1d00efb0:	01004390 	lbu	v1,1(v0)
1d00efb4:	010040a0 	sb	zero,1(v0)
1d00efb8:	0800e003 	jr	ra
1d00efbc:	00000000 	nop
1d00efc0:	e8ffbd27 	addiu	sp,sp,-24
1d00efc4:	1400bfaf 	sw	ra,20(sp)
1d00efc8:	0c8180af 	sw	zero,-32500(gp)
1d00efcc:	108180af 	sw	zero,-32496(gp)
1d00efd0:	fc808393 	lbu	v1,-32516(gp)
1d00efd4:	ff006330 	andi	v1,v1,0xff
1d00efd8:	02000224 	li	v0,2
1d00efdc:	14006214 	bne	v1,v0,0x1d00f030
1d00efe0:	f880828f 	lw	v0,-32520(gp)
1d00efe4:	02004390 	lbu	v1,2(v0)
1d00efe8:	40000324 	li	v1,64
1d00efec:	020043a0 	sb	v1,2(v0)
1d00eff0:	03004390 	lbu	v1,3(v0)
1d00eff4:	0408037c 	ins	v1,zero,0x0,0x2
1d00eff8:	030043a0 	sb	v1,3(v0)
1d00effc:	f880828f 	lw	v0,-32520(gp)
1d00f000:	00a0033c 	lui	v1,0xa000
1d00f004:	90046324 	addiu	v1,v1,1168
1d00f008:	00e0637c 	ext	v1,v1,0x0,0x1d
1d00f00c:	070043a8 	swl	v1,7(v0)
1d00f010:	040043b8 	swr	v1,4(v0)
1d00f014:	00004390 	lbu	v1,0(v0)
1d00f018:	c8ff0324 	li	v1,-56
1d00f01c:	000043a0 	sb	v1,0(v0)
1d00f020:	01004390 	lbu	v1,1(v0)
1d00f024:	010040a0 	sb	zero,1(v0)
1d00f028:	293c400b 	j	0x1d00f0a4
1d00f02c:	1400bf8f 	lw	ra,20(sp)
1d00f030:	ee808397 	lhu	v1,-32530(gp)
1d00f034:	ffff6330 	andi	v1,v1,0xffff
1d00f038:	00a0023c 	lui	v0,0xa000
1d00f03c:	80044224 	addiu	v0,v0,1152
1d00f040:	08004294 	lhu	v0,8(v0)
1d00f044:	ffff4230 	andi	v0,v0,0xffff
1d00f048:	2b106200 	sltu	v0,v1,v0
1d00f04c:	06004010 	beqz	v0,0x1d00f068
1d00f050:	00000000 	nop
1d00f054:	ee808397 	lhu	v1,-32530(gp)
1d00f058:	ffff6330 	andi	v1,v1,0xffff
1d00f05c:	00a0023c 	lui	v0,0xa000
1d00f060:	80044224 	addiu	v0,v0,1152
1d00f064:	080043a4 	sh	v1,8(v0)
1d00f068:	a839400f 	jal	0x1d00e6a0
1d00f06c:	00000000 	nop
1d00f070:	00a0023c 	lui	v0,0xa000
1d00f074:	1002428c 	lw	v0,528(v0)
1d00f078:	00a0033c 	lui	v1,0xa000
1d00f07c:	90046324 	addiu	v1,v1,1168
1d00f080:	00e0637c 	ext	v1,v1,0x0,0x1d
1d00f084:	070043a8 	swl	v1,7(v0)
1d00f088:	040043b8 	swr	v1,4(v0)
1d00f08c:	00004390 	lbu	v1,0(v0)
1d00f090:	c8ff0324 	li	v1,-56
1d00f094:	000043a0 	sb	v1,0(v0)
1d00f098:	01004390 	lbu	v1,1(v0)
1d00f09c:	010040a0 	sb	zero,1(v0)
1d00f0a0:	1400bf8f 	lw	ra,20(sp)
1d00f0a4:	0800e003 	jr	ra
1d00f0a8:	1800bd27 	addiu	sp,sp,24
1d00f0ac:	00e85d41 	rdpgpr	sp,sp
1d00f0b0:	00701b40 	mfc0	k1,c0_epc
1d00f0b4:	02601a40 	mfc0	k0,c0_srsctl
1d00f0b8:	68ffbd27 	addiu	sp,sp,-152
1d00f0bc:	9400bbaf 	sw	k1,148(sp)
1d00f0c0:	00601b40 	mfc0	k1,c0_status
1d00f0c4:	9000baaf 	sw	k0,144(sp)
1d00f0c8:	00681a40 	mfc0	k0,c0_cause
1d00f0cc:	8c00bbaf 	sw	k1,140(sp)
1d00f0d0:	82d21a00 	srl	k0,k0,0xa
1d00f0d4:	847a5b7f 	ins	k1,k0,0xa,0x6
1d00f0d8:	44201b7c 	ins	k1,zero,0x1,0x4
1d00f0dc:	00609b40 	mtc0	k1,c0_status
1d00f0e0:	2000a3af 	sw	v1,32(sp)
1d00f0e4:	1c00a2af 	sw	v0,28(sp)
1d00f0e8:	9000a38f 	lw	v1,144(sp)
1d00f0ec:	0f006330 	andi	v1,v1,0xf
1d00f0f0:	19006014 	bnez	v1,0x1d00f158
1d00f0f4:	00000000 	nop
1d00f0f8:	7c00bfaf 	sw	ra,124(sp)
1d00f0fc:	7800b9af 	sw	t9,120(sp)
1d00f100:	7400b8af 	sw	t8,116(sp)
1d00f104:	7000b7af 	sw	s7,112(sp)
1d00f108:	6c00b6af 	sw	s6,108(sp)
1d00f10c:	6800b5af 	sw	s5,104(sp)
1d00f110:	6400b4af 	sw	s4,100(sp)
1d00f114:	6000b3af 	sw	s3,96(sp)
1d00f118:	5c00b2af 	sw	s2,92(sp)
1d00f11c:	5800b1af 	sw	s1,88(sp)
1d00f120:	5400b0af 	sw	s0,84(sp)
1d00f124:	5000afaf 	sw	t7,80(sp)
1d00f128:	4c00aeaf 	sw	t6,76(sp)
1d00f12c:	4800adaf 	sw	t5,72(sp)
1d00f130:	4400acaf 	sw	t4,68(sp)
1d00f134:	4000abaf 	sw	t3,64(sp)
1d00f138:	3c00aaaf 	sw	t2,60(sp)
1d00f13c:	3800a9af 	sw	t1,56(sp)
1d00f140:	3400a8af 	sw	t0,52(sp)
1d00f144:	3000a7af 	sw	a3,48(sp)
1d00f148:	2c00a6af 	sw	a2,44(sp)
1d00f14c:	2800a5af 	sw	a1,40(sp)
1d00f150:	2400a4af 	sw	a0,36(sp)
1d00f154:	1800a1af 	sw	at,24(sp)
1d00f158:	12100000 	mflo	v0
1d00f15c:	8400a2af 	sw	v0,132(sp)
1d00f160:	10180000 	mfhi	v1
1d00f164:	8000a3af 	sw	v1,128(sp)
1d00f168:	1481838f 	lw	v1,-32492(gp)
1d00f16c:	01000224 	li	v0,1
1d00f170:	0f006214 	bne	v1,v0,0x1d00f1b0
1d00f174:	88bf023c 	lui	v0,0xbf88
1d00f178:	ff000324 	li	v1,255
1d00f17c:	88bf023c 	lui	v0,0xbf88
1d00f180:	005243ac 	sw	v1,20992(v0)
1d00f184:	88bf023c 	lui	v0,0xbf88
1d00f188:	10524390 	lbu	v1,21008(v0)
1d00f18c:	01000424 	li	a0,1
1d00f190:	0400837c 	ins	v1,a0,0x0,0x1
1d00f194:	105243a0 	sb	v1,21008(v0)
1d00f198:	10524390 	lbu	v1,21008(v0)
1d00f19c:	0421837c 	ins	v1,a0,0x4,0x1
1d00f1a0:	105243a0 	sb	v1,21008(v0)
1d00f1a4:	02000224 	li	v0,2
1d00f1a8:	148182af 	sw	v0,-32492(gp)
1d00f1ac:	88bf023c 	lui	v0,0xbf88
1d00f1b0:	4050428c 	lw	v0,20544(v0)
1d00f1b4:	10004230 	andi	v0,v0,0x10
1d00f1b8:	14004010 	beqz	v0,0x1d00f20c
1d00f1bc:	88bf023c 	lui	v0,0xbf88
1d00f1c0:	88bf023c 	lui	v0,0xbf88
1d00f1c4:	5050428c 	lw	v0,20560(v0)
1d00f1c8:	10004230 	andi	v0,v0,0x10
1d00f1cc:	0f004010 	beqz	v0,0x1d00f20c
1d00f1d0:	88bf023c 	lui	v0,0xbf88
1d00f1d4:	88bf103c 	lui	s0,0xbf88
1d00f1d8:	10001124 	li	s1,16
1d00f1dc:	405011ae 	sw	s1,20544(s0)
1d00f1e0:	f08080af 	sw	zero,-32528(gp)
1d00f1e4:	74000424 	li	a0,116
1d00f1e8:	21280000 	move	a1,zero
1d00f1ec:	5666400f 	jal	0x1d019958
1d00f1f0:	21300000 	move	a2,zero
1d00f1f4:	88bf023c 	lui	v0,0xbf88
1d00f1f8:	50504390 	lbu	v1,20560(v0)
1d00f1fc:	0421037c 	ins	v1,zero,0x4,0x1
1d00f200:	505043a0 	sb	v1,20560(v0)
1d00f204:	405011ae 	sw	s1,20544(s0)
1d00f208:	88bf023c 	lui	v0,0xbf88
1d00f20c:	8050428c 	lw	v0,20608(v0)
1d00f210:	02004230 	andi	v0,v0,0x2
1d00f214:	05004010 	beqz	v0,0x1d00f22c
1d00f218:	88bf023c 	lui	v0,0xbf88
1d00f21c:	c470400f 	jal	0x1d01c310
1d00f220:	69000424 	li	a0,105
1d00f224:	3c41400b 	j	0x1d0104f0
1d00f228:	00000000 	nop
1d00f22c:	0052428c 	lw	v0,20992(v0)
1d00f230:	01004230 	andi	v0,v0,0x1
1d00f234:	11004010 	beqz	v0,0x1d00f27c
1d00f238:	88bf023c 	lui	v0,0xbf88
1d00f23c:	88bf023c 	lui	v0,0xbf88
1d00f240:	1052428c 	lw	v0,21008(v0)
1d00f244:	01004230 	andi	v0,v0,0x1
1d00f248:	0c004010 	beqz	v0,0x1d00f27c
1d00f24c:	88bf023c 	lui	v0,0xbf88
1d00f250:	103a400f 	jal	0x1d00e840
1d00f254:	00000000 	nop
1d00f258:	0002033c 	lui	v1,0x200
1d00f25c:	88bf023c 	lui	v0,0xbf88
1d00f260:	781043ac 	sw	v1,4216(v0)
1d00f264:	04000224 	li	v0,4
1d00f268:	148182af 	sw	v0,-32492(gp)
1d00f26c:	01000324 	li	v1,1
1d00f270:	88bf023c 	lui	v0,0xbf88
1d00f274:	005243ac 	sw	v1,20992(v0)
1d00f278:	88bf023c 	lui	v0,0xbf88
1d00f27c:	0052428c 	lw	v0,20992(v0)
1d00f280:	10004230 	andi	v0,v0,0x10
1d00f284:	15004010 	beqz	v0,0x1d00f2dc
1d00f288:	88bf023c 	lui	v0,0xbf88
1d00f28c:	88bf023c 	lui	v0,0xbf88
1d00f290:	1052428c 	lw	v0,21008(v0)
1d00f294:	10004230 	andi	v0,v0,0x10
1d00f298:	10004010 	beqz	v0,0x1d00f2dc
1d00f29c:	88bf023c 	lui	v0,0xbf88
1d00f2a0:	88bf033c 	lui	v1,0xbf88
1d00f2a4:	50506490 	lbu	a0,20560(v1)
1d00f2a8:	01000224 	li	v0,1
1d00f2ac:	0421447c 	ins	a0,v0,0x4,0x1
1d00f2b0:	505064a0 	sb	a0,20560(v1)
1d00f2b4:	88bf103c 	lui	s0,0xbf88
1d00f2b8:	10001124 	li	s1,16
1d00f2bc:	005211ae 	sw	s1,20992(s0)
1d00f2c0:	f08082af 	sw	v0,-32528(gp)
1d00f2c4:	75000424 	li	a0,117
1d00f2c8:	21280000 	move	a1,zero
1d00f2cc:	5666400f 	jal	0x1d019958
1d00f2d0:	21300000 	move	a2,zero
1d00f2d4:	005211ae 	sw	s1,20992(s0)
1d00f2d8:	88bf023c 	lui	v0,0xbf88
1d00f2dc:	0052428c 	lw	v0,20992(v0)
1d00f2e0:	04004230 	andi	v0,v0,0x4
1d00f2e4:	1c004010 	beqz	v0,0x1d00f358
1d00f2e8:	88bf023c 	lui	v0,0xbf88
1d00f2ec:	88bf023c 	lui	v0,0xbf88
1d00f2f0:	1052428c 	lw	v0,21008(v0)
1d00f2f4:	04004230 	andi	v0,v0,0x4
1d00f2f8:	06004010 	beqz	v0,0x1d00f314
1d00f2fc:	04000324 	li	v1,4
1d00f300:	73000424 	li	a0,115
1d00f304:	21280000 	move	a1,zero
1d00f308:	5666400f 	jal	0x1d019958
1d00f30c:	01000624 	li	a2,1
1d00f310:	04000324 	li	v1,4
1d00f314:	88bf023c 	lui	v0,0xbf88
1d00f318:	005243ac 	sw	v1,20992(v0)
1d00f31c:	18818293 	lbu	v0,-32488(gp)
1d00f320:	ff004230 	andi	v0,v0,0xff
1d00f324:	05004010 	beqz	v0,0x1d00f33c
1d00f328:	00000000 	nop
1d00f32c:	18818293 	lbu	v0,-32488(gp)
1d00f330:	ffff4224 	addiu	v0,v0,-1
1d00f334:	ff004230 	andi	v0,v0,0xff
1d00f338:	188182a3 	sb	v0,-32488(gp)
1d00f33c:	18818293 	lbu	v0,-32488(gp)
1d00f340:	ff004230 	andi	v0,v0,0xff
1d00f344:	04004014 	bnez	v0,0x1d00f358
1d00f348:	88bf023c 	lui	v0,0xbf88
1d00f34c:	ac3b400f 	jal	0x1d00eeb0
1d00f350:	00000000 	nop
1d00f354:	88bf023c 	lui	v0,0xbf88
1d00f358:	0052428c 	lw	v0,20992(v0)
1d00f35c:	80004230 	andi	v0,v0,0x80
1d00f360:	2c004010 	beqz	v0,0x1d00f414
1d00f364:	88bf023c 	lui	v0,0xbf88
1d00f368:	88bf023c 	lui	v0,0xbf88
1d00f36c:	1052428c 	lw	v0,21008(v0)
1d00f370:	80004230 	andi	v0,v0,0x80
1d00f374:	27004010 	beqz	v0,0x1d00f414
1d00f378:	88bf023c 	lui	v0,0xbf88
1d00f37c:	88bf023c 	lui	v0,0xbf88
1d00f380:	0053428c 	lw	v0,21248(v0)
1d00f384:	02004230 	andi	v0,v0,0x2
1d00f388:	1e004010 	beqz	v0,0x1d00f404
1d00f38c:	0081828f 	lw	v0,-32512(gp)
1d00f390:	00004390 	lbu	v1,0(v0)
1d00f394:	ff006330 	andi	v1,v1,0xff
1d00f398:	01004490 	lbu	a0,1(v0)
1d00f39c:	ff008430 	andi	a0,a0,0xff
1d00f3a0:	00220400 	sll	a0,a0,0x8
1d00f3a4:	25208300 	or	a0,a0,v1
1d00f3a8:	80000324 	li	v1,128
1d00f3ac:	12008354 	bnel	a0,v1,0x1d00f3f8
1d00f3b0:	88bf023c 	lui	v0,0xbf88
1d00f3b4:	00a0033c 	lui	v1,0xa000
1d00f3b8:	1002638c 	lw	v1,528(v1)
1d00f3bc:	00006490 	lbu	a0,0(v1)
1d00f3c0:	ff008430 	andi	a0,a0,0xff
1d00f3c4:	01006390 	lbu	v1,1(v1)
1d00f3c8:	ff006330 	andi	v1,v1,0xff
1d00f3cc:	001a0300 	sll	v1,v1,0x8
1d00f3d0:	25206400 	or	a0,v1,a0
1d00f3d4:	84000324 	li	v1,132
1d00f3d8:	07008354 	bnel	a0,v1,0x1d00f3f8
1d00f3dc:	88bf023c 	lui	v0,0xbf88
1d00f3e0:	00004390 	lbu	v1,0(v0)
1d00f3e4:	8cff0324 	li	v1,-116
1d00f3e8:	000043a0 	sb	v1,0(v0)
1d00f3ec:	01004390 	lbu	v1,1(v0)
1d00f3f0:	010040a0 	sb	zero,1(v0)
1d00f3f4:	88bf023c 	lui	v0,0xbf88
1d00f3f8:	00534390 	lbu	v1,21248(v0)
1d00f3fc:	4408037c 	ins	v1,zero,0x1,0x1
1d00f400:	005343a0 	sb	v1,21248(v0)
1d00f404:	80000324 	li	v1,128
1d00f408:	88bf023c 	lui	v0,0xbf88
1d00f40c:	005243ac 	sw	v1,20992(v0)
1d00f410:	88bf023c 	lui	v0,0xbf88
1d00f414:	0052428c 	lw	v0,20992(v0)
1d00f418:	02004230 	andi	v0,v0,0x2
1d00f41c:	0f004010 	beqz	v0,0x1d00f45c
1d00f420:	88bf023c 	lui	v0,0xbf88
1d00f424:	1052428c 	lw	v0,21008(v0)
1d00f428:	02004230 	andi	v0,v0,0x2
1d00f42c:	0b004010 	beqz	v0,0x1d00f45c
1d00f430:	ff7f043c 	lui	a0,0x7fff
1d00f434:	ffff8434 	ori	a0,a0,0xffff
1d00f438:	21280000 	move	a1,zero
1d00f43c:	5666400f 	jal	0x1d019958
1d00f440:	01000624 	li	a2,1
1d00f444:	ff000324 	li	v1,255
1d00f448:	88bf023c 	lui	v0,0xbf88
1d00f44c:	205243ac 	sw	v1,21024(v0)
1d00f450:	02000324 	li	v1,2
1d00f454:	88bf023c 	lui	v0,0xbf88
1d00f458:	005243ac 	sw	v1,20992(v0)
1d00f45c:	1481828f 	lw	v0,-32492(gp)
1d00f460:	0400422c 	sltiu	v0,v0,4
1d00f464:	05004010 	beqz	v0,0x1d00f47c
1d00f468:	88bf023c 	lui	v0,0xbf88
1d00f46c:	c470400f 	jal	0x1d01c310
1d00f470:	69000424 	li	a0,105
1d00f474:	3c41400b 	j	0x1d0104f0
1d00f478:	00000000 	nop
1d00f47c:	1052428c 	lw	v0,21008(v0)
1d00f480:	08004230 	andi	v0,v0,0x8
1d00f484:	18044010 	beqz	v0,0x1d0104e8
1d00f488:	88bf023c 	lui	v0,0xbf88
1d00f48c:	0052428c 	lw	v0,20992(v0)
1d00f490:	08004230 	andi	v0,v0,0x8
1d00f494:	14044010 	beqz	v0,0x1d0104e8
1d00f498:	00000000 	nop
1d00f49c:	04001024 	li	s0,4
1d00f4a0:	00a0113c 	lui	s1,0xa000
1d00f4a4:	00a0123c 	lui	s2,0xa000
1d00f4a8:	00a0133c 	lui	s3,0xa000
1d00f4ac:	10047326 	addiu	s3,s3,1040
1d00f4b0:	029d143c 	lui	s4,0x9d02
1d00f4b4:	333d400b 	j	0x1d00f4cc
1d00f4b8:	80b39426 	addiu	s4,s4,-19584
1d00f4bc:	0052428c 	lw	v0,20992(v0)
1d00f4c0:	08004230 	andi	v0,v0,0x8
1d00f4c4:	08044010 	beqz	v0,0x1d0104e8
1d00f4c8:	00000000 	nop
1d00f4cc:	88bf023c 	lui	v0,0xbf88
1d00f4d0:	4052428c 	lw	v0,21056(v0)
1d00f4d4:	ff004230 	andi	v0,v0,0xff
1d00f4d8:	e48082a3 	sb	v0,-32540(gp)
1d00f4dc:	e480828f 	lw	v0,-32540(gp)
1d00f4e0:	0019427c 	ext	v0,v0,0x4,0x4
1d00f4e4:	088182a3 	sb	v0,-32504(gp)
1d00f4e8:	08000324 	li	v1,8
1d00f4ec:	88bf023c 	lui	v0,0xbf88
1d00f4f0:	005243ac 	sw	v1,20992(v0)
1d00f4f4:	e4808293 	lbu	v0,-32540(gp)
1d00f4f8:	08004230 	andi	v0,v0,0x8
1d00f4fc:	ff004230 	andi	v0,v0,0xff
1d00f500:	0d004014 	bnez	v0,0x1d00f538
1d00f504:	00000000 	nop
1d00f508:	08818293 	lbu	v0,-32504(gp)
1d00f50c:	ff004230 	andi	v0,v0,0xff
1d00f510:	f4808327 	addiu	v1,gp,-32524
1d00f514:	21106200 	addu	v0,v1,v0
1d00f518:	00004490 	lbu	a0,0(v0)
1d00f51c:	01008430 	andi	a0,a0,0x1
1d00f520:	01008438 	xori	a0,a0,0x1
1d00f524:	00004390 	lbu	v1,0(v0)
1d00f528:	0400837c 	ins	v1,a0,0x0,0x1
1d00f52c:	000043a0 	sb	v1,0(v0)
1d00f530:	583d400b 	j	0x1d00f560
1d00f534:	00000000 	nop
1d00f538:	08818293 	lbu	v0,-32504(gp)
1d00f53c:	ff004230 	andi	v0,v0,0xff
1d00f540:	24818327 	addiu	v1,gp,-32476
1d00f544:	21106200 	addu	v0,v1,v0
1d00f548:	00004490 	lbu	a0,0(v0)
1d00f54c:	01008430 	andi	a0,a0,0x1
1d00f550:	01008438 	xori	a0,a0,0x1
1d00f554:	00004390 	lbu	v1,0(v0)
1d00f558:	0400837c 	ins	v1,a0,0x0,0x1
1d00f55c:	000043a0 	sb	v1,0(v0)
1d00f560:	08818293 	lbu	v0,-32504(gp)
1d00f564:	ff004230 	andi	v0,v0,0xff
1d00f568:	d8034014 	bnez	v0,0x1d0104cc
1d00f56c:	72000424 	li	a0,114
1d00f570:	2d000224 	li	v0,45
1d00f574:	188182a3 	sb	v0,-32488(gp)
1d00f578:	e4808293 	lbu	v0,-32540(gp)
1d00f57c:	fb004230 	andi	v0,v0,0xfb
1d00f580:	71034014 	bnez	v0,0x1d010348
1d00f584:	00000000 	nop
1d00f588:	e4808393 	lbu	v1,-32540(gp)
1d00f58c:	8028637c 	ext	v1,v1,0x2,0x6
1d00f590:	c0180300 	sll	v1,v1,0x3
1d00f594:	00a0023c 	lui	v0,0xa000
1d00f598:	00044224 	addiu	v0,v0,1024
1d00f59c:	21104300 	addu	v0,v0,v1
1d00f5a0:	008182af 	sw	v0,-32512(gp)
1d00f5a4:	f88082af 	sw	v0,-32520(gp)
1d00f5a8:	08004338 	xori	v1,v0,0x8
1d00f5ac:	f88083a3 	sb	v1,-32520(gp)
1d00f5b0:	00004490 	lbu	a0,0(v0)
1d00f5b4:	3c008430 	andi	a0,a0,0x3c
1d00f5b8:	34000324 	li	v1,52
1d00f5bc:	cd028314 	bne	a0,v1,0x1d0100f4
1d00f5c0:	e8809527 	addiu	s5,gp,-32536
1d00f5c4:	0800a626 	addiu	a2,s5,8
1d00f5c8:	2118a002 	move	v1,s5
1d00f5cc:	00a0053c 	lui	a1,0xa000
1d00f5d0:	0400448c 	lw	a0,4(v0)
1d00f5d4:	25208500 	or	a0,a0,a1
1d00f5d8:	00008490 	lbu	a0,0(a0)
1d00f5dc:	000064a0 	sb	a0,0(v1)
1d00f5e0:	0400448c 	lw	a0,4(v0)
1d00f5e4:	01008424 	addiu	a0,a0,1
1d00f5e8:	040044ac 	sw	a0,4(v0)
1d00f5ec:	01006324 	addiu	v1,v1,1
1d00f5f0:	f7ff6614 	bne	v1,a2,0x1d00f5d0
1d00f5f4:	00000000 	nop
1d00f5f8:	00e0b57e 	ext	s5,s5,0x0,0x1d
1d00f5fc:	040055ac 	sw	s5,4(v0)
1d00f600:	e08080a3 	sb	zero,-32544(gp)
1d00f604:	d08080af 	sw	zero,-32560(gp)
1d00f608:	0c8180af 	sw	zero,-32500(gp)
1d00f60c:	108180af 	sw	zero,-32496(gp)
1d00f610:	cc8080af 	sw	zero,-32564(gp)
1d00f614:	fc8080a3 	sb	zero,-32516(gp)
1d00f618:	1002228e 	lw	v0,528(s1)
1d00f61c:	00004390 	lbu	v1,0(v0)
1d00f620:	01004490 	lbu	a0,1(v0)
1d00f624:	ff008430 	andi	a0,a0,0xff
1d00f628:	00220400 	sll	a0,a0,0x8
1d00f62c:	7f006330 	andi	v1,v1,0x7f
1d00f630:	25186400 	or	v1,v1,a0
1d00f634:	ff006430 	andi	a0,v1,0xff
1d00f638:	00004590 	lbu	a1,0(v0)
1d00f63c:	000044a0 	sb	a0,0(v0)
1d00f640:	021a0300 	srl	v1,v1,0x8
1d00f644:	01004490 	lbu	a0,1(v0)
1d00f648:	010043a0 	sb	v1,1(v0)
1d00f64c:	10022292 	lbu	v0,528(s1)
1d00f650:	08004238 	xori	v0,v0,0x8
1d00f654:	100222a2 	sb	v0,528(s1)
1d00f658:	1002228e 	lw	v0,528(s1)
1d00f65c:	00004390 	lbu	v1,0(v0)
1d00f660:	01004490 	lbu	a0,1(v0)
1d00f664:	ff008430 	andi	a0,a0,0xff
1d00f668:	00220400 	sll	a0,a0,0x8
1d00f66c:	7f006330 	andi	v1,v1,0x7f
1d00f670:	25186400 	or	v1,v1,a0
1d00f674:	ff006430 	andi	a0,v1,0xff
1d00f678:	00004590 	lbu	a1,0(v0)
1d00f67c:	000044a0 	sb	a0,0(v0)
1d00f680:	021a0300 	srl	v1,v1,0x8
1d00f684:	01004490 	lbu	a0,1(v0)
1d00f688:	010043a0 	sb	v1,1(v0)
1d00f68c:	10022292 	lbu	v0,528(s1)
1d00f690:	08004238 	xori	v0,v0,0x8
1d00f694:	100222a2 	sb	v0,528(s1)
1d00f698:	f880828f 	lw	v0,-32520(gp)
1d00f69c:	00004390 	lbu	v1,0(v0)
1d00f6a0:	01004490 	lbu	a0,1(v0)
1d00f6a4:	ff008430 	andi	a0,a0,0xff
1d00f6a8:	00220400 	sll	a0,a0,0x8
1d00f6ac:	7f006330 	andi	v1,v1,0x7f
1d00f6b0:	25186400 	or	v1,v1,a0
1d00f6b4:	ff006430 	andi	a0,v1,0xff
1d00f6b8:	00004590 	lbu	a1,0(v0)
1d00f6bc:	000044a0 	sb	a0,0(v0)
1d00f6c0:	021a0300 	srl	v1,v1,0x8
1d00f6c4:	01004490 	lbu	a0,1(v0)
1d00f6c8:	010043a0 	sb	v1,1(v0)
1d00f6cc:	80044226 	addiu	v0,s2,1152
1d00f6d0:	040040a0 	sb	zero,4(v0)
1d00f6d4:	080040a4 	sh	zero,8(v0)
1d00f6d8:	00a0023c 	lui	v0,0xa000
1d00f6dc:	d0044224 	addiu	v0,v0,1232
1d00f6e0:	040040a0 	sb	zero,4(v0)
1d00f6e4:	0400438c 	lw	v1,4(v0)
1d00f6e8:	04ba037c 	ins	v1,zero,0x8,0x10
1d00f6ec:	040043ac 	sw	v1,4(v0)
1d00f6f0:	e8808293 	lbu	v0,-32536(gp)
1d00f6f4:	60004230 	andi	v0,v0,0x60
1d00f6f8:	1d024014 	bnez	v0,0x1d00ff70
1d00f6fc:	03000424 	li	a0,3
1d00f700:	e9808293 	lbu	v0,-32535(gp)
1d00f704:	ff004230 	andi	v0,v0,0xff
1d00f708:	0c00432c 	sltiu	v1,v0,12
1d00f70c:	18026010 	beqz	v1,0x1d00ff70
1d00f710:	80100200 	sll	v0,v0,0x2
1d00f714:	019d033c 	lui	v1,0x9d01
1d00f718:	2cf76324 	addiu	v1,v1,-2260
1d00f71c:	21106200 	addu	v0,v1,v0
1d00f720:	0000428c 	lw	v0,0(v0)
1d00f724:	08004000 	jr	v0
1d00f728:	00000000 	nop
1d00f72c:	8cf9009d 	0x9d00f98c
1d00f730:	e8fa009d 	0x9d00fae8
1d00f734:	6cff009d 	0x9d00ff6c
1d00f738:	e8fa009d 	0x9d00fae8
1d00f73c:	6cff009d 	0x9d00ff6c
1d00f740:	5cf7009d 	0x9d00f75c
1d00f744:	80f7009d 	0x9d00f780
1d00f748:	5cff009d 	0x9d00ff5c
1d00f74c:	58f9009d 	0x9d00f958
1d00f750:	84f8009d 	0x9d00f884
1d00f754:	e4fe009d 	0x9d00fee4
1d00f758:	24ff009d 	0x9d00ff24
1d00f75c:	80044226 	addiu	v0,s2,1152
1d00f760:	04004390 	lbu	v1,4(v0)
1d00f764:	01000424 	li	a0,1
1d00f768:	c439837c 	ins	v1,a0,0x7,0x1
1d00f76c:	040043a0 	sb	v1,4(v0)
1d00f770:	08000224 	li	v0,8
1d00f774:	148182af 	sw	v0,-32492(gp)
1d00f778:	dc3f400b 	j	0x1d00ff70
1d00f77c:	03000424 	li	a0,3
1d00f780:	e8808393 	lbu	v1,-32536(gp)
1d00f784:	ff006330 	andi	v1,v1,0xff
1d00f788:	80000224 	li	v0,128
1d00f78c:	f8016214 	bne	v1,v0,0x1d00ff70
1d00f790:	03000424 	li	a0,3
1d00f794:	80044226 	addiu	v0,s2,1152
1d00f798:	c0ff0324 	li	v1,-64
1d00f79c:	040043a0 	sb	v1,4(v0)
1d00f7a0:	eb808293 	lbu	v0,-32533(gp)
1d00f7a4:	ff004230 	andi	v0,v0,0xff
1d00f7a8:	02000324 	li	v1,2
1d00f7ac:	0b004310 	beq	v0,v1,0x1d00f7dc
1d00f7b0:	03000324 	li	v1,3
1d00f7b4:	1a004310 	beq	v0,v1,0x1d00f820
1d00f7b8:	01000324 	li	v1,1
1d00f7bc:	2e004314 	bne	v0,v1,0x1d00f878
1d00f7c0:	80044226 	addiu	v0,s2,1152
1d00f7c4:	800454ae 	sw	s4,1152(s2)
1d00f7c8:	80044226 	addiu	v0,s2,1152
1d00f7cc:	12000324 	li	v1,18
1d00f7d0:	080043a4 	sh	v1,8(v0)
1d00f7d4:	dc3f400b 	j	0x1d00ff70
1d00f7d8:	03000424 	li	a0,3
1d00f7dc:	ea808293 	lbu	v0,-32534(gp)
1d00f7e0:	ff004230 	andi	v0,v0,0xff
1d00f7e4:	80100200 	sll	v0,v0,0x2
1d00f7e8:	029d033c 	lui	v1,0x9d02
1d00f7ec:	e8b26324 	addiu	v1,v1,-19736
1d00f7f0:	21106200 	addu	v0,v1,v0
1d00f7f4:	0000428c 	lw	v0,0(v0)
1d00f7f8:	800442ae 	sw	v0,1152(s2)
1d00f7fc:	8004428e 	lw	v0,1152(s2)
1d00f800:	02004390 	lbu	v1,2(v0)
1d00f804:	80044226 	addiu	v0,s2,1152
1d00f808:	080043a0 	sb	v1,8(v0)
1d00f80c:	8004438e 	lw	v1,1152(s2)
1d00f810:	03006390 	lbu	v1,3(v1)
1d00f814:	090043a0 	sb	v1,9(v0)
1d00f818:	dc3f400b 	j	0x1d00ff70
1d00f81c:	03000424 	li	a0,3
1d00f820:	ea808293 	lbu	v0,-32534(gp)
1d00f824:	ff004230 	andi	v0,v0,0xff
1d00f828:	0300422c 	sltiu	v0,v0,3
1d00f82c:	0f004010 	beqz	v0,0x1d00f86c
1d00f830:	80044226 	addiu	v0,s2,1152
1d00f834:	ea808293 	lbu	v0,-32534(gp)
1d00f838:	ff004230 	andi	v0,v0,0xff
1d00f83c:	80100200 	sll	v0,v0,0x2
1d00f840:	029d033c 	lui	v1,0x9d02
1d00f844:	dcb26324 	addiu	v1,v1,-19748
1d00f848:	21106200 	addu	v0,v1,v0
1d00f84c:	0000428c 	lw	v0,0(v0)
1d00f850:	800442ae 	sw	v0,1152(s2)
1d00f854:	8004428e 	lw	v0,1152(s2)
1d00f858:	00004390 	lbu	v1,0(v0)
1d00f85c:	80044226 	addiu	v0,s2,1152
1d00f860:	080043a4 	sh	v1,8(v0)
1d00f864:	dc3f400b 	j	0x1d00ff70
1d00f868:	03000424 	li	a0,3
1d00f86c:	040040a0 	sb	zero,4(v0)
1d00f870:	dc3f400b 	j	0x1d00ff70
1d00f874:	03000424 	li	a0,3
1d00f878:	040040a0 	sb	zero,4(v0)
1d00f87c:	dc3f400b 	j	0x1d00ff70
1d00f880:	03000424 	li	a0,3
1d00f884:	80044226 	addiu	v0,s2,1152
1d00f888:	04004390 	lbu	v1,4(v0)
1d00f88c:	01001724 	li	s7,1
1d00f890:	c439e37e 	ins	v1,s7,0x7,0x1
1d00f894:	040043a0 	sb	v1,4(v0)
1d00f898:	88bf023c 	lui	v0,0xbf88
1d00f89c:	105340ac 	sw	zero,21264(v0)
1d00f8a0:	10534224 	addiu	v0,v0,21264
1d00f8a4:	100040ac 	sw	zero,16(v0)
1d00f8a8:	200040ac 	sw	zero,32(v0)
1d00f8ac:	00a0163c 	lui	s6,0xa000
1d00f8b0:	0004d626 	addiu	s6,s6,1024
1d00f8b4:	2120c002 	move	a0,s6
1d00f8b8:	21280000 	move	a1,zero
1d00f8bc:	c96d400f 	jal	0x1d01b724
1d00f8c0:	80000624 	li	a2,128
1d00f8c4:	88bf023c 	lui	v0,0xbf88
1d00f8c8:	50524390 	lbu	v1,21072(v0)
1d00f8cc:	4408e37e 	ins	v1,s7,0x1,0x1
1d00f8d0:	505243a0 	sb	v1,21072(v0)
1d00f8d4:	248180a3 	sb	zero,-32476(gp)
1d00f8d8:	f48080a3 	sb	zero,-32524(gp)
1d00f8dc:	258180a3 	sb	zero,-32475(gp)
1d00f8e0:	f58080a3 	sb	zero,-32523(gp)
1d00f8e4:	268180a3 	sb	zero,-32474(gp)
1d00f8e8:	f68080a3 	sb	zero,-32522(gp)
1d00f8ec:	278180a3 	sb	zero,-32473(gp)
1d00f8f0:	f78080a3 	sb	zero,-32521(gp)
1d00f8f4:	208180a3 	sb	zero,-32480(gp)
1d00f8f8:	50524390 	lbu	v1,21072(v0)
1d00f8fc:	4408037c 	ins	v1,zero,0x1,0x1
1d00f900:	505243a0 	sb	v1,21072(v0)
1d00f904:	100233ae 	sw	s3,528(s1)
1d00f908:	008196af 	sw	s6,-32512(gp)
1d00f90c:	f88096af 	sw	s6,-32520(gp)
1d00f910:	ea808293 	lbu	v0,-32534(gp)
1d00f914:	ff004230 	andi	v0,v0,0xff
1d00f918:	d88082a3 	sb	v0,-32552(gp)
1d00f91c:	d8808293 	lbu	v0,-32552(gp)
1d00f920:	ff004230 	andi	v0,v0,0xff
1d00f924:	04004014 	bnez	v0,0x1d00f938
1d00f928:	10000224 	li	v0,16
1d00f92c:	148182af 	sw	v0,-32492(gp)
1d00f930:	dc3f400b 	j	0x1d00ff70
1d00f934:	03000424 	li	a0,3
1d00f938:	01000424 	li	a0,1
1d00f93c:	d8808527 	addiu	a1,gp,-32552
1d00f940:	5666400f 	jal	0x1d019958
1d00f944:	01000624 	li	a2,1
1d00f948:	20000224 	li	v0,32
1d00f94c:	148182af 	sw	v0,-32492(gp)
1d00f950:	dc3f400b 	j	0x1d00ff70
1d00f954:	03000424 	li	a0,3
1d00f958:	d8808227 	addiu	v0,gp,-32552
1d00f95c:	800442ae 	sw	v0,1152(s2)
1d00f960:	80044226 	addiu	v0,s2,1152
1d00f964:	04004490 	lbu	a0,4(v0)
1d00f968:	01000324 	li	v1,1
1d00f96c:	0400647c 	ins	a0,v1,0x0,0x1
1d00f970:	040044a0 	sb	a0,4(v0)
1d00f974:	080043a0 	sb	v1,8(v0)
1d00f978:	04004490 	lbu	a0,4(v0)
1d00f97c:	c439647c 	ins	a0,v1,0x7,0x1
1d00f980:	040044a0 	sb	a0,4(v0)
1d00f984:	dc3f400b 	j	0x1d00ff70
1d00f988:	03000424 	li	a0,3
1d00f98c:	00a0023c 	lui	v0,0xa000
1d00f990:	900440a0 	sb	zero,1168(v0)
1d00f994:	90044224 	addiu	v0,v0,1168
1d00f998:	010040a0 	sb	zero,1(v0)
1d00f99c:	e880828f 	lw	v0,-32536(gp)
1d00f9a0:	1f004230 	andi	v0,v0,0x1f
1d00f9a4:	01000324 	li	v1,1
1d00f9a8:	19004310 	beq	v0,v1,0x1d00fa10
1d00f9ac:	02000324 	li	v1,2
1d00f9b0:	1e004350 	beql	v0,v1,0x1d00fa2c
1d00f9b4:	80044226 	addiu	v0,s2,1152
1d00f9b8:	3c004014 	bnez	v0,0x1d00faac
1d00f9bc:	80044226 	addiu	v0,s2,1152
1d00f9c0:	80044326 	addiu	v1,s2,1152
1d00f9c4:	04006490 	lbu	a0,4(v1)
1d00f9c8:	01000224 	li	v0,1
1d00f9cc:	c439447c 	ins	a0,v0,0x7,0x1
1d00f9d0:	040064a0 	sb	a0,4(v1)
1d00f9d4:	00a0033c 	lui	v1,0xa000
1d00f9d8:	90046490 	lbu	a0,1168(v1)
1d00f9dc:	ff008430 	andi	a0,a0,0xff
1d00f9e0:	01008434 	ori	a0,a0,0x1
1d00f9e4:	900464a0 	sb	a0,1168(v1)
1d00f9e8:	1c81838f 	lw	v1,-32484(gp)
1d00f9ec:	2f006254 	bnel	v1,v0,0x1d00faac
1d00f9f0:	80044226 	addiu	v0,s2,1152
1d00f9f4:	00a0023c 	lui	v0,0xa000
1d00f9f8:	90044390 	lbu	v1,1168(v0)
1d00f9fc:	ff006330 	andi	v1,v1,0xff
1d00fa00:	02006334 	ori	v1,v1,0x2
1d00fa04:	900443a0 	sb	v1,1168(v0)
1d00fa08:	ab3e400b 	j	0x1d00faac
1d00fa0c:	80044226 	addiu	v0,s2,1152
1d00fa10:	80044226 	addiu	v0,s2,1152
1d00fa14:	04004390 	lbu	v1,4(v0)
1d00fa18:	01000424 	li	a0,1
1d00fa1c:	c439837c 	ins	v1,a0,0x7,0x1
1d00fa20:	040043a0 	sb	v1,4(v0)
1d00fa24:	ab3e400b 	j	0x1d00faac
1d00fa28:	80044226 	addiu	v0,s2,1152
1d00fa2c:	04004390 	lbu	v1,4(v0)
1d00fa30:	01000424 	li	a0,1
1d00fa34:	c439837c 	ins	v1,a0,0x7,0x1
1d00fa38:	040043a0 	sb	v1,4(v0)
1d00fa3c:	ec808293 	lbu	v0,-32532(gp)
1d00fa40:	80004230 	andi	v0,v0,0x80
1d00fa44:	ff004230 	andi	v0,v0,0xff
1d00fa48:	09004014 	bnez	v0,0x1d00fa70
1d00fa4c:	00000000 	nop
1d00fa50:	ec80838f 	lw	v1,-32532(gp)
1d00fa54:	0f006330 	andi	v1,v1,0xf
1d00fa58:	80180300 	sll	v1,v1,0x2
1d00fa5c:	00a0023c 	lui	v0,0xa000
1d00fa60:	00024224 	addiu	v0,v0,512
1d00fa64:	21106200 	addu	v0,v1,v0
1d00fa68:	a23e400b 	j	0x1d00fa88
1d00fa6c:	0000428c 	lw	v0,0(v0)
1d00fa70:	ec80838f 	lw	v1,-32532(gp)
1d00fa74:	0f006330 	andi	v1,v1,0xf
1d00fa78:	80180300 	sll	v1,v1,0x2
1d00fa7c:	10022226 	addiu	v0,s1,528
1d00fa80:	21106200 	addu	v0,v1,v0
1d00fa84:	0000428c 	lw	v0,0(v0)
1d00fa88:	00004390 	lbu	v1,0(v0)
1d00fa8c:	84006330 	andi	v1,v1,0x84
1d00fa90:	84000224 	li	v0,132
1d00fa94:	05006214 	bne	v1,v0,0x1d00faac
1d00fa98:	80044226 	addiu	v0,s2,1152
1d00fa9c:	01000324 	li	v1,1
1d00faa0:	00a0023c 	lui	v0,0xa000
1d00faa4:	900443a0 	sb	v1,1168(v0)
1d00faa8:	80044226 	addiu	v0,s2,1152
1d00faac:	0400428c 	lw	v0,4(v0)
1d00fab0:	80004230 	andi	v0,v0,0x80
1d00fab4:	2d014010 	beqz	v0,0x1d00ff6c
1d00fab8:	00a0023c 	lui	v0,0xa000
1d00fabc:	90044224 	addiu	v0,v0,1168
1d00fac0:	800442ae 	sw	v0,1152(s2)
1d00fac4:	80044226 	addiu	v0,s2,1152
1d00fac8:	04004390 	lbu	v1,4(v0)
1d00facc:	01000424 	li	a0,1
1d00fad0:	0400837c 	ins	v1,a0,0x0,0x1
1d00fad4:	040043a0 	sb	v1,4(v0)
1d00fad8:	02000324 	li	v1,2
1d00fadc:	080043a0 	sb	v1,8(v0)
1d00fae0:	dc3f400b 	j	0x1d00ff70
1d00fae4:	03000424 	li	a0,3
1d00fae8:	ea808393 	lbu	v1,-32534(gp)
1d00faec:	ff006330 	andi	v1,v1,0xff
1d00faf0:	01000224 	li	v0,1
1d00faf4:	12006214 	bne	v1,v0,0x1d00fb40
1d00faf8:	00000000 	nop
1d00fafc:	e8808293 	lbu	v0,-32536(gp)
1d00fb00:	1f004230 	andi	v0,v0,0x1f
1d00fb04:	0e004014 	bnez	v0,0x1d00fb40
1d00fb08:	80044226 	addiu	v0,s2,1152
1d00fb0c:	04004390 	lbu	v1,4(v0)
1d00fb10:	01000424 	li	a0,1
1d00fb14:	c439837c 	ins	v1,a0,0x7,0x1
1d00fb18:	040043a0 	sb	v1,4(v0)
1d00fb1c:	e9808393 	lbu	v1,-32535(gp)
1d00fb20:	ff006330 	andi	v1,v1,0xff
1d00fb24:	03000224 	li	v0,3
1d00fb28:	04006214 	bne	v1,v0,0x1d00fb3c
1d00fb2c:	01000224 	li	v0,1
1d00fb30:	1c8182af 	sw	v0,-32484(gp)
1d00fb34:	d03e400b 	j	0x1d00fb40
1d00fb38:	00000000 	nop
1d00fb3c:	1c8180af 	sw	zero,-32484(gp)
1d00fb40:	ea808293 	lbu	v0,-32534(gp)
1d00fb44:	ff004230 	andi	v0,v0,0xff
1d00fb48:	09014014 	bnez	v0,0x1d00ff70
1d00fb4c:	03000424 	li	a0,3
1d00fb50:	e8808393 	lbu	v1,-32536(gp)
1d00fb54:	1f006330 	andi	v1,v1,0x1f
1d00fb58:	02000224 	li	v0,2
1d00fb5c:	05016214 	bne	v1,v0,0x1d00ff74
1d00fb60:	21280000 	move	a1,zero
1d00fb64:	ec808293 	lbu	v0,-32532(gp)
1d00fb68:	0f004230 	andi	v0,v0,0xf
1d00fb6c:	01014010 	beqz	v0,0x1d00ff74
1d00fb70:	00000000 	nop
1d00fb74:	ec80828f 	lw	v0,-32532(gp)
1d00fb78:	0f004230 	andi	v0,v0,0xf
1d00fb7c:	04004228 	slti	v0,v0,4
1d00fb80:	fc004010 	beqz	v0,0x1d00ff74
1d00fb84:	00000000 	nop
1d00fb88:	1481838f 	lw	v1,-32492(gp)
1d00fb8c:	20000224 	li	v0,32
1d00fb90:	f8006214 	bne	v1,v0,0x1d00ff74
1d00fb94:	80044226 	addiu	v0,s2,1152
1d00fb98:	04004390 	lbu	v1,4(v0)
1d00fb9c:	01000424 	li	a0,1
1d00fba0:	c439837c 	ins	v1,a0,0x7,0x1
1d00fba4:	040043a0 	sb	v1,4(v0)
1d00fba8:	ec808293 	lbu	v0,-32532(gp)
1d00fbac:	80004230 	andi	v0,v0,0x80
1d00fbb0:	ff004230 	andi	v0,v0,0xff
1d00fbb4:	10004014 	bnez	v0,0x1d00fbf8
1d00fbb8:	ec808227 	addiu	v0,gp,-32532
1d00fbbc:	0000448c 	lw	a0,0(v0)
1d00fbc0:	0f008430 	andi	a0,a0,0xf
1d00fbc4:	80200400 	sll	a0,a0,0x2
1d00fbc8:	00a0033c 	lui	v1,0xa000
1d00fbcc:	00026324 	addiu	v1,v1,512
1d00fbd0:	21188300 	addu	v1,a0,v1
1d00fbd4:	0000638c 	lw	v1,0(v1)
1d00fbd8:	1000a3af 	sw	v1,16(sp)
1d00fbdc:	0000428c 	lw	v0,0(v0)
1d00fbe0:	0f004230 	andi	v0,v0,0xf
1d00fbe4:	f4808327 	addiu	v1,gp,-32524
1d00fbe8:	21106200 	addu	v0,v1,v0
1d00fbec:	00005690 	lbu	s6,0(v0)
1d00fbf0:	0b3f400b 	j	0x1d00fc2c
1d00fbf4:	ff00d632 	andi	s6,s6,0xff
1d00fbf8:	0000448c 	lw	a0,0(v0)
1d00fbfc:	0f008430 	andi	a0,a0,0xf
1d00fc00:	80200400 	sll	a0,a0,0x2
1d00fc04:	10022326 	addiu	v1,s1,528
1d00fc08:	21188300 	addu	v1,a0,v1
1d00fc0c:	0000638c 	lw	v1,0(v1)
1d00fc10:	1000a3af 	sw	v1,16(sp)
1d00fc14:	0000428c 	lw	v0,0(v0)
1d00fc18:	0f004230 	andi	v0,v0,0xf
1d00fc1c:	24818327 	addiu	v1,gp,-32476
1d00fc20:	21106200 	addu	v0,v1,v0
1d00fc24:	00005690 	lbu	s6,0(v0)
1d00fc28:	ff00d632 	andi	s6,s6,0xff
1d00fc2c:	0100c232 	andi	v0,s6,0x1
1d00fc30:	04004014 	bnez	v0,0x1d00fc44
1d00fc34:	1000a293 	lbu	v0,16(sp)
1d00fc38:	c418027c 	ins	v0,zero,0x3,0x1
1d00fc3c:	133f400b 	j	0x1d00fc4c
1d00fc40:	1000a2a3 	sb	v0,16(sp)
1d00fc44:	08004234 	ori	v0,v0,0x8
1d00fc48:	1000a2a3 	sb	v0,16(sp)
1d00fc4c:	ec808293 	lbu	v0,-32532(gp)
1d00fc50:	80004230 	andi	v0,v0,0x80
1d00fc54:	ff004230 	andi	v0,v0,0xff
1d00fc58:	0a004014 	bnez	v0,0x1d00fc84
1d00fc5c:	00000000 	nop
1d00fc60:	ec80838f 	lw	v1,-32532(gp)
1d00fc64:	0f006330 	andi	v1,v1,0xf
1d00fc68:	80180300 	sll	v1,v1,0x2
1d00fc6c:	00a0023c 	lui	v0,0xa000
1d00fc70:	00024224 	addiu	v0,v0,512
1d00fc74:	21106200 	addu	v0,v1,v0
1d00fc78:	1000a38f 	lw	v1,16(sp)
1d00fc7c:	283f400b 	j	0x1d00fca0
1d00fc80:	000043ac 	sw	v1,0(v0)
1d00fc84:	ec80838f 	lw	v1,-32532(gp)
1d00fc88:	0f006330 	andi	v1,v1,0xf
1d00fc8c:	80180300 	sll	v1,v1,0x2
1d00fc90:	10022226 	addiu	v0,s1,528
1d00fc94:	21106200 	addu	v0,v1,v0
1d00fc98:	1000a38f 	lw	v1,16(sp)
1d00fc9c:	000043ac 	sw	v1,0(v0)
1d00fca0:	e9808393 	lbu	v1,-32535(gp)
1d00fca4:	ff006330 	andi	v1,v1,0xff
1d00fca8:	03000224 	li	v0,3
1d00fcac:	27006214 	bne	v1,v0,0x1d00fd4c
1d00fcb0:	1000a293 	lbu	v0,16(sp)
1d00fcb4:	1000a28f 	lw	v0,16(sp)
1d00fcb8:	00004390 	lbu	v1,0(v0)
1d00fcbc:	0430037c 	ins	v1,zero,0x0,0x7
1d00fcc0:	ff006330 	andi	v1,v1,0xff
1d00fcc4:	19006050 	beqzl	v1,0x1d00fd2c
1d00fcc8:	00004390 	lbu	v1,0(v0)
1d00fccc:	ec808393 	lbu	v1,-32532(gp)
1d00fcd0:	80006330 	andi	v1,v1,0x80
1d00fcd4:	ff006330 	andi	v1,v1,0xff
1d00fcd8:	0b006014 	bnez	v1,0x1d00fd08
1d00fcdc:	00000000 	nop
1d00fce0:	ec80838f 	lw	v1,-32532(gp)
1d00fce4:	0f006330 	andi	v1,v1,0xf
1d00fce8:	f4808427 	addiu	a0,gp,-32524
1d00fcec:	21188300 	addu	v1,a0,v1
1d00fcf0:	00006490 	lbu	a0,0(v1)
1d00fcf4:	01000524 	li	a1,1
1d00fcf8:	4408a47c 	ins	a0,a1,0x1,0x1
1d00fcfc:	000064a0 	sb	a0,0(v1)
1d00fd00:	4b3f400b 	j	0x1d00fd2c
1d00fd04:	00004390 	lbu	v1,0(v0)
1d00fd08:	ec80838f 	lw	v1,-32532(gp)
1d00fd0c:	0f006330 	andi	v1,v1,0xf
1d00fd10:	24818427 	addiu	a0,gp,-32476
1d00fd14:	21188300 	addu	v1,a0,v1
1d00fd18:	00006490 	lbu	a0,0(v1)
1d00fd1c:	01000524 	li	a1,1
1d00fd20:	4408a47c 	ins	a0,a1,0x1,0x1
1d00fd24:	000064a0 	sb	a0,0(v1)
1d00fd28:	00004390 	lbu	v1,0(v0)
1d00fd2c:	01004490 	lbu	a0,1(v0)
1d00fd30:	00220400 	sll	a0,a0,0x8
1d00fd34:	25188300 	or	v1,a0,v1
1d00fd38:	84006334 	ori	v1,v1,0x84
1d00fd3c:	000043a0 	sb	v1,0(v0)
1d00fd40:	021a0300 	srl	v1,v1,0x8
1d00fd44:	db3f400b 	j	0x1d00ff6c
1d00fd48:	010043a0 	sb	v1,1(v0)
1d00fd4c:	08004238 	xori	v0,v0,0x8
1d00fd50:	1000a2a3 	sb	v0,16(sp)
1d00fd54:	1000a28f 	lw	v0,16(sp)
1d00fd58:	00004390 	lbu	v1,0(v0)
1d00fd5c:	0430037c 	ins	v1,zero,0x0,0x7
1d00fd60:	ff006330 	andi	v1,v1,0xff
1d00fd64:	17006010 	beqz	v1,0x1d00fdc4
1d00fd68:	00004390 	lbu	v1,0(v0)
1d00fd6c:	01004490 	lbu	a0,1(v0)
1d00fd70:	00220400 	sll	a0,a0,0x8
1d00fd74:	25188300 	or	v1,a0,v1
1d00fd78:	7fff6330 	andi	v1,v1,0xff7f
1d00fd7c:	000043a0 	sb	v1,0(v0)
1d00fd80:	021a0300 	srl	v1,v1,0x8
1d00fd84:	010043a0 	sb	v1,1(v0)
1d00fd88:	1000a28f 	lw	v0,16(sp)
1d00fd8c:	00004390 	lbu	v1,0(v0)
1d00fd90:	01004490 	lbu	a0,1(v0)
1d00fd94:	00220400 	sll	a0,a0,0x8
1d00fd98:	25188300 	or	v1,a0,v1
1d00fd9c:	40006334 	ori	v1,v1,0x40
1d00fda0:	000043a0 	sb	v1,0(v0)
1d00fda4:	021a0300 	srl	v1,v1,0x8
1d00fda8:	010043a0 	sb	v1,1(v0)
1d00fdac:	05000424 	li	a0,5
1d00fdb0:	1000a58f 	lw	a1,16(sp)
1d00fdb4:	5666400f 	jal	0x1d019958
1d00fdb8:	04000624 	li	a2,4
1d00fdbc:	793f400b 	j	0x1d00fde4
1d00fdc0:	1000a293 	lbu	v0,16(sp)
1d00fdc4:	01004490 	lbu	a0,1(v0)
1d00fdc8:	00220400 	sll	a0,a0,0x8
1d00fdcc:	25188300 	or	v1,a0,v1
1d00fdd0:	40006334 	ori	v1,v1,0x40
1d00fdd4:	000043a0 	sb	v1,0(v0)
1d00fdd8:	021a0300 	srl	v1,v1,0x8
1d00fddc:	010043a0 	sb	v1,1(v0)
1d00fde0:	1000a293 	lbu	v0,16(sp)
1d00fde4:	08004238 	xori	v0,v0,0x8
1d00fde8:	1000a2a3 	sb	v0,16(sp)
1d00fdec:	0200c232 	andi	v0,s6,0x2
1d00fdf0:	ff004230 	andi	v0,v0,0xff
1d00fdf4:	06004014 	bnez	v0,0x1d00fe10
1d00fdf8:	1000a28f 	lw	v0,16(sp)
1d00fdfc:	00004390 	lbu	v1,0(v0)
1d00fe00:	0430037c 	ins	v1,zero,0x0,0x7
1d00fe04:	ff006330 	andi	v1,v1,0xff
1d00fe08:	25006050 	beqzl	v1,0x1d00fea0
1d00fe0c:	00004390 	lbu	v1,0(v0)
1d00fe10:	ec808293 	lbu	v0,-32532(gp)
1d00fe14:	80004230 	andi	v0,v0,0x80
1d00fe18:	ff004230 	andi	v0,v0,0xff
1d00fe1c:	0a004014 	bnez	v0,0x1d00fe48
1d00fe20:	00000000 	nop
1d00fe24:	ec80828f 	lw	v0,-32532(gp)
1d00fe28:	0f004230 	andi	v0,v0,0xf
1d00fe2c:	f4808327 	addiu	v1,gp,-32524
1d00fe30:	21106200 	addu	v0,v1,v0
1d00fe34:	00004390 	lbu	v1,0(v0)
1d00fe38:	4408037c 	ins	v1,zero,0x1,0x1
1d00fe3c:	000043a0 	sb	v1,0(v0)
1d00fe40:	9a3f400b 	j	0x1d00fe68
1d00fe44:	1000a28f 	lw	v0,16(sp)
1d00fe48:	ec80828f 	lw	v0,-32532(gp)
1d00fe4c:	0f004230 	andi	v0,v0,0xf
1d00fe50:	24818327 	addiu	v1,gp,-32476
1d00fe54:	21106200 	addu	v0,v1,v0
1d00fe58:	00004390 	lbu	v1,0(v0)
1d00fe5c:	4408037c 	ins	v1,zero,0x1,0x1
1d00fe60:	000043a0 	sb	v1,0(v0)
1d00fe64:	1000a28f 	lw	v0,16(sp)
1d00fe68:	00004390 	lbu	v1,0(v0)
1d00fe6c:	01004490 	lbu	a0,1(v0)
1d00fe70:	00220400 	sll	a0,a0,0x8
1d00fe74:	25188300 	or	v1,a0,v1
1d00fe78:	3bff6330 	andi	v1,v1,0xff3b
1d00fe7c:	000043a0 	sb	v1,0(v0)
1d00fe80:	021a0300 	srl	v1,v1,0x8
1d00fe84:	010043a0 	sb	v1,1(v0)
1d00fe88:	05000424 	li	a0,5
1d00fe8c:	1000a58f 	lw	a1,16(sp)
1d00fe90:	5666400f 	jal	0x1d019958
1d00fe94:	04000624 	li	a2,4
1d00fe98:	af3f400b 	j	0x1d00febc
1d00fe9c:	00000000 	nop
1d00fea0:	01004490 	lbu	a0,1(v0)
1d00fea4:	00220400 	sll	a0,a0,0x8
1d00fea8:	25188300 	or	v1,a0,v1
1d00feac:	3bff6330 	andi	v1,v1,0xff3b
1d00feb0:	000043a0 	sb	v1,0(v0)
1d00feb4:	021a0300 	srl	v1,v1,0x8
1d00feb8:	010043a0 	sb	v1,1(v0)
1d00febc:	ec80828f 	lw	v0,-32532(gp)
1d00fec0:	0f004230 	andi	v0,v0,0xf
1d00fec4:	00110200 	sll	v0,v0,0x4
1d00fec8:	88bf033c 	lui	v1,0xbf88
1d00fecc:	00536324 	addiu	v1,v1,21248
1d00fed0:	21106200 	addu	v0,v1,v0
1d00fed4:	0000438c 	lw	v1,0(v0)
1d00fed8:	4408037c 	ins	v1,zero,0x1,0x1
1d00fedc:	db3f400b 	j	0x1d00ff6c
1d00fee0:	000043ac 	sw	v1,0(v0)
1d00fee4:	ec808293 	lbu	v0,-32532(gp)
1d00fee8:	ff004230 	andi	v0,v0,0xff
1d00feec:	20818327 	addiu	v1,gp,-32480
1d00fef0:	21106200 	addu	v0,v1,v0
1d00fef4:	800442ae 	sw	v0,1152(s2)
1d00fef8:	80044226 	addiu	v0,s2,1152
1d00fefc:	04004490 	lbu	a0,4(v0)
1d00ff00:	01000324 	li	v1,1
1d00ff04:	0400647c 	ins	a0,v1,0x0,0x1
1d00ff08:	040044a0 	sb	a0,4(v0)
1d00ff0c:	080043a0 	sb	v1,8(v0)
1d00ff10:	04004490 	lbu	a0,4(v0)
1d00ff14:	c439647c 	ins	a0,v1,0x7,0x1
1d00ff18:	040044a0 	sb	a0,4(v0)
1d00ff1c:	dc3f400b 	j	0x1d00ff70
1d00ff20:	03000424 	li	a0,3
1d00ff24:	80044226 	addiu	v0,s2,1152
1d00ff28:	04004390 	lbu	v1,4(v0)
1d00ff2c:	01000424 	li	a0,1
1d00ff30:	c439837c 	ins	v1,a0,0x7,0x1
1d00ff34:	040043a0 	sb	v1,4(v0)
1d00ff38:	ec808293 	lbu	v0,-32532(gp)
1d00ff3c:	ff004230 	andi	v0,v0,0xff
1d00ff40:	ea808393 	lbu	v1,-32534(gp)
1d00ff44:	ff006330 	andi	v1,v1,0xff
1d00ff48:	20818427 	addiu	a0,gp,-32480
1d00ff4c:	21108200 	addu	v0,a0,v0
1d00ff50:	000043a0 	sb	v1,0(v0)
1d00ff54:	dc3f400b 	j	0x1d00ff70
1d00ff58:	03000424 	li	a0,3
1d00ff5c:	02000424 	li	a0,2
1d00ff60:	21280000 	move	a1,zero
1d00ff64:	5666400f 	jal	0x1d019958
1d00ff68:	21300000 	move	a2,zero
1d00ff6c:	03000424 	li	a0,3
1d00ff70:	21280000 	move	a1,zero
1d00ff74:	5666400f 	jal	0x1d019958
1d00ff78:	21300000 	move	a2,zero
1d00ff7c:	88bf023c 	lui	v0,0xbf88
1d00ff80:	50524390 	lbu	v1,21072(v0)
1d00ff84:	4429037c 	ins	v1,zero,0x5,0x1
1d00ff88:	505243a0 	sb	v1,21072(v0)
1d00ff8c:	80044226 	addiu	v0,s2,1152
1d00ff90:	0400428c 	lw	v0,4(v0)
1d00ff94:	80004230 	andi	v0,v0,0x80
1d00ff98:	28004014 	bnez	v0,0x1d01003c
1d00ff9c:	00a0023c 	lui	v0,0xa000
1d00ffa0:	d0044224 	addiu	v0,v0,1232
1d00ffa4:	04004290 	lbu	v0,4(v0)
1d00ffa8:	80004230 	andi	v0,v0,0x80
1d00ffac:	ff004230 	andi	v0,v0,0xff
1d00ffb0:	0b004010 	beqz	v0,0x1d00ffe0
1d00ffb4:	02000224 	li	v0,2
1d00ffb8:	fc8082a3 	sb	v0,-32516(gp)
1d00ffbc:	1081828f 	lw	v0,-32496(gp)
1d00ffc0:	03004014 	bnez	v0,0x1d00ffd0
1d00ffc4:	00000000 	nop
1d00ffc8:	f03b400f 	jal	0x1d00efc0
1d00ffcc:	00000000 	nop
1d00ffd0:	dc8080af 	sw	zero,-32548(gp)
1d00ffd4:	d48080af 	sw	zero,-32556(gp)
1d00ffd8:	3741400b 	j	0x1d0104dc
1d00ffdc:	ffff1026 	addiu	s0,s0,-1
1d00ffe0:	f880828f 	lw	v0,-32520(gp)
1d00ffe4:	02004390 	lbu	v1,2(v0)
1d00ffe8:	40000324 	li	v1,64
1d00ffec:	020043a0 	sb	v1,2(v0)
1d00fff0:	03004390 	lbu	v1,3(v0)
1d00fff4:	0408037c 	ins	v1,zero,0x0,0x2
1d00fff8:	030043a0 	sb	v1,3(v0)
1d00fffc:	f880828f 	lw	v0,-32520(gp)

Disassembly of section .sec67:

1d010000 <.sec67>:
1d010000:	070055a8 	swl	s5,7(v0)
1d010004:	040055b8 	swr	s5,4(v0)
1d010008:	00004390 	lbu	v1,0(v0)
1d01000c:	8cff0324 	li	v1,-116
1d010010:	000043a0 	sb	v1,0(v0)
1d010014:	01004390 	lbu	v1,1(v0)
1d010018:	010040a0 	sb	zero,1(v0)
1d01001c:	1002228e 	lw	v0,528(s1)
1d010020:	00004390 	lbu	v1,0(v0)
1d010024:	84ff0324 	li	v1,-124
1d010028:	000043a0 	sb	v1,0(v0)
1d01002c:	01004390 	lbu	v1,1(v0)
1d010030:	010040a0 	sb	zero,1(v0)
1d010034:	3741400b 	j	0x1d0104dc
1d010038:	ffff1026 	addiu	s0,s0,-1
1d01003c:	e8808293 	lbu	v0,-32536(gp)
1d010040:	80004230 	andi	v0,v0,0x80
1d010044:	ff004230 	andi	v0,v0,0xff
1d010048:	11004010 	beqz	v0,0x1d010090
1d01004c:	02000224 	li	v0,2
1d010050:	01000224 	li	v0,1
1d010054:	fc8082a3 	sb	v0,-32516(gp)
1d010058:	0c81828f 	lw	v0,-32500(gp)
1d01005c:	03004014 	bnez	v0,0x1d01006c
1d010060:	00000000 	nop
1d010064:	f03b400f 	jal	0x1d00efc0
1d010068:	00000000 	nop
1d01006c:	dc8080af 	sw	zero,-32548(gp)
1d010070:	d48080af 	sw	zero,-32556(gp)
1d010074:	d080828f 	lw	v0,-32560(gp)
1d010078:	18014014 	bnez	v0,0x1d0104dc
1d01007c:	ffff1026 	addiu	s0,s0,-1
1d010080:	ac3b400f 	jal	0x1d00eeb0
1d010084:	00000000 	nop
1d010088:	3841400b 	j	0x1d0104e0
1d01008c:	ff001032 	andi	s0,s0,0xff
1d010090:	fc8082a3 	sb	v0,-32516(gp)
1d010094:	f880828f 	lw	v0,-32520(gp)
1d010098:	02004390 	lbu	v1,2(v0)
1d01009c:	40000324 	li	v1,64
1d0100a0:	020043a0 	sb	v1,2(v0)
1d0100a4:	03004390 	lbu	v1,3(v0)
1d0100a8:	0408037c 	ins	v1,zero,0x0,0x2
1d0100ac:	030043a0 	sb	v1,3(v0)
1d0100b0:	f880828f 	lw	v0,-32520(gp)
1d0100b4:	070055a8 	swl	s5,7(v0)
1d0100b8:	040055b8 	swr	s5,4(v0)
1d0100bc:	00004390 	lbu	v1,0(v0)
1d0100c0:	84ff0324 	li	v1,-124
1d0100c4:	000043a0 	sb	v1,0(v0)
1d0100c8:	01004390 	lbu	v1,1(v0)
1d0100cc:	010040a0 	sb	zero,1(v0)
1d0100d0:	dc8080af 	sw	zero,-32548(gp)
1d0100d4:	d48080af 	sw	zero,-32556(gp)
1d0100d8:	d080828f 	lw	v0,-32560(gp)
1d0100dc:	ff004014 	bnez	v0,0x1d0104dc
1d0100e0:	ffff1026 	addiu	s0,s0,-1
1d0100e4:	ac3b400f 	jal	0x1d00eeb0
1d0100e8:	00000000 	nop
1d0100ec:	3841400b 	j	0x1d0104e0
1d0100f0:	ff001032 	andi	s0,s0,0xff
1d0100f4:	fc808493 	lbu	a0,-32516(gp)
1d0100f8:	ff008430 	andi	a0,a0,0xff
1d0100fc:	02000324 	li	v1,2
1d010100:	78008314 	bne	a0,v1,0x1d0102e4
1d010104:	00000000 	nop
1d010108:	0000428c 	lw	v0,0(v0)
1d01010c:	003c427c 	ext	v0,v0,0x10,0x8
1d010110:	00a0033c 	lui	v1,0xa000
1d010114:	d0046324 	addiu	v1,v1,1232
1d010118:	0400638c 	lw	v1,4(v1)
1d01011c:	007a637c 	ext	v1,v1,0x8,0x10
1d010120:	2b186200 	sltu	v1,v1,v0
1d010124:	06006010 	beqz	v1,0x1d010140
1d010128:	00a0033c 	lui	v1,0xa000
1d01012c:	00a0023c 	lui	v0,0xa000
1d010130:	d0044224 	addiu	v0,v0,1232
1d010134:	0400428c 	lw	v0,4(v0)
1d010138:	003a427c 	ext	v0,v0,0x8,0x8
1d01013c:	00a0033c 	lui	v1,0xa000
1d010140:	d0046324 	addiu	v1,v1,1232
1d010144:	0400658c 	lw	a1,4(v1)
1d010148:	007aa57c 	ext	a1,a1,0x8,0x10
1d01014c:	2328a200 	subu	a1,a1,v0
1d010150:	ffffa530 	andi	a1,a1,0xffff
1d010154:	0400648c 	lw	a0,4(v1)
1d010158:	04baa47c 	ins	a0,a1,0x8,0x10
1d01015c:	040064ac 	sw	a0,4(v1)
1d010160:	0f004010 	beqz	v0,0x1d0101a0
1d010164:	ffff4224 	addiu	v0,v0,-1
1d010168:	ff004730 	andi	a3,v0,0xff
1d01016c:	0100e724 	addiu	a3,a3,1
1d010170:	21100000 	move	v0,zero
1d010174:	00a0043c 	lui	a0,0xa000
1d010178:	00a0063c 	lui	a2,0xa000
1d01017c:	9004c624 	addiu	a2,a2,1168
1d010180:	d004838c 	lw	v1,1232(a0)
1d010184:	01006524 	addiu	a1,v1,1
1d010188:	d00485ac 	sw	a1,1232(a0)
1d01018c:	21284600 	addu	a1,v0,a2
1d010190:	0000a590 	lbu	a1,0(a1)
1d010194:	01004224 	addiu	v0,v0,1
1d010198:	f9ff4714 	bne	v0,a3,0x1d010180
1d01019c:	000065a0 	sb	a1,0(v1)
1d0101a0:	00a0023c 	lui	v0,0xa000
1d0101a4:	d0044224 	addiu	v0,v0,1232
1d0101a8:	0400428c 	lw	v0,4(v0)
1d0101ac:	007a427c 	ext	v0,v0,0x8,0x10
1d0101b0:	21004010 	beqz	v0,0x1d010238
1d0101b4:	f880828f 	lw	v0,-32520(gp)
1d0101b8:	02004390 	lbu	v1,2(v0)
1d0101bc:	40000324 	li	v1,64
1d0101c0:	020043a0 	sb	v1,2(v0)
1d0101c4:	03004390 	lbu	v1,3(v0)
1d0101c8:	0408037c 	ins	v1,zero,0x0,0x2
1d0101cc:	030043a0 	sb	v1,3(v0)
1d0101d0:	f880828f 	lw	v0,-32520(gp)
1d0101d4:	00a0033c 	lui	v1,0xa000
1d0101d8:	90046324 	addiu	v1,v1,1168
1d0101dc:	00e0637c 	ext	v1,v1,0x0,0x1d
1d0101e0:	070043a8 	swl	v1,7(v0)
1d0101e4:	040043b8 	swr	v1,4(v0)
1d0101e8:	0081838f 	lw	v1,-32512(gp)
1d0101ec:	00006390 	lbu	v1,0(v1)
1d0101f0:	40006330 	andi	v1,v1,0x40
1d0101f4:	ff006330 	andi	v1,v1,0xff
1d0101f8:	08006014 	bnez	v1,0x1d01021c
1d0101fc:	00000000 	nop
1d010200:	00004390 	lbu	v1,0(v0)
1d010204:	c8ff0324 	li	v1,-56
1d010208:	000043a0 	sb	v1,0(v0)
1d01020c:	01004390 	lbu	v1,1(v0)
1d010210:	010040a0 	sb	zero,1(v0)
1d010214:	3741400b 	j	0x1d0104dc
1d010218:	ffff1026 	addiu	s0,s0,-1
1d01021c:	00004390 	lbu	v1,0(v0)
1d010220:	88ff0324 	li	v1,-120
1d010224:	000043a0 	sb	v1,0(v0)
1d010228:	01004390 	lbu	v1,1(v0)
1d01022c:	010040a0 	sb	zero,1(v0)
1d010230:	3741400b 	j	0x1d0104dc
1d010234:	ffff1026 	addiu	s0,s0,-1
1d010238:	02004390 	lbu	v1,2(v0)
1d01023c:	40000324 	li	v1,64
1d010240:	020043a0 	sb	v1,2(v0)
1d010244:	03004390 	lbu	v1,3(v0)
1d010248:	0408037c 	ins	v1,zero,0x0,0x2
1d01024c:	030043a0 	sb	v1,3(v0)
1d010250:	f880828f 	lw	v0,-32520(gp)
1d010254:	e8808327 	addiu	v1,gp,-32536
1d010258:	00e0637c 	ext	v1,v1,0x0,0x1d
1d01025c:	070043a8 	swl	v1,7(v0)
1d010260:	040043b8 	swr	v1,4(v0)
1d010264:	00004390 	lbu	v1,0(v0)
1d010268:	84ff0324 	li	v1,-124
1d01026c:	000043a0 	sb	v1,0(v0)
1d010270:	01004390 	lbu	v1,1(v0)
1d010274:	010040a0 	sb	zero,1(v0)
1d010278:	00a0023c 	lui	v0,0xa000
1d01027c:	d0044224 	addiu	v0,v0,1232
1d010280:	0a004388 	lwl	v1,10(v0)
1d010284:	21206000 	move	a0,v1
1d010288:	07004498 	lwr	a0,7(v0)
1d01028c:	21108000 	move	v0,a0
1d010290:	08004010 	beqz	v0,0x1d0102b4
1d010294:	00a0023c 	lui	v0,0xa000
1d010298:	d0044224 	addiu	v0,v0,1232
1d01029c:	0a004388 	lwl	v1,10(v0)
1d0102a0:	21206000 	move	a0,v1
1d0102a4:	07004498 	lwr	a0,7(v0)
1d0102a8:	21108000 	move	v0,a0
1d0102ac:	09f84000 	jalr	v0
1d0102b0:	00000000 	nop
1d0102b4:	00a0023c 	lui	v0,0xa000
1d0102b8:	d0044224 	addiu	v0,v0,1232
1d0102bc:	04004390 	lbu	v1,4(v0)
1d0102c0:	c439037c 	ins	v1,zero,0x7,0x1
1d0102c4:	040043a0 	sb	v1,4(v0)
1d0102c8:	d080828f 	lw	v0,-32560(gp)
1d0102cc:	83004014 	bnez	v0,0x1d0104dc
1d0102d0:	ffff1026 	addiu	s0,s0,-1
1d0102d4:	ac3b400f 	jal	0x1d00eeb0
1d0102d8:	00000000 	nop
1d0102dc:	3841400b 	j	0x1d0104e0
1d0102e0:	ff001032 	andi	s0,s0,0xff
1d0102e4:	fc8080a3 	sb	zero,-32516(gp)
1d0102e8:	cc80828f 	lw	v0,-32564(gp)
1d0102ec:	13004014 	bnez	v0,0x1d01033c
1d0102f0:	f880828f 	lw	v0,-32520(gp)
1d0102f4:	02004390 	lbu	v1,2(v0)
1d0102f8:	40000324 	li	v1,64
1d0102fc:	020043a0 	sb	v1,2(v0)
1d010300:	03004390 	lbu	v1,3(v0)
1d010304:	0408037c 	ins	v1,zero,0x0,0x2
1d010308:	030043a0 	sb	v1,3(v0)
1d01030c:	f880828f 	lw	v0,-32520(gp)
1d010310:	e8808327 	addiu	v1,gp,-32536
1d010314:	00e0637c 	ext	v1,v1,0x0,0x1d
1d010318:	070043a8 	swl	v1,7(v0)
1d01031c:	040043b8 	swr	v1,4(v0)
1d010320:	00004390 	lbu	v1,0(v0)
1d010324:	8cff0324 	li	v1,-116
1d010328:	000043a0 	sb	v1,0(v0)
1d01032c:	01004390 	lbu	v1,1(v0)
1d010330:	010040a0 	sb	zero,1(v0)
1d010334:	3741400b 	j	0x1d0104dc
1d010338:	ffff1026 	addiu	s0,s0,-1
1d01033c:	cc8080af 	sw	zero,-32564(gp)
1d010340:	3741400b 	j	0x1d0104dc
1d010344:	ffff1026 	addiu	s0,s0,-1
1d010348:	e4808393 	lbu	v1,-32540(gp)
1d01034c:	fb006330 	andi	v1,v1,0xfb
1d010350:	08000224 	li	v0,8
1d010354:	61006254 	bnel	v1,v0,0x1d0104dc
1d010358:	ffff1026 	addiu	s0,s0,-1
1d01035c:	1002228e 	lw	v0,528(s1)
1d010360:	00005590 	lbu	s5,0(v0)
1d010364:	8001b57e 	ext	s5,s5,0x6,0x1
1d010368:	10022292 	lbu	v0,528(s1)
1d01036c:	08004238 	xori	v0,v0,0x8
1d010370:	100222a2 	sb	v0,528(s1)
1d010374:	1481838f 	lw	v1,-32492(gp)
1d010378:	08000224 	li	v0,8
1d01037c:	0d006214 	bne	v1,v0,0x1d0103b4
1d010380:	00000000 	nop
1d010384:	ea808393 	lbu	v1,-32534(gp)
1d010388:	ff006330 	andi	v1,v1,0xff
1d01038c:	88bf023c 	lui	v0,0xbf88
1d010390:	605243ac 	sw	v1,21088(v0)
1d010394:	6052428c 	lw	v0,21088(v0)
1d010398:	05004010 	beqz	v0,0x1d0103b0
1d01039c:	04000224 	li	v0,4
1d0103a0:	10000224 	li	v0,16
1d0103a4:	148182af 	sw	v0,-32492(gp)
1d0103a8:	ed40400b 	j	0x1d0103b4
1d0103ac:	00000000 	nop
1d0103b0:	148182af 	sw	v0,-32492(gp)
1d0103b4:	fc808393 	lbu	v1,-32516(gp)
1d0103b8:	ff006330 	andi	v1,v1,0xff
1d0103bc:	01000224 	li	v0,1
1d0103c0:	26006214 	bne	v1,v0,0x1d01045c
1d0103c4:	00a0023c 	lui	v0,0xa000
1d0103c8:	1002228e 	lw	v0,528(s1)
1d0103cc:	00a0033c 	lui	v1,0xa000
1d0103d0:	90046324 	addiu	v1,v1,1168
1d0103d4:	00e0637c 	ext	v1,v1,0x0,0x1d
1d0103d8:	070043a8 	swl	v1,7(v0)
1d0103dc:	040043b8 	swr	v1,4(v0)
1d0103e0:	a839400f 	jal	0x1d00e6a0
1d0103e4:	00000000 	nop
1d0103e8:	e0808393 	lbu	v1,-32544(gp)
1d0103ec:	ff006330 	andi	v1,v1,0xff
1d0103f0:	02000224 	li	v0,2
1d0103f4:	08006214 	bne	v1,v0,0x1d010418
1d0103f8:	1002228e 	lw	v0,528(s1)
1d0103fc:	00004390 	lbu	v1,0(v0)
1d010400:	84ff0324 	li	v1,-124
1d010404:	000043a0 	sb	v1,0(v0)
1d010408:	01004390 	lbu	v1,1(v0)
1d01040c:	010040a0 	sb	zero,1(v0)
1d010410:	3741400b 	j	0x1d0104dc
1d010414:	ffff1026 	addiu	s0,s0,-1
1d010418:	0900a016 	bnez	s5,0x1d010440
1d01041c:	00000000 	nop
1d010420:	1002228e 	lw	v0,528(s1)
1d010424:	00004390 	lbu	v1,0(v0)
1d010428:	c8ff0324 	li	v1,-56
1d01042c:	000043a0 	sb	v1,0(v0)
1d010430:	01004390 	lbu	v1,1(v0)
1d010434:	010040a0 	sb	zero,1(v0)
1d010438:	3741400b 	j	0x1d0104dc
1d01043c:	ffff1026 	addiu	s0,s0,-1
1d010440:	00004390 	lbu	v1,0(v0)
1d010444:	88ff0324 	li	v1,-120
1d010448:	000043a0 	sb	v1,0(v0)
1d01044c:	01004390 	lbu	v1,1(v0)
1d010450:	010040a0 	sb	zero,1(v0)
1d010454:	3741400b 	j	0x1d0104dc
1d010458:	ffff1026 	addiu	s0,s0,-1
1d01045c:	d0044224 	addiu	v0,v0,1232
1d010460:	04004290 	lbu	v0,4(v0)
1d010464:	80004230 	andi	v0,v0,0x80
1d010468:	ff004230 	andi	v0,v0,0xff
1d01046c:	14004010 	beqz	v0,0x1d0104c0
1d010470:	00a0023c 	lui	v0,0xa000
1d010474:	d0044224 	addiu	v0,v0,1232
1d010478:	0a004388 	lwl	v1,10(v0)
1d01047c:	21206000 	move	a0,v1
1d010480:	07004498 	lwr	a0,7(v0)
1d010484:	21108000 	move	v0,a0
1d010488:	08004010 	beqz	v0,0x1d0104ac
1d01048c:	00a0023c 	lui	v0,0xa000
1d010490:	d0044224 	addiu	v0,v0,1232
1d010494:	0a004388 	lwl	v1,10(v0)
1d010498:	21206000 	move	a0,v1
1d01049c:	07004498 	lwr	a0,7(v0)
1d0104a0:	21108000 	move	v0,a0
1d0104a4:	09f84000 	jalr	v0
1d0104a8:	00000000 	nop
1d0104ac:	00a0023c 	lui	v0,0xa000
1d0104b0:	d0044224 	addiu	v0,v0,1232
1d0104b4:	04004390 	lbu	v1,4(v0)
1d0104b8:	c439037c 	ins	v1,zero,0x7,0x1
1d0104bc:	040043a0 	sb	v1,4(v0)
1d0104c0:	fc8080a3 	sb	zero,-32516(gp)
1d0104c4:	3741400b 	j	0x1d0104dc
1d0104c8:	ffff1026 	addiu	s0,s0,-1
1d0104cc:	e4808527 	addiu	a1,gp,-32540
1d0104d0:	5666400f 	jal	0x1d019958
1d0104d4:	21300000 	move	a2,zero
1d0104d8:	ffff1026 	addiu	s0,s0,-1
1d0104dc:	ff001032 	andi	s0,s0,0xff
1d0104e0:	f6fb0016 	bnez	s0,0x1d00f4bc
1d0104e4:	88bf023c 	lui	v0,0xbf88
1d0104e8:	c470400f 	jal	0x1d01c310
1d0104ec:	69000424 	li	a0,105
1d0104f0:	8400a28f 	lw	v0,132(sp)
1d0104f4:	13004000 	mtlo	v0
1d0104f8:	8000a38f 	lw	v1,128(sp)
1d0104fc:	11006000 	mthi	v1
1d010500:	9000a28f 	lw	v0,144(sp)
1d010504:	0f004230 	andi	v0,v0,0xf
1d010508:	1b004014 	bnez	v0,0x1d010578
1d01050c:	00000000 	nop
1d010510:	7c00bf8f 	lw	ra,124(sp)
1d010514:	7800b98f 	lw	t9,120(sp)
1d010518:	7400b88f 	lw	t8,116(sp)
1d01051c:	7000b78f 	lw	s7,112(sp)
1d010520:	6c00b68f 	lw	s6,108(sp)
1d010524:	6800b58f 	lw	s5,104(sp)
1d010528:	6400b48f 	lw	s4,100(sp)
1d01052c:	6000b38f 	lw	s3,96(sp)
1d010530:	5c00b28f 	lw	s2,92(sp)
1d010534:	5800b18f 	lw	s1,88(sp)
1d010538:	5400b08f 	lw	s0,84(sp)
1d01053c:	5000af8f 	lw	t7,80(sp)
1d010540:	4c00ae8f 	lw	t6,76(sp)
1d010544:	4800ad8f 	lw	t5,72(sp)
1d010548:	4400ac8f 	lw	t4,68(sp)
1d01054c:	4000ab8f 	lw	t3,64(sp)
1d010550:	3c00aa8f 	lw	t2,60(sp)
1d010554:	3800a98f 	lw	t1,56(sp)
1d010558:	3400a88f 	lw	t0,52(sp)
1d01055c:	3000a78f 	lw	a3,48(sp)
1d010560:	2c00a68f 	lw	a2,44(sp)
1d010564:	2800a58f 	lw	a1,40(sp)
1d010568:	2400a48f 	lw	a0,36(sp)
1d01056c:	2000a38f 	lw	v1,32(sp)
1d010570:	1c00a28f 	lw	v0,28(sp)
1d010574:	1800a18f 	lw	at,24(sp)
1d010578:	00606041 	di
1d01057c:	c0000000 	ehb
1d010580:	9400ba8f 	lw	k0,148(sp)
1d010584:	8c00bb8f 	lw	k1,140(sp)
1d010588:	00709a40 	mtc0	k0,c0_epc
1d01058c:	9000ba8f 	lw	k0,144(sp)
1d010590:	9800bd27 	addiu	sp,sp,152
1d010594:	02609a40 	mtc0	k0,c0_srsctl
1d010598:	00e8dd41 	wrpgpr	sp,sp
1d01059c:	00609b40 	mtc0	k1,c0_status
1d0105a0:	18000042 	eret

Disassembly of section .sec68:

1d0105a4 <.sec68>:
1d0105a4:	bc808227 	addiu	v0,gp,-32580
1d0105a8:	21204400 	addu	a0,v0,a0
1d0105ac:	0800e003 	jr	ra
1d0105b0:	00008290 	lbu	v0,0(a0)
1d0105b4:	02000224 	li	v0,2
1d0105b8:	06008210 	beq	a0,v0,0x1d0105d4
1d0105bc:	88bf023c 	lui	v0,0xbf88
1d0105c0:	03000224 	li	v0,3
1d0105c4:	07008250 	beql	a0,v0,0x1d0105e4
1d0105c8:	88bf023c 	lui	v0,0xbf88
1d0105cc:	0800e003 	jr	ra
1d0105d0:	21100000 	move	v0,zero
1d0105d4:	d060428c 	lw	v0,24784(v0)
1d0105d8:	00044238 	xori	v0,v0,0x400
1d0105dc:	0800e003 	jr	ra
1d0105e0:	8002427c 	ext	v0,v0,0xa,0x1
1d0105e4:	d060428c 	lw	v0,24784(v0)
1d0105e8:	00014238 	xori	v0,v0,0x100
1d0105ec:	0800e003 	jr	ra
1d0105f0:	0002427c 	ext	v0,v0,0x8,0x1
1d0105f4:	03000224 	li	v0,3
1d0105f8:	13008210 	beq	a0,v0,0x1d010648
1d0105fc:	f8ffbd27 	addiu	sp,sp,-8
1d010600:	04000224 	li	v0,4
1d010604:	19008210 	beq	a0,v0,0x1d01066c
1d010608:	02000224 	li	v0,2
1d01060c:	20008214 	bne	a0,v0,0x1d010690
1d010610:	03000224 	li	v0,3
1d010614:	00020224 	li	v0,512
1d010618:	88bf033c 	lui	v1,0xbf88
1d01061c:	a46162ac 	sw	v0,24996(v1)
1d010620:	88bf033c 	lui	v1,0xbf88
1d010624:	846162ac 	sw	v0,24964(v1)
1d010628:	03000224 	li	v0,3
1d01062c:	0000a2a3 	sb	v0,0(sp)
1d010630:	0100a5a3 	sb	a1,1(sp)
1d010634:	80bf033c 	lui	v1,0xbf80
1d010638:	105a6324 	addiu	v1,v1,23056
1d01063c:	80bf093c 	lui	t1,0xbf80
1d010640:	bc41400b 	j	0x1d0106f0
1d010644:	205a2925 	addiu	t1,t1,23072
1d010648:	00020224 	li	v0,512
1d01064c:	88bf033c 	lui	v1,0xbf88
1d010650:	e46062ac 	sw	v0,24804(v1)
1d010654:	88bf033c 	lui	v1,0xbf88
1d010658:	c46062ac 	sw	v0,24772(v1)
1d01065c:	03000224 	li	v0,3
1d010660:	0000a2a3 	sb	v0,0(sp)
1d010664:	af41400b 	j	0x1d0106bc
1d010668:	0100a5a3 	sb	a1,1(sp)
1d01066c:	00010224 	li	v0,256
1d010670:	88bf033c 	lui	v1,0xbf88
1d010674:	646062ac 	sw	v0,24676(v1)
1d010678:	88bf033c 	lui	v1,0xbf88
1d01067c:	446062ac 	sw	v0,24644(v1)
1d010680:	03000224 	li	v0,3
1d010684:	0000a2a3 	sb	v0,0(sp)
1d010688:	b441400b 	j	0x1d0106d0
1d01068c:	0100a5a3 	sb	a1,1(sp)
1d010690:	0000a2a3 	sb	v0,0(sp)
1d010694:	03000224 	li	v0,3
1d010698:	08008210 	beq	a0,v0,0x1d0106bc
1d01069c:	0100a5a3 	sb	a1,1(sp)
1d0106a0:	04000224 	li	v0,4
1d0106a4:	0a008210 	beq	a0,v0,0x1d0106d0
1d0106a8:	02000224 	li	v0,2
1d0106ac:	1e008214 	bne	a0,v0,0x1d010728
1d0106b0:	03000224 	li	v0,3
1d0106b4:	b941400b 	j	0x1d0106e4
1d0106b8:	80bf033c 	lui	v1,0xbf80
1d0106bc:	80bf033c 	lui	v1,0xbf80
1d0106c0:	10586324 	addiu	v1,v1,22544
1d0106c4:	80bf093c 	lui	t1,0xbf80
1d0106c8:	bc41400b 	j	0x1d0106f0
1d0106cc:	20582925 	addiu	t1,t1,22560
1d0106d0:	80bf033c 	lui	v1,0xbf80
1d0106d4:	105c6324 	addiu	v1,v1,23568
1d0106d8:	80bf093c 	lui	t1,0xbf80
1d0106dc:	bc41400b 	j	0x1d0106f0
1d0106e0:	205c2925 	addiu	t1,t1,23584
1d0106e4:	105a6324 	addiu	v1,v1,23056
1d0106e8:	80bf093c 	lui	t1,0xbf80
1d0106ec:	205a2925 	addiu	t1,t1,23072
1d0106f0:	0000a293 	lbu	v0,0(sp)
1d0106f4:	000022ad 	sw	v0,0(t1)
1d0106f8:	0100a293 	lbu	v0,1(sp)
1d0106fc:	000022ad 	sw	v0,0(t1)
1d010700:	001f083c 	lui	t0,0x1f00
1d010704:	0002053c 	lui	a1,0x200
1d010708:	0000628c 	lw	v0,0(v1)
1d01070c:	24104800 	and	v0,v0,t0
1d010710:	2b104500 	sltu	v0,v0,a1
1d010714:	fcff4014 	bnez	v0,0x1d010708
1d010718:	00000000 	nop
1d01071c:	0000228d 	lw	v0,0(t1)
1d010720:	0000228d 	lw	v0,0(t1)
1d010724:	03000224 	li	v0,3
1d010728:	0f008210 	beq	a0,v0,0x1d010768
1d01072c:	04000224 	li	v0,4
1d010730:	08008210 	beq	a0,v0,0x1d010754
1d010734:	02000224 	li	v0,2
1d010738:	31008214 	bne	a0,v0,0x1d010800
1d01073c:	03000224 	li	v0,3
1d010740:	80bf093c 	lui	t1,0xbf80
1d010744:	105a2925 	addiu	t1,t1,23056
1d010748:	80bf033c 	lui	v1,0xbf80
1d01074c:	de41400b 	j	0x1d010778
1d010750:	205a6324 	addiu	v1,v1,23072
1d010754:	80bf093c 	lui	t1,0xbf80
1d010758:	105c2925 	addiu	t1,t1,23568
1d01075c:	80bf033c 	lui	v1,0xbf80
1d010760:	de41400b 	j	0x1d010778
1d010764:	205c6324 	addiu	v1,v1,23584
1d010768:	80bf093c 	lui	t1,0xbf80
1d01076c:	10582925 	addiu	t1,t1,22544
1d010770:	80bf033c 	lui	v1,0xbf80
1d010774:	20586324 	addiu	v1,v1,22560
1d010778:	0700e010 	beqz	a3,0x1d010798
1d01077c:	ffffea24 	addiu	t2,a3,-1
1d010780:	21104001 	move	v0,t2
1d010784:	ffff0524 	li	a1,-1
1d010788:	000060ac 	sw	zero,0(v1)
1d01078c:	ffff4224 	addiu	v0,v0,-1
1d010790:	fdff4514 	bne	v0,a1,0x1d010788
1d010794:	00000000 	nop
1d010798:	00460700 	sll	t0,a3,0x18
1d01079c:	001f053c 	lui	a1,0x1f00
1d0107a0:	0000228d 	lw	v0,0(t1)
1d0107a4:	24104500 	and	v0,v0,a1
1d0107a8:	2b104800 	sltu	v0,v0,t0
1d0107ac:	fcff4014 	bnez	v0,0x1d0107a0
1d0107b0:	00000000 	nop
1d0107b4:	0500c014 	bnez	a2,0x1d0107cc
1d0107b8:	00000000 	nop
1d0107bc:	0b00e014 	bnez	a3,0x1d0107ec
1d0107c0:	ffff0224 	li	v0,-1
1d0107c4:	0042400b 	j	0x1d010800
1d0107c8:	03000224 	li	v0,3
1d0107cc:	0b00e010 	beqz	a3,0x1d0107fc
1d0107d0:	2138c700 	addu	a3,a2,a3
1d0107d4:	0100c624 	addiu	a2,a2,1
1d0107d8:	0000628c 	lw	v0,0(v1)
1d0107dc:	fdffc714 	bne	a2,a3,0x1d0107d4
1d0107e0:	ffffc2a0 	sb	v0,-1(a2)
1d0107e4:	0042400b 	j	0x1d010800
1d0107e8:	03000224 	li	v0,3
1d0107ec:	0000658c 	lw	a1,0(v1)
1d0107f0:	ffff4a25 	addiu	t2,t2,-1
1d0107f4:	fdff4215 	bne	t2,v0,0x1d0107ec
1d0107f8:	00000000 	nop
1d0107fc:	03000224 	li	v0,3
1d010800:	0c008210 	beq	a0,v0,0x1d010834
1d010804:	04000224 	li	v0,4
1d010808:	11008210 	beq	a0,v0,0x1d010850
1d01080c:	02000224 	li	v0,2
1d010810:	15008254 	bnel	a0,v0,0x1d010868
1d010814:	0800bd27 	addiu	sp,sp,8
1d010818:	00020224 	li	v0,512
1d01081c:	88bf033c 	lui	v1,0xbf88
1d010820:	a86162ac 	sw	v0,25000(v1)
1d010824:	88bf033c 	lui	v1,0xbf88
1d010828:	846162ac 	sw	v0,24964(v1)
1d01082c:	1a42400b 	j	0x1d010868
1d010830:	0800bd27 	addiu	sp,sp,8
1d010834:	00020224 	li	v0,512
1d010838:	88bf033c 	lui	v1,0xbf88
1d01083c:	e86062ac 	sw	v0,24808(v1)
1d010840:	88bf033c 	lui	v1,0xbf88
1d010844:	c46062ac 	sw	v0,24772(v1)
1d010848:	1a42400b 	j	0x1d010868
1d01084c:	0800bd27 	addiu	sp,sp,8
1d010850:	00010224 	li	v0,256
1d010854:	88bf033c 	lui	v1,0xbf88
1d010858:	686062ac 	sw	v0,24680(v1)
1d01085c:	88bf033c 	lui	v1,0xbf88
1d010860:	446062ac 	sw	v0,24644(v1)
1d010864:	0800bd27 	addiu	sp,sp,8
1d010868:	0800e003 	jr	ra
1d01086c:	00000000 	nop
1d010870:	03000224 	li	v0,3
1d010874:	13008210 	beq	a0,v0,0x1d0108c4
1d010878:	f8ffbd27 	addiu	sp,sp,-8
1d01087c:	04000224 	li	v0,4
1d010880:	19008210 	beq	a0,v0,0x1d0108e8
1d010884:	02000224 	li	v0,2
1d010888:	20008214 	bne	a0,v0,0x1d01090c
1d01088c:	02000224 	li	v0,2
1d010890:	00020224 	li	v0,512
1d010894:	88bf033c 	lui	v1,0xbf88
1d010898:	a46162ac 	sw	v0,24996(v1)
1d01089c:	88bf033c 	lui	v1,0xbf88
1d0108a0:	846162ac 	sw	v0,24964(v1)
1d0108a4:	02000224 	li	v0,2
1d0108a8:	0000a2a3 	sb	v0,0(sp)
1d0108ac:	0100a5a3 	sb	a1,1(sp)
1d0108b0:	80bf033c 	lui	v1,0xbf80
1d0108b4:	105a6324 	addiu	v1,v1,23056
1d0108b8:	80bf093c 	lui	t1,0xbf80
1d0108bc:	5b42400b 	j	0x1d01096c
1d0108c0:	205a2925 	addiu	t1,t1,23072
1d0108c4:	00020224 	li	v0,512
1d0108c8:	88bf033c 	lui	v1,0xbf88
1d0108cc:	e46062ac 	sw	v0,24804(v1)
1d0108d0:	88bf033c 	lui	v1,0xbf88
1d0108d4:	c46062ac 	sw	v0,24772(v1)
1d0108d8:	02000224 	li	v0,2
1d0108dc:	0000a2a3 	sb	v0,0(sp)
1d0108e0:	4e42400b 	j	0x1d010938
1d0108e4:	0100a5a3 	sb	a1,1(sp)
1d0108e8:	00010224 	li	v0,256
1d0108ec:	88bf033c 	lui	v1,0xbf88
1d0108f0:	646062ac 	sw	v0,24676(v1)
1d0108f4:	88bf033c 	lui	v1,0xbf88
1d0108f8:	446062ac 	sw	v0,24644(v1)
1d0108fc:	02000224 	li	v0,2
1d010900:	0000a2a3 	sb	v0,0(sp)
1d010904:	5342400b 	j	0x1d01094c
1d010908:	0100a5a3 	sb	a1,1(sp)
1d01090c:	0000a2a3 	sb	v0,0(sp)
1d010910:	03000224 	li	v0,3
1d010914:	08008210 	beq	a0,v0,0x1d010938
1d010918:	0100a5a3 	sb	a1,1(sp)
1d01091c:	04000224 	li	v0,4
1d010920:	0a008210 	beq	a0,v0,0x1d01094c
1d010924:	02000224 	li	v0,2
1d010928:	1e008214 	bne	a0,v0,0x1d0109a4
1d01092c:	03000224 	li	v0,3
1d010930:	5842400b 	j	0x1d010960
1d010934:	80bf033c 	lui	v1,0xbf80
1d010938:	80bf033c 	lui	v1,0xbf80
1d01093c:	10586324 	addiu	v1,v1,22544
1d010940:	80bf093c 	lui	t1,0xbf80
1d010944:	5b42400b 	j	0x1d01096c
1d010948:	20582925 	addiu	t1,t1,22560
1d01094c:	80bf033c 	lui	v1,0xbf80
1d010950:	105c6324 	addiu	v1,v1,23568
1d010954:	80bf093c 	lui	t1,0xbf80
1d010958:	5b42400b 	j	0x1d01096c
1d01095c:	205c2925 	addiu	t1,t1,23584
1d010960:	105a6324 	addiu	v1,v1,23056
1d010964:	80bf093c 	lui	t1,0xbf80
1d010968:	205a2925 	addiu	t1,t1,23072
1d01096c:	0000a293 	lbu	v0,0(sp)
1d010970:	000022ad 	sw	v0,0(t1)
1d010974:	0100a293 	lbu	v0,1(sp)
1d010978:	000022ad 	sw	v0,0(t1)
1d01097c:	001f083c 	lui	t0,0x1f00
1d010980:	0002053c 	lui	a1,0x200
1d010984:	0000628c 	lw	v0,0(v1)
1d010988:	24104800 	and	v0,v0,t0
1d01098c:	2b104500 	sltu	v0,v0,a1
1d010990:	fcff4014 	bnez	v0,0x1d010984
1d010994:	00000000 	nop
1d010998:	0000228d 	lw	v0,0(t1)
1d01099c:	0000228d 	lw	v0,0(t1)
1d0109a0:	03000224 	li	v0,3
1d0109a4:	0f008210 	beq	a0,v0,0x1d0109e4
1d0109a8:	04000224 	li	v0,4
1d0109ac:	08008210 	beq	a0,v0,0x1d0109d0
1d0109b0:	02000224 	li	v0,2
1d0109b4:	31008214 	bne	a0,v0,0x1d010a7c
1d0109b8:	03000224 	li	v0,3
1d0109bc:	80bf083c 	lui	t0,0xbf80
1d0109c0:	105a0825 	addiu	t0,t0,23056
1d0109c4:	80bf033c 	lui	v1,0xbf80
1d0109c8:	7d42400b 	j	0x1d0109f4
1d0109cc:	205a6324 	addiu	v1,v1,23072
1d0109d0:	80bf083c 	lui	t0,0xbf80
1d0109d4:	105c0825 	addiu	t0,t0,23568
1d0109d8:	80bf033c 	lui	v1,0xbf80
1d0109dc:	7d42400b 	j	0x1d0109f4
1d0109e0:	205c6324 	addiu	v1,v1,23584
1d0109e4:	80bf083c 	lui	t0,0xbf80
1d0109e8:	10580825 	addiu	t0,t0,22544
1d0109ec:	80bf033c 	lui	v1,0xbf80
1d0109f0:	20586324 	addiu	v1,v1,22560
1d0109f4:	0500c014 	bnez	a2,0x1d010a0c
1d0109f8:	ffffe224 	addiu	v0,a3,-1
1d0109fc:	0c00e014 	bnez	a3,0x1d010a30
1d010a00:	ffff0524 	li	a1,-1
1d010a04:	9142400b 	j	0x1d010a44
1d010a08:	00360700 	sll	a2,a3,0x18
1d010a0c:	0c00e010 	beqz	a3,0x1d010a40
1d010a10:	2128c700 	addu	a1,a2,a3
1d010a14:	0100c624 	addiu	a2,a2,1
1d010a18:	ffffc290 	lbu	v0,-1(a2)
1d010a1c:	000062ac 	sw	v0,0(v1)
1d010a20:	fdffc554 	bnel	a2,a1,0x1d010a18
1d010a24:	0100c624 	addiu	a2,a2,1
1d010a28:	9142400b 	j	0x1d010a44
1d010a2c:	00360700 	sll	a2,a3,0x18
1d010a30:	000060ac 	sw	zero,0(v1)
1d010a34:	ffff4224 	addiu	v0,v0,-1
1d010a38:	fdff4514 	bne	v0,a1,0x1d010a30
1d010a3c:	00000000 	nop
1d010a40:	00360700 	sll	a2,a3,0x18
1d010a44:	001f053c 	lui	a1,0x1f00
1d010a48:	0000028d 	lw	v0,0(t0)
1d010a4c:	24104500 	and	v0,v0,a1
1d010a50:	2b104600 	sltu	v0,v0,a2
1d010a54:	fcff4014 	bnez	v0,0x1d010a48
1d010a58:	00000000 	nop
1d010a5c:	0600e010 	beqz	a3,0x1d010a78
1d010a60:	ffffe224 	addiu	v0,a3,-1
1d010a64:	ffff0524 	li	a1,-1
1d010a68:	0000668c 	lw	a2,0(v1)
1d010a6c:	ffff4224 	addiu	v0,v0,-1
1d010a70:	fdff4514 	bne	v0,a1,0x1d010a68
1d010a74:	00000000 	nop
1d010a78:	03000224 	li	v0,3
1d010a7c:	0c008210 	beq	a0,v0,0x1d010ab0
1d010a80:	04000224 	li	v0,4
1d010a84:	11008210 	beq	a0,v0,0x1d010acc
1d010a88:	02000224 	li	v0,2
1d010a8c:	15008254 	bnel	a0,v0,0x1d010ae4
1d010a90:	0800bd27 	addiu	sp,sp,8
1d010a94:	00020224 	li	v0,512
1d010a98:	88bf033c 	lui	v1,0xbf88
1d010a9c:	a86162ac 	sw	v0,25000(v1)
1d010aa0:	88bf033c 	lui	v1,0xbf88
1d010aa4:	846162ac 	sw	v0,24964(v1)
1d010aa8:	b942400b 	j	0x1d010ae4
1d010aac:	0800bd27 	addiu	sp,sp,8
1d010ab0:	00020224 	li	v0,512
1d010ab4:	88bf033c 	lui	v1,0xbf88
1d010ab8:	e86062ac 	sw	v0,24808(v1)
1d010abc:	88bf033c 	lui	v1,0xbf88
1d010ac0:	c46062ac 	sw	v0,24772(v1)
1d010ac4:	b942400b 	j	0x1d010ae4
1d010ac8:	0800bd27 	addiu	sp,sp,8
1d010acc:	00010224 	li	v0,256
1d010ad0:	88bf033c 	lui	v1,0xbf88
1d010ad4:	686062ac 	sw	v0,24680(v1)
1d010ad8:	88bf033c 	lui	v1,0xbf88
1d010adc:	446062ac 	sw	v0,24644(v1)
1d010ae0:	0800bd27 	addiu	sp,sp,8
1d010ae4:	0800e003 	jr	ra
1d010ae8:	00000000 	nop
1d010aec:	03000224 	li	v0,3
1d010af0:	0c008210 	beq	a0,v0,0x1d010b24
1d010af4:	04000224 	li	v0,4
1d010af8:	11008210 	beq	a0,v0,0x1d010b40
1d010afc:	02000224 	li	v0,2
1d010b00:	16008214 	bne	a0,v0,0x1d010b5c
1d010b04:	03000224 	li	v0,3
1d010b08:	00020224 	li	v0,512
1d010b0c:	88bf033c 	lui	v1,0xbf88
1d010b10:	a46162ac 	sw	v0,24996(v1)
1d010b14:	88bf033c 	lui	v1,0xbf88
1d010b18:	846162ac 	sw	v0,24964(v1)
1d010b1c:	de42400b 	j	0x1d010b78
1d010b20:	a0000324 	li	v1,160
1d010b24:	00020224 	li	v0,512
1d010b28:	88bf033c 	lui	v1,0xbf88
1d010b2c:	e46062ac 	sw	v0,24804(v1)
1d010b30:	88bf033c 	lui	v1,0xbf88
1d010b34:	c46062ac 	sw	v0,24772(v1)
1d010b38:	ea42400b 	j	0x1d010ba8
1d010b3c:	a0000324 	li	v1,160
1d010b40:	00010224 	li	v0,256
1d010b44:	88bf033c 	lui	v1,0xbf88
1d010b48:	646062ac 	sw	v0,24676(v1)
1d010b4c:	88bf033c 	lui	v1,0xbf88
1d010b50:	446062ac 	sw	v0,24644(v1)
1d010b54:	f642400b 	j	0x1d010bd8
1d010b58:	a0000324 	li	v1,160
1d010b5c:	11008210 	beq	a0,v0,0x1d010ba4
1d010b60:	04000224 	li	v0,4
1d010b64:	1b008210 	beq	a0,v0,0x1d010bd4
1d010b68:	02000224 	li	v0,2
1d010b6c:	25008214 	bne	a0,v0,0x1d010c04
1d010b70:	03000224 	li	v0,3
1d010b74:	a0000324 	li	v1,160
1d010b78:	80bf023c 	lui	v0,0xbf80
1d010b7c:	205a43ac 	sw	v1,23072(v0)
1d010b80:	80bf043c 	lui	a0,0xbf80
1d010b84:	001f033c 	lui	v1,0x1f00
1d010b88:	105a828c 	lw	v0,23056(a0)
1d010b8c:	24104300 	and	v0,v0,v1
1d010b90:	fdff4010 	beqz	v0,0x1d010b88
1d010b94:	80bf023c 	lui	v0,0xbf80
1d010b98:	205a428c 	lw	v0,23072(v0)
1d010b9c:	0843400b 	j	0x1d010c20
1d010ba0:	80bf023c 	lui	v0,0xbf80
1d010ba4:	a0000324 	li	v1,160
1d010ba8:	80bf023c 	lui	v0,0xbf80
1d010bac:	205843ac 	sw	v1,22560(v0)
1d010bb0:	80bf043c 	lui	a0,0xbf80
1d010bb4:	001f033c 	lui	v1,0x1f00
1d010bb8:	1058828c 	lw	v0,22544(a0)
1d010bbc:	24104300 	and	v0,v0,v1
1d010bc0:	fdff4010 	beqz	v0,0x1d010bb8
1d010bc4:	80bf023c 	lui	v0,0xbf80
1d010bc8:	2058428c 	lw	v0,22560(v0)
1d010bcc:	1343400b 	j	0x1d010c4c
1d010bd0:	80bf023c 	lui	v0,0xbf80
1d010bd4:	a0000324 	li	v1,160
1d010bd8:	80bf023c 	lui	v0,0xbf80
1d010bdc:	205c43ac 	sw	v1,23584(v0)
1d010be0:	80bf043c 	lui	a0,0xbf80
1d010be4:	001f033c 	lui	v1,0x1f00
1d010be8:	105c828c 	lw	v0,23568(a0)
1d010bec:	24104300 	and	v0,v0,v1
1d010bf0:	fdff4010 	beqz	v0,0x1d010be8
1d010bf4:	80bf023c 	lui	v0,0xbf80
1d010bf8:	205c428c 	lw	v0,23584(v0)
1d010bfc:	1e43400b 	j	0x1d010c78
1d010c00:	80bf023c 	lui	v0,0xbf80
1d010c04:	10008210 	beq	a0,v0,0x1d010c48
1d010c08:	04000224 	li	v0,4
1d010c0c:	19008210 	beq	a0,v0,0x1d010c74
1d010c10:	02000224 	li	v0,2
1d010c14:	22008214 	bne	a0,v0,0x1d010ca0
1d010c18:	03000224 	li	v0,3
1d010c1c:	80bf023c 	lui	v0,0xbf80
1d010c20:	205a40ac 	sw	zero,23072(v0)
1d010c24:	80bf043c 	lui	a0,0xbf80
1d010c28:	001f033c 	lui	v1,0x1f00
1d010c2c:	105a828c 	lw	v0,23056(a0)
1d010c30:	24104300 	and	v0,v0,v1
1d010c34:	fdff4010 	beqz	v0,0x1d010c2c
1d010c38:	80bf023c 	lui	v0,0xbf80
1d010c3c:	205a428c 	lw	v0,23072(v0)
1d010c40:	3143400b 	j	0x1d010cc4
1d010c44:	ff004230 	andi	v0,v0,0xff
1d010c48:	80bf023c 	lui	v0,0xbf80
1d010c4c:	205840ac 	sw	zero,22560(v0)
1d010c50:	80bf043c 	lui	a0,0xbf80
1d010c54:	001f033c 	lui	v1,0x1f00
1d010c58:	1058828c 	lw	v0,22544(a0)
1d010c5c:	24104300 	and	v0,v0,v1
1d010c60:	fdff4010 	beqz	v0,0x1d010c58
1d010c64:	80bf023c 	lui	v0,0xbf80
1d010c68:	2058428c 	lw	v0,22560(v0)
1d010c6c:	3843400b 	j	0x1d010ce0
1d010c70:	ff004230 	andi	v0,v0,0xff
1d010c74:	80bf023c 	lui	v0,0xbf80
1d010c78:	205c40ac 	sw	zero,23584(v0)
1d010c7c:	80bf043c 	lui	a0,0xbf80
1d010c80:	001f033c 	lui	v1,0x1f00
1d010c84:	105c828c 	lw	v0,23568(a0)
1d010c88:	24104300 	and	v0,v0,v1
1d010c8c:	fdff4010 	beqz	v0,0x1d010c84
1d010c90:	80bf023c 	lui	v0,0xbf80
1d010c94:	205c428c 	lw	v0,23584(v0)
1d010c98:	3f43400b 	j	0x1d010cfc
1d010c9c:	ff004230 	andi	v0,v0,0xff
1d010ca0:	0f008210 	beq	a0,v0,0x1d010ce0
1d010ca4:	21100000 	move	v0,zero
1d010ca8:	04000224 	li	v0,4
1d010cac:	13008210 	beq	a0,v0,0x1d010cfc
1d010cb0:	21100000 	move	v0,zero
1d010cb4:	02000224 	li	v0,2
1d010cb8:	17008214 	bne	a0,v0,0x1d010d18
1d010cbc:	00000000 	nop
1d010cc0:	21100000 	move	v0,zero
1d010cc4:	00020324 	li	v1,512
1d010cc8:	88bf043c 	lui	a0,0xbf88
1d010ccc:	a86183ac 	sw	v1,25000(a0)
1d010cd0:	88bf043c 	lui	a0,0xbf88
1d010cd4:	846183ac 	sw	v1,24964(a0)
1d010cd8:	0800e003 	jr	ra
1d010cdc:	00000000 	nop
1d010ce0:	00020324 	li	v1,512
1d010ce4:	88bf043c 	lui	a0,0xbf88
1d010ce8:	e86083ac 	sw	v1,24808(a0)
1d010cec:	88bf043c 	lui	a0,0xbf88
1d010cf0:	c46083ac 	sw	v1,24772(a0)
1d010cf4:	0800e003 	jr	ra
1d010cf8:	00000000 	nop
1d010cfc:	00010324 	li	v1,256
1d010d00:	88bf043c 	lui	a0,0xbf88
1d010d04:	686083ac 	sw	v1,24680(a0)
1d010d08:	88bf043c 	lui	a0,0xbf88
1d010d0c:	446083ac 	sw	v1,24644(a0)
1d010d10:	0800e003 	jr	ra
1d010d14:	00000000 	nop
1d010d18:	0800e003 	jr	ra
1d010d1c:	21100000 	move	v0,zero
1d010d20:	e8ffbd27 	addiu	sp,sp,-24
1d010d24:	1400bfaf 	sw	ra,20(sp)
1d010d28:	1000b0af 	sw	s0,16(sp)
1d010d2c:	03000224 	li	v0,3
1d010d30:	0d008210 	beq	a0,v0,0x1d010d68
1d010d34:	21808000 	move	s0,a0
1d010d38:	04000224 	li	v0,4
1d010d3c:	11008210 	beq	a0,v0,0x1d010d84
1d010d40:	02000224 	li	v0,2
1d010d44:	16008214 	bne	a0,v0,0x1d010da0
1d010d48:	03000224 	li	v0,3
1d010d4c:	00020224 	li	v0,512
1d010d50:	88bf033c 	lui	v1,0xbf88
1d010d54:	a46162ac 	sw	v0,24996(v1)
1d010d58:	88bf033c 	lui	v1,0xbf88
1d010d5c:	846162ac 	sw	v0,24964(v1)
1d010d60:	6f43400b 	j	0x1d010dbc
1d010d64:	c0000324 	li	v1,192
1d010d68:	00020224 	li	v0,512
1d010d6c:	88bf033c 	lui	v1,0xbf88
1d010d70:	e46062ac 	sw	v0,24804(v1)
1d010d74:	88bf033c 	lui	v1,0xbf88
1d010d78:	c46062ac 	sw	v0,24772(v1)
1d010d7c:	7b43400b 	j	0x1d010dec
1d010d80:	c0000324 	li	v1,192
1d010d84:	00010224 	li	v0,256
1d010d88:	88bf033c 	lui	v1,0xbf88
1d010d8c:	646062ac 	sw	v0,24676(v1)
1d010d90:	88bf033c 	lui	v1,0xbf88
1d010d94:	446062ac 	sw	v0,24644(v1)
1d010d98:	8743400b 	j	0x1d010e1c
1d010d9c:	c0000324 	li	v1,192
1d010da0:	11008210 	beq	a0,v0,0x1d010de8
1d010da4:	04000224 	li	v0,4
1d010da8:	1b008210 	beq	a0,v0,0x1d010e18
1d010dac:	02000224 	li	v0,2
1d010db0:	25008214 	bne	a0,v0,0x1d010e48
1d010db4:	03000224 	li	v0,3
1d010db8:	c0000324 	li	v1,192
1d010dbc:	80bf023c 	lui	v0,0xbf80
1d010dc0:	205a43ac 	sw	v1,23072(v0)
1d010dc4:	80bf043c 	lui	a0,0xbf80
1d010dc8:	001f033c 	lui	v1,0x1f00
1d010dcc:	105a828c 	lw	v0,23056(a0)
1d010dd0:	24104300 	and	v0,v0,v1
1d010dd4:	fdff4010 	beqz	v0,0x1d010dcc
1d010dd8:	80bf023c 	lui	v0,0xbf80
1d010ddc:	205a428c 	lw	v0,23072(v0)
1d010de0:	9843400b 	j	0x1d010e60
1d010de4:	00020224 	li	v0,512
1d010de8:	c0000324 	li	v1,192
1d010dec:	80bf023c 	lui	v0,0xbf80
1d010df0:	205843ac 	sw	v1,22560(v0)
1d010df4:	80bf043c 	lui	a0,0xbf80
1d010df8:	001f033c 	lui	v1,0x1f00
1d010dfc:	1058828c 	lw	v0,22544(a0)
1d010e00:	24104300 	and	v0,v0,v1
1d010e04:	fdff4010 	beqz	v0,0x1d010dfc
1d010e08:	80bf023c 	lui	v0,0xbf80
1d010e0c:	2058428c 	lw	v0,22560(v0)
1d010e10:	9f43400b 	j	0x1d010e7c
1d010e14:	00020224 	li	v0,512
1d010e18:	c0000324 	li	v1,192
1d010e1c:	80bf023c 	lui	v0,0xbf80
1d010e20:	205c43ac 	sw	v1,23584(v0)
1d010e24:	80bf043c 	lui	a0,0xbf80
1d010e28:	001f033c 	lui	v1,0x1f00
1d010e2c:	105c828c 	lw	v0,23568(a0)
1d010e30:	24104300 	and	v0,v0,v1
1d010e34:	fdff4010 	beqz	v0,0x1d010e2c
1d010e38:	80bf023c 	lui	v0,0xbf80
1d010e3c:	205c428c 	lw	v0,23584(v0)
1d010e40:	a643400b 	j	0x1d010e98
1d010e44:	00010224 	li	v0,256
1d010e48:	0b008210 	beq	a0,v0,0x1d010e78
1d010e4c:	04000224 	li	v0,4
1d010e50:	10008210 	beq	a0,v0,0x1d010e94
1d010e54:	02000224 	li	v0,2
1d010e58:	13008214 	bne	a0,v0,0x1d010ea8
1d010e5c:	00020224 	li	v0,512
1d010e60:	88bf033c 	lui	v1,0xbf88
1d010e64:	a86162ac 	sw	v0,25000(v1)
1d010e68:	88bf033c 	lui	v1,0xbf88
1d010e6c:	846162ac 	sw	v0,24964(v1)
1d010e70:	aa43400b 	j	0x1d010ea8
1d010e74:	00000000 	nop
1d010e78:	00020224 	li	v0,512
1d010e7c:	88bf033c 	lui	v1,0xbf88
1d010e80:	e86062ac 	sw	v0,24808(v1)
1d010e84:	88bf033c 	lui	v1,0xbf88
1d010e88:	c46062ac 	sw	v0,24772(v1)
1d010e8c:	aa43400b 	j	0x1d010ea8
1d010e90:	00000000 	nop
1d010e94:	00010224 	li	v0,256
1d010e98:	88bf033c 	lui	v1,0xbf88
1d010e9c:	686062ac 	sw	v0,24680(v1)
1d010ea0:	88bf033c 	lui	v1,0xbf88
1d010ea4:	446062ac 	sw	v0,24644(v1)
1d010ea8:	bb42400f 	jal	0x1d010aec
1d010eac:	21200002 	move	a0,s0
1d010eb0:	bb42400f 	jal	0x1d010aec
1d010eb4:	21200002 	move	a0,s0
1d010eb8:	bb42400f 	jal	0x1d010aec
1d010ebc:	21200002 	move	a0,s0
1d010ec0:	1400bf8f 	lw	ra,20(sp)
1d010ec4:	1000b08f 	lw	s0,16(sp)
1d010ec8:	0800e003 	jr	ra
1d010ecc:	1800bd27 	addiu	sp,sp,24
1d010ed0:	03000224 	li	v0,3
1d010ed4:	0c008210 	beq	a0,v0,0x1d010f08
1d010ed8:	04000224 	li	v0,4
1d010edc:	11008210 	beq	a0,v0,0x1d010f24
1d010ee0:	02000224 	li	v0,2
1d010ee4:	16008214 	bne	a0,v0,0x1d010f40
1d010ee8:	03000224 	li	v0,3
1d010eec:	00020224 	li	v0,512
1d010ef0:	88bf033c 	lui	v1,0xbf88
1d010ef4:	a46162ac 	sw	v0,24996(v1)
1d010ef8:	88bf033c 	lui	v1,0xbf88
1d010efc:	846162ac 	sw	v0,24964(v1)
1d010f00:	d743400b 	j	0x1d010f5c
1d010f04:	b0000324 	li	v1,176
1d010f08:	00020224 	li	v0,512
1d010f0c:	88bf033c 	lui	v1,0xbf88
1d010f10:	e46062ac 	sw	v0,24804(v1)
1d010f14:	88bf033c 	lui	v1,0xbf88
1d010f18:	c46062ac 	sw	v0,24772(v1)
1d010f1c:	e343400b 	j	0x1d010f8c
1d010f20:	b0000324 	li	v1,176
1d010f24:	00010224 	li	v0,256
1d010f28:	88bf033c 	lui	v1,0xbf88
1d010f2c:	646062ac 	sw	v0,24676(v1)
1d010f30:	88bf033c 	lui	v1,0xbf88
1d010f34:	446062ac 	sw	v0,24644(v1)
1d010f38:	ef43400b 	j	0x1d010fbc
1d010f3c:	b0000324 	li	v1,176
1d010f40:	11008210 	beq	a0,v0,0x1d010f88
1d010f44:	04000224 	li	v0,4
1d010f48:	1b008210 	beq	a0,v0,0x1d010fb8
1d010f4c:	02000224 	li	v0,2
1d010f50:	25008214 	bne	a0,v0,0x1d010fe8
1d010f54:	03000224 	li	v0,3
1d010f58:	b0000324 	li	v1,176
1d010f5c:	80bf023c 	lui	v0,0xbf80
1d010f60:	205a43ac 	sw	v1,23072(v0)
1d010f64:	80bf043c 	lui	a0,0xbf80
1d010f68:	001f033c 	lui	v1,0x1f00
1d010f6c:	105a828c 	lw	v0,23056(a0)
1d010f70:	24104300 	and	v0,v0,v1
1d010f74:	fdff4010 	beqz	v0,0x1d010f6c
1d010f78:	80bf023c 	lui	v0,0xbf80
1d010f7c:	205a428c 	lw	v0,23072(v0)
1d010f80:	0144400b 	j	0x1d011004
1d010f84:	80bf023c 	lui	v0,0xbf80
1d010f88:	b0000324 	li	v1,176
1d010f8c:	80bf023c 	lui	v0,0xbf80
1d010f90:	205843ac 	sw	v1,22560(v0)
1d010f94:	80bf043c 	lui	a0,0xbf80
1d010f98:	001f033c 	lui	v1,0x1f00
1d010f9c:	1058828c 	lw	v0,22544(a0)
1d010fa0:	24104300 	and	v0,v0,v1
1d010fa4:	fdff4010 	beqz	v0,0x1d010f9c
1d010fa8:	80bf023c 	lui	v0,0xbf80
1d010fac:	2058428c 	lw	v0,22560(v0)
1d010fb0:	0c44400b 	j	0x1d011030
1d010fb4:	80bf023c 	lui	v0,0xbf80
1d010fb8:	b0000324 	li	v1,176
1d010fbc:	80bf023c 	lui	v0,0xbf80
1d010fc0:	205c43ac 	sw	v1,23584(v0)
1d010fc4:	80bf043c 	lui	a0,0xbf80
1d010fc8:	001f033c 	lui	v1,0x1f00
1d010fcc:	105c828c 	lw	v0,23568(a0)
1d010fd0:	24104300 	and	v0,v0,v1
1d010fd4:	fdff4010 	beqz	v0,0x1d010fcc
1d010fd8:	80bf023c 	lui	v0,0xbf80
1d010fdc:	205c428c 	lw	v0,23584(v0)
1d010fe0:	1744400b 	j	0x1d01105c
1d010fe4:	80bf023c 	lui	v0,0xbf80
1d010fe8:	10008210 	beq	a0,v0,0x1d01102c
1d010fec:	04000224 	li	v0,4
1d010ff0:	19008210 	beq	a0,v0,0x1d011058
1d010ff4:	02000224 	li	v0,2
1d010ff8:	22008214 	bne	a0,v0,0x1d011084
1d010ffc:	03000224 	li	v0,3
1d011000:	80bf023c 	lui	v0,0xbf80
1d011004:	205a40ac 	sw	zero,23072(v0)
1d011008:	80bf043c 	lui	a0,0xbf80
1d01100c:	001f033c 	lui	v1,0x1f00
1d011010:	105a828c 	lw	v0,23056(a0)
1d011014:	24104300 	and	v0,v0,v1
1d011018:	fdff4010 	beqz	v0,0x1d011010
1d01101c:	80bf023c 	lui	v0,0xbf80
1d011020:	205a428c 	lw	v0,23072(v0)
1d011024:	2a44400b 	j	0x1d0110a8
1d011028:	ff004230 	andi	v0,v0,0xff
1d01102c:	80bf023c 	lui	v0,0xbf80
1d011030:	205840ac 	sw	zero,22560(v0)
1d011034:	80bf043c 	lui	a0,0xbf80
1d011038:	001f033c 	lui	v1,0x1f00
1d01103c:	1058828c 	lw	v0,22544(a0)
1d011040:	24104300 	and	v0,v0,v1
1d011044:	fdff4010 	beqz	v0,0x1d01103c
1d011048:	80bf023c 	lui	v0,0xbf80
1d01104c:	2058428c 	lw	v0,22560(v0)
1d011050:	3144400b 	j	0x1d0110c4
1d011054:	ff004230 	andi	v0,v0,0xff
1d011058:	80bf023c 	lui	v0,0xbf80
1d01105c:	205c40ac 	sw	zero,23584(v0)
1d011060:	80bf043c 	lui	a0,0xbf80
1d011064:	001f033c 	lui	v1,0x1f00
1d011068:	105c828c 	lw	v0,23568(a0)
1d01106c:	24104300 	and	v0,v0,v1
1d011070:	fdff4010 	beqz	v0,0x1d011068
1d011074:	80bf023c 	lui	v0,0xbf80
1d011078:	205c428c 	lw	v0,23584(v0)
1d01107c:	3844400b 	j	0x1d0110e0
1d011080:	ff004230 	andi	v0,v0,0xff
1d011084:	0f008210 	beq	a0,v0,0x1d0110c4
1d011088:	21100000 	move	v0,zero
1d01108c:	04000224 	li	v0,4
1d011090:	13008210 	beq	a0,v0,0x1d0110e0
1d011094:	21100000 	move	v0,zero
1d011098:	02000224 	li	v0,2
1d01109c:	17008214 	bne	a0,v0,0x1d0110fc
1d0110a0:	00000000 	nop
1d0110a4:	21100000 	move	v0,zero
1d0110a8:	00020324 	li	v1,512
1d0110ac:	88bf043c 	lui	a0,0xbf88
1d0110b0:	a86183ac 	sw	v1,25000(a0)
1d0110b4:	88bf043c 	lui	a0,0xbf88
1d0110b8:	846183ac 	sw	v1,24964(a0)
1d0110bc:	0800e003 	jr	ra
1d0110c0:	00000000 	nop
1d0110c4:	00020324 	li	v1,512
1d0110c8:	88bf043c 	lui	a0,0xbf88
1d0110cc:	e86083ac 	sw	v1,24808(a0)
1d0110d0:	88bf043c 	lui	a0,0xbf88
1d0110d4:	c46083ac 	sw	v1,24772(a0)
1d0110d8:	0800e003 	jr	ra
1d0110dc:	00000000 	nop
1d0110e0:	00010324 	li	v1,256
1d0110e4:	88bf043c 	lui	a0,0xbf88
1d0110e8:	686083ac 	sw	v1,24680(a0)
1d0110ec:	88bf043c 	lui	a0,0xbf88
1d0110f0:	446083ac 	sw	v1,24644(a0)
1d0110f4:	0800e003 	jr	ra
1d0110f8:	00000000 	nop
1d0110fc:	0800e003 	jr	ra
1d011100:	21100000 	move	v0,zero
1d011104:	03000224 	li	v0,3
1d011108:	12008210 	beq	a0,v0,0x1d011154
1d01110c:	00020224 	li	v0,512
1d011110:	04000224 	li	v0,4
1d011114:	19008210 	beq	a0,v0,0x1d01117c
1d011118:	00010224 	li	v0,256
1d01111c:	02000224 	li	v0,2
1d011120:	20008254 	bnel	a0,v0,0x1d0111a4
1d011124:	0300a530 	andi	a1,a1,0x3
1d011128:	00020224 	li	v0,512
1d01112c:	88bf033c 	lui	v1,0xbf88
1d011130:	a46162ac 	sw	v0,24996(v1)
1d011134:	88bf033c 	lui	v1,0xbf88
1d011138:	846162ac 	sw	v0,24964(v1)
1d01113c:	0300a530 	andi	a1,a1,0x3
1d011140:	01000224 	li	v0,1
1d011144:	0410a200 	sllv	v0,v0,a1
1d011148:	7f004230 	andi	v0,v0,0x7f
1d01114c:	7444400b 	j	0x1d0111d0
1d011150:	80004234 	ori	v0,v0,0x80
1d011154:	88bf033c 	lui	v1,0xbf88
1d011158:	e46062ac 	sw	v0,24804(v1)
1d01115c:	88bf033c 	lui	v1,0xbf88
1d011160:	c46062ac 	sw	v0,24772(v1)
1d011164:	0300a530 	andi	a1,a1,0x3
1d011168:	01000224 	li	v0,1
1d01116c:	0410a200 	sllv	v0,v0,a1
1d011170:	7f004230 	andi	v0,v0,0x7f
1d011174:	7f44400b 	j	0x1d0111fc
1d011178:	80004234 	ori	v0,v0,0x80
1d01117c:	88bf033c 	lui	v1,0xbf88
1d011180:	646062ac 	sw	v0,24676(v1)
1d011184:	88bf033c 	lui	v1,0xbf88
1d011188:	446062ac 	sw	v0,24644(v1)
1d01118c:	0300a530 	andi	a1,a1,0x3
1d011190:	01000224 	li	v0,1
1d011194:	0410a200 	sllv	v0,v0,a1
1d011198:	7f004230 	andi	v0,v0,0x7f
1d01119c:	8a44400b 	j	0x1d011228
1d0111a0:	80004234 	ori	v0,v0,0x80
1d0111a4:	01000224 	li	v0,1
1d0111a8:	0410a200 	sllv	v0,v0,a1
1d0111ac:	7f004230 	andi	v0,v0,0x7f
1d0111b0:	03000324 	li	v1,3
1d0111b4:	11008310 	beq	a0,v1,0x1d0111fc
1d0111b8:	80004234 	ori	v0,v0,0x80
1d0111bc:	04000324 	li	v1,4
1d0111c0:	19008310 	beq	a0,v1,0x1d011228
1d0111c4:	02000324 	li	v1,2
1d0111c8:	22008354 	bnel	a0,v1,0x1d011254
1d0111cc:	03000224 	li	v0,3
1d0111d0:	80bf033c 	lui	v1,0xbf80
1d0111d4:	205a62ac 	sw	v0,23072(v1)
1d0111d8:	80bf043c 	lui	a0,0xbf80
1d0111dc:	001f033c 	lui	v1,0x1f00
1d0111e0:	105a828c 	lw	v0,23056(a0)
1d0111e4:	24104300 	and	v0,v0,v1
1d0111e8:	fdff4010 	beqz	v0,0x1d0111e0
1d0111ec:	80bf023c 	lui	v0,0xbf80
1d0111f0:	205a428c 	lw	v0,23072(v0)
1d0111f4:	9b44400b 	j	0x1d01126c
1d0111f8:	00020224 	li	v0,512
1d0111fc:	80bf033c 	lui	v1,0xbf80
1d011200:	205862ac 	sw	v0,22560(v1)
1d011204:	80bf043c 	lui	a0,0xbf80
1d011208:	001f033c 	lui	v1,0x1f00
1d01120c:	1058828c 	lw	v0,22544(a0)
1d011210:	24104300 	and	v0,v0,v1
1d011214:	fdff4010 	beqz	v0,0x1d01120c
1d011218:	80bf023c 	lui	v0,0xbf80
1d01121c:	2058428c 	lw	v0,22560(v0)
1d011220:	a244400b 	j	0x1d011288
1d011224:	00020224 	li	v0,512
1d011228:	80bf033c 	lui	v1,0xbf80
1d01122c:	205c62ac 	sw	v0,23584(v1)
1d011230:	80bf043c 	lui	a0,0xbf80
1d011234:	001f033c 	lui	v1,0x1f00
1d011238:	105c828c 	lw	v0,23568(a0)
1d01123c:	24104300 	and	v0,v0,v1
1d011240:	fdff4010 	beqz	v0,0x1d011238
1d011244:	80bf023c 	lui	v0,0xbf80
1d011248:	205c428c 	lw	v0,23584(v0)
1d01124c:	a944400b 	j	0x1d0112a4
1d011250:	00010224 	li	v0,256
1d011254:	0b008210 	beq	a0,v0,0x1d011284
1d011258:	04000224 	li	v0,4
1d01125c:	10008210 	beq	a0,v0,0x1d0112a0
1d011260:	02000224 	li	v0,2
1d011264:	05008214 	bne	a0,v0,0x1d01127c
1d011268:	00020224 	li	v0,512
1d01126c:	88bf033c 	lui	v1,0xbf88
1d011270:	a86162ac 	sw	v0,25000(v1)
1d011274:	88bf033c 	lui	v1,0xbf88
1d011278:	846162ac 	sw	v0,24964(v1)
1d01127c:	0800e003 	jr	ra
1d011280:	00000000 	nop
1d011284:	00020224 	li	v0,512
1d011288:	88bf033c 	lui	v1,0xbf88
1d01128c:	e86062ac 	sw	v0,24808(v1)
1d011290:	88bf033c 	lui	v1,0xbf88
1d011294:	c46062ac 	sw	v0,24772(v1)
1d011298:	0800e003 	jr	ra
1d01129c:	00000000 	nop
1d0112a0:	00010224 	li	v0,256
1d0112a4:	88bf033c 	lui	v1,0xbf88
1d0112a8:	686062ac 	sw	v0,24680(v1)
1d0112ac:	88bf033c 	lui	v1,0xbf88
1d0112b0:	446062ac 	sw	v0,24644(v1)
1d0112b4:	0800e003 	jr	ra
1d0112b8:	00000000 	nop
1d0112bc:	03000224 	li	v0,3
1d0112c0:	15008210 	beq	a0,v0,0x1d011318
1d0112c4:	f8ffbd27 	addiu	sp,sp,-8
1d0112c8:	04000224 	li	v0,4
1d0112cc:	1d008210 	beq	a0,v0,0x1d011344
1d0112d0:	02000224 	li	v0,2
1d0112d4:	26008214 	bne	a0,v0,0x1d011370
1d0112d8:	05000224 	li	v0,5
1d0112dc:	00020224 	li	v0,512
1d0112e0:	88bf033c 	lui	v1,0xbf88
1d0112e4:	a46162ac 	sw	v0,24996(v1)
1d0112e8:	88bf033c 	lui	v1,0xbf88
1d0112ec:	846162ac 	sw	v0,24964(v1)
1d0112f0:	05000224 	li	v0,5
1d0112f4:	0000a2a3 	sb	v0,0(sp)
1d0112f8:	0100a5a3 	sb	a1,1(sp)
1d0112fc:	0200a6a3 	sb	a2,2(sp)
1d011300:	0300a7a3 	sb	a3,3(sp)
1d011304:	80bf063c 	lui	a2,0xbf80
1d011308:	105ac624 	addiu	a2,a2,23056
1d01130c:	80bf053c 	lui	a1,0xbf80
1d011310:	f644400b 	j	0x1d0113d8
1d011314:	205aa524 	addiu	a1,a1,23072
1d011318:	00020224 	li	v0,512
1d01131c:	88bf033c 	lui	v1,0xbf88
1d011320:	e46062ac 	sw	v0,24804(v1)
1d011324:	88bf033c 	lui	v1,0xbf88
1d011328:	c46062ac 	sw	v0,24772(v1)
1d01132c:	05000224 	li	v0,5
1d011330:	0000a2a3 	sb	v0,0(sp)
1d011334:	0100a5a3 	sb	a1,1(sp)
1d011338:	0200a6a3 	sb	a2,2(sp)
1d01133c:	e944400b 	j	0x1d0113a4
1d011340:	0300a7a3 	sb	a3,3(sp)
1d011344:	00010224 	li	v0,256
1d011348:	88bf033c 	lui	v1,0xbf88
1d01134c:	646062ac 	sw	v0,24676(v1)
1d011350:	88bf033c 	lui	v1,0xbf88
1d011354:	446062ac 	sw	v0,24644(v1)
1d011358:	05000224 	li	v0,5
1d01135c:	0000a2a3 	sb	v0,0(sp)
1d011360:	0100a5a3 	sb	a1,1(sp)
1d011364:	0200a6a3 	sb	a2,2(sp)
1d011368:	ee44400b 	j	0x1d0113b8
1d01136c:	0300a7a3 	sb	a3,3(sp)
1d011370:	0000a2a3 	sb	v0,0(sp)
1d011374:	0100a5a3 	sb	a1,1(sp)
1d011378:	0200a6a3 	sb	a2,2(sp)
1d01137c:	03000224 	li	v0,3
1d011380:	08008210 	beq	a0,v0,0x1d0113a4
1d011384:	0300a7a3 	sb	a3,3(sp)
1d011388:	04000224 	li	v0,4
1d01138c:	0a008210 	beq	a0,v0,0x1d0113b8
1d011390:	02000224 	li	v0,2
1d011394:	23008214 	bne	a0,v0,0x1d011424
1d011398:	03000224 	li	v0,3
1d01139c:	f344400b 	j	0x1d0113cc
1d0113a0:	80bf063c 	lui	a2,0xbf80
1d0113a4:	80bf063c 	lui	a2,0xbf80
1d0113a8:	1058c624 	addiu	a2,a2,22544
1d0113ac:	80bf053c 	lui	a1,0xbf80
1d0113b0:	f644400b 	j	0x1d0113d8
1d0113b4:	2058a524 	addiu	a1,a1,22560
1d0113b8:	80bf063c 	lui	a2,0xbf80
1d0113bc:	105cc624 	addiu	a2,a2,23568
1d0113c0:	80bf053c 	lui	a1,0xbf80
1d0113c4:	f644400b 	j	0x1d0113d8
1d0113c8:	205ca524 	addiu	a1,a1,23584
1d0113cc:	105ac624 	addiu	a2,a2,23056
1d0113d0:	80bf053c 	lui	a1,0xbf80
1d0113d4:	205aa524 	addiu	a1,a1,23072
1d0113d8:	2110a003 	move	v0,sp
1d0113dc:	0400a727 	addiu	a3,sp,4
1d0113e0:	01004224 	addiu	v0,v0,1
1d0113e4:	ffff4390 	lbu	v1,-1(v0)
1d0113e8:	0000a3ac 	sw	v1,0(a1)
1d0113ec:	fdff4714 	bne	v0,a3,0x1d0113e4
1d0113f0:	01004224 	addiu	v0,v0,1
1d0113f4:	001f073c 	lui	a3,0x1f00
1d0113f8:	0004033c 	lui	v1,0x400
1d0113fc:	0000c28c 	lw	v0,0(a2)
1d011400:	24104700 	and	v0,v0,a3
1d011404:	2b104300 	sltu	v0,v0,v1
1d011408:	fcff4014 	bnez	v0,0x1d0113fc
1d01140c:	00000000 	nop
1d011410:	0000a28c 	lw	v0,0(a1)
1d011414:	0000a28c 	lw	v0,0(a1)
1d011418:	0000a28c 	lw	v0,0(a1)
1d01141c:	0000a28c 	lw	v0,0(a1)
1d011420:	03000224 	li	v0,3
1d011424:	0c008210 	beq	a0,v0,0x1d011458
1d011428:	04000224 	li	v0,4
1d01142c:	11008210 	beq	a0,v0,0x1d011474
1d011430:	02000224 	li	v0,2
1d011434:	15008254 	bnel	a0,v0,0x1d01148c
1d011438:	0800bd27 	addiu	sp,sp,8
1d01143c:	00020224 	li	v0,512
1d011440:	88bf033c 	lui	v1,0xbf88
1d011444:	a86162ac 	sw	v0,25000(v1)
1d011448:	88bf033c 	lui	v1,0xbf88
1d01144c:	846162ac 	sw	v0,24964(v1)
1d011450:	2345400b 	j	0x1d01148c
1d011454:	0800bd27 	addiu	sp,sp,8
1d011458:	00020224 	li	v0,512
1d01145c:	88bf033c 	lui	v1,0xbf88
1d011460:	e86062ac 	sw	v0,24808(v1)
1d011464:	88bf033c 	lui	v1,0xbf88
1d011468:	c46062ac 	sw	v0,24772(v1)
1d01146c:	2345400b 	j	0x1d01148c
1d011470:	0800bd27 	addiu	sp,sp,8
1d011474:	00010224 	li	v0,256
1d011478:	88bf033c 	lui	v1,0xbf88
1d01147c:	686062ac 	sw	v0,24680(v1)
1d011480:	88bf033c 	lui	v1,0xbf88
1d011484:	446062ac 	sw	v0,24644(v1)
1d011488:	0800bd27 	addiu	sp,sp,8
1d01148c:	0800e003 	jr	ra
1d011490:	00000000 	nop
1d011494:	f8ffbd27 	addiu	sp,sp,-8
1d011498:	1c00a893 	lbu	t0,28(sp)
1d01149c:	21500001 	move	t2,t0
1d0114a0:	0900082d 	sltiu	t0,t0,9
1d0114a4:	02000015 	bnez	t0,0x1d0114b0
1d0114a8:	1800a38f 	lw	v1,24(sp)
1d0114ac:	08000a24 	li	t2,8
1d0114b0:	03000224 	li	v0,3
1d0114b4:	0d008210 	beq	a0,v0,0x1d0114ec
1d0114b8:	ff004a31 	andi	t2,t2,0xff
1d0114bc:	04000224 	li	v0,4
1d0114c0:	11008210 	beq	a0,v0,0x1d011508
1d0114c4:	02000224 	li	v0,2
1d0114c8:	15008254 	bnel	a0,v0,0x1d011520
1d0114cc:	0300a530 	andi	a1,a1,0x3
1d0114d0:	00020224 	li	v0,512
1d0114d4:	88bf083c 	lui	t0,0xbf88
1d0114d8:	a46102ad 	sw	v0,24996(t0)
1d0114dc:	88bf083c 	lui	t0,0xbf88
1d0114e0:	846102ad 	sw	v0,24964(t0)
1d0114e4:	4845400b 	j	0x1d011520
1d0114e8:	0300a530 	andi	a1,a1,0x3
1d0114ec:	00020224 	li	v0,512
1d0114f0:	88bf083c 	lui	t0,0xbf88
1d0114f4:	e46002ad 	sw	v0,24804(t0)
1d0114f8:	88bf083c 	lui	t0,0xbf88
1d0114fc:	c46002ad 	sw	v0,24772(t0)
1d011500:	4845400b 	j	0x1d011520
1d011504:	0300a530 	andi	a1,a1,0x3
1d011508:	00010224 	li	v0,256
1d01150c:	88bf083c 	lui	t0,0xbf88
1d011510:	646002ad 	sw	v0,24676(t0)
1d011514:	88bf083c 	lui	t0,0xbf88
1d011518:	446002ad 	sw	v0,24644(t0)
1d01151c:	0300a530 	andi	a1,a1,0x3
1d011520:	40280500 	sll	a1,a1,0x1
1d011524:	4000a534 	ori	a1,a1,0x40
1d011528:	0d00e010 	beqz	a3,0x1d011560
1d01152c:	0000a5a3 	sb	a1,0(sp)
1d011530:	42150600 	srl	v0,a2,0x15
1d011534:	0100a2a3 	sb	v0,1(sp)
1d011538:	422b0600 	srl	a1,a2,0xd
1d01153c:	0420057c 	ins	a1,zero,0x0,0x5
1d011540:	000cc27c 	ext	v0,a2,0x10,0x2
1d011544:	2510a200 	or	v0,a1,v0
1d011548:	08004234 	ori	v0,v0,0x8
1d01154c:	0200a2a3 	sb	v0,2(sp)
1d011550:	02120600 	srl	v0,a2,0x8
1d011554:	0300a2a3 	sb	v0,3(sp)
1d011558:	5e45400b 	j	0x1d011578
1d01155c:	0400a6a3 	sb	a2,4(sp)
1d011560:	c2100600 	srl	v0,a2,0x3
1d011564:	0100a2a3 	sb	v0,1(sp)
1d011568:	40310600 	sll	a2,a2,0x5
1d01156c:	0200a6a3 	sb	a2,2(sp)
1d011570:	0300a0a3 	sb	zero,3(sp)
1d011574:	0400a0a3 	sb	zero,4(sp)
1d011578:	03000224 	li	v0,3
1d01157c:	10008210 	beq	a0,v0,0x1d0115c0
1d011580:	0500aaa3 	sb	t2,5(sp)
1d011584:	04000224 	li	v0,4
1d011588:	08008210 	beq	a0,v0,0x1d0115ac
1d01158c:	02000224 	li	v0,2
1d011590:	24008214 	bne	a0,v0,0x1d011624
1d011594:	03000224 	li	v0,3
1d011598:	80bf073c 	lui	a3,0xbf80
1d01159c:	105ae724 	addiu	a3,a3,23056
1d0115a0:	80bf063c 	lui	a2,0xbf80
1d0115a4:	7445400b 	j	0x1d0115d0
1d0115a8:	205ac624 	addiu	a2,a2,23072
1d0115ac:	80bf073c 	lui	a3,0xbf80
1d0115b0:	105ce724 	addiu	a3,a3,23568
1d0115b4:	80bf063c 	lui	a2,0xbf80
1d0115b8:	7445400b 	j	0x1d0115d0
1d0115bc:	205cc624 	addiu	a2,a2,23584
1d0115c0:	80bf073c 	lui	a3,0xbf80
1d0115c4:	1058e724 	addiu	a3,a3,22544
1d0115c8:	80bf063c 	lui	a2,0xbf80
1d0115cc:	2058c624 	addiu	a2,a2,22560
1d0115d0:	2110a003 	move	v0,sp
1d0115d4:	0600a827 	addiu	t0,sp,6
1d0115d8:	01004224 	addiu	v0,v0,1
1d0115dc:	ffff4590 	lbu	a1,-1(v0)
1d0115e0:	0000c5ac 	sw	a1,0(a2)
1d0115e4:	fdff4854 	bnel	v0,t0,0x1d0115dc
1d0115e8:	01004224 	addiu	v0,v0,1
1d0115ec:	001f093c 	lui	t1,0x1f00
1d0115f0:	0006083c 	lui	t0,0x600
1d0115f4:	0000e58c 	lw	a1,0(a3)
1d0115f8:	2428a900 	and	a1,a1,t1
1d0115fc:	2b28a800 	sltu	a1,a1,t0
1d011600:	fcffa014 	bnez	a1,0x1d0115f4
1d011604:	00000000 	nop
1d011608:	0000c28c 	lw	v0,0(a2)
1d01160c:	0000c28c 	lw	v0,0(a2)
1d011610:	0000c28c 	lw	v0,0(a2)
1d011614:	0000c28c 	lw	v0,0(a2)
1d011618:	0000c28c 	lw	v0,0(a2)
1d01161c:	0000c28c 	lw	v0,0(a2)
1d011620:	03000224 	li	v0,3
1d011624:	10008210 	beq	a0,v0,0x1d011668
1d011628:	21484001 	move	t1,t2
1d01162c:	04000224 	li	v0,4
1d011630:	08008210 	beq	a0,v0,0x1d011654
1d011634:	02000224 	li	v0,2
1d011638:	31008214 	bne	a0,v0,0x1d011700
1d01163c:	03000224 	li	v0,3
1d011640:	80bf083c 	lui	t0,0xbf80
1d011644:	105a0825 	addiu	t0,t0,23056
1d011648:	80bf053c 	lui	a1,0xbf80
1d01164c:	9e45400b 	j	0x1d011678
1d011650:	205aa524 	addiu	a1,a1,23072
1d011654:	80bf083c 	lui	t0,0xbf80
1d011658:	105c0825 	addiu	t0,t0,23568
1d01165c:	80bf053c 	lui	a1,0xbf80
1d011660:	9e45400b 	j	0x1d011678
1d011664:	205ca524 	addiu	a1,a1,23584
1d011668:	80bf083c 	lui	t0,0xbf80
1d01166c:	10580825 	addiu	t0,t0,22544
1d011670:	80bf053c 	lui	a1,0xbf80
1d011674:	2058a524 	addiu	a1,a1,22560
1d011678:	05006014 	bnez	v1,0x1d011690
1d01167c:	ffff4225 	addiu	v0,t2,-1
1d011680:	0c002015 	bnez	t1,0x1d0116b4
1d011684:	ffff0324 	li	v1,-1
1d011688:	b245400b 	j	0x1d0116c8
1d01168c:	003e0a00 	sll	a3,t2,0x18
1d011690:	0c002011 	beqz	t1,0x1d0116c4
1d011694:	21386a00 	addu	a3,v1,t2
1d011698:	01006324 	addiu	v1,v1,1
1d01169c:	ffff6690 	lbu	a2,-1(v1)
1d0116a0:	0000a6ac 	sw	a2,0(a1)
1d0116a4:	fdff6714 	bne	v1,a3,0x1d01169c
1d0116a8:	01006324 	addiu	v1,v1,1
1d0116ac:	b245400b 	j	0x1d0116c8
1d0116b0:	003e0a00 	sll	a3,t2,0x18
1d0116b4:	0000a0ac 	sw	zero,0(a1)
1d0116b8:	ffff4224 	addiu	v0,v0,-1
1d0116bc:	fdff4314 	bne	v0,v1,0x1d0116b4
1d0116c0:	00000000 	nop
1d0116c4:	003e0a00 	sll	a3,t2,0x18
1d0116c8:	001f063c 	lui	a2,0x1f00
1d0116cc:	0000038d 	lw	v1,0(t0)
1d0116d0:	24186600 	and	v1,v1,a2
1d0116d4:	2b186700 	sltu	v1,v1,a3
1d0116d8:	fcff6014 	bnez	v1,0x1d0116cc
1d0116dc:	00000000 	nop
1d0116e0:	06002011 	beqz	t1,0x1d0116fc
1d0116e4:	ffff4225 	addiu	v0,t2,-1
1d0116e8:	ffff0324 	li	v1,-1
1d0116ec:	0000a68c 	lw	a2,0(a1)
1d0116f0:	ffff4224 	addiu	v0,v0,-1
1d0116f4:	fdff4314 	bne	v0,v1,0x1d0116ec
1d0116f8:	00000000 	nop
1d0116fc:	03000224 	li	v0,3
1d011700:	0c008210 	beq	a0,v0,0x1d011734
1d011704:	04000224 	li	v0,4
1d011708:	11008210 	beq	a0,v0,0x1d011750
1d01170c:	02000224 	li	v0,2
1d011710:	15008254 	bnel	a0,v0,0x1d011768
1d011714:	0800bd27 	addiu	sp,sp,8
1d011718:	00020224 	li	v0,512
1d01171c:	88bf033c 	lui	v1,0xbf88
1d011720:	a86162ac 	sw	v0,25000(v1)
1d011724:	88bf033c 	lui	v1,0xbf88
1d011728:	846162ac 	sw	v0,24964(v1)
1d01172c:	da45400b 	j	0x1d011768
1d011730:	0800bd27 	addiu	sp,sp,8
1d011734:	00020224 	li	v0,512
1d011738:	88bf033c 	lui	v1,0xbf88
1d01173c:	e86062ac 	sw	v0,24808(v1)
1d011740:	88bf033c 	lui	v1,0xbf88
1d011744:	c46062ac 	sw	v0,24772(v1)
1d011748:	da45400b 	j	0x1d011768
1d01174c:	0800bd27 	addiu	sp,sp,8
1d011750:	00010224 	li	v0,256
1d011754:	88bf033c 	lui	v1,0xbf88
1d011758:	686062ac 	sw	v0,24680(v1)
1d01175c:	88bf033c 	lui	v1,0xbf88
1d011760:	446062ac 	sw	v0,24644(v1)
1d011764:	0800bd27 	addiu	sp,sp,8
1d011768:	0800e003 	jr	ra
1d01176c:	00000000 	nop
1d011770:	f8ffbd27 	addiu	sp,sp,-8
1d011774:	1800a38f 	lw	v1,24(sp)
1d011778:	03000224 	li	v0,3
1d01177c:	10008210 	beq	a0,v0,0x1d0117c0
1d011780:	1c00ab8f 	lw	t3,28(sp)
1d011784:	04000224 	li	v0,4
1d011788:	16008210 	beq	a0,v0,0x1d0117e4
1d01178c:	00010224 	li	v0,256
1d011790:	02000224 	li	v0,2
1d011794:	1b008254 	bnel	a0,v0,0x1d011804
1d011798:	0100a230 	andi	v0,a1,0x1
1d01179c:	00020224 	li	v0,512
1d0117a0:	88bf083c 	lui	t0,0xbf88
1d0117a4:	a46102ad 	sw	v0,24996(t0)
1d0117a8:	88bf083c 	lui	t0,0xbf88
1d0117ac:	846102ad 	sw	v0,24964(t0)
1d0117b0:	0100a230 	andi	v0,a1,0x1
1d0117b4:	80100200 	sll	v0,v0,0x2
1d0117b8:	0a46400b 	j	0x1d011828
1d0117bc:	90004234 	ori	v0,v0,0x90
1d0117c0:	00020224 	li	v0,512
1d0117c4:	88bf083c 	lui	t0,0xbf88
1d0117c8:	e46002ad 	sw	v0,24804(t0)
1d0117cc:	88bf083c 	lui	t0,0xbf88
1d0117d0:	c46002ad 	sw	v0,24772(t0)
1d0117d4:	0100a230 	andi	v0,a1,0x1
1d0117d8:	80100200 	sll	v0,v0,0x2
1d0117dc:	1846400b 	j	0x1d011860
1d0117e0:	90004234 	ori	v0,v0,0x90
1d0117e4:	88bf083c 	lui	t0,0xbf88
1d0117e8:	646002ad 	sw	v0,24676(t0)
1d0117ec:	88bf083c 	lui	t0,0xbf88
1d0117f0:	446002ad 	sw	v0,24644(t0)
1d0117f4:	0100a230 	andi	v0,a1,0x1
1d0117f8:	80100200 	sll	v0,v0,0x2
1d0117fc:	2346400b 	j	0x1d01188c
1d011800:	90004234 	ori	v0,v0,0x90
1d011804:	80100200 	sll	v0,v0,0x2
1d011808:	03000524 	li	a1,3
1d01180c:	14008510 	beq	a0,a1,0x1d011860
1d011810:	90004234 	ori	v0,v0,0x90
1d011814:	04000524 	li	a1,4
1d011818:	1c008510 	beq	a0,a1,0x1d01188c
1d01181c:	02000524 	li	a1,2
1d011820:	25008554 	bnel	a0,a1,0x1d0118b8
1d011824:	03000224 	li	v0,3
1d011828:	80bf053c 	lui	a1,0xbf80
1d01182c:	205aa2ac 	sw	v0,23072(a1)
1d011830:	80bf083c 	lui	t0,0xbf80
1d011834:	001f053c 	lui	a1,0x1f00
1d011838:	105a028d 	lw	v0,23056(t0)
1d01183c:	24104500 	and	v0,v0,a1
1d011840:	fdff4010 	beqz	v0,0x1d011838
1d011844:	00000000 	nop
1d011848:	80bf083c 	lui	t0,0xbf80
1d01184c:	205a028d 	lw	v0,23072(t0)
1d011850:	80bf053c 	lui	a1,0xbf80
1d011854:	105aa524 	addiu	a1,a1,23056
1d011858:	4246400b 	j	0x1d011908
1d01185c:	205a0825 	addiu	t0,t0,23072
1d011860:	80bf053c 	lui	a1,0xbf80
1d011864:	2058a2ac 	sw	v0,22560(a1)
1d011868:	80bf083c 	lui	t0,0xbf80
1d01186c:	001f053c 	lui	a1,0x1f00
1d011870:	1058028d 	lw	v0,22544(t0)
1d011874:	24104500 	and	v0,v0,a1
1d011878:	fdff4010 	beqz	v0,0x1d011870
1d01187c:	80bf023c 	lui	v0,0xbf80
1d011880:	2058428c 	lw	v0,22560(v0)
1d011884:	3746400b 	j	0x1d0118dc
1d011888:	80bf053c 	lui	a1,0xbf80
1d01188c:	80bf053c 	lui	a1,0xbf80
1d011890:	205ca2ac 	sw	v0,23584(a1)
1d011894:	80bf083c 	lui	t0,0xbf80
1d011898:	001f053c 	lui	a1,0x1f00
1d01189c:	105c028d 	lw	v0,23568(t0)
1d0118a0:	24104500 	and	v0,v0,a1
1d0118a4:	fdff4010 	beqz	v0,0x1d01189c
1d0118a8:	80bf023c 	lui	v0,0xbf80
1d0118ac:	205c428c 	lw	v0,23584(v0)
1d0118b0:	3c46400b 	j	0x1d0118f0
1d0118b4:	80bf053c 	lui	a1,0xbf80
1d0118b8:	07008210 	beq	a0,v0,0x1d0118d8
1d0118bc:	04000224 	li	v0,4
1d0118c0:	0a008210 	beq	a0,v0,0x1d0118ec
1d0118c4:	02000224 	li	v0,2
1d0118c8:	20008214 	bne	a0,v0,0x1d01194c
1d0118cc:	80bf053c 	lui	a1,0xbf80
1d0118d0:	4046400b 	j	0x1d011900
1d0118d4:	105aa524 	addiu	a1,a1,23056
1d0118d8:	80bf053c 	lui	a1,0xbf80
1d0118dc:	1058a524 	addiu	a1,a1,22544
1d0118e0:	80bf083c 	lui	t0,0xbf80
1d0118e4:	4246400b 	j	0x1d011908
1d0118e8:	20580825 	addiu	t0,t0,22560
1d0118ec:	80bf053c 	lui	a1,0xbf80
1d0118f0:	105ca524 	addiu	a1,a1,23568
1d0118f4:	80bf083c 	lui	t0,0xbf80
1d0118f8:	4246400b 	j	0x1d011908
1d0118fc:	205c0825 	addiu	t0,t0,23584
1d011900:	80bf083c 	lui	t0,0xbf80
1d011904:	205a0825 	addiu	t0,t0,23072
1d011908:	000000ad 	sw	zero,0(t0)
1d01190c:	000000ad 	sw	zero,0(t0)
1d011910:	000000ad 	sw	zero,0(t0)
1d011914:	000000ad 	sw	zero,0(t0)
1d011918:	000000ad 	sw	zero,0(t0)
1d01191c:	001f0a3c 	lui	t2,0x1f00
1d011920:	0005093c 	lui	t1,0x500
1d011924:	0000a28c 	lw	v0,0(a1)
1d011928:	24104a00 	and	v0,v0,t2
1d01192c:	2b104900 	sltu	v0,v0,t1
1d011930:	fcff4014 	bnez	v0,0x1d011924
1d011934:	2110a003 	move	v0,sp
1d011938:	0500a927 	addiu	t1,sp,5
1d01193c:	01004224 	addiu	v0,v0,1
1d011940:	0000058d 	lw	a1,0(t0)
1d011944:	fdff4914 	bne	v0,t1,0x1d01193c
1d011948:	ffff45a0 	sb	a1,-1(v0)
1d01194c:	1e00c050 	beqzl	a2,0x1d0119c8
1d011950:	0400a693 	lbu	a2,4(sp)
1d011954:	0100a293 	lbu	v0,1(sp)
1d011958:	08004530 	andi	a1,v0,0x8
1d01195c:	ff00a530 	andi	a1,a1,0xff
1d011960:	1100a010 	beqz	a1,0x1d0119a8
1d011964:	0200a893 	lbu	t0,2(sp)
1d011968:	00420800 	sll	t0,t0,0x8
1d01196c:	0000a593 	lbu	a1,0(sp)
1d011970:	402d0500 	sll	a1,a1,0x15
1d011974:	25400501 	or	t0,t0,a1
1d011978:	0300a593 	lbu	a1,3(sp)
1d01197c:	25400501 	or	t0,t0,a1
1d011980:	03004530 	andi	a1,v0,0x3
1d011984:	002c0500 	sll	a1,a1,0x10
1d011988:	25280501 	or	a1,t0,a1
1d01198c:	e0004230 	andi	v0,v0,0xe0
1d011990:	40130200 	sll	v0,v0,0xd
1d011994:	0a00e010 	beqz	a3,0x1d0119c0
1d011998:	2510a200 	or	v0,a1,v0
1d01199c:	01000524 	li	a1,1
1d0119a0:	7046400b 	j	0x1d0119c0
1d0119a4:	0000e5a0 	sb	a1,0(a3)
1d0119a8:	0100e054 	bnezl	a3,0x1d0119b0
1d0119ac:	0000e0a0 	sb	zero,0(a3)
1d0119b0:	42110200 	srl	v0,v0,0x5
1d0119b4:	0000a593 	lbu	a1,0(sp)
1d0119b8:	c0280500 	sll	a1,a1,0x3
1d0119bc:	25104500 	or	v0,v0,a1
1d0119c0:	0000c2ac 	sw	v0,0(a2)
1d0119c4:	0400a693 	lbu	a2,4(sp)
1d0119c8:	0f00c630 	andi	a2,a2,0xf
1d0119cc:	0900c528 	slti	a1,a2,9
1d0119d0:	08000224 	li	v0,8
1d0119d4:	0a304500 	movz	a2,v0,a1
1d0119d8:	02006011 	beqz	t3,0x1d0119e4
1d0119dc:	ff00c230 	andi	v0,a2,0xff
1d0119e0:	000062a1 	sb	v0,0(t3)
1d0119e4:	03000224 	li	v0,3
1d0119e8:	10008210 	beq	a0,v0,0x1d011a2c
1d0119ec:	ff00ca30 	andi	t2,a2,0xff
1d0119f0:	04000224 	li	v0,4
1d0119f4:	08008210 	beq	a0,v0,0x1d011a18
1d0119f8:	02000224 	li	v0,2
1d0119fc:	31008214 	bne	a0,v0,0x1d011ac4
1d011a00:	03000224 	li	v0,3
1d011a04:	80bf083c 	lui	t0,0xbf80
1d011a08:	105a0825 	addiu	t0,t0,23056
1d011a0c:	80bf053c 	lui	a1,0xbf80
1d011a10:	8f46400b 	j	0x1d011a3c
1d011a14:	205aa524 	addiu	a1,a1,23072
1d011a18:	80bf083c 	lui	t0,0xbf80
1d011a1c:	105c0825 	addiu	t0,t0,23568
1d011a20:	80bf053c 	lui	a1,0xbf80
1d011a24:	8f46400b 	j	0x1d011a3c
1d011a28:	205ca524 	addiu	a1,a1,23584
1d011a2c:	80bf083c 	lui	t0,0xbf80
1d011a30:	10580825 	addiu	t0,t0,22544
1d011a34:	80bf053c 	lui	a1,0xbf80
1d011a38:	2058a524 	addiu	a1,a1,22560
1d011a3c:	07004011 	beqz	t2,0x1d011a5c
1d011a40:	ffff4925 	addiu	t1,t2,-1
1d011a44:	21102001 	move	v0,t1
1d011a48:	ffff0624 	li	a2,-1
1d011a4c:	0000a0ac 	sw	zero,0(a1)
1d011a50:	ffff4224 	addiu	v0,v0,-1
1d011a54:	fdff4614 	bne	v0,a2,0x1d011a4c
1d011a58:	00000000 	nop
1d011a5c:	003e0a00 	sll	a3,t2,0x18
1d011a60:	001f063c 	lui	a2,0x1f00
1d011a64:	0000028d 	lw	v0,0(t0)
1d011a68:	24104600 	and	v0,v0,a2
1d011a6c:	2b104700 	sltu	v0,v0,a3
1d011a70:	fcff4014 	bnez	v0,0x1d011a64
1d011a74:	00000000 	nop
1d011a78:	05006014 	bnez	v1,0x1d011a90
1d011a7c:	00000000 	nop
1d011a80:	0b004015 	bnez	t2,0x1d011ab0
1d011a84:	ffff0224 	li	v0,-1
1d011a88:	b146400b 	j	0x1d011ac4
1d011a8c:	03000224 	li	v0,3
1d011a90:	0b004011 	beqz	t2,0x1d011ac0
1d011a94:	21306a00 	addu	a2,v1,t2
1d011a98:	01006324 	addiu	v1,v1,1
1d011a9c:	0000a28c 	lw	v0,0(a1)
1d011aa0:	fdff6614 	bne	v1,a2,0x1d011a98
1d011aa4:	ffff62a0 	sb	v0,-1(v1)
1d011aa8:	b146400b 	j	0x1d011ac4
1d011aac:	03000224 	li	v0,3
1d011ab0:	0000a38c 	lw	v1,0(a1)
1d011ab4:	ffff2925 	addiu	t1,t1,-1
1d011ab8:	fdff2215 	bne	t1,v0,0x1d011ab0
1d011abc:	00000000 	nop
1d011ac0:	03000224 	li	v0,3
1d011ac4:	0c008210 	beq	a0,v0,0x1d011af8
1d011ac8:	04000224 	li	v0,4
1d011acc:	11008210 	beq	a0,v0,0x1d011b14
1d011ad0:	02000224 	li	v0,2
1d011ad4:	15008254 	bnel	a0,v0,0x1d011b2c
1d011ad8:	0800bd27 	addiu	sp,sp,8
1d011adc:	00020224 	li	v0,512
1d011ae0:	88bf033c 	lui	v1,0xbf88
1d011ae4:	a86162ac 	sw	v0,25000(v1)
1d011ae8:	88bf033c 	lui	v1,0xbf88
1d011aec:	846162ac 	sw	v0,24964(v1)
1d011af0:	cb46400b 	j	0x1d011b2c
1d011af4:	0800bd27 	addiu	sp,sp,8
1d011af8:	00020224 	li	v0,512
1d011afc:	88bf033c 	lui	v1,0xbf88
1d011b00:	e86062ac 	sw	v0,24808(v1)
1d011b04:	88bf033c 	lui	v1,0xbf88
1d011b08:	c46062ac 	sw	v0,24772(v1)
1d011b0c:	cb46400b 	j	0x1d011b2c
1d011b10:	0800bd27 	addiu	sp,sp,8
1d011b14:	00010224 	li	v0,256
1d011b18:	88bf033c 	lui	v1,0xbf88
1d011b1c:	686062ac 	sw	v0,24680(v1)
1d011b20:	88bf033c 	lui	v1,0xbf88
1d011b24:	446062ac 	sw	v0,24644(v1)
1d011b28:	0800bd27 	addiu	sp,sp,8
1d011b2c:	0800e003 	jr	ra
1d011b30:	00000000 	nop
1d011b34:	e0ffbd27 	addiu	sp,sp,-32
1d011b38:	1c00bfaf 	sw	ra,28(sp)
1d011b3c:	1000a0a3 	sb	zero,16(sp)
1d011b40:	0e000524 	li	a1,14
1d011b44:	1000a627 	addiu	a2,sp,16
1d011b48:	7d41400f 	jal	0x1d0105f4
1d011b4c:	01000724 	li	a3,1
1d011b50:	1000a293 	lbu	v0,16(sp)
1d011b54:	42110200 	srl	v0,v0,0x5
1d011b58:	1c00bf8f 	lw	ra,28(sp)
1d011b5c:	0800e003 	jr	ra
1d011b60:	2000bd27 	addiu	sp,sp,32
1d011b64:	e0ffbd27 	addiu	sp,sp,-32
1d011b68:	1c00bfaf 	sw	ra,28(sp)
1d011b6c:	1800b1af 	sw	s1,24(sp)
1d011b70:	1400b0af 	sw	s0,20(sp)
1d011b74:	21888000 	move	s1,a0
1d011b78:	2180a000 	move	s0,a1
1d011b7c:	40390500 	sll	a3,a1,0x5
1d011b80:	0f000524 	li	a1,15
1d011b84:	e0000624 	li	a2,224
1d011b88:	af44400f 	jal	0x1d0112bc
1d011b8c:	e000e730 	andi	a3,a3,0xe0
1d011b90:	bb42400f 	jal	0x1d010aec
1d011b94:	21202002 	move	a0,s1
1d011b98:	cd46400f 	jal	0x1d011b34
1d011b9c:	21202002 	move	a0,s1
1d011ba0:	26105000 	xor	v0,v0,s0
1d011ba4:	0100422c 	sltiu	v0,v0,1
1d011ba8:	1c00bf8f 	lw	ra,28(sp)
1d011bac:	1800b18f 	lw	s1,24(sp)
1d011bb0:	1400b08f 	lw	s0,20(sp)
1d011bb4:	0800e003 	jr	ra
1d011bb8:	2000bd27 	addiu	sp,sp,32
1d011bbc:	e0ffbd27 	addiu	sp,sp,-32
1d011bc0:	2110a000 	move	v0,a1
1d011bc4:	0600a52c 	sltiu	a1,a1,6
1d011bc8:	0200a014 	bnez	a1,0x1d011bd4
1d011bcc:	1c00bfaf 	sw	ra,28(sp)
1d011bd0:	05000224 	li	v0,5
1d011bd4:	0d00e010 	beqz	a3,0x1d011c0c
1d011bd8:	ff004230 	andi	v0,v0,0xff
1d011bdc:	421d0600 	srl	v1,a2,0x15
1d011be0:	1000a3a3 	sb	v1,16(sp)
1d011be4:	421b0600 	srl	v1,a2,0xd
1d011be8:	0420037c 	ins	v1,zero,0x0,0x5
1d011bec:	000cc57c 	ext	a1,a2,0x10,0x2
1d011bf0:	25186500 	or	v1,v1,a1
1d011bf4:	08006334 	ori	v1,v1,0x8
1d011bf8:	1100a3a3 	sb	v1,17(sp)
1d011bfc:	021a0600 	srl	v1,a2,0x8
1d011c00:	1200a3a3 	sb	v1,18(sp)
1d011c04:	0947400b 	j	0x1d011c24
1d011c08:	1300a6a3 	sb	a2,19(sp)
1d011c0c:	c2180600 	srl	v1,a2,0x3
1d011c10:	1000a3a3 	sb	v1,16(sp)
1d011c14:	40310600 	sll	a2,a2,0x5
1d011c18:	1100a6a3 	sb	a2,17(sp)
1d011c1c:	1200a0a3 	sb	zero,18(sp)
1d011c20:	1300a0a3 	sb	zero,19(sp)
1d011c24:	029d033c 	lui	v1,0x9d02
1d011c28:	2cc56324 	addiu	v1,v1,-15060
1d011c2c:	21104300 	addu	v0,v0,v1
1d011c30:	00004590 	lbu	a1,0(v0)
1d011c34:	1000a627 	addiu	a2,sp,16
1d011c38:	1c42400f 	jal	0x1d010870
1d011c3c:	04000724 	li	a3,4
1d011c40:	1c00bf8f 	lw	ra,28(sp)
1d011c44:	0800e003 	jr	ra
1d011c48:	2000bd27 	addiu	sp,sp,32
1d011c4c:	e0ffbd27 	addiu	sp,sp,-32
1d011c50:	1c00bfaf 	sw	ra,28(sp)
1d011c54:	c2100600 	srl	v0,a2,0x3
1d011c58:	1000a2a3 	sb	v0,16(sp)
1d011c5c:	40310600 	sll	a2,a2,0x5
1d011c60:	1100a6a3 	sb	a2,17(sp)
1d011c64:	1200a0a3 	sb	zero,18(sp)
1d011c68:	2110a000 	move	v0,a1
1d011c6c:	202c057c 	seb	a1,a1
1d011c70:	0200a010 	beqz	a1,0x1d011c7c
1d011c74:	1300a0a3 	sb	zero,19(sp)
1d011c78:	01000224 	li	v0,1
1d011c7c:	ff004230 	andi	v0,v0,0xff
1d011c80:	029d033c 	lui	v1,0x9d02
1d011c84:	28c56324 	addiu	v1,v1,-15064
1d011c88:	21104300 	addu	v0,v0,v1
1d011c8c:	00004590 	lbu	a1,0(v0)
1d011c90:	1000a627 	addiu	a2,sp,16
1d011c94:	1c42400f 	jal	0x1d010870
1d011c98:	04000724 	li	a3,4
1d011c9c:	1c00bf8f 	lw	ra,28(sp)
1d011ca0:	0800e003 	jr	ra
1d011ca4:	2000bd27 	addiu	sp,sp,32
1d011ca8:	d8ffbd27 	addiu	sp,sp,-40
1d011cac:	2400bfaf 	sw	ra,36(sp)
1d011cb0:	2000b2af 	sw	s2,32(sp)
1d011cb4:	1c00b1af 	sw	s1,28(sp)
1d011cb8:	1800b0af 	sw	s0,24(sp)
1d011cbc:	21888000 	move	s1,a0
1d011cc0:	2190a000 	move	s2,a1
1d011cc4:	0100053c 	lui	a1,0x1
1d011cc8:	6002a524 	addiu	a1,a1,608
1d011ccc:	5b6b400f 	jal	0x1d01ad6c
1d011cd0:	04000624 	li	a2,4
1d011cd4:	4843400f 	jal	0x1d010d20
1d011cd8:	21202002 	move	a0,s1
1d011cdc:	bc808227 	addiu	v0,gp,-32580
1d011ce0:	21105100 	addu	v0,v0,s1
1d011ce4:	000040a0 	sb	zero,0(v0)
1d011ce8:	0b001024 	li	s0,11
1d011cec:	21202002 	move	a0,s1
1d011cf0:	d946400f 	jal	0x1d011b64
1d011cf4:	04000524 	li	a1,4
1d011cf8:	05004014 	bnez	v0,0x1d011d10
1d011cfc:	ffff1026 	addiu	s0,s0,-1
1d011d00:	fbff0016 	bnez	s0,0x1d011cf0
1d011d04:	21202002 	move	a0,s1
1d011d08:	bc47400b 	j	0x1d011ef0
1d011d0c:	2400bf8f 	lw	ra,36(sp)
1d011d10:	77004012 	beqz	s2,0x1d011ef0
1d011d14:	2400bf8f 	lw	ra,36(sp)
1d011d18:	21202002 	move	a0,s1
1d011d1c:	29000524 	li	a1,41
1d011d20:	40000624 	li	a2,64
1d011d24:	af44400f 	jal	0x1d0112bc
1d011d28:	40000724 	li	a3,64
1d011d2c:	21202002 	move	a0,s1
1d011d30:	29000524 	li	a1,41
1d011d34:	80000624 	li	a2,128
1d011d38:	af44400f 	jal	0x1d0112bc
1d011d3c:	80000724 	li	a3,128
1d011d40:	00911200 	sll	s2,s2,0x4
1d011d44:	7a00023c 	lui	v0,0x7a
1d011d48:	00124224 	addiu	v0,v0,4608
1d011d4c:	1b005200 	divu	zero,v0,s2
1d011d50:	f4014002 	teq	s2,zero,0x7
1d011d54:	12380000 	mflo	a3
1d011d58:	ffffe724 	addiu	a3,a3,-1
1d011d5c:	21202002 	move	a0,s1
1d011d60:	2a000524 	li	a1,42
1d011d64:	3f000624 	li	a2,63
1d011d68:	af44400f 	jal	0x1d0112bc
1d011d6c:	ff00e730 	andi	a3,a3,0xff
1d011d70:	21202002 	move	a0,s1
1d011d74:	2a000524 	li	a1,42
1d011d78:	c0000624 	li	a2,192
1d011d7c:	af44400f 	jal	0x1d0112bc
1d011d80:	40000724 	li	a3,64
1d011d84:	21202002 	move	a0,s1
1d011d88:	29000524 	li	a1,41
1d011d8c:	07000624 	li	a2,7
1d011d90:	af44400f 	jal	0x1d0112bc
1d011d94:	02000724 	li	a3,2
1d011d98:	21202002 	move	a0,s1
1d011d9c:	29000524 	li	a1,41
1d011da0:	38000624 	li	a2,56
1d011da4:	af44400f 	jal	0x1d0112bc
1d011da8:	08000724 	li	a3,8
1d011dac:	21202002 	move	a0,s1
1d011db0:	28000524 	li	a1,40
1d011db4:	07000624 	li	a2,7
1d011db8:	af44400f 	jal	0x1d0112bc
1d011dbc:	01000724 	li	a3,1
1d011dc0:	04000224 	li	v0,4
1d011dc4:	1000a2a3 	sb	v0,16(sp)
1d011dc8:	21202002 	move	a0,s1
1d011dcc:	60000524 	li	a1,96
1d011dd0:	1000a627 	addiu	a2,sp,16
1d011dd4:	1c42400f 	jal	0x1d010870
1d011dd8:	01000724 	li	a3,1
1d011ddc:	1000a0a3 	sb	zero,16(sp)
1d011de0:	21202002 	move	a0,s1
1d011de4:	70000524 	li	a1,112
1d011de8:	1000a627 	addiu	a2,sp,16
1d011dec:	1c42400f 	jal	0x1d010870
1d011df0:	01000724 	li	a3,1
1d011df4:	21202002 	move	a0,s1
1d011df8:	2b000524 	li	a1,43
1d011dfc:	03000624 	li	a2,3
1d011e00:	af44400f 	jal	0x1d0112bc
1d011e04:	03000724 	li	a3,3
1d011e08:	21202002 	move	a0,s1
1d011e0c:	0c000524 	li	a1,12
1d011e10:	3f000624 	li	a2,63
1d011e14:	af44400f 	jal	0x1d0112bc
1d011e18:	0f000724 	li	a3,15
1d011e1c:	21202002 	move	a0,s1
1d011e20:	21280000 	move	a1,zero
1d011e24:	1347400f 	jal	0x1d011c4c
1d011e28:	21300000 	move	a2,zero
1d011e2c:	21202002 	move	a0,s1
1d011e30:	21280000 	move	a1,zero
1d011e34:	21300000 	move	a2,zero
1d011e38:	ef46400f 	jal	0x1d011bbc
1d011e3c:	21380000 	move	a3,zero
1d011e40:	21202002 	move	a0,s1
1d011e44:	01000524 	li	a1,1
1d011e48:	21300000 	move	a2,zero
1d011e4c:	ef46400f 	jal	0x1d011bbc
1d011e50:	01000724 	li	a3,1
1d011e54:	21202002 	move	a0,s1
1d011e58:	01000524 	li	a1,1
1d011e5c:	1347400f 	jal	0x1d011c4c
1d011e60:	21300000 	move	a2,zero
1d011e64:	21202002 	move	a0,s1
1d011e68:	02000524 	li	a1,2
1d011e6c:	21300000 	move	a2,zero
1d011e70:	ef46400f 	jal	0x1d011bbc
1d011e74:	21380000 	move	a3,zero
1d011e78:	21202002 	move	a0,s1
1d011e7c:	03000524 	li	a1,3
1d011e80:	21300000 	move	a2,zero
1d011e84:	ef46400f 	jal	0x1d011bbc
1d011e88:	21380000 	move	a3,zero
1d011e8c:	21202002 	move	a0,s1
1d011e90:	04000524 	li	a1,4
1d011e94:	21300000 	move	a2,zero
1d011e98:	ef46400f 	jal	0x1d011bbc
1d011e9c:	01000724 	li	a3,1
1d011ea0:	21202002 	move	a0,s1
1d011ea4:	05000524 	li	a1,5
1d011ea8:	21300000 	move	a2,zero
1d011eac:	ef46400f 	jal	0x1d011bbc
1d011eb0:	01000724 	li	a3,1
1d011eb4:	0b001024 	li	s0,11
1d011eb8:	21202002 	move	a0,s1
1d011ebc:	d946400f 	jal	0x1d011b64
1d011ec0:	21280000 	move	a1,zero
1d011ec4:	05004014 	bnez	v0,0x1d011edc
1d011ec8:	ffff1026 	addiu	s0,s0,-1
1d011ecc:	fbff0016 	bnez	s0,0x1d011ebc
1d011ed0:	21202002 	move	a0,s1
1d011ed4:	bc47400b 	j	0x1d011ef0
1d011ed8:	2400bf8f 	lw	ra,36(sp)
1d011edc:	bc808327 	addiu	v1,gp,-32580
1d011ee0:	21887100 	addu	s1,v1,s1
1d011ee4:	01000324 	li	v1,1
1d011ee8:	000023a2 	sb	v1,0(s1)
1d011eec:	2400bf8f 	lw	ra,36(sp)
1d011ef0:	2000b28f 	lw	s2,32(sp)
1d011ef4:	1c00b18f 	lw	s1,28(sp)
1d011ef8:	1800b08f 	lw	s0,24(sp)
1d011efc:	0800e003 	jr	ra
1d011f00:	2800bd27 	addiu	sp,sp,40
1d011f04:	e0ffbd27 	addiu	sp,sp,-32
1d011f08:	1c00bfaf 	sw	ra,28(sp)
1d011f0c:	1c000524 	li	a1,28
1d011f10:	1000a627 	addiu	a2,sp,16
1d011f14:	7d41400f 	jal	0x1d0105f4
1d011f18:	01000724 	li	a3,1
1d011f1c:	1000a293 	lbu	v0,16(sp)
1d011f20:	1c00bf8f 	lw	ra,28(sp)
1d011f24:	0800e003 	jr	ra
1d011f28:	2000bd27 	addiu	sp,sp,32
1d011f2c:	e0ffbd27 	addiu	sp,sp,-32
1d011f30:	1c00bfaf 	sw	ra,28(sp)
1d011f34:	1d000524 	li	a1,29
1d011f38:	1000a627 	addiu	a2,sp,16
1d011f3c:	7d41400f 	jal	0x1d0105f4
1d011f40:	01000724 	li	a3,1
1d011f44:	1000a293 	lbu	v0,16(sp)
1d011f48:	1c00bf8f 	lw	ra,28(sp)
1d011f4c:	0800e003 	jr	ra
1d011f50:	2000bd27 	addiu	sp,sp,32
1d011f54:	d8ffbd27 	addiu	sp,sp,-40
1d011f58:	2400bfaf 	sw	ra,36(sp)
1d011f5c:	2000b1af 	sw	s1,32(sp)
1d011f60:	1c00b0af 	sw	s0,28(sp)
1d011f64:	2180a000 	move	s0,a1
1d011f68:	2188c000 	move	s1,a2
1d011f6c:	1000a0a3 	sb	zero,16(sp)
1d011f70:	1100a0a3 	sb	zero,17(sp)
1d011f74:	1c000524 	li	a1,28
1d011f78:	1000a627 	addiu	a2,sp,16
1d011f7c:	7d41400f 	jal	0x1d0105f4
1d011f80:	02000724 	li	a3,2
1d011f84:	1000a293 	lbu	v0,16(sp)
1d011f88:	000022a2 	sb	v0,0(s1)
1d011f8c:	1100a293 	lbu	v0,17(sp)
1d011f90:	000002a2 	sb	v0,0(s0)
1d011f94:	2400bf8f 	lw	ra,36(sp)
1d011f98:	2000b18f 	lw	s1,32(sp)
1d011f9c:	1c00b08f 	lw	s0,28(sp)
1d011fa0:	0800e003 	jr	ra
1d011fa4:	2800bd27 	addiu	sp,sp,40
1d011fa8:	d0ffbd27 	addiu	sp,sp,-48
1d011fac:	2c00bfaf 	sw	ra,44(sp)
1d011fb0:	2800b3af 	sw	s3,40(sp)
1d011fb4:	2400b2af 	sw	s2,36(sp)
1d011fb8:	2000b1af 	sw	s1,32(sp)
1d011fbc:	1c00b0af 	sw	s0,28(sp)
1d011fc0:	21808000 	move	s0,a0
1d011fc4:	bc808227 	addiu	v0,gp,-32580
1d011fc8:	21104400 	addu	v0,v0,a0
1d011fcc:	00004390 	lbu	v1,0(v0)
1d011fd0:	54006010 	beqz	v1,0x1d012124
1d011fd4:	21100000 	move	v0,zero
1d011fd8:	2190a000 	move	s2,a1
1d011fdc:	2188c000 	move	s1,a2
1d011fe0:	02000224 	li	v0,2
1d011fe4:	06008210 	beq	a0,v0,0x1d012000
1d011fe8:	2198e000 	move	s3,a3
1d011fec:	03000224 	li	v0,3
1d011ff0:	0a008250 	beql	a0,v0,0x1d01201c
1d011ff4:	88bf023c 	lui	v0,0xbf88
1d011ff8:	1548400b 	j	0x1d012054
1d011ffc:	02000224 	li	v0,2
1d012000:	88bf023c 	lui	v0,0xbf88
1d012004:	1061428c 	lw	v0,24848(v0)
1d012008:	20004230 	andi	v0,v0,0x20
1d01200c:	18004054 	bnezl	v0,0x1d012070
1d012010:	88bf023c 	lui	v0,0xbf88
1d012014:	0c48400b 	j	0x1d012030
1d012018:	1000b3af 	sw	s3,16(sp)
1d01201c:	d060428c 	lw	v0,24784(v0)
1d012020:	01004230 	andi	v0,v0,0x1
1d012024:	16004054 	bnezl	v0,0x1d012080
1d012028:	88bf023c 	lui	v0,0xbf88
1d01202c:	1000b3af 	sw	s3,16(sp)
1d012030:	4000a28f 	lw	v0,64(sp)
1d012034:	1400a2af 	sw	v0,20(sp)
1d012038:	21200002 	move	a0,s0
1d01203c:	21280000 	move	a1,zero
1d012040:	21304002 	move	a2,s2
1d012044:	dc45400f 	jal	0x1d011770
1d012048:	21382002 	move	a3,s1
1d01204c:	4948400b 	j	0x1d012124
1d012050:	01000224 	li	v0,1
1d012054:	06008210 	beq	a0,v0,0x1d012070
1d012058:	88bf023c 	lui	v0,0xbf88
1d01205c:	03000224 	li	v0,3
1d012060:	07008250 	beql	a0,v0,0x1d012080
1d012064:	88bf023c 	lui	v0,0xbf88
1d012068:	2348400b 	j	0x1d01208c
1d01206c:	21100000 	move	v0,zero
1d012070:	1061428c 	lw	v0,24848(v0)
1d012074:	40004238 	xori	v0,v0,0x40
1d012078:	2348400b 	j	0x1d01208c
1d01207c:	8001427c 	ext	v0,v0,0x6,0x1
1d012080:	d060428c 	lw	v0,24784(v0)
1d012084:	00084238 	xori	v0,v0,0x800
1d012088:	c002427c 	ext	v0,v0,0xb,0x1
1d01208c:	0a004010 	beqz	v0,0x1d0120b8
1d012090:	21200002 	move	a0,s0
1d012094:	1000b3af 	sw	s3,16(sp)
1d012098:	4000a28f 	lw	v0,64(sp)
1d01209c:	1400a2af 	sw	v0,20(sp)
1d0120a0:	01000524 	li	a1,1
1d0120a4:	21304002 	move	a2,s2
1d0120a8:	dc45400f 	jal	0x1d011770
1d0120ac:	21382002 	move	a3,s1
1d0120b0:	4948400b 	j	0x1d012124
1d0120b4:	02000224 	li	v0,2
1d0120b8:	bb42400f 	jal	0x1d010aec
1d0120bc:	21200002 	move	a0,s0
1d0120c0:	01004330 	andi	v1,v0,0x1
1d0120c4:	0b006050 	beqzl	v1,0x1d0120f4
1d0120c8:	02004230 	andi	v0,v0,0x2
1d0120cc:	1000b3af 	sw	s3,16(sp)
1d0120d0:	4000a28f 	lw	v0,64(sp)
1d0120d4:	1400a2af 	sw	v0,20(sp)
1d0120d8:	21200002 	move	a0,s0
1d0120dc:	21280000 	move	a1,zero
1d0120e0:	21304002 	move	a2,s2
1d0120e4:	dc45400f 	jal	0x1d011770
1d0120e8:	21382002 	move	a3,s1
1d0120ec:	4948400b 	j	0x1d012124
1d0120f0:	01000224 	li	v0,1
1d0120f4:	ff004230 	andi	v0,v0,0xff
1d0120f8:	0b004010 	beqz	v0,0x1d012128
1d0120fc:	2c00bf8f 	lw	ra,44(sp)
1d012100:	1000b3af 	sw	s3,16(sp)
1d012104:	4000a28f 	lw	v0,64(sp)
1d012108:	1400a2af 	sw	v0,20(sp)
1d01210c:	21200002 	move	a0,s0
1d012110:	01000524 	li	a1,1
1d012114:	21304002 	move	a2,s2
1d012118:	dc45400f 	jal	0x1d011770
1d01211c:	21382002 	move	a3,s1
1d012120:	02000224 	li	v0,2
1d012124:	2c00bf8f 	lw	ra,44(sp)
1d012128:	2800b38f 	lw	s3,40(sp)
1d01212c:	2400b28f 	lw	s2,36(sp)
1d012130:	2000b18f 	lw	s1,32(sp)
1d012134:	1c00b08f 	lw	s0,28(sp)
1d012138:	0800e003 	jr	ra
1d01213c:	3000bd27 	addiu	sp,sp,48
1d012140:	00210400 	sll	a0,a0,0x4
1d012144:	029d023c 	lui	v0,0x9d02
1d012148:	9ca24224 	addiu	v0,v0,-23908
1d01214c:	21108200 	addu	v0,a0,v0
1d012150:	0800428c 	lw	v0,8(v0)
1d012154:	07004324 	addiu	v1,v0,7
1d012158:	00004628 	slti	a2,v0,0
1d01215c:	0b106600 	movn	v0,v1,a2
1d012160:	c3300200 	sra	a2,v0,0x3
1d012164:	079d033c 	lui	v1,0x9d07
1d012168:	00c06334 	ori	v1,v1,0xc000
1d01216c:	2130c300 	addu	a2,a2,v1
1d012170:	8000c724 	addiu	a3,a2,128
1d012174:	2b10c700 	sltu	v0,a2,a3
1d012178:	14004010 	beqz	v0,0x1d0121cc
1d01217c:	00000000 	nop
1d012180:	21100000 	move	v0,zero
1d012184:	0000c590 	lbu	a1,0(a2)
1d012188:	ff00a530 	andi	a1,a1,0xff
1d01218c:	0100a330 	andi	v1,a1,0x1
1d012190:	10006050 	beqzl	v1,0x1d0121d4
1d012194:	01004224 	addiu	v0,v0,1
1d012198:	0800e003 	jr	ra
1d01219c:	00000000 	nop
1d0121a0:	24206500 	and	a0,v1,a1
1d0121a4:	fcff8014 	bnez	a0,0x1d012198
1d0121a8:	40180300 	sll	v1,v1,0x1
1d0121ac:	ff006330 	andi	v1,v1,0xff
1d0121b0:	fbff6014 	bnez	v1,0x1d0121a0
1d0121b4:	01004224 	addiu	v0,v0,1
1d0121b8:	0100c624 	addiu	a2,a2,1
1d0121bc:	f1ffe614 	bne	a3,a2,0x1d012184
1d0121c0:	00000000 	nop
1d0121c4:	0800e003 	jr	ra
1d0121c8:	00000000 	nop
1d0121cc:	0800e003 	jr	ra
1d0121d0:	21100000 	move	v0,zero
1d0121d4:	6848400b 	j	0x1d0121a0
1d0121d8:	02000324 	li	v1,2
1d0121dc:	2c008010 	beqz	a0,0x1d012290
1d0121e0:	00000000 	nop
1d0121e4:	d8ffbd27 	addiu	sp,sp,-40
1d0121e8:	2400bfaf 	sw	ra,36(sp)
1d0121ec:	2000b3af 	sw	s3,32(sp)
1d0121f0:	1c00b2af 	sw	s2,28(sp)
1d0121f4:	1800b1af 	sw	s1,24(sp)
1d0121f8:	1400b0af 	sw	s0,20(sp)
1d0121fc:	2198a000 	move	s3,a1
1d012200:	2190c000 	move	s2,a2
1d012204:	2180e000 	move	s0,a3
1d012208:	946e400f 	jal	0x1d01ba50
1d01220c:	2128c000 	move	a1,a2
1d012210:	04006012 	beqz	s3,0x1d012224
1d012214:	21884000 	move	s1,v0
1d012218:	2b986202 	sltu	s3,s3,v0
1d01221c:	1e006056 	bnezl	s3,0x1d012298
1d012220:	21100000 	move	v0,zero
1d012224:	1c002012 	beqz	s1,0x1d012298
1d012228:	21100000 	move	v0,zero
1d01222c:	016b400f 	jal	0x1d01ac04
1d012230:	21204002 	move	a0,s2
1d012234:	18000012 	beqz	s0,0x1d012298
1d012238:	21102202 	addu	v0,s1,v0
1d01223c:	000000ae 	sw	zero,0(s0)
1d012240:	9448400b 	j	0x1d012250
1d012244:	5f000624 	li	a2,95
1d012248:	01008424 	addiu	a0,a0,1
1d01224c:	000004ae 	sw	a0,0(s0)
1d012250:	0000048e 	lw	a0,0(s0)
1d012254:	21184400 	addu	v1,v0,a0
1d012258:	00006390 	lbu	v1,0(v1)
1d01225c:	faff6610 	beq	v1,a2,0x1d012248
1d012260:	d1ff6524 	addiu	a1,v1,-47
1d012264:	ff00a530 	andi	a1,a1,0xff
1d012268:	0c00a52c 	sltiu	a1,a1,12
1d01226c:	f6ffa014 	bnez	a1,0x1d012248
1d012270:	4429037c 	ins	v1,zero,0x5,0x1
1d012274:	bfff6324 	addiu	v1,v1,-65
1d012278:	ff006330 	andi	v1,v1,0xff
1d01227c:	1a00632c 	sltiu	v1,v1,26
1d012280:	f1ff6014 	bnez	v1,0x1d012248
1d012284:	2400bf8f 	lw	ra,36(sp)
1d012288:	a848400b 	j	0x1d0122a0
1d01228c:	2000b38f 	lw	s3,32(sp)
1d012290:	0800e003 	jr	ra
1d012294:	21100000 	move	v0,zero
1d012298:	2400bf8f 	lw	ra,36(sp)
1d01229c:	2000b38f 	lw	s3,32(sp)
1d0122a0:	1c00b28f 	lw	s2,28(sp)
1d0122a4:	1800b18f 	lw	s1,24(sp)
1d0122a8:	1400b08f 	lw	s0,20(sp)
1d0122ac:	0800e003 	jr	ra
1d0122b0:	2800bd27 	addiu	sp,sp,40
1d0122b4:	e0ffbd27 	addiu	sp,sp,-32
1d0122b8:	1c00bfaf 	sw	ra,28(sp)
1d0122bc:	1000a0af 	sw	zero,16(sp)
1d0122c0:	029d063c 	lui	a2,0x9d02
1d0122c4:	e0a0c624 	addiu	a2,a2,-24352
1d0122c8:	7748400f 	jal	0x1d0121dc
1d0122cc:	1000a727 	addiu	a3,sp,16
1d0122d0:	4a004010 	beqz	v0,0x1d0123fc
1d0122d4:	0a000324 	li	v1,10
1d0122d8:	1000a48f 	lw	a0,16(sp)
1d0122dc:	44008354 	bnel	a0,v1,0x1d0123f0
1d0122e0:	01000224 	li	v0,1
1d0122e4:	04004490 	lbu	a0,4(v0)
1d0122e8:	2f000324 	li	v1,47
1d0122ec:	40008354 	bnel	a0,v1,0x1d0123f0
1d0122f0:	01000224 	li	v0,1
1d0122f4:	07004490 	lbu	a0,7(v0)
1d0122f8:	3d008354 	bnel	a0,v1,0x1d0123f0
1d0122fc:	01000224 	li	v0,1
1d012300:	00004390 	lbu	v1,0(v0)
1d012304:	d0ff6324 	addiu	v1,v1,-48
1d012308:	ff006330 	andi	v1,v1,0xff
1d01230c:	0a00642c 	sltiu	a0,v1,10
1d012310:	0a180400 	movz	v1,zero,a0
1d012314:	00270300 	sll	a0,v1,0x1c
1d012318:	01004390 	lbu	v1,1(v0)
1d01231c:	d0ff6324 	addiu	v1,v1,-48
1d012320:	ff006330 	andi	v1,v1,0xff
1d012324:	0a00652c 	sltiu	a1,v1,10
1d012328:	0a180500 	movz	v1,zero,a1
1d01232c:	001e0300 	sll	v1,v1,0x18
1d012330:	21208300 	addu	a0,a0,v1
1d012334:	02004390 	lbu	v1,2(v0)
1d012338:	d0ff6324 	addiu	v1,v1,-48
1d01233c:	ff006330 	andi	v1,v1,0xff
1d012340:	0a00652c 	sltiu	a1,v1,10
1d012344:	0a180500 	movz	v1,zero,a1
1d012348:	002d0300 	sll	a1,v1,0x14
1d01234c:	2128a400 	addu	a1,a1,a0
1d012350:	03004390 	lbu	v1,3(v0)
1d012354:	d0ff6324 	addiu	v1,v1,-48
1d012358:	ff006330 	andi	v1,v1,0xff
1d01235c:	0a00642c 	sltiu	a0,v1,10
1d012360:	0a180400 	movz	v1,zero,a0
1d012364:	00240300 	sll	a0,v1,0x10
1d012368:	21208500 	addu	a0,a0,a1
1d01236c:	05004390 	lbu	v1,5(v0)
1d012370:	d0ff6324 	addiu	v1,v1,-48
1d012374:	ff006330 	andi	v1,v1,0xff
1d012378:	0a00652c 	sltiu	a1,v1,10
1d01237c:	0a180500 	movz	v1,zero,a1
1d012380:	002b0300 	sll	a1,v1,0xc
1d012384:	2128a400 	addu	a1,a1,a0
1d012388:	06004390 	lbu	v1,6(v0)
1d01238c:	d0ff6324 	addiu	v1,v1,-48
1d012390:	ff006330 	andi	v1,v1,0xff
1d012394:	0a00642c 	sltiu	a0,v1,10
1d012398:	0a180400 	movz	v1,zero,a0
1d01239c:	00220300 	sll	a0,v1,0x8
1d0123a0:	21208500 	addu	a0,a0,a1
1d0123a4:	08004390 	lbu	v1,8(v0)
1d0123a8:	d0ff6324 	addiu	v1,v1,-48
1d0123ac:	ff006330 	andi	v1,v1,0xff
1d0123b0:	0a00652c 	sltiu	a1,v1,10
1d0123b4:	0a180500 	movz	v1,zero,a1
1d0123b8:	00190300 	sll	v1,v1,0x4
1d0123bc:	21186400 	addu	v1,v1,a0
1d0123c0:	09004290 	lbu	v0,9(v0)
1d0123c4:	d0ff4224 	addiu	v0,v0,-48
1d0123c8:	ff004230 	andi	v0,v0,0xff
1d0123cc:	0a00442c 	sltiu	a0,v0,10
1d0123d0:	0a100400 	movz	v0,zero,a0
1d0123d4:	21104300 	addu	v0,v0,v1
1d0123d8:	e6df033c 	lui	v1,0xdfe6
1d0123dc:	fcfc6334 	ori	v1,v1,0xfcfc
1d0123e0:	21184300 	addu	v1,v0,v1
1d0123e4:	06006104 	bgez	v1,0x1d012400
1d0123e8:	01000224 	li	v0,1
1d0123ec:	01000224 	li	v0,1
1d0123f0:	2e8082a3 	sb	v0,-32722(gp)
1d0123f4:	0049400b 	j	0x1d012400
1d0123f8:	21100000 	move	v0,zero
1d0123fc:	01000224 	li	v0,1
1d012400:	1c00bf8f 	lw	ra,28(sp)
1d012404:	0800e003 	jr	ra
1d012408:	2000bd27 	addiu	sp,sp,32
1d01240c:	d8ffbd27 	addiu	sp,sp,-40
1d012410:	2400bfaf 	sw	ra,36(sp)
1d012414:	2000b1af 	sw	s1,32(sp)
1d012418:	1c00b0af 	sw	s0,28(sp)
1d01241c:	2188c000 	move	s1,a2
1d012420:	1000a0af 	sw	zero,16(sp)
1d012424:	029d063c 	lui	a2,0x9d02
1d012428:	e8a0c624 	addiu	a2,a2,-24344
1d01242c:	7748400f 	jal	0x1d0121dc
1d012430:	1000a727 	addiu	a3,sp,16
1d012434:	10004010 	beqz	v0,0x1d012478
1d012438:	21804000 	move	s0,v0
1d01243c:	016b400f 	jal	0x1d01ac04
1d012440:	21202002 	move	a0,s1
1d012444:	11000424 	li	a0,17
1d012448:	0c004414 	bne	v0,a0,0x1d01247c
1d01244c:	21180000 	move	v1,zero
1d012450:	11000224 	li	v0,17
1d012454:	1000a48f 	lw	a0,16(sp)
1d012458:	09008214 	bne	a0,v0,0x1d012480
1d01245c:	21106000 	move	v0,v1
1d012460:	21202002 	move	a0,s1
1d012464:	21280002 	move	a1,s0
1d012468:	5a6f400f 	jal	0x1d01bd68
1d01246c:	11000624 	li	a2,17
1d012470:	1f49400b 	j	0x1d01247c
1d012474:	0100432c 	sltiu	v1,v0,1
1d012478:	01000324 	li	v1,1
1d01247c:	21106000 	move	v0,v1
1d012480:	2400bf8f 	lw	ra,36(sp)
1d012484:	2000b18f 	lw	s1,32(sp)
1d012488:	1c00b08f 	lw	s0,28(sp)
1d01248c:	0800e003 	jr	ra
1d012490:	2800bd27 	addiu	sp,sp,40
1d012494:	d0ffbd27 	addiu	sp,sp,-48
1d012498:	2c00bfaf 	sw	ra,44(sp)
1d01249c:	2800b3af 	sw	s3,40(sp)
1d0124a0:	2400b2af 	sw	s2,36(sp)
1d0124a4:	2000b1af 	sw	s1,32(sp)
1d0124a8:	1c00b0af 	sw	s0,28(sp)
1d0124ac:	2190c000 	move	s2,a2
1d0124b0:	1000a0af 	sw	zero,16(sp)
1d0124b4:	029d063c 	lui	a2,0x9d02
1d0124b8:	f0a0c624 	addiu	a2,a2,-24336
1d0124bc:	7748400f 	jal	0x1d0121dc
1d0124c0:	1000a727 	addiu	a3,sp,16
1d0124c4:	1e004010 	beqz	v0,0x1d012540
1d0124c8:	21804000 	move	s0,v0
1d0124cc:	016b400f 	jal	0x1d01ac04
1d0124d0:	21204002 	move	a0,s2
1d0124d4:	21180000 	move	v1,zero
1d0124d8:	11000424 	li	a0,17
1d0124dc:	12004410 	beq	v0,a0,0x1d012528
1d0124e0:	2c001324 	li	s3,44
1d0124e4:	5449400b 	j	0x1d012550
1d0124e8:	21106000 	move	v0,v1
1d0124ec:	21280002 	move	a1,s0
1d0124f0:	5a6f400f 	jal	0x1d01bd68
1d0124f4:	11000624 	li	a2,17
1d0124f8:	13004010 	beqz	v0,0x1d012548
1d0124fc:	11000326 	addiu	v1,s0,17
1d012500:	efff2226 	addiu	v0,s1,-17
1d012504:	07004010 	beqz	v0,0x1d012524
1d012508:	1000a2af 	sw	v0,16(sp)
1d01250c:	11000292 	lbu	v0,17(s0)
1d012510:	05005354 	bnel	v0,s3,0x1d012528
1d012514:	21806000 	move	s0,v1
1d012518:	12000326 	addiu	v1,s0,18
1d01251c:	eeff3126 	addiu	s1,s1,-18
1d012520:	1000b1af 	sw	s1,16(sp)
1d012524:	21806000 	move	s0,v1
1d012528:	1000b18f 	lw	s1,16(sp)
1d01252c:	1100222e 	sltiu	v0,s1,17
1d012530:	eeff4010 	beqz	v0,0x1d0124ec
1d012534:	21204002 	move	a0,s2
1d012538:	5349400b 	j	0x1d01254c
1d01253c:	21180000 	move	v1,zero
1d012540:	5349400b 	j	0x1d01254c
1d012544:	01000324 	li	v1,1
1d012548:	01000324 	li	v1,1
1d01254c:	21106000 	move	v0,v1
1d012550:	2c00bf8f 	lw	ra,44(sp)
1d012554:	2800b38f 	lw	s3,40(sp)
1d012558:	2400b28f 	lw	s2,36(sp)
1d01255c:	2000b18f 	lw	s1,32(sp)
1d012560:	1c00b08f 	lw	s0,28(sp)
1d012564:	0800e003 	jr	ra
1d012568:	3000bd27 	addiu	sp,sp,48
1d01256c:	d8ffbd27 	addiu	sp,sp,-40
1d012570:	2400bfaf 	sw	ra,36(sp)
1d012574:	2000b1af 	sw	s1,32(sp)
1d012578:	1c00b0af 	sw	s0,28(sp)
1d01257c:	2188c000 	move	s1,a2
1d012580:	1000a0af 	sw	zero,16(sp)
1d012584:	029d063c 	lui	a2,0x9d02
1d012588:	f8a0c624 	addiu	a2,a2,-24328
1d01258c:	7748400f 	jal	0x1d0121dc
1d012590:	1000a727 	addiu	a3,sp,16
1d012594:	12004010 	beqz	v0,0x1d0125e0
1d012598:	21804000 	move	s0,v0
1d01259c:	01000224 	li	v0,1
1d0125a0:	2d8082a3 	sb	v0,-32723(gp)
1d0125a4:	016b400f 	jal	0x1d01ac04
1d0125a8:	21202002 	move	a0,s1
1d0125ac:	11000424 	li	a0,17
1d0125b0:	0c004414 	bne	v0,a0,0x1d0125e4
1d0125b4:	21180000 	move	v1,zero
1d0125b8:	11000224 	li	v0,17
1d0125bc:	1000a48f 	lw	a0,16(sp)
1d0125c0:	09008214 	bne	a0,v0,0x1d0125e8
1d0125c4:	21106000 	move	v0,v1
1d0125c8:	21202002 	move	a0,s1
1d0125cc:	21280002 	move	a1,s0
1d0125d0:	5a6f400f 	jal	0x1d01bd68
1d0125d4:	11000624 	li	a2,17
1d0125d8:	7949400b 	j	0x1d0125e4
1d0125dc:	0100432c 	sltiu	v1,v0,1
1d0125e0:	01000324 	li	v1,1
1d0125e4:	21106000 	move	v0,v1
1d0125e8:	2400bf8f 	lw	ra,36(sp)
1d0125ec:	2000b18f 	lw	s1,32(sp)
1d0125f0:	1c00b08f 	lw	s0,28(sp)
1d0125f4:	0800e003 	jr	ra
1d0125f8:	2800bd27 	addiu	sp,sp,40
1d0125fc:	d0ffbd27 	addiu	sp,sp,-48
1d012600:	2c00bfaf 	sw	ra,44(sp)
1d012604:	2800b3af 	sw	s3,40(sp)
1d012608:	2400b2af 	sw	s2,36(sp)
1d01260c:	2000b1af 	sw	s1,32(sp)
1d012610:	1c00b0af 	sw	s0,28(sp)
1d012614:	2190c000 	move	s2,a2
1d012618:	1000a0af 	sw	zero,16(sp)
1d01261c:	029d063c 	lui	a2,0x9d02
1d012620:	00a1c624 	addiu	a2,a2,-24320
1d012624:	7748400f 	jal	0x1d0121dc
1d012628:	1000a727 	addiu	a3,sp,16
1d01262c:	20004010 	beqz	v0,0x1d0126b0
1d012630:	21804000 	move	s0,v0
1d012634:	01000224 	li	v0,1
1d012638:	2d8082a3 	sb	v0,-32723(gp)
1d01263c:	016b400f 	jal	0x1d01ac04
1d012640:	21204002 	move	a0,s2
1d012644:	21180000 	move	v1,zero
1d012648:	11000424 	li	a0,17
1d01264c:	12004410 	beq	v0,a0,0x1d012698
1d012650:	2c001324 	li	s3,44
1d012654:	b049400b 	j	0x1d0126c0
1d012658:	21106000 	move	v0,v1
1d01265c:	21280002 	move	a1,s0
1d012660:	5a6f400f 	jal	0x1d01bd68
1d012664:	11000624 	li	a2,17
1d012668:	13004010 	beqz	v0,0x1d0126b8
1d01266c:	11000326 	addiu	v1,s0,17
1d012670:	efff2226 	addiu	v0,s1,-17
1d012674:	07004010 	beqz	v0,0x1d012694
1d012678:	1000a2af 	sw	v0,16(sp)
1d01267c:	11000292 	lbu	v0,17(s0)
1d012680:	05005354 	bnel	v0,s3,0x1d012698
1d012684:	21806000 	move	s0,v1
1d012688:	12000326 	addiu	v1,s0,18
1d01268c:	eeff3126 	addiu	s1,s1,-18
1d012690:	1000b1af 	sw	s1,16(sp)
1d012694:	21806000 	move	s0,v1
1d012698:	1000b18f 	lw	s1,16(sp)
1d01269c:	1100222e 	sltiu	v0,s1,17
1d0126a0:	eeff4010 	beqz	v0,0x1d01265c
1d0126a4:	21204002 	move	a0,s2
1d0126a8:	af49400b 	j	0x1d0126bc
1d0126ac:	21180000 	move	v1,zero
1d0126b0:	af49400b 	j	0x1d0126bc
1d0126b4:	01000324 	li	v1,1
1d0126b8:	01000324 	li	v1,1
1d0126bc:	21106000 	move	v0,v1
1d0126c0:	2c00bf8f 	lw	ra,44(sp)
1d0126c4:	2800b38f 	lw	s3,40(sp)
1d0126c8:	2400b28f 	lw	s2,36(sp)
1d0126cc:	2000b18f 	lw	s1,32(sp)
1d0126d0:	1c00b08f 	lw	s0,28(sp)
1d0126d4:	0800e003 	jr	ra
1d0126d8:	3000bd27 	addiu	sp,sp,48
1d0126dc:	0800e003 	jr	ra
1d0126e0:	2f808293 	lbu	v0,-32721(gp)
1d0126e4:	0800e003 	jr	ra
1d0126e8:	2e808293 	lbu	v0,-32722(gp)
1d0126ec:	0800e003 	jr	ra
1d0126f0:	2d808293 	lbu	v0,-32723(gp)
1d0126f4:	0800e003 	jr	ra
1d0126f8:	0100822c 	sltiu	v0,a0,1
1d0126fc:	03008014 	bnez	a0,0x1d01270c
1d012700:	21100000 	move	v0,zero
1d012704:	01a0023c 	lui	v0,0xa001
1d012708:	20364290 	lbu	v0,13856(v0)
1d01270c:	0800e003 	jr	ra
1d012710:	00000000 	nop
1d012714:	03008014 	bnez	a0,0x1d012724
1d012718:	21100000 	move	v0,zero
1d01271c:	01a0023c 	lui	v0,0xa001
1d012720:	21364290 	lbu	v0,13857(v0)
1d012724:	0800e003 	jr	ra
1d012728:	00000000 	nop
1d01272c:	03008014 	bnez	a0,0x1d01273c
1d012730:	21100000 	move	v0,zero
1d012734:	01a0023c 	lui	v0,0xa001
1d012738:	2436428c 	lw	v0,13860(v0)
1d01273c:	0800e003 	jr	ra
1d012740:	00000000 	nop
1d012744:	03008014 	bnez	a0,0x1d012754
1d012748:	21100000 	move	v0,zero
1d01274c:	01a0023c 	lui	v0,0xa001
1d012750:	2836428c 	lw	v0,13864(v0)
1d012754:	0800e003 	jr	ra
1d012758:	00000000 	nop
1d01275c:	03008050 	beqzl	a0,0x1d01276c
1d012760:	029d023c 	lui	v0,0x9d02
1d012764:	0800e003 	jr	ra
1d012768:	21100000 	move	v0,zero
1d01276c:	0800e003 	jr	ra
1d012770:	08a14224 	addiu	v0,v0,-24312
1d012774:	03008050 	beqzl	a0,0x1d012784
1d012778:	029d023c 	lui	v0,0x9d02
1d01277c:	0800e003 	jr	ra
1d012780:	21100000 	move	v0,zero
1d012784:	0800e003 	jr	ra
1d012788:	10a14224 	addiu	v0,v0,-24304
1d01278c:	01a0023c 	lui	v0,0xa001
1d012790:	0800e003 	jr	ra
1d012794:	20364290 	lbu	v0,13856(v0)
1d012798:	89bf023c 	lui	v0,0xbf89
1d01279c:	20934290 	lbu	v0,-27872(v0)
1d0127a0:	0800e003 	jr	ra
1d0127a4:	ff004230 	andi	v0,v0,0xff
1d0127a8:	89bf023c 	lui	v0,0xbf89
1d0127ac:	21934290 	lbu	v0,-27871(v0)
1d0127b0:	0800e003 	jr	ra
1d0127b4:	ff004230 	andi	v0,v0,0xff
1d0127b8:	89bf023c 	lui	v0,0xbf89
1d0127bc:	10934290 	lbu	v0,-27888(v0)
1d0127c0:	0800e003 	jr	ra
1d0127c4:	ff004230 	andi	v0,v0,0xff
1d0127c8:	89bf023c 	lui	v0,0xbf89
1d0127cc:	11934290 	lbu	v0,-27887(v0)
1d0127d0:	0800e003 	jr	ra
1d0127d4:	ff004230 	andi	v0,v0,0xff
1d0127d8:	89bf023c 	lui	v0,0xbf89
1d0127dc:	00934290 	lbu	v0,-27904(v0)
1d0127e0:	0800e003 	jr	ra
1d0127e4:	ff004230 	andi	v0,v0,0xff
1d0127e8:	89bf023c 	lui	v0,0xbf89
1d0127ec:	01934290 	lbu	v0,-27903(v0)
1d0127f0:	0800e003 	jr	ra
1d0127f4:	ff004230 	andi	v0,v0,0xff
1d0127f8:	01a0023c 	lui	v0,0xa001
1d0127fc:	f8354290 	lbu	v0,13816(v0)
1d012800:	7f004054 	bnezl	v0,0x1d012a00
1d012804:	01a0023c 	lui	v0,0xa001
1d012808:	89bf023c 	lui	v0,0xbf89
1d01280c:	20934290 	lbu	v0,-27872(v0)
1d012810:	0019427c 	ext	v0,v0,0x4,0x4
1d012814:	0a00442c 	sltiu	a0,v0,10
1d012818:	30004324 	addiu	v1,v0,48
1d01281c:	37004224 	addiu	v0,v0,55
1d012820:	0b106400 	movn	v0,v1,a0
1d012824:	01a0033c 	lui	v1,0xa001
1d012828:	f83562a0 	sb	v0,13816(v1)
1d01282c:	89bf023c 	lui	v0,0xbf89
1d012830:	20934290 	lbu	v0,-27872(v0)
1d012834:	0f004230 	andi	v0,v0,0xf
1d012838:	0a00442c 	sltiu	a0,v0,10
1d01283c:	30004324 	addiu	v1,v0,48
1d012840:	37004224 	addiu	v0,v0,55
1d012844:	0b106400 	movn	v0,v1,a0
1d012848:	01a0033c 	lui	v1,0xa001
1d01284c:	f8356324 	addiu	v1,v1,13816
1d012850:	010062a0 	sb	v0,1(v1)
1d012854:	3a000224 	li	v0,58
1d012858:	020062a0 	sb	v0,2(v1)
1d01285c:	89bf023c 	lui	v0,0xbf89
1d012860:	21934290 	lbu	v0,-27871(v0)
1d012864:	0019427c 	ext	v0,v0,0x4,0x4
1d012868:	0a00442c 	sltiu	a0,v0,10
1d01286c:	30004324 	addiu	v1,v0,48
1d012870:	37004224 	addiu	v0,v0,55
1d012874:	0b106400 	movn	v0,v1,a0
1d012878:	01a0033c 	lui	v1,0xa001
1d01287c:	fb3562a0 	sb	v0,13819(v1)
1d012880:	89bf023c 	lui	v0,0xbf89
1d012884:	21934290 	lbu	v0,-27871(v0)
1d012888:	0f004230 	andi	v0,v0,0xf
1d01288c:	0a00442c 	sltiu	a0,v0,10
1d012890:	30004324 	addiu	v1,v0,48
1d012894:	37004224 	addiu	v0,v0,55
1d012898:	0b106400 	movn	v0,v1,a0
1d01289c:	01a0033c 	lui	v1,0xa001
1d0128a0:	f8356324 	addiu	v1,v1,13816
1d0128a4:	040062a0 	sb	v0,4(v1)
1d0128a8:	3a000224 	li	v0,58
1d0128ac:	050062a0 	sb	v0,5(v1)
1d0128b0:	89bf023c 	lui	v0,0xbf89
1d0128b4:	10934290 	lbu	v0,-27888(v0)
1d0128b8:	0019427c 	ext	v0,v0,0x4,0x4
1d0128bc:	0a00442c 	sltiu	a0,v0,10
1d0128c0:	30004324 	addiu	v1,v0,48
1d0128c4:	37004224 	addiu	v0,v0,55
1d0128c8:	0b106400 	movn	v0,v1,a0
1d0128cc:	01a0033c 	lui	v1,0xa001
1d0128d0:	fe3562a0 	sb	v0,13822(v1)
1d0128d4:	89bf023c 	lui	v0,0xbf89
1d0128d8:	10934290 	lbu	v0,-27888(v0)
1d0128dc:	0f004230 	andi	v0,v0,0xf
1d0128e0:	0a00442c 	sltiu	a0,v0,10
1d0128e4:	30004324 	addiu	v1,v0,48
1d0128e8:	37004224 	addiu	v0,v0,55
1d0128ec:	0b106400 	movn	v0,v1,a0
1d0128f0:	01a0033c 	lui	v1,0xa001
1d0128f4:	f8356324 	addiu	v1,v1,13816
1d0128f8:	070062a0 	sb	v0,7(v1)
1d0128fc:	3a000224 	li	v0,58
1d012900:	080062a0 	sb	v0,8(v1)
1d012904:	89bf023c 	lui	v0,0xbf89
1d012908:	11934290 	lbu	v0,-27887(v0)
1d01290c:	0019427c 	ext	v0,v0,0x4,0x4
1d012910:	0a00442c 	sltiu	a0,v0,10
1d012914:	30004324 	addiu	v1,v0,48
1d012918:	37004224 	addiu	v0,v0,55
1d01291c:	0b106400 	movn	v0,v1,a0
1d012920:	01a0033c 	lui	v1,0xa001
1d012924:	013662a0 	sb	v0,13825(v1)
1d012928:	89bf023c 	lui	v0,0xbf89
1d01292c:	11934290 	lbu	v0,-27887(v0)
1d012930:	0f004230 	andi	v0,v0,0xf
1d012934:	0a00442c 	sltiu	a0,v0,10
1d012938:	30004324 	addiu	v1,v0,48
1d01293c:	37004224 	addiu	v0,v0,55
1d012940:	0b106400 	movn	v0,v1,a0
1d012944:	01a0033c 	lui	v1,0xa001
1d012948:	f8356324 	addiu	v1,v1,13816
1d01294c:	0a0062a0 	sb	v0,10(v1)
1d012950:	3a000224 	li	v0,58
1d012954:	0b0062a0 	sb	v0,11(v1)
1d012958:	89bf023c 	lui	v0,0xbf89
1d01295c:	00934290 	lbu	v0,-27904(v0)
1d012960:	0019427c 	ext	v0,v0,0x4,0x4
1d012964:	0a00442c 	sltiu	a0,v0,10
1d012968:	30004324 	addiu	v1,v0,48
1d01296c:	37004224 	addiu	v0,v0,55
1d012970:	0b106400 	movn	v0,v1,a0
1d012974:	01a0033c 	lui	v1,0xa001
1d012978:	043662a0 	sb	v0,13828(v1)
1d01297c:	89bf023c 	lui	v0,0xbf89
1d012980:	00934290 	lbu	v0,-27904(v0)
1d012984:	0f004230 	andi	v0,v0,0xf
1d012988:	0a00442c 	sltiu	a0,v0,10
1d01298c:	30004324 	addiu	v1,v0,48
1d012990:	37004224 	addiu	v0,v0,55
1d012994:	0b106400 	movn	v0,v1,a0
1d012998:	01a0033c 	lui	v1,0xa001
1d01299c:	f8356324 	addiu	v1,v1,13816
1d0129a0:	0d0062a0 	sb	v0,13(v1)
1d0129a4:	3a000224 	li	v0,58
1d0129a8:	0e0062a0 	sb	v0,14(v1)
1d0129ac:	89bf023c 	lui	v0,0xbf89
1d0129b0:	01934290 	lbu	v0,-27903(v0)
1d0129b4:	0019427c 	ext	v0,v0,0x4,0x4
1d0129b8:	0a00442c 	sltiu	a0,v0,10
1d0129bc:	30004324 	addiu	v1,v0,48
1d0129c0:	37004224 	addiu	v0,v0,55
1d0129c4:	0b106400 	movn	v0,v1,a0
1d0129c8:	01a0033c 	lui	v1,0xa001
1d0129cc:	073662a0 	sb	v0,13831(v1)
1d0129d0:	89bf023c 	lui	v0,0xbf89
1d0129d4:	01934290 	lbu	v0,-27903(v0)
1d0129d8:	0f004230 	andi	v0,v0,0xf
1d0129dc:	0a00442c 	sltiu	a0,v0,10
1d0129e0:	30004324 	addiu	v1,v0,48
1d0129e4:	37004224 	addiu	v0,v0,55
1d0129e8:	0b106400 	movn	v0,v1,a0
1d0129ec:	01a0033c 	lui	v1,0xa001
1d0129f0:	f8356324 	addiu	v1,v1,13816
1d0129f4:	100062a0 	sb	v0,16(v1)
1d0129f8:	110060a0 	sb	zero,17(v1)
1d0129fc:	01a0023c 	lui	v0,0xa001
1d012a00:	0800e003 	jr	ra
1d012a04:	f8354224 	addiu	v0,v0,13816
1d012a08:	e8ffbd27 	addiu	sp,sp,-24
1d012a0c:	1400bfaf 	sw	ra,20(sp)
1d012a10:	21288000 	move	a1,a0
1d012a14:	01a0043c 	lui	a0,0xa001
1d012a18:	e4358424 	addiu	a0,a0,13796
1d012a1c:	3d6f400f 	jal	0x1d01bcf4
1d012a20:	11000624 	li	a2,17
1d012a24:	1400bf8f 	lw	ra,20(sp)
1d012a28:	0800e003 	jr	ra
1d012a2c:	1800bd27 	addiu	sp,sp,24
1d012a30:	01a0023c 	lui	v0,0xa001
1d012a34:	0800e003 	jr	ra
1d012a38:	e4354224 	addiu	v0,v0,13796
1d012a3c:	079d023c 	lui	v0,0x9d07
1d012a40:	00d04234 	ori	v0,v0,0xd000
1d012a44:	00004290 	lbu	v0,0(v0)
1d012a48:	ff004230 	andi	v0,v0,0xff
1d012a4c:	03004010 	beqz	v0,0x1d012a5c
1d012a50:	ff000324 	li	v1,255
1d012a54:	04004354 	bnel	v0,v1,0x1d012a68
1d012a58:	079d023c 	lui	v0,0x9d07
1d012a5c:	029d023c 	lui	v0,0x9d02
1d012a60:	0800e003 	jr	ra
1d012a64:	24a14224 	addiu	v0,v0,-24284
1d012a68:	0800e003 	jr	ra
1d012a6c:	00d04234 	ori	v0,v0,0xd000
1d012a70:	b0ffbd27 	addiu	sp,sp,-80
1d012a74:	4c00bfaf 	sw	ra,76(sp)
1d012a78:	4800beaf 	sw	s8,72(sp)
1d012a7c:	4400b7af 	sw	s7,68(sp)
1d012a80:	4000b6af 	sw	s6,64(sp)
1d012a84:	3c00b5af 	sw	s5,60(sp)
1d012a88:	3800b4af 	sw	s4,56(sp)
1d012a8c:	3400b3af 	sw	s3,52(sp)
1d012a90:	3000b2af 	sw	s2,48(sp)
1d012a94:	2c00b1af 	sw	s1,44(sp)
1d012a98:	2800b0af 	sw	s0,40(sp)
1d012a9c:	01a0023c 	lui	v0,0xa001
1d012aa0:	0c3640ac 	sw	zero,13836(v0)
1d012aa4:	0c364224 	addiu	v0,v0,13836
1d012aa8:	040040ac 	sw	zero,4(v0)
1d012aac:	080040ac 	sw	zero,8(v0)
1d012ab0:	0c0040ac 	sw	zero,12(v0)
1d012ab4:	100040a4 	sh	zero,16(v0)
1d012ab8:	8f4a400f 	jal	0x1d012a3c
1d012abc:	2d8080a3 	sb	zero,-32723(gp)
1d012ac0:	21804000 	move	s0,v0
1d012ac4:	029d1e3c 	lui	s8,0x9d02
1d012ac8:	5ca1de27 	addiu	s8,s8,-24228
1d012acc:	029d113c 	lui	s1,0x9d02
1d012ad0:	9ca13126 	addiu	s1,s1,-24164
1d012ad4:	029d023c 	lui	v0,0x9d02
1d012ad8:	74a14224 	addiu	v0,v0,-24204
1d012adc:	064c400b 	j	0x1d013018
1d012ae0:	2000a2af 	sw	v0,32(sp)
1d012ae4:	4b010012 	beqz	s0,0x1d013014
1d012ae8:	21200002 	move	a0,s0
1d012aec:	946e400f 	jal	0x1d01ba50
1d012af0:	2128c003 	move	a1,s8
1d012af4:	03006012 	beqz	s3,0x1d012b04
1d012af8:	2b186202 	sltu	v1,s3,v0
1d012afc:	46016054 	bnezl	v1,0x1d013018
1d012b00:	0b807302 	movn	s0,s3,s3
1d012b04:	43014010 	beqz	v0,0x1d013014
1d012b08:	0a005424 	addiu	s4,v0,10
1d012b0c:	1800a0a7 	sh	zero,24(sp)
1d012b10:	0a004390 	lbu	v1,10(v0)
1d012b14:	19006010 	beqz	v1,0x1d012b7c
1d012b18:	23909202 	subu	s2,s4,s2
1d012b1c:	1a005724 	addiu	s7,v0,26
1d012b20:	21b00000 	move	s6,zero
1d012b24:	21a80000 	move	s5,zero
1d012b28:	01009426 	addiu	s4,s4,1
1d012b2c:	1800a3a3 	sb	v1,24(sp)
1d012b30:	02171600 	srl	v0,s6,0x1c
1d012b34:	00a91500 	sll	s5,s5,0x4
1d012b38:	25a85500 	or	s5,v0,s5
1d012b3c:	00b11600 	sll	s6,s6,0x4
1d012b40:	1800a427 	addiu	a0,sp,24
1d012b44:	21280000 	move	a1,zero
1d012b48:	1669400f 	jal	0x1d01a458
1d012b4c:	10000624 	li	a2,16
1d012b50:	c31f0200 	sra	v1,v0,0x1f
1d012b54:	21b05600 	addu	s6,v0,s6
1d012b58:	2b10c202 	sltu	v0,s6,v0
1d012b5c:	21a87500 	addu	s5,v1,s5
1d012b60:	00008392 	lbu	v1,0(s4)
1d012b64:	07006010 	beqz	v1,0x1d012b84
1d012b68:	21a85500 	addu	s5,v0,s5
1d012b6c:	efff9756 	bnel	s4,s7,0x1d012b2c
1d012b70:	01009426 	addiu	s4,s4,1
1d012b74:	e24a400b 	j	0x1d012b88
1d012b78:	1000b6af 	sw	s6,16(sp)
1d012b7c:	21b00000 	move	s6,zero
1d012b80:	21a80000 	move	s5,zero
1d012b84:	1000b6af 	sw	s6,16(sp)
1d012b88:	1400b5af 	sw	s5,20(sp)
1d012b8c:	00000792 	lbu	a3,0(s0)
1d012b90:	21280000 	move	a1,zero
1d012b94:	0200462e 	sltiu	a2,s2,2
1d012b98:	f8ff0824 	li	t0,-8
1d012b9c:	2310e500 	subu	v0,a3,a1
1d012ba0:	ff004230 	andi	v0,v0,0xff
1d012ba4:	21105100 	addu	v0,v0,s1
1d012ba8:	0900c014 	bnez	a2,0x1d012bd0
1d012bac:	00004390 	lbu	v1,0(v0)
1d012bb0:	01000224 	li	v0,1
1d012bb4:	21200202 	addu	a0,s0,v0
1d012bb8:	00008490 	lbu	a0,0(a0)
1d012bbc:	26186400 	xor	v1,v1,a0
1d012bc0:	21187100 	addu	v1,v1,s1
1d012bc4:	01004224 	addiu	v0,v0,1
1d012bc8:	faff4216 	bne	s2,v0,0x1d012bb4
1d012bcc:	00006390 	lbu	v1,0(v1)
1d012bd0:	1000a427 	addiu	a0,sp,16
1d012bd4:	21108500 	addu	v0,a0,a1
1d012bd8:	07004290 	lbu	v0,7(v0)
1d012bdc:	0e014354 	bnel	v0,v1,0x1d013018
1d012be0:	0b807302 	movn	s0,s3,s3
1d012be4:	ffffa524 	addiu	a1,a1,-1
1d012be8:	edffa814 	bne	a1,t0,0x1d012ba0
1d012bec:	2310e500 	subu	v0,a3,a1
1d012bf0:	474c400b 	j	0x1d01311c
1d012bf4:	1800a0af 	sw	zero,24(sp)
1d012bf8:	1800a48f 	lw	a0,24(sp)
1d012bfc:	36018314 	bne	a0,v1,0x1d0130d8
1d012c00:	21200002 	move	a0,s0
1d012c04:	029d043c 	lui	a0,0x9d02
1d012c08:	68a18424 	addiu	a0,a0,-24216
1d012c0c:	21284000 	move	a1,v0
1d012c10:	5a6f400f 	jal	0x1d01bd68
1d012c14:	08000624 	li	a2,8
1d012c18:	2f014014 	bnez	v0,0x1d0130d8
1d012c1c:	21200002 	move	a0,s0
1d012c20:	304c400b 	j	0x1d0130c0
1d012c24:	00000000 	nop
1d012c28:	fe49400f 	jal	0x1d0127f8
1d012c2c:	00000000 	nop
1d012c30:	21200002 	move	a0,s0
1d012c34:	21286002 	move	a1,s3
1d012c38:	0349400f 	jal	0x1d01240c
1d012c3c:	21304000 	move	a2,v0
1d012c40:	f5004050 	beqzl	v0,0x1d013018
1d012c44:	0b807302 	movn	s0,s3,s3
1d012c48:	fe49400f 	jal	0x1d0127f8
1d012c4c:	00000000 	nop
1d012c50:	21200002 	move	a0,s0
1d012c54:	21286002 	move	a1,s3
1d012c58:	2549400f 	jal	0x1d012494
1d012c5c:	21304000 	move	a2,v0
1d012c60:	ed004050 	beqzl	v0,0x1d013018
1d012c64:	0b807302 	movn	s0,s3,s3
1d012c68:	21200002 	move	a0,s0
1d012c6c:	21286002 	move	a1,s3
1d012c70:	01a0023c 	lui	v0,0xa001
1d012c74:	5b49400f 	jal	0x1d01256c
1d012c78:	e4354624 	addiu	a2,v0,13796
1d012c7c:	e6004050 	beqzl	v0,0x1d013018
1d012c80:	0b807302 	movn	s0,s3,s3
1d012c84:	21200002 	move	a0,s0
1d012c88:	21286002 	move	a1,s3
1d012c8c:	01a0023c 	lui	v0,0xa001
1d012c90:	7f49400f 	jal	0x1d0125fc
1d012c94:	e4354624 	addiu	a2,v0,13796
1d012c98:	df004050 	beqzl	v0,0x1d013018
1d012c9c:	0b807302 	movn	s0,s3,s3
1d012ca0:	1800a0af 	sw	zero,24(sp)
1d012ca4:	21200002 	move	a0,s0
1d012ca8:	21286002 	move	a1,s3
1d012cac:	2000a68f 	lw	a2,32(sp)
1d012cb0:	7748400f 	jal	0x1d0121dc
1d012cb4:	1800a727 	addiu	a3,sp,24
1d012cb8:	0d014010 	beqz	v0,0x1d0130f0
1d012cbc:	21904000 	move	s2,v0
1d012cc0:	01a0043c 	lui	a0,0xa001
1d012cc4:	016b400f 	jal	0x1d01ac04
1d012cc8:	0c368424 	addiu	a0,a0,13836
1d012ccc:	1800a38f 	lw	v1,24(sp)
1d012cd0:	d1004354 	bnel	v0,v1,0x1d013018
1d012cd4:	0b807302 	movn	s0,s3,s3
1d012cd8:	01a0043c 	lui	a0,0xa001
1d012cdc:	0c368424 	addiu	a0,a0,13836
1d012ce0:	21284002 	move	a1,s2
1d012ce4:	5a6f400f 	jal	0x1d01bd68
1d012ce8:	21304000 	move	a2,v0
1d012cec:	ca004054 	bnezl	v0,0x1d013018
1d012cf0:	0b807302 	movn	s0,s3,s3
1d012cf4:	3d4c400b 	j	0x1d0130f4
1d012cf8:	1c00a0af 	sw	zero,28(sp)
1d012cfc:	1c00a48f 	lw	a0,28(sp)
1d012d00:	c5008354 	bnel	a0,v1,0x1d013018
1d012d04:	0b807302 	movn	s0,s3,s3
1d012d08:	029d043c 	lui	a0,0x9d02
1d012d0c:	08a18424 	addiu	a0,a0,-24312
1d012d10:	21284000 	move	a1,v0
1d012d14:	5a6f400f 	jal	0x1d01bd68
1d012d18:	04000624 	li	a2,4
1d012d1c:	be004054 	bnezl	v0,0x1d013018
1d012d20:	0b807302 	movn	s0,s3,s3
1d012d24:	1800a0af 	sw	zero,24(sp)
1d012d28:	21200002 	move	a0,s0
1d012d2c:	21286002 	move	a1,s3
1d012d30:	029d063c 	lui	a2,0x9d02
1d012d34:	7ca1c624 	addiu	a2,a2,-24196
1d012d38:	7748400f 	jal	0x1d0121dc
1d012d3c:	1800a727 	addiu	a3,sp,24
1d012d40:	61004010 	beqz	v0,0x1d012ec8
1d012d44:	01a0033c 	lui	v1,0xa001
1d012d48:	20366390 	lbu	v1,13856(v1)
1d012d4c:	61006014 	bnez	v1,0x1d012ed4
1d012d50:	01000324 	li	v1,1
1d012d54:	01000424 	li	a0,1
1d012d58:	01a0033c 	lui	v1,0xa001
1d012d5c:	213664a0 	sb	a0,13857(v1)
1d012d60:	f36d400f 	jal	0x1d01b7cc
1d012d64:	21204000 	move	a0,v0
1d012d68:	aa004018 	blez	v0,0x1d013014
1d012d6c:	21904000 	move	s2,v0
1d012d70:	01a0023c 	lui	v0,0xa001
1d012d74:	2436428c 	lw	v0,13860(v0)
1d012d78:	06004014 	bnez	v0,0x1d012d94
1d012d7c:	01a0023c 	lui	v0,0xa001
1d012d80:	5048400f 	jal	0x1d012140
1d012d84:	21200000 	move	a0,zero
1d012d88:	01a0033c 	lui	v1,0xa001
1d012d8c:	243662ac 	sw	v0,13860(v1)
1d012d90:	01a0023c 	lui	v0,0xa001
1d012d94:	2436428c 	lw	v0,13860(v0)
1d012d98:	23904202 	subu	s2,s2,v0
1d012d9c:	9d00401a 	blez	s2,0x1d013014
1d012da0:	079d043c 	lui	a0,0x9d07
1d012da4:	00c08434 	ori	a0,a0,0xc000
1d012da8:	079d053c 	lui	a1,0x9d07
1d012dac:	80c0a534 	ori	a1,a1,0xc080
1d012db0:	00008390 	lbu	v1,0(a0)
1d012db4:	ff006330 	andi	v1,v1,0xff
1d012db8:	01006230 	andi	v0,v1,0x1
1d012dbc:	06004014 	bnez	v0,0x1d012dd8
1d012dc0:	02000224 	li	v0,2
1d012dc4:	24304300 	and	a2,v0,v1
1d012dc8:	2e00c050 	beqzl	a2,0x1d012e84
1d012dcc:	40100200 	sll	v0,v0,0x1
1d012dd0:	784b400b 	j	0x1d012de0
1d012dd4:	27100200 	nor	v0,zero,v0
1d012dd8:	01000224 	li	v0,1
1d012ddc:	27100200 	nor	v0,zero,v0
1d012de0:	ff004330 	andi	v1,v0,0xff
1d012de4:	03008230 	andi	v0,a0,0x3
1d012de8:	01000524 	li	a1,1
1d012dec:	11004550 	beql	v0,a1,0x1d012e34
1d012df0:	001a0300 	sll	v1,v1,0x8
1d012df4:	02004528 	slti	a1,v0,2
1d012df8:	0500a050 	beqzl	a1,0x1d012e10
1d012dfc:	02000524 	li	a1,2
1d012e00:	0a004050 	beqzl	v0,0x1d012e2c
1d012e04:	00ff0524 	li	a1,-256
1d012e08:	984b400b 	j	0x1d012e60
1d012e0c:	21280000 	move	a1,zero
1d012e10:	0c004550 	beql	v0,a1,0x1d012e44
1d012e14:	001c0300 	sll	v1,v1,0x10
1d012e18:	03000524 	li	a1,3
1d012e1c:	0d004550 	beql	v0,a1,0x1d012e54
1d012e20:	001e0300 	sll	v1,v1,0x18
1d012e24:	984b400b 	j	0x1d012e60
1d012e28:	21280000 	move	a1,zero
1d012e2c:	984b400b 	j	0x1d012e60
1d012e30:	25286500 	or	a1,v1,a1
1d012e34:	ffff023c 	lui	v0,0xffff
1d012e38:	ff004224 	addiu	v0,v0,255
1d012e3c:	984b400b 	j	0x1d012e60
1d012e40:	25286200 	or	a1,v1,v0
1d012e44:	00ff023c 	lui	v0,0xff00
1d012e48:	ffff4234 	ori	v0,v0,0xffff
1d012e4c:	984b400b 	j	0x1d012e60
1d012e50:	25286200 	or	a1,v1,v0
1d012e54:	ff00023c 	lui	v0,0xff
1d012e58:	ffff4234 	ori	v0,v0,0xffff
1d012e5c:	25286200 	or	a1,v1,v0
1d012e60:	ffff0224 	li	v0,-1
1d012e64:	0f00a210 	beq	a1,v0,0x1d012ea4
1d012e68:	01a0023c 	lui	v0,0xa001
1d012e6c:	9570400f 	jal	0x1d01c254
1d012e70:	00000000 	nop
1d012e74:	0b004010 	beqz	v0,0x1d012ea4
1d012e78:	01a0023c 	lui	v0,0xa001
1d012e7c:	064c400b 	j	0x1d013018
1d012e80:	0b807302 	movn	s0,s3,s3
1d012e84:	ff004230 	andi	v0,v0,0xff
1d012e88:	cfff4014 	bnez	v0,0x1d012dc8
1d012e8c:	24304300 	and	a2,v0,v1
1d012e90:	01008424 	addiu	a0,a0,1
1d012e94:	c6ff8514 	bne	a0,a1,0x1d012db0
1d012e98:	00000000 	nop
1d012e9c:	064c400b 	j	0x1d013018
1d012ea0:	0b807302 	movn	s0,s3,s3
1d012ea4:	2436428c 	lw	v0,13860(v0)
1d012ea8:	04004010 	beqz	v0,0x1d012ebc
1d012eac:	ffff5226 	addiu	s2,s2,-1
1d012eb0:	01004224 	addiu	v0,v0,1
1d012eb4:	01a0033c 	lui	v1,0xa001
1d012eb8:	243662ac 	sw	v0,13860(v1)
1d012ebc:	01a0023c 	lui	v0,0xa001
1d012ec0:	b44b400b 	j	0x1d012ed0
1d012ec4:	283652ac 	sw	s2,13864(v0)
1d012ec8:	01a0023c 	lui	v0,0xa001
1d012ecc:	213640a0 	sb	zero,13857(v0)
1d012ed0:	01000324 	li	v1,1
1d012ed4:	01a0023c 	lui	v0,0xa001
1d012ed8:	203643a0 	sb	v1,13856(v0)
1d012edc:	00000000 	nop
1d012ee0:	064c400b 	j	0x1d013018
1d012ee4:	0b807302 	movn	s0,s3,s3
1d012ee8:	4b006054 	bnezl	v1,0x1d013018
1d012eec:	0b807302 	movn	s0,s3,s3
1d012ef0:	48004010 	beqz	v0,0x1d013014
1d012ef4:	21200002 	move	a0,s0
1d012ef8:	ad48400f 	jal	0x1d0122b4
1d012efc:	21286002 	move	a1,s3
1d012f00:	45004050 	beqzl	v0,0x1d013018
1d012f04:	0b807302 	movn	s0,s3,s3
1d012f08:	fe49400f 	jal	0x1d0127f8
1d012f0c:	00000000 	nop
1d012f10:	21200002 	move	a0,s0
1d012f14:	21286002 	move	a1,s3
1d012f18:	0349400f 	jal	0x1d01240c
1d012f1c:	21304000 	move	a2,v0
1d012f20:	3d004050 	beqzl	v0,0x1d013018
1d012f24:	0b807302 	movn	s0,s3,s3
1d012f28:	fe49400f 	jal	0x1d0127f8
1d012f2c:	00000000 	nop
1d012f30:	21200002 	move	a0,s0
1d012f34:	21286002 	move	a1,s3
1d012f38:	2549400f 	jal	0x1d012494
1d012f3c:	21304000 	move	a2,v0
1d012f40:	35004050 	beqzl	v0,0x1d013018
1d012f44:	0b807302 	movn	s0,s3,s3
1d012f48:	21200002 	move	a0,s0
1d012f4c:	21286002 	move	a1,s3
1d012f50:	01a0023c 	lui	v0,0xa001
1d012f54:	5b49400f 	jal	0x1d01256c
1d012f58:	e4354624 	addiu	a2,v0,13796
1d012f5c:	2e004050 	beqzl	v0,0x1d013018
1d012f60:	0b807302 	movn	s0,s3,s3
1d012f64:	21200002 	move	a0,s0
1d012f68:	21286002 	move	a1,s3
1d012f6c:	01a0023c 	lui	v0,0xa001
1d012f70:	7f49400f 	jal	0x1d0125fc
1d012f74:	e4354624 	addiu	a2,v0,13796
1d012f78:	27004050 	beqzl	v0,0x1d013018
1d012f7c:	0b807302 	movn	s0,s3,s3
1d012f80:	1800a0af 	sw	zero,24(sp)
1d012f84:	21200002 	move	a0,s0
1d012f88:	21286002 	move	a1,s3
1d012f8c:	2000a68f 	lw	a2,32(sp)
1d012f90:	7748400f 	jal	0x1d0121dc
1d012f94:	1800a727 	addiu	a3,sp,24
1d012f98:	1e004010 	beqz	v0,0x1d013014
1d012f9c:	21904000 	move	s2,v0
1d012fa0:	21200002 	move	a0,s0
1d012fa4:	029d023c 	lui	v0,0x9d02
1d012fa8:	946e400f 	jal	0x1d01ba50
1d012fac:	84a14524 	addiu	a1,v0,-24188
1d012fb0:	03006012 	beqz	s3,0x1d012fc0
1d012fb4:	2b186202 	sltu	v1,s3,v0
1d012fb8:	62006014 	bnez	v1,0x1d013144
1d012fbc:	21200002 	move	a0,s0
1d012fc0:	15004054 	bnezl	v0,0x1d013018
1d012fc4:	0b807302 	movn	s0,s3,s3
1d012fc8:	21200002 	move	a0,s0
1d012fcc:	029d053c 	lui	a1,0x9d02
1d012fd0:	946e400f 	jal	0x1d01ba50
1d012fd4:	90a1a524 	addiu	a1,a1,-24176
1d012fd8:	03006012 	beqz	s3,0x1d012fe8
1d012fdc:	2b186202 	sltu	v1,s3,v0
1d012fe0:	04006014 	bnez	v1,0x1d012ff4
1d012fe4:	1800a68f 	lw	a2,24(sp)
1d012fe8:	0b004054 	bnezl	v0,0x1d013018
1d012fec:	0b807302 	movn	s0,s3,s3
1d012ff0:	1800a68f 	lw	a2,24(sp)
1d012ff4:	1200c22c 	sltiu	v0,a2,18
1d012ff8:	07004050 	beqzl	v0,0x1d013018
1d012ffc:	0b807302 	movn	s0,s3,s3
1d013000:	01a0043c 	lui	a0,0xa001
1d013004:	0c368424 	addiu	a0,a0,13836
1d013008:	3d6f400f 	jal	0x1d01bcf4
1d01300c:	21284002 	move	a1,s2
1d013010:	00000000 	nop
1d013014:	0b807302 	movn	s0,s3,s3
1d013018:	00000292 	lbu	v0,0(s0)
1d01301c:	ffff4324 	addiu	v1,v0,-1
1d013020:	ff006330 	andi	v1,v1,0xff
1d013024:	7e00632c 	sltiu	v1,v1,126
1d013028:	13006010 	beqz	v1,0x1d013078
1d01302c:	0a000324 	li	v1,10
1d013030:	21980002 	move	s3,s0
1d013034:	07004314 	bne	v0,v1,0x1d013054
1d013038:	0a000424 	li	a0,10
1d01303c:	1f4c400b 	j	0x1d01307c
1d013040:	01007326 	addiu	s3,s3,1
1d013044:	04004414 	bne	v0,a0,0x1d013058
1d013048:	01007326 	addiu	s3,s3,1
1d01304c:	204c400b 	j	0x1d013080
1d013050:	21900002 	move	s2,s0
1d013054:	01007326 	addiu	s3,s3,1
1d013058:	00006292 	lbu	v0,0(s3)
1d01305c:	ffff4324 	addiu	v1,v0,-1
1d013060:	ff006330 	andi	v1,v1,0xff
1d013064:	7e00632c 	sltiu	v1,v1,126
1d013068:	f6ff6014 	bnez	v1,0x1d013044
1d01306c:	21900002 	move	s2,s0
1d013070:	204c400b 	j	0x1d013080
1d013074:	00000000 	nop
1d013078:	21980002 	move	s3,s0
1d01307c:	21900002 	move	s2,s0
1d013080:	98fe7016 	bne	s3,s0,0x1d012ae4
1d013084:	01a0023c 	lui	v0,0xa001
1d013088:	2f8080a3 	sb	zero,-32721(gp)
1d01308c:	2436428c 	lw	v0,13860(v0)
1d013090:	06004014 	bnez	v0,0x1d0130ac
1d013094:	01a0023c 	lui	v0,0xa001
1d013098:	5048400f 	jal	0x1d012140
1d01309c:	21200000 	move	a0,zero
1d0130a0:	01a0033c 	lui	v1,0xa001
1d0130a4:	243662ac 	sw	v0,13860(v1)
1d0130a8:	01a0023c 	lui	v0,0xa001
1d0130ac:	21364390 	lbu	v1,13857(v0)
1d0130b0:	2f808293 	lbu	v0,-32721(gp)
1d0130b4:	25106200 	or	v0,v1,v0
1d0130b8:	564c400b 	j	0x1d013158
1d0130bc:	2f8082a3 	sb	v0,-32721(gp)
1d0130c0:	ad48400f 	jal	0x1d0122b4
1d0130c4:	21286002 	move	a1,s3
1d0130c8:	d3ff4050 	beqzl	v0,0x1d013018
1d0130cc:	0b807302 	movn	s0,s3,s3
1d0130d0:	0a4b400b 	j	0x1d012c28
1d0130d4:	00000000 	nop
1d0130d8:	946e400f 	jal	0x1d01ba50
1d0130dc:	2000a58f 	lw	a1,32(sp)
1d0130e0:	81ff6016 	bnez	s3,0x1d012ee8
1d0130e4:	2b186202 	sltu	v1,s3,v0
1d0130e8:	bc4b400b 	j	0x1d012ef0
1d0130ec:	00000000 	nop
1d0130f0:	1c00a0af 	sw	zero,28(sp)
1d0130f4:	21200002 	move	a0,s0
1d0130f8:	21286002 	move	a1,s3
1d0130fc:	029d063c 	lui	a2,0x9d02
1d013100:	90a1c624 	addiu	a2,a2,-24176
1d013104:	7748400f 	jal	0x1d0121dc
1d013108:	1c00a727 	addiu	a3,sp,28
1d01310c:	fbfe4014 	bnez	v0,0x1d012cfc
1d013110:	04000324 	li	v1,4
1d013114:	064c400b 	j	0x1d013018
1d013118:	0b807302 	movn	s0,s3,s3
1d01311c:	21200002 	move	a0,s0
1d013120:	21286002 	move	a1,s3
1d013124:	029d023c 	lui	v0,0x9d02
1d013128:	84a14624 	addiu	a2,v0,-24188
1d01312c:	7748400f 	jal	0x1d0121dc
1d013130:	1800a727 	addiu	a3,sp,24
1d013134:	b0fe4014 	bnez	v0,0x1d012bf8
1d013138:	08000324 	li	v1,8
1d01313c:	364c400b 	j	0x1d0130d8
1d013140:	21200002 	move	a0,s0
1d013144:	029d053c 	lui	a1,0x9d02
1d013148:	946e400f 	jal	0x1d01ba50
1d01314c:	90a1a524 	addiu	a1,a1,-24176
1d013150:	f84b400b 	j	0x1d012fe0
1d013154:	2b186202 	sltu	v1,s3,v0
1d013158:	4c00bf8f 	lw	ra,76(sp)
1d01315c:	4800be8f 	lw	s8,72(sp)
1d013160:	4400b78f 	lw	s7,68(sp)
1d013164:	4000b68f 	lw	s6,64(sp)
1d013168:	3c00b58f 	lw	s5,60(sp)
1d01316c:	3800b48f 	lw	s4,56(sp)
1d013170:	3400b38f 	lw	s3,52(sp)
1d013174:	3000b28f 	lw	s2,48(sp)
1d013178:	2c00b18f 	lw	s1,44(sp)
1d01317c:	2800b08f 	lw	s0,40(sp)
1d013180:	0800e003 	jr	ra
1d013184:	5000bd27 	addiu	sp,sp,80
1d013188:	c8ffbd27 	addiu	sp,sp,-56
1d01318c:	3400bfaf 	sw	ra,52(sp)
1d013190:	3000b7af 	sw	s7,48(sp)
1d013194:	2c00b6af 	sw	s6,44(sp)
1d013198:	2800b5af 	sw	s5,40(sp)
1d01319c:	2400b4af 	sw	s4,36(sp)
1d0131a0:	2000b3af 	sw	s3,32(sp)
1d0131a4:	1c00b2af 	sw	s2,28(sp)
1d0131a8:	1800b1af 	sw	s1,24(sp)
1d0131ac:	1400b0af 	sw	s0,20(sp)
1d0131b0:	21a8a000 	move	s5,a1
1d0131b4:	0110a32c 	sltiu	v1,a1,4097
1d0131b8:	94006010 	beqz	v1,0x1d01340c
1d0131bc:	21100000 	move	v0,zero
1d0131c0:	21908000 	move	s2,a0
1d0131c4:	079d113c 	lui	s1,0x9d07
1d0131c8:	cf70400f 	jal	0x1d01c33c
1d0131cc:	00d02436 	ori	a0,s1,0xd000
1d0131d0:	21984000 	move	s3,v0
1d0131d4:	ffdf2436 	ori	a0,s1,0xdfff
1d0131d8:	ff00053c 	lui	a1,0xff
1d0131dc:	9570400f 	jal	0x1d01c254
1d0131e0:	ffffa534 	ori	a1,a1,0xffff
1d0131e4:	0100422c 	sltiu	v0,v0,1
1d0131e8:	0100732e 	sltiu	s3,s3,1
1d0131ec:	7f00a012 	beqz	s5,0x1d0133ec
1d0131f0:	24b85300 	and	s7,v0,s3
1d0131f4:	03004232 	andi	v0,s2,0x3
1d0131f8:	13004050 	beqzl	v0,0x1d013248
1d0131fc:	0400a22e 	sltiu	v0,s5,4
1d013200:	2188a002 	move	s1,s5
1d013204:	21800000 	move	s0,zero
1d013208:	00ff1424 	li	s4,-256
1d01320c:	ffff1324 	li	s3,-1
1d013210:	079d163c 	lui	s6,0x9d07
1d013214:	00d0d636 	ori	s6,s6,0xd000
1d013218:	00004592 	lbu	a1,0(s2)
1d01321c:	2528b400 	or	a1,a1,s4
1d013220:	0300b310 	beq	a1,s3,0x1d013230
1d013224:	21100000 	move	v0,zero
1d013228:	9570400f 	jal	0x1d01c254
1d01322c:	2120c002 	move	a0,s6
1d013230:	2b100200 	sltu	v0,zero,v0
1d013234:	ffff3126 	addiu	s1,s1,-1
1d013238:	f7ff2016 	bnez	s1,0x1d013218
1d01323c:	25800202 	or	s0,s0,v0
1d013240:	fe4c400b 	j	0x1d0133f8
1d013244:	079d043c 	lui	a0,0x9d07
1d013248:	1e004014 	bnez	v0,0x1d0132c4
1d01324c:	2198a002 	move	s3,s5
1d013250:	21884002 	move	s1,s2
1d013254:	21800000 	move	s0,zero
1d013258:	079d043c 	lui	a0,0x9d07
1d01325c:	00d08434 	ori	a0,a0,0xd000
1d013260:	ffff1624 	li	s6,-1
1d013264:	04009424 	addiu	s4,a0,4
1d013268:	04003126 	addiu	s1,s1,4
1d01326c:	fcff258e 	lw	a1,-4(s1)
1d013270:	0300b610 	beq	a1,s6,0x1d013280
1d013274:	21100000 	move	v0,zero
1d013278:	9570400f 	jal	0x1d01c254
1d01327c:	00000000 	nop
1d013280:	25800202 	or	s0,s0,v0
1d013284:	fcff7326 	addiu	s3,s3,-4
1d013288:	0400622e 	sltiu	v0,s3,4
1d01328c:	03004054 	bnezl	v0,0x1d01329c
1d013290:	fcffb126 	addiu	s1,s5,-4
1d013294:	994c400b 	j	0x1d013264
1d013298:	21208002 	move	a0,s4
1d01329c:	82181100 	srl	v1,s1,0x2
1d0132a0:	80100300 	sll	v0,v1,0x2
1d0132a4:	079d043c 	lui	a0,0x9d07
1d0132a8:	04d08434 	ori	a0,a0,0xd004
1d0132ac:	21204400 	addu	a0,v0,a0
1d0132b0:	01006324 	addiu	v1,v1,1
1d0132b4:	80180300 	sll	v1,v1,0x2
1d0132b8:	21904302 	addu	s2,s2,v1
1d0132bc:	b54c400b 	j	0x1d0132d4
1d0132c0:	23882202 	subu	s1,s1,v0
1d0132c4:	2188a002 	move	s1,s5
1d0132c8:	21800000 	move	s0,zero
1d0132cc:	079d043c 	lui	a0,0x9d07
1d0132d0:	00d08434 	ori	a0,a0,0xd000
1d0132d4:	02000224 	li	v0,2
1d0132d8:	12002252 	beql	s1,v0,0x1d013324
1d0132dc:	0000458e 	lw	a1,0(s2)
1d0132e0:	03000224 	li	v0,3
1d0132e4:	06002252 	beql	s1,v0,0x1d013300
1d0132e8:	0000458e 	lw	a1,0(s2)
1d0132ec:	01000224 	li	v0,1
1d0132f0:	1e002256 	bnel	s1,v0,0x1d01336c
1d0132f4:	0100102e 	sltiu	s0,s0,1
1d0132f8:	d24c400b 	j	0x1d013348
1d0132fc:	0000458e 	lw	a1,0(s2)
1d013300:	00ff023c 	lui	v0,0xff00
1d013304:	2528a200 	or	a1,a1,v0
1d013308:	ffff0324 	li	v1,-1
1d01330c:	0300a310 	beq	a1,v1,0x1d01331c
1d013310:	21100000 	move	v0,zero
1d013314:	9570400f 	jal	0x1d01c254
1d013318:	00000000 	nop
1d01331c:	da4c400b 	j	0x1d013368
1d013320:	25800202 	or	s0,s0,v0
1d013324:	ffff023c 	lui	v0,0xffff
1d013328:	2528a200 	or	a1,a1,v0
1d01332c:	ffff0324 	li	v1,-1
1d013330:	0300a310 	beq	a1,v1,0x1d013340
1d013334:	21100000 	move	v0,zero
1d013338:	9570400f 	jal	0x1d01c254
1d01333c:	00000000 	nop
1d013340:	da4c400b 	j	0x1d013368
1d013344:	25800202 	or	s0,s0,v0
1d013348:	00ff0224 	li	v0,-256
1d01334c:	2528a200 	or	a1,a1,v0
1d013350:	ffff0324 	li	v1,-1
1d013354:	0300a310 	beq	a1,v1,0x1d013364
1d013358:	21100000 	move	v0,zero
1d01335c:	9570400f 	jal	0x1d01c254
1d013360:	00000000 	nop
1d013364:	25800202 	or	s0,s0,v0
1d013368:	0100102e 	sltiu	s0,s0,1
1d01336c:	24b8f002 	and	s7,s7,s0
1d013370:	0010a32a 	slti	v1,s5,4096
1d013374:	25006010 	beqz	v1,0x1d01340c
1d013378:	2110e002 	move	v0,s7
1d01337c:	079d043c 	lui	a0,0x9d07
1d013380:	00d08434 	ori	a0,a0,0xd000
1d013384:	2120a402 	addu	a0,s5,a0
1d013388:	03008230 	andi	v0,a0,0x3
1d01338c:	01000324 	li	v1,1
1d013390:	1b004310 	beq	v0,v1,0x1d013400
1d013394:	02004328 	slti	v1,v0,2
1d013398:	05006010 	beqz	v1,0x1d0133b0
1d01339c:	02000324 	li	v1,2
1d0133a0:	0d004010 	beqz	v0,0x1d0133d8
1d0133a4:	00ff0524 	li	a1,-256
1d0133a8:	f64c400b 	j	0x1d0133d8
1d0133ac:	21280000 	move	a1,zero
1d0133b0:	05004310 	beq	v0,v1,0x1d0133c8
1d0133b4:	03000324 	li	v1,3
1d0133b8:	06004350 	beql	v0,v1,0x1d0133d4
1d0133bc:	ff00053c 	lui	a1,0xff
1d0133c0:	f64c400b 	j	0x1d0133d8
1d0133c4:	21280000 	move	a1,zero
1d0133c8:	00ff053c 	lui	a1,0xff00
1d0133cc:	f64c400b 	j	0x1d0133d8
1d0133d0:	ffffa534 	ori	a1,a1,0xffff
1d0133d4:	ffffa534 	ori	a1,a1,0xffff
1d0133d8:	9570400f 	jal	0x1d01c254
1d0133dc:	00000000 	nop
1d0133e0:	0100422c 	sltiu	v0,v0,1
1d0133e4:	034d400b 	j	0x1d01340c
1d0133e8:	2410e202 	and	v0,s7,v0
1d0133ec:	2188a002 	move	s1,s5
1d0133f0:	21800000 	move	s0,zero
1d0133f4:	079d043c 	lui	a0,0x9d07
1d0133f8:	b54c400b 	j	0x1d0132d4
1d0133fc:	00d08434 	ori	a0,a0,0xd000
1d013400:	ffff053c 	lui	a1,0xffff
1d013404:	f64c400b 	j	0x1d0133d8
1d013408:	ff00a524 	addiu	a1,a1,255
1d01340c:	3400bf8f 	lw	ra,52(sp)
1d013410:	3000b78f 	lw	s7,48(sp)
1d013414:	2c00b68f 	lw	s6,44(sp)
1d013418:	2800b58f 	lw	s5,40(sp)
1d01341c:	2400b48f 	lw	s4,36(sp)
1d013420:	2000b38f 	lw	s3,32(sp)
1d013424:	1c00b28f 	lw	s2,28(sp)
1d013428:	1800b18f 	lw	s1,24(sp)
1d01342c:	1400b08f 	lw	s0,20(sp)
1d013430:	0800e003 	jr	ra
1d013434:	3800bd27 	addiu	sp,sp,56
1d013438:	e8ffbd27 	addiu	sp,sp,-24
1d01343c:	1400bfaf 	sw	ra,20(sp)
1d013440:	1000b0af 	sw	s0,16(sp)
1d013444:	016b400f 	jal	0x1d01ac04
1d013448:	21808000 	move	s0,a0
1d01344c:	21200002 	move	a0,s0
1d013450:	624c400f 	jal	0x1d013188
1d013454:	01004524 	addiu	a1,v0,1
1d013458:	1400bf8f 	lw	ra,20(sp)
1d01345c:	1000b08f 	lw	s0,16(sp)
1d013460:	0800e003 	jr	ra
1d013464:	1800bd27 	addiu	sp,sp,24

Disassembly of section .sec69:

1d013468 <.sec69>:
1d013468:	03008010 	beqz	a0,0x1d013478
1d01346c:	c48084af 	sw	a0,-32572(gp)
1d013470:	c880828f 	lw	v0,-32568(gp)
1d013474:	288082af 	sw	v0,-32728(gp)
1d013478:	0800e003 	jr	ra
1d01347c:	00000000 	nop
1d013480:	d0ffbd27 	addiu	sp,sp,-48
1d013484:	2c00bfaf 	sw	ra,44(sp)
1d013488:	2800b1af 	sw	s1,40(sp)
1d01348c:	2400b0af 	sw	s0,36(sp)
1d013490:	c480828f 	lw	v0,-32572(gp)
1d013494:	20004230 	andi	v0,v0,0x20
1d013498:	3a004010 	beqz	v0,0x1d013584
1d01349c:	21888000 	move	s1,a0
1d0134a0:	00a0023c 	lui	v0,0xa000
1d0134a4:	f40c4324 	addiu	v1,v0,3316
1d0134a8:	0400638c 	lw	v1,4(v1)
1d0134ac:	ff0f6330 	andi	v1,v1,0xfff
1d0134b0:	f40c448c 	lw	a0,3316(v0)
1d0134b4:	ff0f8430 	andi	a0,a0,0xfff
1d0134b8:	01006224 	addiu	v0,v1,1
1d0134bc:	ff0f4230 	andi	v0,v0,0xfff
1d0134c0:	30008210 	beq	a0,v0,0x1d013584
1d0134c4:	00190300 	sll	v1,v1,0x4
1d0134c8:	08006324 	addiu	v1,v1,8
1d0134cc:	00a0023c 	lui	v0,0xa000
1d0134d0:	f40c4224 	addiu	v0,v0,3316
1d0134d4:	21184300 	addu	v1,v0,v1
1d0134d8:	0400228e 	lw	v0,4(s1)
1d0134dc:	0007467c 	ext	a2,v0,0x1c,0x1
1d0134e0:	0800c010 	beqz	a2,0x1d013504
1d0134e4:	0f004530 	andi	a1,v0,0xf
1d0134e8:	0000248e 	lw	a0,0(s1)
1d0134ec:	ff078430 	andi	a0,a0,0x7ff
1d0134f0:	80240400 	sll	a0,a0,0x12
1d0134f4:	0400228e 	lw	v0,4(s1)
1d0134f8:	808a427c 	ext	v0,v0,0xa,0x12
1d0134fc:	434d400b 	j	0x1d01350c
1d013500:	25108200 	or	v0,a0,v0
1d013504:	0000228e 	lw	v0,0(s1)
1d013508:	ff074230 	andi	v0,v0,0x7ff
1d01350c:	0400648c 	lw	a0,4(v1)
1d013510:	04e0447c 	ins	a0,v0,0x0,0x1d
1d013514:	44efc47c 	ins	a0,a2,0x1d,0x1
1d013518:	0000628c 	lw	v0,0(v1)
1d01351c:	84ffa27c 	ins	v0,a1,0x1e,0x2
1d013520:	82280500 	srl	a1,a1,0x2
1d013524:	84ffa47c 	ins	a0,a1,0x1e,0x2
1d013528:	040064ac 	sw	a0,4(v1)
1d01352c:	05000424 	li	a0,5
1d013530:	c4ee827c 	ins	v0,a0,0x1b,0x3
1d013534:	c880848f 	lw	a0,-32568(gp)
1d013538:	04d0827c 	ins	v0,a0,0x0,0x1b
1d01353c:	000062ac 	sw	v0,0(v1)
1d013540:	08002226 	addiu	v0,s1,8
1d013544:	03004488 	lwl	a0,3(v0)
1d013548:	00004498 	lwr	a0,0(v0)
1d01354c:	07004588 	lwl	a1,7(v0)
1d013550:	04004598 	lwr	a1,4(v0)
1d013554:	080064ac 	sw	a0,8(v1)
1d013558:	0c0065ac 	sw	a1,12(v1)
1d01355c:	00a0023c 	lui	v0,0xa000
1d013560:	f40c4324 	addiu	v1,v0,3316
1d013564:	0400638c 	lw	v1,4(v1)
1d013568:	01006324 	addiu	v1,v1,1
1d01356c:	ff0f6330 	andi	v1,v1,0xfff
1d013570:	f40c428c 	lw	v0,3316(v0)
1d013574:	ff0f4230 	andi	v0,v0,0xfff
1d013578:	02004310 	beq	v0,v1,0x1d013584
1d01357c:	00a0023c 	lui	v0,0xa000
1d013580:	f80c43ac 	sw	v1,3320(v0)
1d013584:	884d400b 	j	0x1d013620
1d013588:	00a0103c 	lui	s0,0xa000
1d01358c:	3f004230 	andi	v0,v0,0x3f
1d013590:	e8080326 	addiu	v1,s0,2280
1d013594:	0400638c 	lw	v1,4(v1)
1d013598:	3f006330 	andi	v1,v1,0x3f
1d01359c:	20004310 	beq	v0,v1,0x1d013620
1d0135a0:	01004224 	addiu	v0,v0,1
1d0135a4:	3f004230 	andi	v0,v0,0x3f
1d0135a8:	884d400b 	j	0x1d013620
1d0135ac:	e80802ae 	sw	v0,2280(s0)
1d0135b0:	e8086424 	addiu	a0,v1,2280
1d0135b4:	0400858c 	lw	a1,4(a0)
1d0135b8:	3f00a530 	andi	a1,a1,0x3f
1d0135bc:	0100a424 	addiu	a0,a1,1
1d0135c0:	3f008430 	andi	a0,a0,0x3f
1d0135c4:	e808638c 	lw	v1,2280(v1)
1d0135c8:	3f006330 	andi	v1,v1,0x3f
1d0135cc:	0f006410 	beq	v1,a0,0x1d01360c
1d0135d0:	00a0033c 	lui	v1,0xa000
1d0135d4:	00110500 	sll	v0,a1,0x4
1d0135d8:	e8086324 	addiu	v1,v1,2280
1d0135dc:	21104300 	addu	v0,v0,v1
1d0135e0:	0000288e 	lw	t0,0(s1)
1d0135e4:	0400278e 	lw	a3,4(s1)
1d0135e8:	0800268e 	lw	a2,8(s1)
1d0135ec:	0c00258e 	lw	a1,12(s1)
1d0135f0:	0c0048ac 	sw	t0,12(v0)
1d0135f4:	100047ac 	sw	a3,16(v0)
1d0135f8:	140046ac 	sw	a2,20(v0)
1d0135fc:	180045ac 	sw	a1,24(v0)
1d013600:	040064ac 	sw	a0,4(v1)
1d013604:	bf4d400b 	j	0x1d0136fc
1d013608:	01000224 	li	v0,1
1d01360c:	e8086324 	addiu	v1,v1,2280
1d013610:	0800648c 	lw	a0,8(v1)
1d013614:	01008424 	addiu	a0,a0,1
1d013618:	bf4d400b 	j	0x1d0136fc
1d01361c:	080064ac 	sw	a0,8(v1)
1d013620:	e808028e 	lw	v0,2280(s0)
1d013624:	3f004230 	andi	v0,v0,0x3f
1d013628:	e8080326 	addiu	v1,s0,2280
1d01362c:	0400638c 	lw	v1,4(v1)
1d013630:	3f006330 	andi	v1,v1,0x3f
1d013634:	2d004310 	beq	v0,v1,0x1d0136ec
1d013638:	00110200 	sll	v0,v0,0x4
1d01363c:	e8080326 	addiu	v1,s0,2280
1d013640:	21104300 	addu	v0,v0,v1
1d013644:	0c00458c 	lw	a1,12(v0)
1d013648:	1000448c 	lw	a0,16(v0)
1d01364c:	1400438c 	lw	v1,20(v0)
1d013650:	1800428c 	lw	v0,24(v0)
1d013654:	1000a5af 	sw	a1,16(sp)
1d013658:	1400a4af 	sw	a0,20(sp)
1d01365c:	1800a3af 	sw	v1,24(sp)
1d013660:	1c00a2af 	sw	v0,28(sp)
1d013664:	1d58400f 	jal	0x1d016074
1d013668:	1000a427 	addiu	a0,sp,16
1d01366c:	c7ff4054 	bnezl	v0,0x1d01358c
1d013670:	e808028e 	lw	v0,2280(s0)
1d013674:	6c4d400b 	j	0x1d0135b0
1d013678:	00a0033c 	lui	v1,0xa000
1d01367c:	e8086424 	addiu	a0,v1,2280
1d013680:	0400858c 	lw	a1,4(a0)
1d013684:	3f00a530 	andi	a1,a1,0x3f
1d013688:	0100a424 	addiu	a0,a1,1
1d01368c:	3f008430 	andi	a0,a0,0x3f
1d013690:	e808638c 	lw	v1,2280(v1)
1d013694:	3f006330 	andi	v1,v1,0x3f
1d013698:	0f006410 	beq	v1,a0,0x1d0136d8
1d01369c:	00a0033c 	lui	v1,0xa000
1d0136a0:	00110500 	sll	v0,a1,0x4
1d0136a4:	e8086324 	addiu	v1,v1,2280
1d0136a8:	21104300 	addu	v0,v0,v1
1d0136ac:	0000288e 	lw	t0,0(s1)
1d0136b0:	0400278e 	lw	a3,4(s1)
1d0136b4:	0800268e 	lw	a2,8(s1)
1d0136b8:	0c00258e 	lw	a1,12(s1)
1d0136bc:	0c0048ac 	sw	t0,12(v0)
1d0136c0:	100047ac 	sw	a3,16(v0)
1d0136c4:	140046ac 	sw	a2,20(v0)
1d0136c8:	180045ac 	sw	a1,24(v0)
1d0136cc:	040064ac 	sw	a0,4(v1)
1d0136d0:	bf4d400b 	j	0x1d0136fc
1d0136d4:	01000224 	li	v0,1
1d0136d8:	e8086324 	addiu	v1,v1,2280
1d0136dc:	0800648c 	lw	a0,8(v1)
1d0136e0:	01008424 	addiu	a0,a0,1
1d0136e4:	bf4d400b 	j	0x1d0136fc
1d0136e8:	080064ac 	sw	a0,8(v1)
1d0136ec:	1d58400f 	jal	0x1d016074
1d0136f0:	21202002 	move	a0,s1
1d0136f4:	e1ff4010 	beqz	v0,0x1d01367c
1d0136f8:	00a0033c 	lui	v1,0xa000
1d0136fc:	2c00bf8f 	lw	ra,44(sp)
1d013700:	2800b18f 	lw	s1,40(sp)
1d013704:	2400b08f 	lw	s0,36(sp)
1d013708:	0800e003 	jr	ra
1d01370c:	3000bd27 	addiu	sp,sp,48
1d013710:	d0ffbd27 	addiu	sp,sp,-48
1d013714:	2c00bfaf 	sw	ra,44(sp)
1d013718:	2800b1af 	sw	s1,40(sp)
1d01371c:	2400b0af 	sw	s0,36(sp)
1d013720:	c480828f 	lw	v0,-32572(gp)
1d013724:	80004230 	andi	v0,v0,0x80
1d013728:	3a004010 	beqz	v0,0x1d013814
1d01372c:	21888000 	move	s1,a0
1d013730:	00a0023c 	lui	v0,0xa000
1d013734:	f40c4324 	addiu	v1,v0,3316
1d013738:	0400638c 	lw	v1,4(v1)
1d01373c:	ff0f6330 	andi	v1,v1,0xfff
1d013740:	f40c448c 	lw	a0,3316(v0)
1d013744:	ff0f8430 	andi	a0,a0,0xfff
1d013748:	01006224 	addiu	v0,v1,1
1d01374c:	ff0f4230 	andi	v0,v0,0xfff
1d013750:	30008210 	beq	a0,v0,0x1d013814
1d013754:	00190300 	sll	v1,v1,0x4
1d013758:	08006324 	addiu	v1,v1,8
1d01375c:	00a0023c 	lui	v0,0xa000
1d013760:	f40c4224 	addiu	v0,v0,3316
1d013764:	21184300 	addu	v1,v0,v1
1d013768:	0400228e 	lw	v0,4(s1)
1d01376c:	0007467c 	ext	a2,v0,0x1c,0x1
1d013770:	0800c010 	beqz	a2,0x1d013794
1d013774:	0f004530 	andi	a1,v0,0xf
1d013778:	0000248e 	lw	a0,0(s1)
1d01377c:	ff078430 	andi	a0,a0,0x7ff
1d013780:	80240400 	sll	a0,a0,0x12
1d013784:	0400228e 	lw	v0,4(s1)
1d013788:	808a427c 	ext	v0,v0,0xa,0x12
1d01378c:	e74d400b 	j	0x1d01379c
1d013790:	25108200 	or	v0,a0,v0
1d013794:	0000228e 	lw	v0,0(s1)
1d013798:	ff074230 	andi	v0,v0,0x7ff
1d01379c:	0400648c 	lw	a0,4(v1)
1d0137a0:	04e0447c 	ins	a0,v0,0x0,0x1d
1d0137a4:	44efc47c 	ins	a0,a2,0x1d,0x1
1d0137a8:	0000628c 	lw	v0,0(v1)
1d0137ac:	84ffa27c 	ins	v0,a1,0x1e,0x2
1d0137b0:	82280500 	srl	a1,a1,0x2
1d0137b4:	84ffa47c 	ins	a0,a1,0x1e,0x2
1d0137b8:	040064ac 	sw	a0,4(v1)
1d0137bc:	07000424 	li	a0,7
1d0137c0:	c4ee827c 	ins	v0,a0,0x1b,0x3
1d0137c4:	c880848f 	lw	a0,-32568(gp)
1d0137c8:	04d0827c 	ins	v0,a0,0x0,0x1b
1d0137cc:	000062ac 	sw	v0,0(v1)
1d0137d0:	08002226 	addiu	v0,s1,8
1d0137d4:	03004488 	lwl	a0,3(v0)
1d0137d8:	00004498 	lwr	a0,0(v0)
1d0137dc:	07004588 	lwl	a1,7(v0)
1d0137e0:	04004598 	lwr	a1,4(v0)
1d0137e4:	080064ac 	sw	a0,8(v1)
1d0137e8:	0c0065ac 	sw	a1,12(v1)
1d0137ec:	00a0023c 	lui	v0,0xa000
1d0137f0:	f40c4324 	addiu	v1,v0,3316
1d0137f4:	0400638c 	lw	v1,4(v1)
1d0137f8:	01006324 	addiu	v1,v1,1
1d0137fc:	ff0f6330 	andi	v1,v1,0xfff
1d013800:	f40c428c 	lw	v0,3316(v0)
1d013804:	ff0f4230 	andi	v0,v0,0xfff
1d013808:	02004310 	beq	v0,v1,0x1d013814
1d01380c:	00a0023c 	lui	v0,0xa000
1d013810:	f80c43ac 	sw	v1,3320(v0)
1d013814:	2c4e400b 	j	0x1d0138b0
1d013818:	00a0103c 	lui	s0,0xa000
1d01381c:	3f004230 	andi	v0,v0,0x3f
1d013820:	dc040326 	addiu	v1,s0,1244
1d013824:	0400638c 	lw	v1,4(v1)
1d013828:	3f006330 	andi	v1,v1,0x3f
1d01382c:	20004310 	beq	v0,v1,0x1d0138b0
1d013830:	01004224 	addiu	v0,v0,1
1d013834:	3f004230 	andi	v0,v0,0x3f
1d013838:	2c4e400b 	j	0x1d0138b0
1d01383c:	dc0402ae 	sw	v0,1244(s0)
1d013840:	dc046424 	addiu	a0,v1,1244
1d013844:	0400858c 	lw	a1,4(a0)
1d013848:	3f00a530 	andi	a1,a1,0x3f
1d01384c:	0100a424 	addiu	a0,a1,1
1d013850:	3f008430 	andi	a0,a0,0x3f
1d013854:	dc04638c 	lw	v1,1244(v1)
1d013858:	3f006330 	andi	v1,v1,0x3f
1d01385c:	0f006410 	beq	v1,a0,0x1d01389c
1d013860:	00a0033c 	lui	v1,0xa000
1d013864:	00110500 	sll	v0,a1,0x4
1d013868:	dc046324 	addiu	v1,v1,1244
1d01386c:	21104300 	addu	v0,v0,v1
1d013870:	0000288e 	lw	t0,0(s1)
1d013874:	0400278e 	lw	a3,4(s1)
1d013878:	0800268e 	lw	a2,8(s1)
1d01387c:	0c00258e 	lw	a1,12(s1)
1d013880:	0c0048ac 	sw	t0,12(v0)
1d013884:	100047ac 	sw	a3,16(v0)
1d013888:	140046ac 	sw	a2,20(v0)
1d01388c:	180045ac 	sw	a1,24(v0)
1d013890:	040064ac 	sw	a0,4(v1)
1d013894:	634e400b 	j	0x1d01398c
1d013898:	01000224 	li	v0,1
1d01389c:	dc046324 	addiu	v1,v1,1244
1d0138a0:	0800648c 	lw	a0,8(v1)
1d0138a4:	01008424 	addiu	a0,a0,1
1d0138a8:	634e400b 	j	0x1d01398c
1d0138ac:	080064ac 	sw	a0,8(v1)
1d0138b0:	dc04028e 	lw	v0,1244(s0)
1d0138b4:	3f004230 	andi	v0,v0,0x3f
1d0138b8:	dc040326 	addiu	v1,s0,1244
1d0138bc:	0400638c 	lw	v1,4(v1)
1d0138c0:	3f006330 	andi	v1,v1,0x3f
1d0138c4:	2d004310 	beq	v0,v1,0x1d01397c
1d0138c8:	00110200 	sll	v0,v0,0x4
1d0138cc:	dc040326 	addiu	v1,s0,1244
1d0138d0:	21104300 	addu	v0,v0,v1
1d0138d4:	0c00458c 	lw	a1,12(v0)
1d0138d8:	1000448c 	lw	a0,16(v0)
1d0138dc:	1400438c 	lw	v1,20(v0)
1d0138e0:	1800428c 	lw	v0,24(v0)
1d0138e4:	1000a5af 	sw	a1,16(sp)
1d0138e8:	1400a4af 	sw	a0,20(sp)
1d0138ec:	1800a3af 	sw	v1,24(sp)
1d0138f0:	1c00a2af 	sw	v0,28(sp)
1d0138f4:	e158400f 	jal	0x1d016384
1d0138f8:	1000a427 	addiu	a0,sp,16
1d0138fc:	c7ff4054 	bnezl	v0,0x1d01381c
1d013900:	dc04028e 	lw	v0,1244(s0)
1d013904:	104e400b 	j	0x1d013840
1d013908:	00a0033c 	lui	v1,0xa000
1d01390c:	dc046424 	addiu	a0,v1,1244
1d013910:	0400858c 	lw	a1,4(a0)
1d013914:	3f00a530 	andi	a1,a1,0x3f
1d013918:	0100a424 	addiu	a0,a1,1
1d01391c:	3f008430 	andi	a0,a0,0x3f
1d013920:	dc04638c 	lw	v1,1244(v1)
1d013924:	3f006330 	andi	v1,v1,0x3f
1d013928:	0f006410 	beq	v1,a0,0x1d013968
1d01392c:	00a0033c 	lui	v1,0xa000
1d013930:	00110500 	sll	v0,a1,0x4
1d013934:	dc046324 	addiu	v1,v1,1244
1d013938:	21104300 	addu	v0,v0,v1
1d01393c:	0000288e 	lw	t0,0(s1)
1d013940:	0400278e 	lw	a3,4(s1)
1d013944:	0800268e 	lw	a2,8(s1)
1d013948:	0c00258e 	lw	a1,12(s1)
1d01394c:	0c0048ac 	sw	t0,12(v0)
1d013950:	100047ac 	sw	a3,16(v0)
1d013954:	140046ac 	sw	a2,20(v0)
1d013958:	180045ac 	sw	a1,24(v0)
1d01395c:	040064ac 	sw	a0,4(v1)
1d013960:	634e400b 	j	0x1d01398c
1d013964:	01000224 	li	v0,1
1d013968:	dc046324 	addiu	v1,v1,1244
1d01396c:	0800648c 	lw	a0,8(v1)
1d013970:	01008424 	addiu	a0,a0,1
1d013974:	634e400b 	j	0x1d01398c
1d013978:	080064ac 	sw	a0,8(v1)
1d01397c:	e158400f 	jal	0x1d016384
1d013980:	21202002 	move	a0,s1
1d013984:	e1ff4010 	beqz	v0,0x1d01390c
1d013988:	00a0033c 	lui	v1,0xa000
1d01398c:	2c00bf8f 	lw	ra,44(sp)
1d013990:	2800b18f 	lw	s1,40(sp)
1d013994:	2400b08f 	lw	s0,36(sp)
1d013998:	0800e003 	jr	ra
1d01399c:	3000bd27 	addiu	sp,sp,48
1d0139a0:	e8ffbd27 	addiu	sp,sp,-24
1d0139a4:	1400bfaf 	sw	ra,20(sp)
1d0139a8:	c480828f 	lw	v0,-32572(gp)
1d0139ac:	02004230 	andi	v0,v0,0x2
1d0139b0:	39004010 	beqz	v0,0x1d013a98
1d0139b4:	00a0023c 	lui	v0,0xa000
1d0139b8:	f40c4324 	addiu	v1,v0,3316
1d0139bc:	0400638c 	lw	v1,4(v1)
1d0139c0:	ff0f6330 	andi	v1,v1,0xfff
1d0139c4:	f40c458c 	lw	a1,3316(v0)
1d0139c8:	ff0fa530 	andi	a1,a1,0xfff
1d0139cc:	01006224 	addiu	v0,v1,1
1d0139d0:	ff0f4230 	andi	v0,v0,0xfff
1d0139d4:	3000a210 	beq	a1,v0,0x1d013a98
1d0139d8:	00190300 	sll	v1,v1,0x4
1d0139dc:	08006324 	addiu	v1,v1,8
1d0139e0:	00a0023c 	lui	v0,0xa000
1d0139e4:	f40c4224 	addiu	v0,v0,3316
1d0139e8:	21184300 	addu	v1,v0,v1
1d0139ec:	0400828c 	lw	v0,4(a0)
1d0139f0:	0007477c 	ext	a3,v0,0x1c,0x1
1d0139f4:	0800e010 	beqz	a3,0x1d013a18
1d0139f8:	0f004630 	andi	a2,v0,0xf
1d0139fc:	0000858c 	lw	a1,0(a0)
1d013a00:	ff07a530 	andi	a1,a1,0x7ff
1d013a04:	802c0500 	sll	a1,a1,0x12
1d013a08:	0400828c 	lw	v0,4(a0)
1d013a0c:	808a427c 	ext	v0,v0,0xa,0x12
1d013a10:	884e400b 	j	0x1d013a20
1d013a14:	2510a200 	or	v0,a1,v0
1d013a18:	0000828c 	lw	v0,0(a0)
1d013a1c:	ff074230 	andi	v0,v0,0x7ff
1d013a20:	0400658c 	lw	a1,4(v1)
1d013a24:	04e0457c 	ins	a1,v0,0x0,0x1d
1d013a28:	44efe57c 	ins	a1,a3,0x1d,0x1
1d013a2c:	0000628c 	lw	v0,0(v1)
1d013a30:	84ffc27c 	ins	v0,a2,0x1e,0x2
1d013a34:	82300600 	srl	a2,a2,0x2
1d013a38:	84ffc57c 	ins	a1,a2,0x1e,0x2
1d013a3c:	040065ac 	sw	a1,4(v1)
1d013a40:	01000524 	li	a1,1
1d013a44:	c4eea27c 	ins	v0,a1,0x1b,0x3
1d013a48:	c880858f 	lw	a1,-32568(gp)
1d013a4c:	04d0a27c 	ins	v0,a1,0x0,0x1b
1d013a50:	000062ac 	sw	v0,0(v1)
1d013a54:	08008224 	addiu	v0,a0,8
1d013a58:	03004588 	lwl	a1,3(v0)
1d013a5c:	00004598 	lwr	a1,0(v0)
1d013a60:	07004688 	lwl	a2,7(v0)
1d013a64:	04004698 	lwr	a2,4(v0)
1d013a68:	080065ac 	sw	a1,8(v1)
1d013a6c:	0c0066ac 	sw	a2,12(v1)
1d013a70:	00a0023c 	lui	v0,0xa000
1d013a74:	f40c4324 	addiu	v1,v0,3316
1d013a78:	0400638c 	lw	v1,4(v1)
1d013a7c:	01006324 	addiu	v1,v1,1
1d013a80:	ff0f6330 	andi	v1,v1,0xfff
1d013a84:	f40c428c 	lw	v0,3316(v0)
1d013a88:	ff0f4230 	andi	v0,v0,0xfff
1d013a8c:	02004310 	beq	v0,v1,0x1d013a98
1d013a90:	00a0023c 	lui	v0,0xa000
1d013a94:	f80c43ac 	sw	v1,3320(v0)
1d013a98:	1c56400f 	jal	0x1d015870
1d013a9c:	00000000 	nop
1d013aa0:	1400bf8f 	lw	ra,20(sp)
1d013aa4:	0800e003 	jr	ra
1d013aa8:	1800bd27 	addiu	sp,sp,24
1d013aac:	e8ffbd27 	addiu	sp,sp,-24
1d013ab0:	1400bfaf 	sw	ra,20(sp)
1d013ab4:	c480828f 	lw	v0,-32572(gp)
1d013ab8:	08004230 	andi	v0,v0,0x8
1d013abc:	39004010 	beqz	v0,0x1d013ba4
1d013ac0:	00a0023c 	lui	v0,0xa000
1d013ac4:	f40c4324 	addiu	v1,v0,3316
1d013ac8:	0400638c 	lw	v1,4(v1)
1d013acc:	ff0f6330 	andi	v1,v1,0xfff
1d013ad0:	f40c458c 	lw	a1,3316(v0)
1d013ad4:	ff0fa530 	andi	a1,a1,0xfff
1d013ad8:	01006224 	addiu	v0,v1,1
1d013adc:	ff0f4230 	andi	v0,v0,0xfff
1d013ae0:	3000a210 	beq	a1,v0,0x1d013ba4
1d013ae4:	00190300 	sll	v1,v1,0x4
1d013ae8:	08006324 	addiu	v1,v1,8
1d013aec:	00a0023c 	lui	v0,0xa000
1d013af0:	f40c4224 	addiu	v0,v0,3316
1d013af4:	21184300 	addu	v1,v0,v1
1d013af8:	0400828c 	lw	v0,4(a0)
1d013afc:	0007477c 	ext	a3,v0,0x1c,0x1
1d013b00:	0800e010 	beqz	a3,0x1d013b24
1d013b04:	0f004630 	andi	a2,v0,0xf
1d013b08:	0000858c 	lw	a1,0(a0)
1d013b0c:	ff07a530 	andi	a1,a1,0x7ff
1d013b10:	802c0500 	sll	a1,a1,0x12
1d013b14:	0400828c 	lw	v0,4(a0)
1d013b18:	808a427c 	ext	v0,v0,0xa,0x12
1d013b1c:	cb4e400b 	j	0x1d013b2c
1d013b20:	2510a200 	or	v0,a1,v0
1d013b24:	0000828c 	lw	v0,0(a0)
1d013b28:	ff074230 	andi	v0,v0,0x7ff
1d013b2c:	0400658c 	lw	a1,4(v1)
1d013b30:	04e0457c 	ins	a1,v0,0x0,0x1d
1d013b34:	44efe57c 	ins	a1,a3,0x1d,0x1
1d013b38:	0000628c 	lw	v0,0(v1)
1d013b3c:	84ffc27c 	ins	v0,a2,0x1e,0x2
1d013b40:	82300600 	srl	a2,a2,0x2
1d013b44:	84ffc57c 	ins	a1,a2,0x1e,0x2
1d013b48:	040065ac 	sw	a1,4(v1)
1d013b4c:	03000524 	li	a1,3
1d013b50:	c4eea27c 	ins	v0,a1,0x1b,0x3
1d013b54:	c880858f 	lw	a1,-32568(gp)
1d013b58:	04d0a27c 	ins	v0,a1,0x0,0x1b
1d013b5c:	000062ac 	sw	v0,0(v1)
1d013b60:	08008224 	addiu	v0,a0,8
1d013b64:	03004588 	lwl	a1,3(v0)
1d013b68:	00004598 	lwr	a1,0(v0)
1d013b6c:	07004688 	lwl	a2,7(v0)
1d013b70:	04004698 	lwr	a2,4(v0)
1d013b74:	080065ac 	sw	a1,8(v1)
1d013b78:	0c0066ac 	sw	a2,12(v1)
1d013b7c:	00a0023c 	lui	v0,0xa000
1d013b80:	f40c4324 	addiu	v1,v0,3316
1d013b84:	0400638c 	lw	v1,4(v1)
1d013b88:	01006324 	addiu	v1,v1,1
1d013b8c:	ff0f6330 	andi	v1,v1,0xfff
1d013b90:	f40c428c 	lw	v0,3316(v0)
1d013b94:	ff0f4230 	andi	v0,v0,0xfff
1d013b98:	02004310 	beq	v0,v1,0x1d013ba4
1d013b9c:	00a0023c 	lui	v0,0xa000
1d013ba0:	f80c43ac 	sw	v1,3320(v0)
1d013ba4:	5057400f 	jal	0x1d015d40
1d013ba8:	00000000 	nop
1d013bac:	1400bf8f 	lw	ra,20(sp)
1d013bb0:	0800e003 	jr	ra
1d013bb4:	1800bd27 	addiu	sp,sp,24
1d013bb8:	e8ffbd27 	addiu	sp,sp,-24
1d013bbc:	1400bfaf 	sw	ra,20(sp)
1d013bc0:	1000b0af 	sw	s0,16(sp)
1d013bc4:	21808000 	move	s0,a0
1d013bc8:	2880828f 	lw	v0,-32728(gp)
1d013bcc:	c880858f 	lw	a1,-32568(gp)
1d013bd0:	2328a200 	subu	a1,a1,v0
1d013bd4:	6456400f 	jal	0x1d015990
1d013bd8:	d007a52c 	sltiu	a1,a1,2000
1d013bdc:	43004010 	beqz	v0,0x1d013cec
1d013be0:	1400bf8f 	lw	ra,20(sp)
1d013be4:	c480828f 	lw	v0,-32572(gp)
1d013be8:	01004230 	andi	v0,v0,0x1
1d013bec:	38004010 	beqz	v0,0x1d013cd0
1d013bf0:	00a0023c 	lui	v0,0xa000
1d013bf4:	f40c4324 	addiu	v1,v0,3316
1d013bf8:	0400638c 	lw	v1,4(v1)
1d013bfc:	ff0f6330 	andi	v1,v1,0xfff
1d013c00:	f40c448c 	lw	a0,3316(v0)
1d013c04:	ff0f8430 	andi	a0,a0,0xfff
1d013c08:	01006224 	addiu	v0,v1,1
1d013c0c:	ff0f4230 	andi	v0,v0,0xfff
1d013c10:	2f008210 	beq	a0,v0,0x1d013cd0
1d013c14:	00190300 	sll	v1,v1,0x4
1d013c18:	08006224 	addiu	v0,v1,8
1d013c1c:	00a0033c 	lui	v1,0xa000
1d013c20:	f40c6324 	addiu	v1,v1,3316
1d013c24:	21186200 	addu	v1,v1,v0
1d013c28:	0400028e 	lw	v0,4(s0)
1d013c2c:	0007467c 	ext	a2,v0,0x1c,0x1
1d013c30:	0800c010 	beqz	a2,0x1d013c54
1d013c34:	0f004530 	andi	a1,v0,0xf
1d013c38:	0000048e 	lw	a0,0(s0)
1d013c3c:	ff078430 	andi	a0,a0,0x7ff
1d013c40:	80240400 	sll	a0,a0,0x12
1d013c44:	0400028e 	lw	v0,4(s0)
1d013c48:	808a427c 	ext	v0,v0,0xa,0x12
1d013c4c:	174f400b 	j	0x1d013c5c
1d013c50:	25108200 	or	v0,a0,v0
1d013c54:	0000028e 	lw	v0,0(s0)
1d013c58:	ff074230 	andi	v0,v0,0x7ff
1d013c5c:	0400648c 	lw	a0,4(v1)
1d013c60:	04e0447c 	ins	a0,v0,0x0,0x1d
1d013c64:	44efc47c 	ins	a0,a2,0x1d,0x1
1d013c68:	0000628c 	lw	v0,0(v1)
1d013c6c:	84ffa27c 	ins	v0,a1,0x1e,0x2
1d013c70:	82280500 	srl	a1,a1,0x2
1d013c74:	84ffa47c 	ins	a0,a1,0x1e,0x2
1d013c78:	040064ac 	sw	a0,4(v1)
1d013c7c:	c4ee027c 	ins	v0,zero,0x1b,0x3
1d013c80:	c880848f 	lw	a0,-32568(gp)
1d013c84:	04d0827c 	ins	v0,a0,0x0,0x1b
1d013c88:	000062ac 	sw	v0,0(v1)
1d013c8c:	08000226 	addiu	v0,s0,8
1d013c90:	03004488 	lwl	a0,3(v0)
1d013c94:	00004498 	lwr	a0,0(v0)
1d013c98:	07004588 	lwl	a1,7(v0)
1d013c9c:	04004598 	lwr	a1,4(v0)
1d013ca0:	080064ac 	sw	a0,8(v1)
1d013ca4:	0c0065ac 	sw	a1,12(v1)
1d013ca8:	00a0023c 	lui	v0,0xa000
1d013cac:	f40c4324 	addiu	v1,v0,3316
1d013cb0:	0400638c 	lw	v1,4(v1)
1d013cb4:	01006324 	addiu	v1,v1,1
1d013cb8:	ff0f6330 	andi	v1,v1,0xfff
1d013cbc:	f40c428c 	lw	v0,3316(v0)
1d013cc0:	ff0f4230 	andi	v0,v0,0xfff
1d013cc4:	02004310 	beq	v0,v1,0x1d013cd0
1d013cc8:	00a0023c 	lui	v0,0xa000
1d013ccc:	f80c43ac 	sw	v1,3320(v0)
1d013cd0:	21200000 	move	a0,zero
1d013cd4:	1162400f 	jal	0x1d018844
1d013cd8:	21280002 	move	a1,s0
1d013cdc:	0400028e 	lw	v0,4(s0)
1d013ce0:	0f004230 	andi	v0,v0,0xf
1d013ce4:	0f004228 	slti	v0,v0,15
1d013ce8:	1400bf8f 	lw	ra,20(sp)
1d013cec:	1000b08f 	lw	s0,16(sp)
1d013cf0:	0800e003 	jr	ra
1d013cf4:	1800bd27 	addiu	sp,sp,24
1d013cf8:	e8ffbd27 	addiu	sp,sp,-24
1d013cfc:	1400bfaf 	sw	ra,20(sp)
1d013d00:	1000b0af 	sw	s0,16(sp)
1d013d04:	21808000 	move	s0,a0
1d013d08:	2880828f 	lw	v0,-32728(gp)
1d013d0c:	c880858f 	lw	a1,-32568(gp)
1d013d10:	2328a200 	subu	a1,a1,v0
1d013d14:	9857400f 	jal	0x1d015e60
1d013d18:	d007a52c 	sltiu	a1,a1,2000
1d013d1c:	44004010 	beqz	v0,0x1d013e30
1d013d20:	1400bf8f 	lw	ra,20(sp)
1d013d24:	c480828f 	lw	v0,-32572(gp)
1d013d28:	04004230 	andi	v0,v0,0x4
1d013d2c:	39004010 	beqz	v0,0x1d013e14
1d013d30:	00a0023c 	lui	v0,0xa000
1d013d34:	f40c4324 	addiu	v1,v0,3316
1d013d38:	0400638c 	lw	v1,4(v1)
1d013d3c:	ff0f6330 	andi	v1,v1,0xfff
1d013d40:	f40c448c 	lw	a0,3316(v0)
1d013d44:	ff0f8430 	andi	a0,a0,0xfff
1d013d48:	01006224 	addiu	v0,v1,1
1d013d4c:	ff0f4230 	andi	v0,v0,0xfff
1d013d50:	30008210 	beq	a0,v0,0x1d013e14
1d013d54:	00190300 	sll	v1,v1,0x4
1d013d58:	08006224 	addiu	v0,v1,8
1d013d5c:	00a0033c 	lui	v1,0xa000
1d013d60:	f40c6324 	addiu	v1,v1,3316
1d013d64:	21186200 	addu	v1,v1,v0
1d013d68:	0400028e 	lw	v0,4(s0)
1d013d6c:	0007467c 	ext	a2,v0,0x1c,0x1
1d013d70:	0800c010 	beqz	a2,0x1d013d94
1d013d74:	0f004530 	andi	a1,v0,0xf
1d013d78:	0000048e 	lw	a0,0(s0)
1d013d7c:	ff078430 	andi	a0,a0,0x7ff
1d013d80:	80240400 	sll	a0,a0,0x12
1d013d84:	0400028e 	lw	v0,4(s0)
1d013d88:	808a427c 	ext	v0,v0,0xa,0x12
1d013d8c:	674f400b 	j	0x1d013d9c
1d013d90:	25108200 	or	v0,a0,v0
1d013d94:	0000028e 	lw	v0,0(s0)
1d013d98:	ff074230 	andi	v0,v0,0x7ff
1d013d9c:	0400648c 	lw	a0,4(v1)
1d013da0:	04e0447c 	ins	a0,v0,0x0,0x1d
1d013da4:	44efc47c 	ins	a0,a2,0x1d,0x1
1d013da8:	0000628c 	lw	v0,0(v1)
1d013dac:	84ffa27c 	ins	v0,a1,0x1e,0x2
1d013db0:	82280500 	srl	a1,a1,0x2
1d013db4:	84ffa47c 	ins	a0,a1,0x1e,0x2
1d013db8:	040064ac 	sw	a0,4(v1)
1d013dbc:	02000424 	li	a0,2
1d013dc0:	c4ee827c 	ins	v0,a0,0x1b,0x3
1d013dc4:	c880848f 	lw	a0,-32568(gp)
1d013dc8:	04d0827c 	ins	v0,a0,0x0,0x1b
1d013dcc:	000062ac 	sw	v0,0(v1)
1d013dd0:	08000226 	addiu	v0,s0,8
1d013dd4:	03004488 	lwl	a0,3(v0)
1d013dd8:	00004498 	lwr	a0,0(v0)
1d013ddc:	07004588 	lwl	a1,7(v0)
1d013de0:	04004598 	lwr	a1,4(v0)
1d013de4:	080064ac 	sw	a0,8(v1)
1d013de8:	0c0065ac 	sw	a1,12(v1)
1d013dec:	00a0023c 	lui	v0,0xa000
1d013df0:	f40c4324 	addiu	v1,v0,3316
1d013df4:	0400638c 	lw	v1,4(v1)
1d013df8:	01006324 	addiu	v1,v1,1
1d013dfc:	ff0f6330 	andi	v1,v1,0xfff
1d013e00:	f40c428c 	lw	v0,3316(v0)
1d013e04:	ff0f4230 	andi	v0,v0,0xfff
1d013e08:	02004310 	beq	v0,v1,0x1d013e14
1d013e0c:	00a0023c 	lui	v0,0xa000
1d013e10:	f80c43ac 	sw	v1,3320(v0)
1d013e14:	01000424 	li	a0,1
1d013e18:	1162400f 	jal	0x1d018844
1d013e1c:	21280002 	move	a1,s0
1d013e20:	0400028e 	lw	v0,4(s0)
1d013e24:	0f004230 	andi	v0,v0,0xf
1d013e28:	0f004228 	slti	v0,v0,15
1d013e2c:	1400bf8f 	lw	ra,20(sp)
1d013e30:	1000b08f 	lw	s0,16(sp)
1d013e34:	0800e003 	jr	ra
1d013e38:	1800bd27 	addiu	sp,sp,24
1d013e3c:	e8ffbd27 	addiu	sp,sp,-24
1d013e40:	1400bfaf 	sw	ra,20(sp)
1d013e44:	1000b0af 	sw	s0,16(sp)
1d013e48:	21808000 	move	s0,a0
1d013e4c:	2880828f 	lw	v0,-32728(gp)
1d013e50:	c880858f 	lw	a1,-32568(gp)
1d013e54:	2328a200 	subu	a1,a1,v0
1d013e58:	4a58400f 	jal	0x1d016128
1d013e5c:	d007a52c 	sltiu	a1,a1,2000
1d013e60:	44004010 	beqz	v0,0x1d013f74
1d013e64:	1400bf8f 	lw	ra,20(sp)
1d013e68:	c480828f 	lw	v0,-32572(gp)
1d013e6c:	10004230 	andi	v0,v0,0x10
1d013e70:	39004010 	beqz	v0,0x1d013f58
1d013e74:	00a0023c 	lui	v0,0xa000
1d013e78:	f40c4324 	addiu	v1,v0,3316
1d013e7c:	0400638c 	lw	v1,4(v1)
1d013e80:	ff0f6330 	andi	v1,v1,0xfff
1d013e84:	f40c448c 	lw	a0,3316(v0)
1d013e88:	ff0f8430 	andi	a0,a0,0xfff
1d013e8c:	01006224 	addiu	v0,v1,1
1d013e90:	ff0f4230 	andi	v0,v0,0xfff
1d013e94:	30008210 	beq	a0,v0,0x1d013f58
1d013e98:	00190300 	sll	v1,v1,0x4
1d013e9c:	08006224 	addiu	v0,v1,8
1d013ea0:	00a0033c 	lui	v1,0xa000
1d013ea4:	f40c6324 	addiu	v1,v1,3316
1d013ea8:	21186200 	addu	v1,v1,v0
1d013eac:	0400028e 	lw	v0,4(s0)
1d013eb0:	0007467c 	ext	a2,v0,0x1c,0x1
1d013eb4:	0800c010 	beqz	a2,0x1d013ed8
1d013eb8:	0f004530 	andi	a1,v0,0xf
1d013ebc:	0000048e 	lw	a0,0(s0)
1d013ec0:	ff078430 	andi	a0,a0,0x7ff
1d013ec4:	80240400 	sll	a0,a0,0x12
1d013ec8:	0400028e 	lw	v0,4(s0)
1d013ecc:	808a427c 	ext	v0,v0,0xa,0x12
1d013ed0:	b84f400b 	j	0x1d013ee0
1d013ed4:	25108200 	or	v0,a0,v0
1d013ed8:	0000028e 	lw	v0,0(s0)
1d013edc:	ff074230 	andi	v0,v0,0x7ff
1d013ee0:	0400648c 	lw	a0,4(v1)
1d013ee4:	04e0447c 	ins	a0,v0,0x0,0x1d
1d013ee8:	44efc47c 	ins	a0,a2,0x1d,0x1
1d013eec:	0000628c 	lw	v0,0(v1)
1d013ef0:	84ffa27c 	ins	v0,a1,0x1e,0x2
1d013ef4:	82280500 	srl	a1,a1,0x2
1d013ef8:	84ffa47c 	ins	a0,a1,0x1e,0x2
1d013efc:	040064ac 	sw	a0,4(v1)
1d013f00:	04000424 	li	a0,4
1d013f04:	c4ee827c 	ins	v0,a0,0x1b,0x3
1d013f08:	c880848f 	lw	a0,-32568(gp)
1d013f0c:	04d0827c 	ins	v0,a0,0x0,0x1b
1d013f10:	000062ac 	sw	v0,0(v1)
1d013f14:	08000226 	addiu	v0,s0,8
1d013f18:	03004488 	lwl	a0,3(v0)
1d013f1c:	00004498 	lwr	a0,0(v0)
1d013f20:	07004588 	lwl	a1,7(v0)
1d013f24:	04004598 	lwr	a1,4(v0)
1d013f28:	080064ac 	sw	a0,8(v1)
1d013f2c:	0c0065ac 	sw	a1,12(v1)
1d013f30:	00a0023c 	lui	v0,0xa000
1d013f34:	f40c4324 	addiu	v1,v0,3316
1d013f38:	0400638c 	lw	v1,4(v1)
1d013f3c:	01006324 	addiu	v1,v1,1
1d013f40:	ff0f6330 	andi	v1,v1,0xfff
1d013f44:	f40c428c 	lw	v0,3316(v0)
1d013f48:	ff0f4230 	andi	v0,v0,0xfff
1d013f4c:	02004310 	beq	v0,v1,0x1d013f58
1d013f50:	00a0023c 	lui	v0,0xa000
1d013f54:	f80c43ac 	sw	v1,3320(v0)
1d013f58:	02000424 	li	a0,2
1d013f5c:	1162400f 	jal	0x1d018844
1d013f60:	21280002 	move	a1,s0
1d013f64:	0400028e 	lw	v0,4(s0)
1d013f68:	0f004230 	andi	v0,v0,0xf
1d013f6c:	0f004228 	slti	v0,v0,15
1d013f70:	1400bf8f 	lw	ra,20(sp)
1d013f74:	1000b08f 	lw	s0,16(sp)
1d013f78:	0800e003 	jr	ra
1d013f7c:	1800bd27 	addiu	sp,sp,24
1d013f80:	e8ffbd27 	addiu	sp,sp,-24
1d013f84:	1400bfaf 	sw	ra,20(sp)
1d013f88:	1000b0af 	sw	s0,16(sp)
1d013f8c:	21808000 	move	s0,a0
1d013f90:	2880828f 	lw	v0,-32728(gp)
1d013f94:	c880858f 	lw	a1,-32568(gp)
1d013f98:	2328a200 	subu	a1,a1,v0
1d013f9c:	0e59400f 	jal	0x1d016438
1d013fa0:	d007a52c 	sltiu	a1,a1,2000
1d013fa4:	44004010 	beqz	v0,0x1d0140b8
1d013fa8:	1400bf8f 	lw	ra,20(sp)
1d013fac:	c480828f 	lw	v0,-32572(gp)
1d013fb0:	40004230 	andi	v0,v0,0x40
1d013fb4:	39004010 	beqz	v0,0x1d01409c
1d013fb8:	00a0023c 	lui	v0,0xa000
1d013fbc:	f40c4324 	addiu	v1,v0,3316
1d013fc0:	0400638c 	lw	v1,4(v1)
1d013fc4:	ff0f6330 	andi	v1,v1,0xfff
1d013fc8:	f40c448c 	lw	a0,3316(v0)
1d013fcc:	ff0f8430 	andi	a0,a0,0xfff
1d013fd0:	01006224 	addiu	v0,v1,1
1d013fd4:	ff0f4230 	andi	v0,v0,0xfff
1d013fd8:	30008210 	beq	a0,v0,0x1d01409c
1d013fdc:	00190300 	sll	v1,v1,0x4
1d013fe0:	08006224 	addiu	v0,v1,8
1d013fe4:	00a0033c 	lui	v1,0xa000
1d013fe8:	f40c6324 	addiu	v1,v1,3316
1d013fec:	21186200 	addu	v1,v1,v0
1d013ff0:	0400028e 	lw	v0,4(s0)
1d013ff4:	0007467c 	ext	a2,v0,0x1c,0x1
1d013ff8:	0800c010 	beqz	a2,0x1d01401c
1d013ffc:	0f004530 	andi	a1,v0,0xf
1d014000:	0000048e 	lw	a0,0(s0)
1d014004:	ff078430 	andi	a0,a0,0x7ff
1d014008:	80240400 	sll	a0,a0,0x12
1d01400c:	0400028e 	lw	v0,4(s0)
1d014010:	808a427c 	ext	v0,v0,0xa,0x12
1d014014:	0950400b 	j	0x1d014024
1d014018:	25108200 	or	v0,a0,v0
1d01401c:	0000028e 	lw	v0,0(s0)
1d014020:	ff074230 	andi	v0,v0,0x7ff
1d014024:	0400648c 	lw	a0,4(v1)
1d014028:	04e0447c 	ins	a0,v0,0x0,0x1d
1d01402c:	44efc47c 	ins	a0,a2,0x1d,0x1
1d014030:	0000628c 	lw	v0,0(v1)
1d014034:	84ffa27c 	ins	v0,a1,0x1e,0x2
1d014038:	82280500 	srl	a1,a1,0x2
1d01403c:	84ffa47c 	ins	a0,a1,0x1e,0x2
1d014040:	040064ac 	sw	a0,4(v1)
1d014044:	06000424 	li	a0,6
1d014048:	c4ee827c 	ins	v0,a0,0x1b,0x3
1d01404c:	c880848f 	lw	a0,-32568(gp)
1d014050:	04d0827c 	ins	v0,a0,0x0,0x1b
1d014054:	000062ac 	sw	v0,0(v1)
1d014058:	08000226 	addiu	v0,s0,8
1d01405c:	03004488 	lwl	a0,3(v0)
1d014060:	00004498 	lwr	a0,0(v0)
1d014064:	07004588 	lwl	a1,7(v0)
1d014068:	04004598 	lwr	a1,4(v0)
1d01406c:	080064ac 	sw	a0,8(v1)
1d014070:	0c0065ac 	sw	a1,12(v1)
1d014074:	00a0023c 	lui	v0,0xa000
1d014078:	f40c4324 	addiu	v1,v0,3316
1d01407c:	0400638c 	lw	v1,4(v1)
1d014080:	01006324 	addiu	v1,v1,1
1d014084:	ff0f6330 	andi	v1,v1,0xfff
1d014088:	f40c428c 	lw	v0,3316(v0)
1d01408c:	ff0f4230 	andi	v0,v0,0xfff
1d014090:	02004310 	beq	v0,v1,0x1d01409c
1d014094:	00a0023c 	lui	v0,0xa000
1d014098:	f80c43ac 	sw	v1,3320(v0)
1d01409c:	03000424 	li	a0,3
1d0140a0:	1162400f 	jal	0x1d018844
1d0140a4:	21280002 	move	a1,s0
1d0140a8:	0400028e 	lw	v0,4(s0)
1d0140ac:	0f004230 	andi	v0,v0,0xf
1d0140b0:	0f004228 	slti	v0,v0,15
1d0140b4:	1400bf8f 	lw	ra,20(sp)
1d0140b8:	1000b08f 	lw	s0,16(sp)
1d0140bc:	0800e003 	jr	ra
1d0140c0:	1800bd27 	addiu	sp,sp,24
1d0140c4:	c880838f 	lw	v1,-32568(gp)
1d0140c8:	01006224 	addiu	v0,v1,1
1d0140cc:	c88082af 	sw	v0,-32568(gp)
1d0140d0:	2880848f 	lw	a0,-32728(gp)
1d0140d4:	23104400 	subu	v0,v0,a0
1d0140d8:	d007422c 	sltiu	v0,v0,2000
1d0140dc:	07004014 	bnez	v0,0x1d0140fc
1d0140e0:	e1b16324 	addiu	v1,v1,-19999
1d0140e4:	c48080af 	sw	zero,-32572(gp)
1d0140e8:	288083af 	sw	v1,-32728(gp)
1d0140ec:	00a0023c 	lui	v0,0xa000
1d0140f0:	f40c40ac 	sw	zero,3316(v0)
1d0140f4:	f40c4224 	addiu	v0,v0,3316
1d0140f8:	040040ac 	sw	zero,4(v0)
1d0140fc:	0800e003 	jr	ra
1d014100:	00000000 	nop
1d014104:	d8ffbd27 	addiu	sp,sp,-40
1d014108:	2400bfaf 	sw	ra,36(sp)
1d01410c:	2000b0af 	sw	s0,32(sp)
1d014110:	5050400b 	j	0x1d014140
1d014114:	00a0103c 	lui	s0,0xa000
1d014118:	6f50400b 	j	0x1d0141bc
1d01411c:	00a0103c 	lui	s0,0xa000
1d014120:	3f004230 	andi	v0,v0,0x3f
1d014124:	e8080326 	addiu	v1,s0,2280
1d014128:	0400638c 	lw	v1,4(v1)
1d01412c:	3f006330 	andi	v1,v1,0x3f
1d014130:	03004310 	beq	v0,v1,0x1d014140
1d014134:	01004224 	addiu	v0,v0,1
1d014138:	3f004230 	andi	v0,v0,0x3f
1d01413c:	e80802ae 	sw	v0,2280(s0)
1d014140:	e808028e 	lw	v0,2280(s0)
1d014144:	3f004230 	andi	v0,v0,0x3f
1d014148:	e8080326 	addiu	v1,s0,2280
1d01414c:	0400638c 	lw	v1,4(v1)
1d014150:	3f006330 	andi	v1,v1,0x3f
1d014154:	f0ff4310 	beq	v0,v1,0x1d014118
1d014158:	00110200 	sll	v0,v0,0x4
1d01415c:	e8080326 	addiu	v1,s0,2280
1d014160:	21104300 	addu	v0,v0,v1
1d014164:	0c00458c 	lw	a1,12(v0)
1d014168:	1000448c 	lw	a0,16(v0)
1d01416c:	1400438c 	lw	v1,20(v0)
1d014170:	1800428c 	lw	v0,24(v0)
1d014174:	1000a5af 	sw	a1,16(sp)
1d014178:	1400a4af 	sw	a0,20(sp)
1d01417c:	1800a3af 	sw	v1,24(sp)
1d014180:	1c00a2af 	sw	v0,28(sp)
1d014184:	1d58400f 	jal	0x1d016074
1d014188:	1000a427 	addiu	a0,sp,16
1d01418c:	e4ff4014 	bnez	v0,0x1d014120
1d014190:	e808028e 	lw	v0,2280(s0)
1d014194:	6f50400b 	j	0x1d0141bc
1d014198:	00a0103c 	lui	s0,0xa000
1d01419c:	3f004230 	andi	v0,v0,0x3f
1d0141a0:	dc040326 	addiu	v1,s0,1244
1d0141a4:	0400638c 	lw	v1,4(v1)
1d0141a8:	3f006330 	andi	v1,v1,0x3f
1d0141ac:	03004310 	beq	v0,v1,0x1d0141bc
1d0141b0:	01004224 	addiu	v0,v0,1
1d0141b4:	3f004230 	andi	v0,v0,0x3f
1d0141b8:	dc0402ae 	sw	v0,1244(s0)
1d0141bc:	dc04028e 	lw	v0,1244(s0)
1d0141c0:	3f004230 	andi	v0,v0,0x3f
1d0141c4:	dc040326 	addiu	v1,s0,1244
1d0141c8:	0400638c 	lw	v1,4(v1)
1d0141cc:	3f006330 	andi	v1,v1,0x3f
1d0141d0:	0f004310 	beq	v0,v1,0x1d014210
1d0141d4:	00110200 	sll	v0,v0,0x4
1d0141d8:	dc040326 	addiu	v1,s0,1244
1d0141dc:	21104300 	addu	v0,v0,v1
1d0141e0:	0c00458c 	lw	a1,12(v0)
1d0141e4:	1000448c 	lw	a0,16(v0)
1d0141e8:	1400438c 	lw	v1,20(v0)
1d0141ec:	1800428c 	lw	v0,24(v0)
1d0141f0:	1000a5af 	sw	a1,16(sp)
1d0141f4:	1400a4af 	sw	a0,20(sp)
1d0141f8:	1800a3af 	sw	v1,24(sp)
1d0141fc:	1c00a2af 	sw	v0,28(sp)
1d014200:	e158400f 	jal	0x1d016384
1d014204:	1000a427 	addiu	a0,sp,16
1d014208:	e4ff4014 	bnez	v0,0x1d01419c
1d01420c:	dc04028e 	lw	v0,1244(s0)
1d014210:	2400bf8f 	lw	ra,36(sp)
1d014214:	2000b08f 	lw	s0,32(sp)
1d014218:	0800e003 	jr	ra
1d01421c:	2800bd27 	addiu	sp,sp,40
1d014220:	e0ffbd27 	addiu	sp,sp,-32
1d014224:	1c00bfaf 	sw	ra,28(sp)
1d014228:	1800b1af 	sw	s1,24(sp)
1d01422c:	1400b0af 	sw	s0,20(sp)
1d014230:	21888000 	move	s1,a0
1d014234:	2180a000 	move	s0,a1
1d014238:	2120a000 	move	a0,a1
1d01423c:	21280000 	move	a1,zero
1d014240:	c96d400f 	jal	0x1d01b724
1d014244:	40000624 	li	a2,64
1d014248:	00002292 	lbu	v0,0(s1)
1d01424c:	000002a2 	sb	v0,0(s0)
1d014250:	00002292 	lbu	v0,0(s1)
1d014254:	05004010 	beqz	v0,0x1d01426c
1d014258:	01000324 	li	v1,1
1d01425c:	12004310 	beq	v0,v1,0x1d0142a8
1d014260:	21100000 	move	v0,zero
1d014264:	ad50400b 	j	0x1d0142b4
1d014268:	1c00bf8f 	lw	ra,28(sp)
1d01426c:	01000224 	li	v0,1
1d014270:	020002a6 	sh	v0,2(s0)
1d014274:	040000a6 	sh	zero,4(s0)
1d014278:	02000324 	li	v1,2
1d01427c:	060003a6 	sh	v1,6(s0)
1d014280:	080002a2 	sb	v0,8(s0)
1d014284:	03000224 	li	v0,3
1d014288:	090002a2 	sb	v0,9(s0)
1d01428c:	10000426 	addiu	a0,s0,16
1d014290:	029d053c 	lui	a1,0x9d02
1d014294:	18c5a524 	addiu	a1,a1,-15080
1d014298:	3d6f400f 	jal	0x1d01bcf4
1d01429c:	30000624 	li	a2,48
1d0142a0:	ac50400b 	j	0x1d0142b0
1d0142a4:	40000224 	li	v0,64
1d0142a8:	1e6f400f 	jal	0x1d01bc78
1d0142ac:	00000000 	nop
1d0142b0:	1c00bf8f 	lw	ra,28(sp)
1d0142b4:	1800b18f 	lw	s1,24(sp)
1d0142b8:	1400b08f 	lw	s0,20(sp)
1d0142bc:	0800e003 	jr	ra
1d0142c0:	2000bd27 	addiu	sp,sp,32
1d0142c4:	00008290 	lbu	v0,0(a0)
1d0142c8:	03004010 	beqz	v0,0x1d0142d8
1d0142cc:	c48082af 	sw	v0,-32572(gp)
1d0142d0:	c880828f 	lw	v0,-32568(gp)
1d0142d4:	288082af 	sw	v0,-32728(gp)
1d0142d8:	0800e003 	jr	ra
1d0142dc:	00000000 	nop
1d0142e0:	00a0033c 	lui	v1,0xa000
1d0142e4:	f40c628c 	lw	v0,3316(v1)
1d0142e8:	ff0f4230 	andi	v0,v0,0xfff
1d0142ec:	f40c6324 	addiu	v1,v1,3316
1d0142f0:	0400638c 	lw	v1,4(v1)
1d0142f4:	ff0f6330 	andi	v1,v1,0xfff
1d0142f8:	a4004310 	beq	v0,v1,0x1d01458c
1d0142fc:	00000000 	nop
1d014300:	0c008010 	beqz	a0,0x1d014334
1d014304:	00190200 	sll	v1,v0,0x4
1d014308:	00a0053c 	lui	a1,0xa000
1d01430c:	f40ca524 	addiu	a1,a1,3316
1d014310:	21186500 	addu	v1,v1,a1
1d014314:	0800678c 	lw	a3,8(v1)
1d014318:	0c00668c 	lw	a2,12(v1)
1d01431c:	1000658c 	lw	a1,16(v1)
1d014320:	1400638c 	lw	v1,20(v1)
1d014324:	000087ac 	sw	a3,0(a0)
1d014328:	040086ac 	sw	a2,4(a0)
1d01432c:	080085ac 	sw	a1,8(a0)
1d014330:	0c0083ac 	sw	v1,12(a0)
1d014334:	00a0033c 	lui	v1,0xa000
1d014338:	01004224 	addiu	v0,v0,1
1d01433c:	ff0f4230 	andi	v0,v0,0xfff
1d014340:	f40c62ac 	sw	v0,3316(v1)
1d014344:	0000858c 	lw	a1,0(a0)
1d014348:	1cd3023c 	lui	v0,0xd31c
1d01434c:	66f14234 	ori	v0,v0,0xf166
1d014350:	2610a200 	xor	v0,a1,v0
1d014354:	000082ac 	sw	v0,0(a0)
1d014358:	0400858c 	lw	a1,4(a0)
1d01435c:	a343023c 	lui	v0,0x43a3
1d014360:	58624224 	addiu	v0,v0,25176
1d014364:	2610a200 	xor	v0,a1,v0
1d014368:	040082ac 	sw	v0,4(a0)
1d01436c:	0800858c 	lw	a1,8(a0)
1d014370:	daac023c 	lui	v0,0xacda
1d014374:	1ca14234 	ori	v0,v0,0xa11c
1d014378:	2610a200 	xor	v0,a1,v0
1d01437c:	080082ac 	sw	v0,8(a0)
1d014380:	0c00858c 	lw	a1,12(a0)
1d014384:	87a4023c 	lui	v0,0xa487
1d014388:	6a6c4224 	addiu	v0,v0,27754
1d01438c:	2610a200 	xor	v0,a1,v0
1d014390:	0c0082ac 	sw	v0,12(a0)
1d014394:	f40c628c 	lw	v0,3316(v1)
1d014398:	ff0f4230 	andi	v0,v0,0xfff
1d01439c:	f40c6324 	addiu	v1,v1,3316
1d0143a0:	0400638c 	lw	v1,4(v1)
1d0143a4:	ff0f6330 	andi	v1,v1,0xfff
1d0143a8:	7a004310 	beq	v0,v1,0x1d014594
1d0143ac:	10008524 	addiu	a1,a0,16
1d0143b0:	0c00a010 	beqz	a1,0x1d0143e4
1d0143b4:	00290200 	sll	a1,v0,0x4
1d0143b8:	00a0063c 	lui	a2,0xa000
1d0143bc:	f40cc624 	addiu	a2,a2,3316
1d0143c0:	2128a600 	addu	a1,a1,a2
1d0143c4:	0800a88c 	lw	t0,8(a1)
1d0143c8:	0c00a78c 	lw	a3,12(a1)
1d0143cc:	1000a68c 	lw	a2,16(a1)
1d0143d0:	1400a58c 	lw	a1,20(a1)
1d0143d4:	100088ac 	sw	t0,16(a0)
1d0143d8:	140087ac 	sw	a3,20(a0)
1d0143dc:	180086ac 	sw	a2,24(a0)
1d0143e0:	1c0085ac 	sw	a1,28(a0)
1d0143e4:	01004224 	addiu	v0,v0,1
1d0143e8:	ff0f4630 	andi	a2,v0,0xfff
1d0143ec:	00a0053c 	lui	a1,0xa000
1d0143f0:	f40ca6ac 	sw	a2,3316(a1)
1d0143f4:	1000868c 	lw	a2,16(a0)
1d0143f8:	b3ec053c 	lui	a1,0xecb3
1d0143fc:	1d67a524 	addiu	a1,a1,26397
1d014400:	2628c500 	xor	a1,a2,a1
1d014404:	100085ac 	sw	a1,16(a0)
1d014408:	1400868c 	lw	a2,20(a0)
1d01440c:	538f053c 	lui	a1,0x8f53
1d014410:	bceaa534 	ori	a1,a1,0xeabc
1d014414:	2628c500 	xor	a1,a2,a1
1d014418:	140085ac 	sw	a1,20(a0)
1d01441c:	1800868c 	lw	a2,24(a0)
1d014420:	8e9d053c 	lui	a1,0x9d8e
1d014424:	ae2ca524 	addiu	a1,a1,11438
1d014428:	2628c500 	xor	a1,a2,a1
1d01442c:	180085ac 	sw	a1,24(a0)
1d014430:	1c00868c 	lw	a2,28(a0)
1d014434:	5e23053c 	lui	a1,0x235e
1d014438:	98cda534 	ori	a1,a1,0xcd98
1d01443c:	2628c500 	xor	a1,a2,a1
1d014440:	ff0f4230 	andi	v0,v0,0xfff
1d014444:	55006210 	beq	v1,v0,0x1d01459c
1d014448:	1c0085ac 	sw	a1,28(a0)
1d01444c:	20008524 	addiu	a1,a0,32
1d014450:	0c00a010 	beqz	a1,0x1d014484
1d014454:	00290200 	sll	a1,v0,0x4
1d014458:	00a0063c 	lui	a2,0xa000
1d01445c:	f40cc624 	addiu	a2,a2,3316
1d014460:	2128a600 	addu	a1,a1,a2
1d014464:	0800a88c 	lw	t0,8(a1)
1d014468:	0c00a78c 	lw	a3,12(a1)
1d01446c:	1000a68c 	lw	a2,16(a1)
1d014470:	1400a58c 	lw	a1,20(a1)
1d014474:	200088ac 	sw	t0,32(a0)
1d014478:	240087ac 	sw	a3,36(a0)
1d01447c:	280086ac 	sw	a2,40(a0)
1d014480:	2c0085ac 	sw	a1,44(a0)
1d014484:	01004224 	addiu	v0,v0,1
1d014488:	ff0f4630 	andi	a2,v0,0xfff
1d01448c:	00a0053c 	lui	a1,0xa000
1d014490:	f40ca6ac 	sw	a2,3316(a1)
1d014494:	2000868c 	lw	a2,32(a0)
1d014498:	6257053c 	lui	a1,0x5762
1d01449c:	dc33a524 	addiu	a1,a1,13276
1d0144a0:	2628c500 	xor	a1,a2,a1
1d0144a4:	200085ac 	sw	a1,32(a0)
1d0144a8:	2400868c 	lw	a2,36(a0)
1d0144ac:	282c053c 	lui	a1,0x2c28
1d0144b0:	4a11a524 	addiu	a1,a1,4426
1d0144b4:	2628c500 	xor	a1,a2,a1
1d0144b8:	240085ac 	sw	a1,36(a0)
1d0144bc:	2800868c 	lw	a2,40(a0)
1d0144c0:	ad65053c 	lui	a1,0x65ad
1d0144c4:	9746a524 	addiu	a1,a1,18071
1d0144c8:	2628c500 	xor	a1,a2,a1
1d0144cc:	280085ac 	sw	a1,40(a0)
1d0144d0:	2c00868c 	lw	a2,44(a0)
1d0144d4:	b582053c 	lui	a1,0x82b5
1d0144d8:	67f4a534 	ori	a1,a1,0xf467
1d0144dc:	2628c500 	xor	a1,a2,a1
1d0144e0:	ff0f4230 	andi	v0,v0,0xfff
1d0144e4:	2f006210 	beq	v1,v0,0x1d0145a4
1d0144e8:	2c0085ac 	sw	a1,44(a0)
1d0144ec:	30008324 	addiu	v1,a0,48
1d0144f0:	0c006010 	beqz	v1,0x1d014524
1d0144f4:	00190200 	sll	v1,v0,0x4
1d0144f8:	00a0053c 	lui	a1,0xa000
1d0144fc:	f40ca524 	addiu	a1,a1,3316
1d014500:	21186500 	addu	v1,v1,a1
1d014504:	0800678c 	lw	a3,8(v1)
1d014508:	0c00668c 	lw	a2,12(v1)
1d01450c:	1000658c 	lw	a1,16(v1)
1d014510:	1400638c 	lw	v1,20(v1)
1d014514:	300087ac 	sw	a3,48(a0)
1d014518:	340086ac 	sw	a2,52(a0)
1d01451c:	380085ac 	sw	a1,56(a0)
1d014520:	3c0083ac 	sw	v1,60(a0)
1d014524:	01004224 	addiu	v0,v0,1
1d014528:	ff0f4330 	andi	v1,v0,0xfff
1d01452c:	00a0023c 	lui	v0,0xa000
1d014530:	f40c43ac 	sw	v1,3316(v0)
1d014534:	3000838c 	lw	v1,48(a0)
1d014538:	f3fc023c 	lui	v0,0xfcf3
1d01453c:	286b4224 	addiu	v0,v0,27432
1d014540:	26106200 	xor	v0,v1,v0
1d014544:	300082ac 	sw	v0,48(a0)
1d014548:	3400838c 	lw	v1,52(a0)
1d01454c:	4ee5023c 	lui	v0,0xe54e
1d014550:	a1264224 	addiu	v0,v0,9889
1d014554:	26106200 	xor	v0,v1,v0
1d014558:	340082ac 	sw	v0,52(a0)
1d01455c:	3800838c 	lw	v1,56(a0)
1d014560:	81ba023c 	lui	v0,0xba81
1d014564:	b7ec4234 	ori	v0,v0,0xecb7
1d014568:	26106200 	xor	v0,v1,v0
1d01456c:	380082ac 	sw	v0,56(a0)
1d014570:	3c00838c 	lw	v1,60(a0)
1d014574:	8dc1023c 	lui	v0,0xc18d
1d014578:	f1ae4234 	ori	v0,v0,0xaef1
1d01457c:	26106200 	xor	v0,v1,v0
1d014580:	3c0082ac 	sw	v0,60(a0)
1d014584:	0800e003 	jr	ra
1d014588:	40000224 	li	v0,64
1d01458c:	0800e003 	jr	ra
1d014590:	21100000 	move	v0,zero
1d014594:	0800e003 	jr	ra
1d014598:	10000224 	li	v0,16
1d01459c:	0800e003 	jr	ra
1d0145a0:	20000224 	li	v0,32
1d0145a4:	0800e003 	jr	ra
1d0145a8:	30000224 	li	v0,48
1d0145ac:	80100400 	sll	v0,a0,0x2
1d0145b0:	00190400 	sll	v1,a0,0x4
1d0145b4:	23106200 	subu	v0,v1,v0
1d0145b8:	23104400 	subu	v0,v0,a0
1d0145bc:	80100200 	sll	v0,v0,0x2
1d0145c0:	00a0033c 	lui	v1,0xa000
1d0145c4:	1c016324 	addiu	v1,v1,284
1d0145c8:	21104300 	addu	v0,v0,v1
1d0145cc:	0800438c 	lw	v1,8(v0)
1d0145d0:	0800632c 	sltiu	v1,v1,8
1d0145d4:	e3016010 	beqz	v1,0x1d014d64
1d0145d8:	ff00a630 	andi	a2,a1,0xff
1d0145dc:	0800438c 	lw	v1,8(v0)
1d0145e0:	80180300 	sll	v1,v1,0x2
1d0145e4:	019d023c 	lui	v0,0x9d01
1d0145e8:	fc454224 	addiu	v0,v0,17916
1d0145ec:	21104300 	addu	v0,v0,v1
1d0145f0:	0000428c 	lw	v0,0(v0)
1d0145f4:	08004000 	jr	v0
1d0145f8:	00000000 	nop
1d0145fc:	1c46019d 	0x9d01461c
1d014600:	2847019d 	0x9d014728
1d014604:	6847019d 	0x9d014768
1d014608:	6848019d 	0x9d014868
1d01460c:	6449019d 	0x9d014964
1d014610:	644a019d 	0x9d014a64
1d014614:	644b019d 	0x9d014b64
1d014618:	644c019d 	0x9d014c64
1d01461c:	2138a000 	move	a3,a1
1d014620:	0500832c 	sltiu	v1,a0,5
1d014624:	d0016010 	beqz	v1,0x1d014d68
1d014628:	21100000 	move	v0,zero
1d01462c:	80180400 	sll	v1,a0,0x2
1d014630:	00110400 	sll	v0,a0,0x4
1d014634:	23184300 	subu	v1,v0,v1
1d014638:	23186400 	subu	v1,v1,a0
1d01463c:	80180300 	sll	v1,v1,0x2
1d014640:	00a0023c 	lui	v0,0xa000
1d014644:	1c014224 	addiu	v0,v0,284
1d014648:	21104300 	addu	v0,v0,v1
1d01464c:	1400438c 	lw	v1,20(v0)
1d014650:	33006010 	beqz	v1,0x1d014720
1d014654:	80300400 	sll	a2,a0,0x2
1d014658:	00110400 	sll	v0,a0,0x4
1d01465c:	23304600 	subu	a2,v0,a2
1d014660:	2330c400 	subu	a2,a2,a0
1d014664:	80300600 	sll	a2,a2,0x2
1d014668:	00a0023c 	lui	v0,0xa000
1d01466c:	1c014224 	addiu	v0,v0,284
1d014670:	2110c200 	addu	v0,a2,v0
1d014674:	1000488c 	lw	t0,16(v0)
1d014678:	1d000011 	beqz	t0,0x1d0146f0
1d01467c:	00a0023c 	lui	v0,0xa000
1d014680:	0000628c 	lw	v0,0(v1)
1d014684:	16004554 	bnel	v0,a1,0x1d0146e0
1d014688:	21100000 	move	v0,zero
1d01468c:	a951400b 	j	0x1d0146a4
1d014690:	80100400 	sll	v0,a0,0x2
1d014694:	0000668c 	lw	a2,0(v1)
1d014698:	1200c754 	bnel	a2,a3,0x1d0146e4
1d01469c:	01004224 	addiu	v0,v0,1
1d0146a0:	80100400 	sll	v0,a0,0x2
1d0146a4:	00190400 	sll	v1,a0,0x4
1d0146a8:	23106200 	subu	v0,v1,v0
1d0146ac:	23304400 	subu	a2,v0,a0
1d0146b0:	80300600 	sll	a2,a2,0x2
1d0146b4:	00a0033c 	lui	v1,0xa000
1d0146b8:	20016324 	addiu	v1,v1,288
1d0146bc:	21186600 	addu	v1,v1,a2
1d0146c0:	180065ac 	sw	a1,24(v1)
1d0146c4:	00a0033c 	lui	v1,0xa000
1d0146c8:	1c016324 	addiu	v1,v1,284
1d0146cc:	2110c300 	addu	v0,a2,v1
1d0146d0:	01000324 	li	v1,1
1d0146d4:	180043a0 	sb	v1,24(v0)
1d0146d8:	0800e003 	jr	ra
1d0146dc:	01000224 	li	v0,1
1d0146e0:	01004224 	addiu	v0,v0,1
1d0146e4:	ebff4814 	bne	v0,t0,0x1d014694
1d0146e8:	08006324 	addiu	v1,v1,8
1d0146ec:	00a0023c 	lui	v0,0xa000
1d0146f0:	1c014224 	addiu	v0,v0,284
1d0146f4:	80180400 	sll	v1,a0,0x2
1d0146f8:	00290400 	sll	a1,a0,0x4
1d0146fc:	2318a300 	subu	v1,a1,v1
1d014700:	23286400 	subu	a1,v1,a0
1d014704:	80280500 	sll	a1,a1,0x2
1d014708:	21284500 	addu	a1,v0,a1
1d01470c:	2800a68c 	lw	a2,40(a1)
1d014710:	1c00a6ac 	sw	a2,28(a1)
1d014714:	1800a0a0 	sb	zero,24(a1)
1d014718:	0800e003 	jr	ra
1d01471c:	21100000 	move	v0,zero
1d014720:	0800e003 	jr	ra
1d014724:	21100000 	move	v0,zero
1d014728:	0500832c 	sltiu	v1,a0,5
1d01472c:	8e016010 	beqz	v1,0x1d014d68
1d014730:	21100000 	move	v0,zero
1d014734:	80100400 	sll	v0,a0,0x2
1d014738:	00190400 	sll	v1,a0,0x4
1d01473c:	23186200 	subu	v1,v1,v0
1d014740:	23286400 	subu	a1,v1,a0
1d014744:	80280500 	sll	a1,a1,0x2
1d014748:	00a0023c 	lui	v0,0xa000
1d01474c:	1c014224 	addiu	v0,v0,284
1d014750:	2128a200 	addu	a1,a1,v0
1d014754:	1c00a6a0 	sb	a2,28(a1)
1d014758:	01000324 	li	v1,1
1d01475c:	1800a3a0 	sb	v1,24(a1)
1d014760:	0800e003 	jr	ra
1d014764:	01000224 	li	v0,1
1d014768:	0500832c 	sltiu	v1,a0,5
1d01476c:	7e016010 	beqz	v1,0x1d014d68
1d014770:	21100000 	move	v0,zero
1d014774:	2034067c 	seb	a2,a2
1d014778:	80180400 	sll	v1,a0,0x2
1d01477c:	00110400 	sll	v0,a0,0x4
1d014780:	23184300 	subu	v1,v0,v1
1d014784:	23186400 	subu	v1,v1,a0
1d014788:	80180300 	sll	v1,v1,0x2
1d01478c:	00a0023c 	lui	v0,0xa000
1d014790:	1c014224 	addiu	v0,v0,284
1d014794:	21106200 	addu	v0,v1,v0
1d014798:	20004280 	lb	v0,32(v0)
1d01479c:	2a18c200 	slt	v1,a2,v0
1d0147a0:	0d006010 	beqz	v1,0x1d0147d8
1d0147a4:	80180400 	sll	v1,a0,0x2
1d0147a8:	00290400 	sll	a1,a0,0x4
1d0147ac:	2328a300 	subu	a1,a1,v1
1d0147b0:	2330a400 	subu	a2,a1,a0
1d0147b4:	80300600 	sll	a2,a2,0x2
1d0147b8:	00a0033c 	lui	v1,0xa000
1d0147bc:	1c016324 	addiu	v1,v1,284
1d0147c0:	2130c300 	addu	a2,a2,v1
1d0147c4:	1c00c2a0 	sb	v0,28(a2)
1d0147c8:	01000224 	li	v0,1
1d0147cc:	1800c2a0 	sb	v0,24(a2)
1d0147d0:	0800e003 	jr	ra
1d0147d4:	21100000 	move	v0,zero
1d0147d8:	00110400 	sll	v0,a0,0x4
1d0147dc:	23184300 	subu	v1,v0,v1
1d0147e0:	23186400 	subu	v1,v1,a0
1d0147e4:	80180300 	sll	v1,v1,0x2
1d0147e8:	00a0023c 	lui	v0,0xa000
1d0147ec:	1c014224 	addiu	v0,v0,284
1d0147f0:	21106200 	addu	v0,v1,v0
1d0147f4:	24004280 	lb	v0,36(v0)
1d0147f8:	2a184600 	slt	v1,v0,a2
1d0147fc:	0e006050 	beqzl	v1,0x1d014838
1d014800:	80100400 	sll	v0,a0,0x2
1d014804:	80180400 	sll	v1,a0,0x2
1d014808:	00290400 	sll	a1,a0,0x4
1d01480c:	2328a300 	subu	a1,a1,v1
1d014810:	2330a400 	subu	a2,a1,a0
1d014814:	80300600 	sll	a2,a2,0x2
1d014818:	00a0033c 	lui	v1,0xa000
1d01481c:	1c016324 	addiu	v1,v1,284
1d014820:	2130c300 	addu	a2,a2,v1
1d014824:	1c00c2a0 	sb	v0,28(a2)
1d014828:	01000224 	li	v0,1
1d01482c:	1800c2a0 	sb	v0,24(a2)
1d014830:	0800e003 	jr	ra
1d014834:	21100000 	move	v0,zero
1d014838:	00190400 	sll	v1,a0,0x4
1d01483c:	23186200 	subu	v1,v1,v0
1d014840:	23286400 	subu	a1,v1,a0
1d014844:	80280500 	sll	a1,a1,0x2
1d014848:	00a0023c 	lui	v0,0xa000
1d01484c:	1c014224 	addiu	v0,v0,284
1d014850:	2128a200 	addu	a1,a1,v0
1d014854:	1c00a6a0 	sb	a2,28(a1)
1d014858:	01000324 	li	v1,1
1d01485c:	1800a3a0 	sb	v1,24(a1)
1d014860:	0800e003 	jr	ra
1d014864:	01000224 	li	v0,1
1d014868:	0500832c 	sltiu	v1,a0,5
1d01486c:	3e016010 	beqz	v1,0x1d014d68
1d014870:	21100000 	move	v0,zero
1d014874:	80180400 	sll	v1,a0,0x2
1d014878:	00110400 	sll	v0,a0,0x4
1d01487c:	23184300 	subu	v1,v0,v1
1d014880:	23186400 	subu	v1,v1,a0
1d014884:	80180300 	sll	v1,v1,0x2
1d014888:	00a0023c 	lui	v0,0xa000
1d01488c:	1c014224 	addiu	v0,v0,284
1d014890:	21106200 	addu	v0,v1,v0
1d014894:	20004290 	lbu	v0,32(v0)
1d014898:	2b18c200 	sltu	v1,a2,v0
1d01489c:	0d006010 	beqz	v1,0x1d0148d4
1d0148a0:	80180400 	sll	v1,a0,0x2
1d0148a4:	00290400 	sll	a1,a0,0x4
1d0148a8:	2328a300 	subu	a1,a1,v1
1d0148ac:	2330a400 	subu	a2,a1,a0
1d0148b0:	80300600 	sll	a2,a2,0x2
1d0148b4:	00a0033c 	lui	v1,0xa000
1d0148b8:	1c016324 	addiu	v1,v1,284
1d0148bc:	2130c300 	addu	a2,a2,v1
1d0148c0:	1c00c2a0 	sb	v0,28(a2)
1d0148c4:	01000224 	li	v0,1
1d0148c8:	1800c2a0 	sb	v0,24(a2)
1d0148cc:	0800e003 	jr	ra
1d0148d0:	21100000 	move	v0,zero
1d0148d4:	00110400 	sll	v0,a0,0x4
1d0148d8:	23184300 	subu	v1,v0,v1
1d0148dc:	23186400 	subu	v1,v1,a0
1d0148e0:	80180300 	sll	v1,v1,0x2
1d0148e4:	00a0023c 	lui	v0,0xa000
1d0148e8:	1c014224 	addiu	v0,v0,284
1d0148ec:	21106200 	addu	v0,v1,v0
1d0148f0:	24004290 	lbu	v0,36(v0)
1d0148f4:	2b184600 	sltu	v1,v0,a2
1d0148f8:	0e006050 	beqzl	v1,0x1d014934
1d0148fc:	80100400 	sll	v0,a0,0x2
1d014900:	80180400 	sll	v1,a0,0x2
1d014904:	00290400 	sll	a1,a0,0x4
1d014908:	2328a300 	subu	a1,a1,v1
1d01490c:	2330a400 	subu	a2,a1,a0
1d014910:	80300600 	sll	a2,a2,0x2
1d014914:	00a0033c 	lui	v1,0xa000
1d014918:	1c016324 	addiu	v1,v1,284
1d01491c:	2130c300 	addu	a2,a2,v1
1d014920:	1c00c2a0 	sb	v0,28(a2)
1d014924:	01000224 	li	v0,1
1d014928:	1800c2a0 	sb	v0,24(a2)
1d01492c:	0800e003 	jr	ra
1d014930:	21100000 	move	v0,zero
1d014934:	00190400 	sll	v1,a0,0x4
1d014938:	23186200 	subu	v1,v1,v0
1d01493c:	23286400 	subu	a1,v1,a0
1d014940:	80280500 	sll	a1,a1,0x2
1d014944:	00a0023c 	lui	v0,0xa000
1d014948:	1c014224 	addiu	v0,v0,284
1d01494c:	2128a200 	addu	a1,a1,v0
1d014950:	1c00a6a0 	sb	a2,28(a1)
1d014954:	01000324 	li	v1,1
1d014958:	1800a3a0 	sb	v1,24(a1)
1d01495c:	0800e003 	jr	ra
1d014960:	01000224 	li	v0,1
1d014964:	202e057c 	seh	a1,a1
1d014968:	0500832c 	sltiu	v1,a0,5
1d01496c:	fe006010 	beqz	v1,0x1d014d68
1d014970:	21100000 	move	v0,zero
1d014974:	80180400 	sll	v1,a0,0x2
1d014978:	00110400 	sll	v0,a0,0x4
1d01497c:	23184300 	subu	v1,v0,v1
1d014980:	23186400 	subu	v1,v1,a0
1d014984:	80180300 	sll	v1,v1,0x2
1d014988:	00a0023c 	lui	v0,0xa000
1d01498c:	1c014224 	addiu	v0,v0,284
1d014990:	21106200 	addu	v0,v1,v0
1d014994:	20004284 	lh	v0,32(v0)
1d014998:	2a18a200 	slt	v1,a1,v0
1d01499c:	0d006010 	beqz	v1,0x1d0149d4
1d0149a0:	80180400 	sll	v1,a0,0x2
1d0149a4:	00290400 	sll	a1,a0,0x4
1d0149a8:	2328a300 	subu	a1,a1,v1
1d0149ac:	2330a400 	subu	a2,a1,a0
1d0149b0:	80300600 	sll	a2,a2,0x2
1d0149b4:	00a0033c 	lui	v1,0xa000
1d0149b8:	1c016324 	addiu	v1,v1,284
1d0149bc:	2130c300 	addu	a2,a2,v1
1d0149c0:	1c00c2a4 	sh	v0,28(a2)
1d0149c4:	01000224 	li	v0,1
1d0149c8:	1800c2a0 	sb	v0,24(a2)
1d0149cc:	0800e003 	jr	ra
1d0149d0:	21100000 	move	v0,zero
1d0149d4:	00110400 	sll	v0,a0,0x4
1d0149d8:	23184300 	subu	v1,v0,v1
1d0149dc:	23186400 	subu	v1,v1,a0
1d0149e0:	80180300 	sll	v1,v1,0x2
1d0149e4:	00a0023c 	lui	v0,0xa000
1d0149e8:	1c014224 	addiu	v0,v0,284
1d0149ec:	21106200 	addu	v0,v1,v0
1d0149f0:	24004284 	lh	v0,36(v0)
1d0149f4:	2a184500 	slt	v1,v0,a1
1d0149f8:	0e006050 	beqzl	v1,0x1d014a34
1d0149fc:	80100400 	sll	v0,a0,0x2
1d014a00:	80180400 	sll	v1,a0,0x2
1d014a04:	00290400 	sll	a1,a0,0x4
1d014a08:	2328a300 	subu	a1,a1,v1
1d014a0c:	2330a400 	subu	a2,a1,a0
1d014a10:	80300600 	sll	a2,a2,0x2
1d014a14:	00a0033c 	lui	v1,0xa000
1d014a18:	1c016324 	addiu	v1,v1,284
1d014a1c:	2130c300 	addu	a2,a2,v1
1d014a20:	1c00c2a4 	sh	v0,28(a2)
1d014a24:	01000224 	li	v0,1
1d014a28:	1800c2a0 	sb	v0,24(a2)
1d014a2c:	0800e003 	jr	ra
1d014a30:	21100000 	move	v0,zero
1d014a34:	00190400 	sll	v1,a0,0x4
1d014a38:	23186200 	subu	v1,v1,v0
1d014a3c:	23306400 	subu	a2,v1,a0
1d014a40:	80300600 	sll	a2,a2,0x2
1d014a44:	00a0023c 	lui	v0,0xa000
1d014a48:	1c014224 	addiu	v0,v0,284
1d014a4c:	2130c200 	addu	a2,a2,v0
1d014a50:	1c00c5a4 	sh	a1,28(a2)
1d014a54:	01000324 	li	v1,1
1d014a58:	1800c3a0 	sb	v1,24(a2)
1d014a5c:	0800e003 	jr	ra
1d014a60:	01000224 	li	v0,1
1d014a64:	ffffa530 	andi	a1,a1,0xffff
1d014a68:	0500832c 	sltiu	v1,a0,5
1d014a6c:	be006010 	beqz	v1,0x1d014d68
1d014a70:	21100000 	move	v0,zero
1d014a74:	80180400 	sll	v1,a0,0x2
1d014a78:	00110400 	sll	v0,a0,0x4
1d014a7c:	23184300 	subu	v1,v0,v1
1d014a80:	23186400 	subu	v1,v1,a0
1d014a84:	80180300 	sll	v1,v1,0x2
1d014a88:	00a0023c 	lui	v0,0xa000
1d014a8c:	1c014224 	addiu	v0,v0,284
1d014a90:	21106200 	addu	v0,v1,v0
1d014a94:	20004294 	lhu	v0,32(v0)
1d014a98:	2b18a200 	sltu	v1,a1,v0
1d014a9c:	0d006010 	beqz	v1,0x1d014ad4
1d014aa0:	80180400 	sll	v1,a0,0x2
1d014aa4:	00290400 	sll	a1,a0,0x4
1d014aa8:	2328a300 	subu	a1,a1,v1
1d014aac:	2330a400 	subu	a2,a1,a0
1d014ab0:	80300600 	sll	a2,a2,0x2
1d014ab4:	00a0033c 	lui	v1,0xa000
1d014ab8:	1c016324 	addiu	v1,v1,284
1d014abc:	2130c300 	addu	a2,a2,v1
1d014ac0:	1c00c2a4 	sh	v0,28(a2)
1d014ac4:	01000224 	li	v0,1
1d014ac8:	1800c2a0 	sb	v0,24(a2)
1d014acc:	0800e003 	jr	ra
1d014ad0:	21100000 	move	v0,zero
1d014ad4:	00110400 	sll	v0,a0,0x4
1d014ad8:	23184300 	subu	v1,v0,v1
1d014adc:	23186400 	subu	v1,v1,a0
1d014ae0:	80180300 	sll	v1,v1,0x2
1d014ae4:	00a0023c 	lui	v0,0xa000
1d014ae8:	1c014224 	addiu	v0,v0,284
1d014aec:	21106200 	addu	v0,v1,v0
1d014af0:	24004294 	lhu	v0,36(v0)
1d014af4:	2b184500 	sltu	v1,v0,a1
1d014af8:	0e006050 	beqzl	v1,0x1d014b34
1d014afc:	80100400 	sll	v0,a0,0x2
1d014b00:	80180400 	sll	v1,a0,0x2
1d014b04:	00290400 	sll	a1,a0,0x4
1d014b08:	2328a300 	subu	a1,a1,v1
1d014b0c:	2330a400 	subu	a2,a1,a0
1d014b10:	80300600 	sll	a2,a2,0x2
1d014b14:	00a0033c 	lui	v1,0xa000
1d014b18:	1c016324 	addiu	v1,v1,284
1d014b1c:	2130c300 	addu	a2,a2,v1
1d014b20:	1c00c2a4 	sh	v0,28(a2)
1d014b24:	01000224 	li	v0,1
1d014b28:	1800c2a0 	sb	v0,24(a2)
1d014b2c:	0800e003 	jr	ra
1d014b30:	21100000 	move	v0,zero
1d014b34:	00190400 	sll	v1,a0,0x4
1d014b38:	23186200 	subu	v1,v1,v0
1d014b3c:	23306400 	subu	a2,v1,a0
1d014b40:	80300600 	sll	a2,a2,0x2
1d014b44:	00a0023c 	lui	v0,0xa000
1d014b48:	1c014224 	addiu	v0,v0,284
1d014b4c:	2130c200 	addu	a2,a2,v0
1d014b50:	1c00c5a4 	sh	a1,28(a2)
1d014b54:	01000324 	li	v1,1
1d014b58:	1800c3a0 	sb	v1,24(a2)
1d014b5c:	0800e003 	jr	ra
1d014b60:	01000224 	li	v0,1
1d014b64:	0500832c 	sltiu	v1,a0,5
1d014b68:	7f006010 	beqz	v1,0x1d014d68
1d014b6c:	21100000 	move	v0,zero
1d014b70:	80180400 	sll	v1,a0,0x2
1d014b74:	00110400 	sll	v0,a0,0x4
1d014b78:	23184300 	subu	v1,v0,v1
1d014b7c:	23186400 	subu	v1,v1,a0
1d014b80:	80180300 	sll	v1,v1,0x2
1d014b84:	00a0023c 	lui	v0,0xa000
1d014b88:	1c014224 	addiu	v0,v0,284
1d014b8c:	21106200 	addu	v0,v1,v0
1d014b90:	2000428c 	lw	v0,32(v0)
1d014b94:	2a18a200 	slt	v1,a1,v0
1d014b98:	0e006050 	beqzl	v1,0x1d014bd4
1d014b9c:	80100400 	sll	v0,a0,0x2
1d014ba0:	00a0033c 	lui	v1,0xa000
1d014ba4:	1c016324 	addiu	v1,v1,284
1d014ba8:	80280400 	sll	a1,a0,0x2
1d014bac:	00310400 	sll	a2,a0,0x4
1d014bb0:	2328c500 	subu	a1,a2,a1
1d014bb4:	2330a400 	subu	a2,a1,a0
1d014bb8:	80300600 	sll	a2,a2,0x2
1d014bbc:	21306600 	addu	a2,v1,a2
1d014bc0:	1c00c2ac 	sw	v0,28(a2)
1d014bc4:	01000224 	li	v0,1
1d014bc8:	1800c2a0 	sb	v0,24(a2)
1d014bcc:	0800e003 	jr	ra
1d014bd0:	21100000 	move	v0,zero
1d014bd4:	00190400 	sll	v1,a0,0x4
1d014bd8:	23106200 	subu	v0,v1,v0
1d014bdc:	23104400 	subu	v0,v0,a0
1d014be0:	80100200 	sll	v0,v0,0x2
1d014be4:	00a0033c 	lui	v1,0xa000
1d014be8:	1c016324 	addiu	v1,v1,284
1d014bec:	21106200 	addu	v0,v1,v0
1d014bf0:	2400428c 	lw	v0,36(v0)
1d014bf4:	2a184500 	slt	v1,v0,a1
1d014bf8:	0e006050 	beqzl	v1,0x1d014c34
1d014bfc:	00a0023c 	lui	v0,0xa000
1d014c00:	00a0033c 	lui	v1,0xa000
1d014c04:	1c016324 	addiu	v1,v1,284
1d014c08:	80280400 	sll	a1,a0,0x2
1d014c0c:	00310400 	sll	a2,a0,0x4
1d014c10:	2328c500 	subu	a1,a2,a1
1d014c14:	2330a400 	subu	a2,a1,a0
1d014c18:	80300600 	sll	a2,a2,0x2
1d014c1c:	21306600 	addu	a2,v1,a2
1d014c20:	1c00c2ac 	sw	v0,28(a2)
1d014c24:	01000224 	li	v0,1
1d014c28:	1800c2a0 	sb	v0,24(a2)
1d014c2c:	0800e003 	jr	ra
1d014c30:	21100000 	move	v0,zero
1d014c34:	1c014224 	addiu	v0,v0,284
1d014c38:	80180400 	sll	v1,a0,0x2
1d014c3c:	00310400 	sll	a2,a0,0x4
1d014c40:	2318c300 	subu	v1,a2,v1
1d014c44:	23306400 	subu	a2,v1,a0
1d014c48:	80300600 	sll	a2,a2,0x2
1d014c4c:	21304600 	addu	a2,v0,a2
1d014c50:	1c00c5ac 	sw	a1,28(a2)
1d014c54:	01000324 	li	v1,1
1d014c58:	1800c3a0 	sb	v1,24(a2)
1d014c5c:	0800e003 	jr	ra
1d014c60:	01000224 	li	v0,1
1d014c64:	0500832c 	sltiu	v1,a0,5
1d014c68:	3f006010 	beqz	v1,0x1d014d68
1d014c6c:	21100000 	move	v0,zero
1d014c70:	80180400 	sll	v1,a0,0x2
1d014c74:	00110400 	sll	v0,a0,0x4
1d014c78:	23184300 	subu	v1,v0,v1
1d014c7c:	23186400 	subu	v1,v1,a0
1d014c80:	80180300 	sll	v1,v1,0x2
1d014c84:	00a0023c 	lui	v0,0xa000
1d014c88:	1c014224 	addiu	v0,v0,284
1d014c8c:	21106200 	addu	v0,v1,v0
1d014c90:	2000428c 	lw	v0,32(v0)
1d014c94:	2b18a200 	sltu	v1,a1,v0
1d014c98:	0e006050 	beqzl	v1,0x1d014cd4
1d014c9c:	80100400 	sll	v0,a0,0x2
1d014ca0:	00a0033c 	lui	v1,0xa000
1d014ca4:	1c016324 	addiu	v1,v1,284
1d014ca8:	80280400 	sll	a1,a0,0x2
1d014cac:	00310400 	sll	a2,a0,0x4
1d014cb0:	2328c500 	subu	a1,a2,a1
1d014cb4:	2330a400 	subu	a2,a1,a0
1d014cb8:	80300600 	sll	a2,a2,0x2
1d014cbc:	21306600 	addu	a2,v1,a2
1d014cc0:	1c00c2ac 	sw	v0,28(a2)
1d014cc4:	01000224 	li	v0,1
1d014cc8:	1800c2a0 	sb	v0,24(a2)
1d014ccc:	0800e003 	jr	ra
1d014cd0:	21100000 	move	v0,zero
1d014cd4:	00190400 	sll	v1,a0,0x4
1d014cd8:	23106200 	subu	v0,v1,v0
1d014cdc:	23104400 	subu	v0,v0,a0
1d014ce0:	80100200 	sll	v0,v0,0x2
1d014ce4:	00a0033c 	lui	v1,0xa000
1d014ce8:	1c016324 	addiu	v1,v1,284
1d014cec:	21106200 	addu	v0,v1,v0
1d014cf0:	2400428c 	lw	v0,36(v0)
1d014cf4:	2b184500 	sltu	v1,v0,a1
1d014cf8:	0e006050 	beqzl	v1,0x1d014d34
1d014cfc:	00a0023c 	lui	v0,0xa000
1d014d00:	00a0033c 	lui	v1,0xa000
1d014d04:	1c016324 	addiu	v1,v1,284
1d014d08:	80280400 	sll	a1,a0,0x2
1d014d0c:	00310400 	sll	a2,a0,0x4
1d014d10:	2328c500 	subu	a1,a2,a1
1d014d14:	2330a400 	subu	a2,a1,a0
1d014d18:	80300600 	sll	a2,a2,0x2
1d014d1c:	21306600 	addu	a2,v1,a2
1d014d20:	1c00c2ac 	sw	v0,28(a2)
1d014d24:	01000224 	li	v0,1
1d014d28:	1800c2a0 	sb	v0,24(a2)
1d014d2c:	0800e003 	jr	ra
1d014d30:	21100000 	move	v0,zero
1d014d34:	1c014224 	addiu	v0,v0,284
1d014d38:	80180400 	sll	v1,a0,0x2
1d014d3c:	00310400 	sll	a2,a0,0x4
1d014d40:	2318c300 	subu	v1,a2,v1
1d014d44:	23306400 	subu	a2,v1,a0
1d014d48:	80300600 	sll	a2,a2,0x2
1d014d4c:	21304600 	addu	a2,v0,a2
1d014d50:	1c00c5ac 	sw	a1,28(a2)
1d014d54:	01000324 	li	v1,1
1d014d58:	1800c3a0 	sb	v1,24(a2)
1d014d5c:	0800e003 	jr	ra
1d014d60:	01000224 	li	v0,1
1d014d64:	21100000 	move	v0,zero
1d014d68:	0800e003 	jr	ra
1d014d6c:	00000000 	nop
1d014d70:	a8ffbd27 	addiu	sp,sp,-88
1d014d74:	5400bfaf 	sw	ra,84(sp)
1d014d78:	5000b0af 	sw	s0,80(sp)
1d014d7c:	21808000 	move	s0,a0
1d014d80:	0500842c 	sltiu	a0,a0,5
1d014d84:	21100000 	move	v0,zero
1d014d88:	48008010 	beqz	a0,0x1d014eac
1d014d8c:	21180000 	move	v1,zero
1d014d90:	c0181000 	sll	v1,s0,0x3
1d014d94:	01a0023c 	lui	v0,0xa001
1d014d98:	88334224 	addiu	v0,v0,13192
1d014d9c:	21186200 	addu	v1,v1,v0
1d014da0:	0000628c 	lw	v0,0(v1)
1d014da4:	0400638c 	lw	v1,4(v1)
1d014da8:	25104300 	or	v0,v0,v1
1d014dac:	3a004054 	bnezl	v0,0x1d014e98
1d014db0:	c0801000 	sll	s0,s0,0x3
1d014db4:	80181000 	sll	v1,s0,0x2
1d014db8:	00111000 	sll	v0,s0,0x4
1d014dbc:	23184300 	subu	v1,v0,v1
1d014dc0:	23187000 	subu	v1,v1,s0
1d014dc4:	80180300 	sll	v1,v1,0x2
1d014dc8:	00a0023c 	lui	v0,0xa000
1d014dcc:	1c014224 	addiu	v0,v0,284
1d014dd0:	21106200 	addu	v0,v1,v0
1d014dd4:	0800438c 	lw	v1,8(v0)
1d014dd8:	1000a3af 	sw	v1,16(sp)
1d014ddc:	0c00438c 	lw	v1,12(v0)
1d014de0:	1400a3af 	sw	v1,20(sp)
1d014de4:	1800a427 	addiu	a0,sp,24
1d014de8:	0000458c 	lw	a1,0(v0)
1d014dec:	3d6f400f 	jal	0x1d01bcf4
1d014df0:	30000624 	li	a2,48
1d014df4:	016b400f 	jal	0x1d01ac04
1d014df8:	1800a427 	addiu	a0,sp,24
1d014dfc:	08004924 	addiu	t1,v0,8
1d014e00:	21200000 	move	a0,zero
1d014e04:	21280000 	move	a1,zero
1d014e08:	4800a4af 	sw	a0,72(sp)
1d014e0c:	4c00a5af 	sw	a1,76(sp)
1d014e10:	1000aa93 	lbu	t2,16(sp)
1d014e14:	21380000 	move	a3,zero
1d014e18:	029d053c 	lui	a1,0x9d02
1d014e1c:	a09ca524 	addiu	a1,a1,-25440
1d014e20:	0200292d 	sltiu	t1,t1,2
1d014e24:	1800a327 	addiu	v1,sp,24
1d014e28:	21306200 	addu	a2,v1,v0
1d014e2c:	08000824 	li	t0,8
1d014e30:	21104701 	addu	v0,t2,a3
1d014e34:	ff004230 	andi	v0,v0,0xff
1d014e38:	21104500 	addu	v0,v0,a1
1d014e3c:	08002015 	bnez	t1,0x1d014e60
1d014e40:	00004390 	lbu	v1,0(v0)
1d014e44:	1100a227 	addiu	v0,sp,17
1d014e48:	00004490 	lbu	a0,0(v0)
1d014e4c:	26186400 	xor	v1,v1,a0
1d014e50:	21186500 	addu	v1,v1,a1
1d014e54:	01004224 	addiu	v0,v0,1
1d014e58:	fbff4614 	bne	v0,a2,0x1d014e48
1d014e5c:	00006390 	lbu	v1,0(v1)
1d014e60:	4800a427 	addiu	a0,sp,72
1d014e64:	21108700 	addu	v0,a0,a3
1d014e68:	0100e724 	addiu	a3,a3,1
1d014e6c:	f0ffe814 	bne	a3,t0,0x1d014e30
1d014e70:	000043a0 	sb	v1,0(v0)
1d014e74:	c0201000 	sll	a0,s0,0x3
1d014e78:	01a0023c 	lui	v0,0xa001
1d014e7c:	88334224 	addiu	v0,v0,13192
1d014e80:	21208200 	addu	a0,a0,v0
1d014e84:	4800a28f 	lw	v0,72(sp)
1d014e88:	4c00a38f 	lw	v1,76(sp)
1d014e8c:	000082ac 	sw	v0,0(a0)
1d014e90:	040083ac 	sw	v1,4(a0)
1d014e94:	c0801000 	sll	s0,s0,0x3
1d014e98:	01a0023c 	lui	v0,0xa001
1d014e9c:	88334224 	addiu	v0,v0,13192
1d014ea0:	21800202 	addu	s0,s0,v0
1d014ea4:	0000028e 	lw	v0,0(s0)
1d014ea8:	0400038e 	lw	v1,4(s0)
1d014eac:	5400bf8f 	lw	ra,84(sp)
1d014eb0:	5000b08f 	lw	s0,80(sp)
1d014eb4:	0800e003 	jr	ra
1d014eb8:	5800bd27 	addiu	sp,sp,88
1d014ebc:	c8ffbd27 	addiu	sp,sp,-56
1d014ec0:	3400bfaf 	sw	ra,52(sp)
1d014ec4:	3000b6af 	sw	s6,48(sp)
1d014ec8:	2c00b5af 	sw	s5,44(sp)
1d014ecc:	2800b4af 	sw	s4,40(sp)
1d014ed0:	2400b3af 	sw	s3,36(sp)
1d014ed4:	2000b2af 	sw	s2,32(sp)
1d014ed8:	1c00b1af 	sw	s1,28(sp)
1d014edc:	1800b0af 	sw	s0,24(sp)
1d014ee0:	079d043c 	lui	a0,0x9d07
1d014ee4:	cf70400f 	jal	0x1d01c33c
1d014ee8:	00f08434 	ori	a0,a0,0xf000
1d014eec:	2c004014 	bnez	v0,0x1d014fa0
1d014ef0:	21180000 	move	v1,zero
1d014ef4:	da53400b 	j	0x1d014f68
1d014ef8:	079d043c 	lui	a0,0x9d07
1d014efc:	5c53400f 	jal	0x1d014d70
1d014f00:	21202002 	move	a0,s1
1d014f04:	1000a2af 	sw	v0,16(sp)
1d014f08:	1400a3af 	sw	v1,20(sp)
1d014f0c:	1c00558e 	lw	s5,28(s2)
1d014f10:	21200002 	move	a0,s0
1d014f14:	9570400f 	jal	0x1d01c254
1d014f18:	21284000 	move	a1,v0
1d014f1c:	21984000 	move	s3,v0
1d014f20:	04000426 	addiu	a0,s0,4
1d014f24:	9570400f 	jal	0x1d01c254
1d014f28:	1400a58f 	lw	a1,20(sp)
1d014f2c:	21a04000 	move	s4,v0
1d014f30:	08000426 	addiu	a0,s0,8
1d014f34:	9570400f 	jal	0x1d01c254
1d014f38:	2128a002 	move	a1,s5
1d014f3c:	25989302 	or	s3,s4,s3
1d014f40:	0100732e 	sltiu	s3,s3,1
1d014f44:	0100422c 	sltiu	v0,v0,1
1d014f48:	24186202 	and	v1,s3,v0
1d014f4c:	14006010 	beqz	v1,0x1d014fa0
1d014f50:	0c001026 	addiu	s0,s0,12
1d014f54:	01003126 	addiu	s1,s1,1
1d014f58:	e8ff1616 	bne	s0,s6,0x1d014efc
1d014f5c:	2c005226 	addiu	s2,s2,44
1d014f60:	e953400b 	j	0x1d014fa4
1d014f64:	21106000 	move	v0,v1
1d014f68:	00f08434 	ori	a0,a0,0xf000
1d014f6c:	7fe3053c 	lui	a1,0xe37f
1d014f70:	9570400f 	jal	0x1d01c254
1d014f74:	53c1a534 	ori	a1,a1,0xc153
1d014f78:	09004014 	bnez	v0,0x1d014fa0
1d014f7c:	21180000 	move	v1,zero
1d014f80:	00a0123c 	lui	s2,0xa000
1d014f84:	1c015226 	addiu	s2,s2,284
1d014f88:	21880000 	move	s1,zero
1d014f8c:	079d103c 	lui	s0,0x9d07
1d014f90:	04f01036 	ori	s0,s0,0xf004
1d014f94:	079d163c 	lui	s6,0x9d07
1d014f98:	bf53400b 	j	0x1d014efc
1d014f9c:	40f0d636 	ori	s6,s6,0xf040
1d014fa0:	21106000 	move	v0,v1
1d014fa4:	3400bf8f 	lw	ra,52(sp)
1d014fa8:	3000b68f 	lw	s6,48(sp)
1d014fac:	2c00b58f 	lw	s5,44(sp)
1d014fb0:	2800b48f 	lw	s4,40(sp)
1d014fb4:	2400b38f 	lw	s3,36(sp)
1d014fb8:	2000b28f 	lw	s2,32(sp)
1d014fbc:	1c00b18f 	lw	s1,28(sp)
1d014fc0:	1800b08f 	lw	s0,24(sp)
1d014fc4:	0800e003 	jr	ra
1d014fc8:	3800bd27 	addiu	sp,sp,56
1d014fcc:	00a0023c 	lui	v0,0xa000
1d014fd0:	1c014224 	addiu	v0,v0,284
1d014fd4:	1c004290 	lbu	v0,28(v0)
1d014fd8:	0800e003 	jr	ra
1d014fdc:	ff004230 	andi	v0,v0,0xff
1d014fe0:	00a0023c 	lui	v0,0xa000
1d014fe4:	1c014224 	addiu	v0,v0,284
1d014fe8:	48004294 	lhu	v0,72(v0)
1d014fec:	0800e003 	jr	ra
1d014ff0:	ffff4230 	andi	v0,v0,0xffff
1d014ff4:	00a0023c 	lui	v0,0xa000
1d014ff8:	1c014224 	addiu	v0,v0,284
1d014ffc:	74004290 	lbu	v0,116(v0)
1d015000:	0800e003 	jr	ra
1d015004:	ff004230 	andi	v0,v0,0xff
1d015008:	00a0023c 	lui	v0,0xa000
1d01500c:	1c014224 	addiu	v0,v0,284
1d015010:	a0004290 	lbu	v0,160(v0)
1d015014:	0800e003 	jr	ra
1d015018:	ff004230 	andi	v0,v0,0xff
1d01501c:	00a0023c 	lui	v0,0xa000
1d015020:	1c014224 	addiu	v0,v0,284
1d015024:	cc004290 	lbu	v0,204(v0)
1d015028:	0800e003 	jr	ra
1d01502c:	ff004230 	andi	v0,v0,0xff
1d015030:	00a0023c 	lui	v0,0xa000
1d015034:	1c014224 	addiu	v0,v0,284
1d015038:	2800438c 	lw	v1,40(v0)
1d01503c:	1c0043ac 	sw	v1,28(v0)
1d015040:	0800e003 	jr	ra
1d015044:	180040a0 	sb	zero,24(v0)
1d015048:	00a0023c 	lui	v0,0xa000
1d01504c:	1c014224 	addiu	v0,v0,284
1d015050:	5400438c 	lw	v1,84(v0)
1d015054:	480043ac 	sw	v1,72(v0)
1d015058:	0800e003 	jr	ra
1d01505c:	440040a0 	sb	zero,68(v0)
1d015060:	00a0023c 	lui	v0,0xa000
1d015064:	1c014224 	addiu	v0,v0,284
1d015068:	8000438c 	lw	v1,128(v0)
1d01506c:	740043ac 	sw	v1,116(v0)
1d015070:	0800e003 	jr	ra
1d015074:	700040a0 	sb	zero,112(v0)
1d015078:	00a0023c 	lui	v0,0xa000
1d01507c:	1c014224 	addiu	v0,v0,284
1d015080:	ac00438c 	lw	v1,172(v0)
1d015084:	a00043ac 	sw	v1,160(v0)
1d015088:	0800e003 	jr	ra
1d01508c:	9c0040a0 	sb	zero,156(v0)
1d015090:	00a0023c 	lui	v0,0xa000
1d015094:	1c014224 	addiu	v0,v0,284
1d015098:	d800438c 	lw	v1,216(v0)
1d01509c:	cc0043ac 	sw	v1,204(v0)
1d0150a0:	0800e003 	jr	ra
1d0150a4:	c80040a0 	sb	zero,200(v0)
1d0150a8:	e8ffbd27 	addiu	sp,sp,-24
1d0150ac:	1400bfaf 	sw	ra,20(sp)
1d0150b0:	21280000 	move	a1,zero
1d0150b4:	0438857c 	ins	a1,a0,0x0,0x8
1d0150b8:	6b51400f 	jal	0x1d0145ac
1d0150bc:	21200000 	move	a0,zero
1d0150c0:	1400bf8f 	lw	ra,20(sp)
1d0150c4:	0800e003 	jr	ra
1d0150c8:	1800bd27 	addiu	sp,sp,24
1d0150cc:	e8ffbd27 	addiu	sp,sp,-24
1d0150d0:	1400bfaf 	sw	ra,20(sp)
1d0150d4:	21280000 	move	a1,zero
1d0150d8:	0478857c 	ins	a1,a0,0x0,0x10
1d0150dc:	6b51400f 	jal	0x1d0145ac
1d0150e0:	01000424 	li	a0,1
1d0150e4:	1400bf8f 	lw	ra,20(sp)
1d0150e8:	0800e003 	jr	ra
1d0150ec:	1800bd27 	addiu	sp,sp,24
1d0150f0:	e8ffbd27 	addiu	sp,sp,-24
1d0150f4:	1400bfaf 	sw	ra,20(sp)
1d0150f8:	21280000 	move	a1,zero
1d0150fc:	0438857c 	ins	a1,a0,0x0,0x8
1d015100:	6b51400f 	jal	0x1d0145ac
1d015104:	02000424 	li	a0,2
1d015108:	1400bf8f 	lw	ra,20(sp)
1d01510c:	0800e003 	jr	ra
1d015110:	1800bd27 	addiu	sp,sp,24
1d015114:	e8ffbd27 	addiu	sp,sp,-24
1d015118:	1400bfaf 	sw	ra,20(sp)
1d01511c:	21280000 	move	a1,zero
1d015120:	0438857c 	ins	a1,a0,0x0,0x8
1d015124:	6b51400f 	jal	0x1d0145ac
1d015128:	03000424 	li	a0,3
1d01512c:	1400bf8f 	lw	ra,20(sp)
1d015130:	0800e003 	jr	ra
1d015134:	1800bd27 	addiu	sp,sp,24
1d015138:	e8ffbd27 	addiu	sp,sp,-24
1d01513c:	1400bfaf 	sw	ra,20(sp)
1d015140:	21280000 	move	a1,zero
1d015144:	0438857c 	ins	a1,a0,0x0,0x8
1d015148:	6b51400f 	jal	0x1d0145ac
1d01514c:	04000424 	li	a0,4
1d015150:	1400bf8f 	lw	ra,20(sp)
1d015154:	0800e003 	jr	ra
1d015158:	1800bd27 	addiu	sp,sp,24
1d01515c:	00a0023c 	lui	v0,0xa000
1d015160:	1c014224 	addiu	v0,v0,284
1d015164:	dc004424 	addiu	a0,v0,220
1d015168:	2800438c 	lw	v1,40(v0)
1d01516c:	1c0043ac 	sw	v1,28(v0)
1d015170:	180040a0 	sb	zero,24(v0)
1d015174:	2c004224 	addiu	v0,v0,44
1d015178:	fcff4454 	bnel	v0,a0,0x1d01516c
1d01517c:	2800438c 	lw	v1,40(v0)
1d015180:	079d023c 	lui	v0,0x9d07
1d015184:	00f04234 	ori	v0,v0,0xf000
1d015188:	0000438c 	lw	v1,0(v0)
1d01518c:	7fe3023c 	lui	v0,0xe37f
1d015190:	53c14234 	ori	v0,v0,0xc153
1d015194:	36006214 	bne	v1,v0,0x1d015270
1d015198:	00000000 	nop
1d01519c:	c0ffbd27 	addiu	sp,sp,-64
1d0151a0:	3c00bfaf 	sw	ra,60(sp)
1d0151a4:	3800b6af 	sw	s6,56(sp)
1d0151a8:	3400b5af 	sw	s5,52(sp)
1d0151ac:	3000b4af 	sw	s4,48(sp)
1d0151b0:	2c00b3af 	sw	s3,44(sp)
1d0151b4:	2800b2af 	sw	s2,40(sp)
1d0151b8:	2400b1af 	sw	s1,36(sp)
1d0151bc:	2000b0af 	sw	s0,32(sp)
1d0151c0:	079d113c 	lui	s1,0x9d07
1d0151c4:	04f03136 	ori	s1,s1,0xf004
1d0151c8:	ffff1424 	li	s4,-1
1d0151cc:	05001324 	li	s3,5
1d0151d0:	089d153c 	lui	s5,0x9d08
1d0151d4:	0300328a 	lwl	s2,3(s1)
1d0151d8:	0000329a 	lwr	s2,0(s1)
1d0151dc:	0700238a 	lwl	v1,7(s1)
1d0151e0:	0400239a 	lwr	v1,4(s1)
1d0151e4:	1000b2af 	sw	s2,16(sp)
1d0151e8:	1400a3af 	sw	v1,20(sp)
1d0151ec:	08002226 	addiu	v0,s1,8
1d0151f0:	03004488 	lwl	a0,3(v0)
1d0151f4:	00004498 	lwr	a0,0(v0)
1d0151f8:	1800a4af 	sw	a0,24(sp)
1d0151fc:	0c003126 	addiu	s1,s1,12
1d015200:	03005416 	bne	s2,s4,0x1d015210
1d015204:	21b06000 	move	s6,v1
1d015208:	11007410 	beq	v1,s4,0x1d015250
1d01520c:	3c00bf8f 	lw	ra,60(sp)
1d015210:	21800000 	move	s0,zero
1d015214:	5c53400f 	jal	0x1d014d70
1d015218:	21200002 	move	a0,s0
1d01521c:	07004256 	bnel	s2,v0,0x1d01523c
1d015220:	01001026 	addiu	s0,s0,1
1d015224:	0500c356 	bnel	s6,v1,0x1d01523c
1d015228:	01001026 	addiu	s0,s0,1
1d01522c:	21200002 	move	a0,s0
1d015230:	6b51400f 	jal	0x1d0145ac
1d015234:	1800a58f 	lw	a1,24(sp)
1d015238:	01001026 	addiu	s0,s0,1
1d01523c:	f5ff1316 	bne	s0,s3,0x1d015214
1d015240:	00000000 	nop
1d015244:	e4ff3556 	bnel	s1,s5,0x1d0151d8
1d015248:	0300328a 	lwl	s2,3(s1)
1d01524c:	3c00bf8f 	lw	ra,60(sp)
1d015250:	3800b68f 	lw	s6,56(sp)
1d015254:	3400b58f 	lw	s5,52(sp)
1d015258:	3000b48f 	lw	s4,48(sp)
1d01525c:	2c00b38f 	lw	s3,44(sp)
1d015260:	2800b28f 	lw	s2,40(sp)
1d015264:	2400b18f 	lw	s1,36(sp)
1d015268:	2000b08f 	lw	s0,32(sp)
1d01526c:	4000bd27 	addiu	sp,sp,64
1d015270:	0800e003 	jr	ra
1d015274:	00000000 	nop
1d015278:	e0ffbd27 	addiu	sp,sp,-32
1d01527c:	1c00bfaf 	sw	ra,28(sp)
1d015280:	1800b2af 	sw	s2,24(sp)
1d015284:	1400b1af 	sw	s1,20(sp)
1d015288:	1000b0af 	sw	s0,16(sp)
1d01528c:	21888000 	move	s1,a0
1d015290:	00008390 	lbu	v1,0(a0)
1d015294:	60006324 	addiu	v1,v1,96
1d015298:	ff006330 	andi	v1,v1,0xff
1d01529c:	1000632c 	sltiu	v1,v1,16
1d0152a0:	ef006010 	beqz	v1,0x1d015660
1d0152a4:	21100000 	move	v0,zero
1d0152a8:	2180a000 	move	s0,a1
1d0152ac:	2120a000 	move	a0,a1
1d0152b0:	21280000 	move	a1,zero
1d0152b4:	c96d400f 	jal	0x1d01b724
1d0152b8:	40000624 	li	a2,64
1d0152bc:	00002292 	lbu	v0,0(s1)
1d0152c0:	60004224 	addiu	v0,v0,96
1d0152c4:	ff004330 	andi	v1,v0,0xff
1d0152c8:	1000632c 	sltiu	v1,v1,16
1d0152cc:	e3006010 	beqz	v1,0x1d01565c
1d0152d0:	ff004230 	andi	v0,v0,0xff
1d0152d4:	80100200 	sll	v0,v0,0x2
1d0152d8:	019d033c 	lui	v1,0x9d01
1d0152dc:	f0526324 	addiu	v1,v1,21232
1d0152e0:	21106200 	addu	v0,v1,v0
1d0152e4:	0000428c 	lw	v0,0(v0)
1d0152e8:	08004000 	jr	v0
1d0152ec:	00000000 	nop
1d0152f0:	3053019d 	0x9d015330
1d0152f4:	6853019d 	0x9d015368
1d0152f8:	8053019d 	0x9d015380
1d0152fc:	ec53019d 	0x9d0153ec
1d015300:	5054019d 	0x9d015450
1d015304:	c454019d 	0x9d0154c4
1d015308:	1855019d 	0x9d015518
1d01530c:	8455019d 	0x9d015584
1d015310:	5c56019d 	0x9d01565c
1d015314:	5c56019d 	0x9d01565c
1d015318:	5c56019d 	0x9d01565c
1d01531c:	5c56019d 	0x9d01565c
1d015320:	5c56019d 	0x9d01565c
1d015324:	5c56019d 	0x9d01565c
1d015328:	5c56019d 	0x9d01565c
1d01532c:	1c56019d 	0x9d01561c
1d015330:	a0ff0224 	li	v0,-96
1d015334:	000002a2 	sb	v0,0(s0)
1d015338:	01000224 	li	v0,1
1d01533c:	020002a6 	sh	v0,2(s0)
1d015340:	040000a6 	sh	zero,4(s0)
1d015344:	02000224 	li	v0,2
1d015348:	060002a6 	sh	v0,6(s0)
1d01534c:	08000426 	addiu	a0,s0,8
1d015350:	029d053c 	lui	a1,0x9d02
1d015354:	909ca524 	addiu	a1,a1,-25456
1d015358:	3d6f400f 	jal	0x1d01bcf4
1d01535c:	38000624 	li	a2,56
1d015360:	9855400b 	j	0x1d015660
1d015364:	01000224 	li	v0,1
1d015368:	a1ff0224 	li	v0,-95
1d01536c:	000002a2 	sb	v0,0(s0)
1d015370:	05000224 	li	v0,5
1d015374:	020002a6 	sh	v0,2(s0)
1d015378:	9855400b 	j	0x1d015660
1d01537c:	01000224 	li	v0,1
1d015380:	a2ff0224 	li	v0,-94
1d015384:	000002a2 	sb	v0,0(s0)
1d015388:	02002296 	lhu	v0,2(s1)
1d01538c:	020002a6 	sh	v0,2(s0)
1d015390:	80180200 	sll	v1,v0,0x2
1d015394:	00210200 	sll	a0,v0,0x4
1d015398:	23188300 	subu	v1,a0,v1
1d01539c:	23106200 	subu	v0,v1,v0
1d0153a0:	80100200 	sll	v0,v0,0x2
1d0153a4:	00a0113c 	lui	s1,0xa000
1d0153a8:	1c013126 	addiu	s1,s1,284
1d0153ac:	21105100 	addu	v0,v0,s1
1d0153b0:	05000426 	addiu	a0,s0,5
1d0153b4:	0000458c 	lw	a1,0(v0)
1d0153b8:	3d6f400f 	jal	0x1d01bcf4
1d0153bc:	30000624 	li	a2,48
1d0153c0:	02000296 	lhu	v0,2(s0)
1d0153c4:	80180200 	sll	v1,v0,0x2
1d0153c8:	00210200 	sll	a0,v0,0x4
1d0153cc:	23188300 	subu	v1,a0,v1
1d0153d0:	23106200 	subu	v0,v1,v0
1d0153d4:	80100200 	sll	v0,v0,0x2
1d0153d8:	21885100 	addu	s1,v0,s1
1d0153dc:	0800228e 	lw	v0,8(s1)
1d0153e0:	040002a2 	sb	v0,4(s0)
1d0153e4:	9855400b 	j	0x1d015660
1d0153e8:	01000224 	li	v0,1
1d0153ec:	a3ff0224 	li	v0,-93
1d0153f0:	000002a2 	sb	v0,0(s0)
1d0153f4:	02002296 	lhu	v0,2(s1)
1d0153f8:	020002a6 	sh	v0,2(s0)
1d0153fc:	00a0043c 	lui	a0,0xa000
1d015400:	1c018424 	addiu	a0,a0,284
1d015404:	80180200 	sll	v1,v0,0x2
1d015408:	00290200 	sll	a1,v0,0x4
1d01540c:	2328a300 	subu	a1,a1,v1
1d015410:	2318a200 	subu	v1,a1,v0
1d015414:	80180300 	sll	v1,v1,0x2
1d015418:	21188300 	addu	v1,a0,v1
1d01541c:	0c00668c 	lw	a2,12(v1)
1d015420:	040006ae 	sw	a2,4(s0)
1d015424:	2800668c 	lw	a2,40(v1)
1d015428:	080006ae 	sw	a2,8(s0)
1d01542c:	2000638c 	lw	v1,32(v1)
1d015430:	0c0003ae 	sw	v1,12(s0)
1d015434:	2310a200 	subu	v0,a1,v0
1d015438:	80100200 	sll	v0,v0,0x2
1d01543c:	21208200 	addu	a0,a0,v0
1d015440:	2400828c 	lw	v0,36(a0)
1d015444:	100002ae 	sw	v0,16(s0)
1d015448:	9855400b 	j	0x1d015660
1d01544c:	01000224 	li	v0,1
1d015450:	a4ff0224 	li	v0,-92
1d015454:	000002a2 	sb	v0,0(s0)
1d015458:	02002296 	lhu	v0,2(s1)
1d01545c:	020002a6 	sh	v0,2(s0)
1d015460:	01002392 	lbu	v1,1(s1)
1d015464:	010003a2 	sb	v1,1(s0)
1d015468:	80200300 	sll	a0,v1,0x2
1d01546c:	80190300 	sll	v1,v1,0x6
1d015470:	23886400 	subu	s1,v1,a0
1d015474:	80180200 	sll	v1,v0,0x2
1d015478:	00210200 	sll	a0,v0,0x4
1d01547c:	23188300 	subu	v1,a0,v1
1d015480:	23106200 	subu	v0,v1,v0
1d015484:	80100200 	sll	v0,v0,0x2
1d015488:	00a0033c 	lui	v1,0xa000
1d01548c:	1c016324 	addiu	v1,v1,284
1d015490:	21106200 	addu	v0,v1,v0
1d015494:	0400528c 	lw	s2,4(v0)
1d015498:	016b400f 	jal	0x1d01ac04
1d01549c:	21204002 	move	a0,s2
1d0154a0:	2b182202 	sltu	v1,s1,v0
1d0154a4:	6e006010 	beqz	v1,0x1d015660
1d0154a8:	01000224 	li	v0,1
1d0154ac:	04000426 	addiu	a0,s0,4
1d0154b0:	21285102 	addu	a1,s2,s1
1d0154b4:	3d6f400f 	jal	0x1d01bcf4
1d0154b8:	3c000624 	li	a2,60
1d0154bc:	9855400b 	j	0x1d015660
1d0154c0:	01000224 	li	v0,1
1d0154c4:	a5ff0224 	li	v0,-91
1d0154c8:	000002a2 	sb	v0,0(s0)
1d0154cc:	02002296 	lhu	v0,2(s1)
1d0154d0:	020002a6 	sh	v0,2(s0)
1d0154d4:	00a0033c 	lui	v1,0xa000
1d0154d8:	1c016324 	addiu	v1,v1,284
1d0154dc:	80200200 	sll	a0,v0,0x2
1d0154e0:	00290200 	sll	a1,v0,0x4
1d0154e4:	2320a400 	subu	a0,a1,a0
1d0154e8:	23288200 	subu	a1,a0,v0
1d0154ec:	80280500 	sll	a1,a1,0x2
1d0154f0:	21286500 	addu	a1,v1,a1
1d0154f4:	1c00a58c 	lw	a1,28(a1)
1d0154f8:	040005ae 	sw	a1,4(s0)
1d0154fc:	23108200 	subu	v0,a0,v0
1d015500:	80100200 	sll	v0,v0,0x2
1d015504:	21184300 	addu	v1,v0,v1
1d015508:	18006290 	lbu	v0,24(v1)
1d01550c:	010002a2 	sb	v0,1(s0)
1d015510:	9855400b 	j	0x1d015660
1d015514:	01000224 	li	v0,1
1d015518:	a6ff0224 	li	v0,-90
1d01551c:	000002a2 	sb	v0,0(s0)
1d015520:	02002296 	lhu	v0,2(s1)
1d015524:	020002a6 	sh	v0,2(s0)
1d015528:	02002496 	lhu	a0,2(s1)
1d01552c:	6b51400f 	jal	0x1d0145ac
1d015530:	0400258e 	lw	a1,4(s1)
1d015534:	af53400f 	jal	0x1d014ebc
1d015538:	00000000 	nop
1d01553c:	02000296 	lhu	v0,2(s0)
1d015540:	00a0033c 	lui	v1,0xa000
1d015544:	1c016324 	addiu	v1,v1,284
1d015548:	80200200 	sll	a0,v0,0x2
1d01554c:	00290200 	sll	a1,v0,0x4
1d015550:	2320a400 	subu	a0,a1,a0
1d015554:	23288200 	subu	a1,a0,v0
1d015558:	80280500 	sll	a1,a1,0x2
1d01555c:	21286500 	addu	a1,v1,a1
1d015560:	1c00a58c 	lw	a1,28(a1)
1d015564:	040005ae 	sw	a1,4(s0)
1d015568:	23108200 	subu	v0,a0,v0
1d01556c:	80100200 	sll	v0,v0,0x2
1d015570:	21184300 	addu	v1,v0,v1
1d015574:	18006290 	lbu	v0,24(v1)
1d015578:	010002a2 	sb	v0,1(s0)
1d01557c:	9855400b 	j	0x1d015660
1d015580:	01000224 	li	v0,1
1d015584:	a7ff0224 	li	v0,-89
1d015588:	000002a2 	sb	v0,0(s0)
1d01558c:	02002296 	lhu	v0,2(s1)
1d015590:	020002a6 	sh	v0,2(s0)
1d015594:	02002296 	lhu	v0,2(s1)
1d015598:	0500432c 	sltiu	v1,v0,5
1d01559c:	0b006010 	beqz	v1,0x1d0155cc
1d0155a0:	00a0033c 	lui	v1,0xa000
1d0155a4:	1c016324 	addiu	v1,v1,284
1d0155a8:	80200200 	sll	a0,v0,0x2
1d0155ac:	00290200 	sll	a1,v0,0x4
1d0155b0:	2320a400 	subu	a0,a1,a0
1d0155b4:	23288200 	subu	a1,a0,v0
1d0155b8:	80280500 	sll	a1,a1,0x2
1d0155bc:	21286500 	addu	a1,v1,a1
1d0155c0:	2800a68c 	lw	a2,40(a1)
1d0155c4:	1c00a6ac 	sw	a2,28(a1)
1d0155c8:	1800a0a0 	sb	zero,24(a1)
1d0155cc:	af53400f 	jal	0x1d014ebc
1d0155d0:	00000000 	nop
1d0155d4:	02000296 	lhu	v0,2(s0)
1d0155d8:	00a0033c 	lui	v1,0xa000
1d0155dc:	1c016324 	addiu	v1,v1,284
1d0155e0:	80200200 	sll	a0,v0,0x2
1d0155e4:	00290200 	sll	a1,v0,0x4
1d0155e8:	2320a400 	subu	a0,a1,a0
1d0155ec:	23288200 	subu	a1,a0,v0
1d0155f0:	80280500 	sll	a1,a1,0x2
1d0155f4:	21286500 	addu	a1,v1,a1
1d0155f8:	1c00a58c 	lw	a1,28(a1)
1d0155fc:	040005ae 	sw	a1,4(s0)
1d015600:	23108200 	subu	v0,a0,v0
1d015604:	80100200 	sll	v0,v0,0x2
1d015608:	21184300 	addu	v1,v0,v1
1d01560c:	18006290 	lbu	v0,24(v1)
1d015610:	010002a2 	sb	v0,1(s0)
1d015614:	9855400b 	j	0x1d015660
1d015618:	01000224 	li	v0,1
1d01561c:	00a0023c 	lui	v0,0xa000
1d015620:	1c014224 	addiu	v0,v0,284
1d015624:	dc004424 	addiu	a0,v0,220
1d015628:	2800438c 	lw	v1,40(v0)
1d01562c:	1c0043ac 	sw	v1,28(v0)
1d015630:	180040a0 	sb	zero,24(v0)
1d015634:	2c004224 	addiu	v0,v0,44
1d015638:	fcff4454 	bnel	v0,a0,0x1d01562c
1d01563c:	2800438c 	lw	v1,40(v0)
1d015640:	079d043c 	lui	a0,0x9d07
1d015644:	cf70400f 	jal	0x1d01c33c
1d015648:	00f08434 	ori	a0,a0,0xf000
1d01564c:	afff0224 	li	v0,-81
1d015650:	000002a2 	sb	v0,0(s0)
1d015654:	9855400b 	j	0x1d015660
1d015658:	01000224 	li	v0,1
1d01565c:	21100000 	move	v0,zero
1d015660:	1c00bf8f 	lw	ra,28(sp)
1d015664:	1800b28f 	lw	s2,24(sp)
1d015668:	1400b18f 	lw	s1,20(sp)
1d01566c:	1000b08f 	lw	s0,16(sp)
1d015670:	0800e003 	jr	ra
1d015674:	2000bd27 	addiu	sp,sp,32

Disassembly of section .sec70:

1d015678 <.sec70>:
1d015678:	c0ffbd27 	addiu	sp,sp,-64
1d01567c:	3c00bfaf 	sw	ra,60(sp)
1d015680:	3800b1af 	sw	s1,56(sp)
1d015684:	3400b0af 	sw	s0,52(sp)
1d015688:	21888000 	move	s1,a0
1d01568c:	21200000 	move	a0,zero
1d015690:	5c70400f 	jal	0x1d01c170
1d015694:	01000524 	li	a1,1
1d015698:	21200000 	move	a0,zero
1d01569c:	e570400f 	jal	0x1d01c394
1d0156a0:	04000524 	li	a1,4
1d0156a4:	04001024 	li	s0,4
1d0156a8:	0171400f 	jal	0x1d01c404
1d0156ac:	21200000 	move	a0,zero
1d0156b0:	fdff5014 	bne	v0,s0,0x1d0156a8
1d0156b4:	00000000 	nop
1d0156b8:	06002016 	bnez	s1,0x1d0156d4
1d0156bc:	02000224 	li	v0,2
1d0156c0:	21200000 	move	a0,zero
1d0156c4:	5c70400f 	jal	0x1d01c170
1d0156c8:	21280000 	move	a1,zero
1d0156cc:	fc55400b 	j	0x1d0157f0
1d0156d0:	3c00bf8f 	lw	ra,60(sp)
1d0156d4:	1c00a2af 	sw	v0,28(sp)
1d0156d8:	1800a2af 	sw	v0,24(sp)
1d0156dc:	2000a2af 	sw	v0,32(sp)
1d0156e0:	01001024 	li	s0,1
1d0156e4:	2800b0af 	sw	s0,40(sp)
1d0156e8:	2c00b0af 	sw	s0,44(sp)
1d0156ec:	2400b0af 	sw	s0,36(sp)
1d0156f0:	21200000 	move	a0,zero
1d0156f4:	1800a527 	addiu	a1,sp,24
1d0156f8:	6202063c 	lui	a2,0x262
1d0156fc:	005ac624 	addiu	a2,a2,23040
1d015700:	2c6d400f 	jal	0x1d01b4b0
1d015704:	21382002 	move	a3,s1
1d015708:	21200000 	move	a0,zero
1d01570c:	01a0053c 	lui	a1,0xa001
1d015710:	3c15a524 	addiu	a1,a1,5436
1d015714:	ef70400f 	jal	0x1d01c3bc
1d015718:	40080624 	li	a2,2112
1d01571c:	21200000 	move	a0,zero
1d015720:	21280000 	move	a1,zero
1d015724:	40000624 	li	a2,64
1d015728:	906f400f 	jal	0x1d01be40
1d01572c:	01000724 	li	a3,1
1d015730:	1000b0af 	sw	s0,16(sp)
1d015734:	21200000 	move	a0,zero
1d015738:	01000524 	li	a1,1
1d01573c:	40000624 	li	a2,64
1d015740:	1d6e400f 	jal	0x1d01b874
1d015744:	01000724 	li	a3,1
1d015748:	03000224 	li	v0,3
1d01574c:	1000a2af 	sw	v0,16(sp)
1d015750:	21200000 	move	a0,zero
1d015754:	02000524 	li	a1,2
1d015758:	04000624 	li	a2,4
1d01575c:	1d6e400f 	jal	0x1d01b874
1d015760:	01000724 	li	a3,1
1d015764:	1000b0af 	sw	s0,16(sp)
1d015768:	21200000 	move	a0,zero
1d01576c:	21280000 	move	a1,zero
1d015770:	21300000 	move	a2,zero
1d015774:	9b6d400f 	jal	0x1d01b66c
1d015778:	01000724 	li	a3,1
1d01577c:	21200000 	move	a0,zero
1d015780:	21280000 	move	a1,zero
1d015784:	21300000 	move	a2,zero
1d015788:	db6e400f 	jal	0x1d01bb6c
1d01578c:	01000724 	li	a3,1
1d015790:	21200000 	move	a0,zero
1d015794:	21280000 	move	a1,zero
1d015798:	21300000 	move	a2,zero
1d01579c:	a86f400f 	jal	0x1d01bea0
1d0157a0:	21380000 	move	a3,zero
1d0157a4:	21200000 	move	a0,zero
1d0157a8:	21280000 	move	a1,zero
1d0157ac:	766f400f 	jal	0x1d01bdd8
1d0157b0:	01000624 	li	a2,1
1d0157b4:	21200000 	move	a0,zero
1d0157b8:	03000524 	li	a1,3
1d0157bc:	7a70400f 	jal	0x1d01c1e8
1d0157c0:	01000624 	li	a2,1
1d0157c4:	21200000 	move	a0,zero
1d0157c8:	08080524 	li	a1,2056
1d0157cc:	7a70400f 	jal	0x1d01c1e8
1d0157d0:	21300000 	move	a2,zero
1d0157d4:	21200000 	move	a0,zero
1d0157d8:	e570400f 	jal	0x1d01c394
1d0157dc:	21280000 	move	a1,zero
1d0157e0:	0171400f 	jal	0x1d01c404
1d0157e4:	21200000 	move	a0,zero
1d0157e8:	fdff4014 	bnez	v0,0x1d0157e0
1d0157ec:	3c00bf8f 	lw	ra,60(sp)
1d0157f0:	3800b18f 	lw	s1,56(sp)
1d0157f4:	3400b08f 	lw	s0,52(sp)
1d0157f8:	0800e003 	jr	ra
1d0157fc:	4000bd27 	addiu	sp,sp,64
1d015800:	e8ffbd27 	addiu	sp,sp,-24
1d015804:	1400bfaf 	sw	ra,20(sp)
1d015808:	1000b0af 	sw	s0,16(sp)
1d01580c:	21200000 	move	a0,zero
1d015810:	5c70400f 	jal	0x1d01c170
1d015814:	01000524 	li	a1,1
1d015818:	21200000 	move	a0,zero
1d01581c:	e570400f 	jal	0x1d01c394
1d015820:	04000524 	li	a1,4
1d015824:	04001024 	li	s0,4
1d015828:	0171400f 	jal	0x1d01c404
1d01582c:	21200000 	move	a0,zero
1d015830:	fdff5014 	bne	v0,s0,0x1d015828
1d015834:	21200000 	move	a0,zero
1d015838:	5c70400f 	jal	0x1d01c170
1d01583c:	21280000 	move	a1,zero
1d015840:	1400bf8f 	lw	ra,20(sp)
1d015844:	1000b08f 	lw	s0,16(sp)
1d015848:	0800e003 	jr	ra
1d01584c:	1800bd27 	addiu	sp,sp,24
1d015850:	e8ffbd27 	addiu	sp,sp,-24
1d015854:	1400bfaf 	sw	ra,20(sp)
1d015858:	0971400f 	jal	0x1d01c424
1d01585c:	21200000 	move	a0,zero
1d015860:	2b100200 	sltu	v0,zero,v0
1d015864:	1400bf8f 	lw	ra,20(sp)
1d015868:	0800e003 	jr	ra
1d01586c:	1800bd27 	addiu	sp,sp,24
1d015870:	e8ffbd27 	addiu	sp,sp,-24
1d015874:	1400bfaf 	sw	ra,20(sp)
1d015878:	1000b0af 	sw	s0,16(sp)
1d01587c:	21808000 	move	s0,a0
1d015880:	21200000 	move	a0,zero
1d015884:	1a70400f 	jal	0x1d01c068
1d015888:	01000524 	li	a1,1
1d01588c:	18004050 	beqzl	v0,0x1d0158f0
1d015890:	21100000 	move	v0,zero
1d015894:	0300068a 	lwl	a2,3(s0)
1d015898:	0000069a 	lwr	a2,0(s0)
1d01589c:	0700058a 	lwl	a1,7(s0)
1d0158a0:	0400059a 	lwr	a1,4(s0)
1d0158a4:	0b00048a 	lwl	a0,11(s0)
1d0158a8:	0800049a 	lwr	a0,8(s0)
1d0158ac:	0f00038a 	lwl	v1,15(s0)
1d0158b0:	0c00039a 	lwr	v1,12(s0)
1d0158b4:	030046a8 	swl	a2,3(v0)
1d0158b8:	000046b8 	swr	a2,0(v0)
1d0158bc:	070045a8 	swl	a1,7(v0)
1d0158c0:	040045b8 	swr	a1,4(v0)
1d0158c4:	0b0044a8 	swl	a0,11(v0)
1d0158c8:	080044b8 	swr	a0,8(v0)
1d0158cc:	0f0043a8 	swl	v1,15(v0)
1d0158d0:	0c0043b8 	swr	v1,12(v0)
1d0158d4:	21200000 	move	a0,zero
1d0158d8:	ae70400f 	jal	0x1d01c2b8
1d0158dc:	01000524 	li	a1,1
1d0158e0:	21200000 	move	a0,zero
1d0158e4:	b970400f 	jal	0x1d01c2e4
1d0158e8:	01000524 	li	a1,1
1d0158ec:	01000224 	li	v0,1
1d0158f0:	1400bf8f 	lw	ra,20(sp)
1d0158f4:	1000b08f 	lw	s0,16(sp)
1d0158f8:	0800e003 	jr	ra
1d0158fc:	1800bd27 	addiu	sp,sp,24
1d015900:	e8ffbd27 	addiu	sp,sp,-24
1d015904:	1400bfaf 	sw	ra,20(sp)
1d015908:	1000b0af 	sw	s0,16(sp)
1d01590c:	21808000 	move	s0,a0
1d015910:	21200000 	move	a0,zero
1d015914:	1a70400f 	jal	0x1d01c068
1d015918:	02000524 	li	a1,2
1d01591c:	18004050 	beqzl	v0,0x1d015980
1d015920:	21100000 	move	v0,zero
1d015924:	0300068a 	lwl	a2,3(s0)
1d015928:	0000069a 	lwr	a2,0(s0)
1d01592c:	0700058a 	lwl	a1,7(s0)
1d015930:	0400059a 	lwr	a1,4(s0)
1d015934:	0b00048a 	lwl	a0,11(s0)
1d015938:	0800049a 	lwr	a0,8(s0)
1d01593c:	0f00038a 	lwl	v1,15(s0)
1d015940:	0c00039a 	lwr	v1,12(s0)
1d015944:	030046a8 	swl	a2,3(v0)
1d015948:	000046b8 	swr	a2,0(v0)
1d01594c:	070045a8 	swl	a1,7(v0)
1d015950:	040045b8 	swr	a1,4(v0)
1d015954:	0b0044a8 	swl	a0,11(v0)
1d015958:	080044b8 	swr	a0,8(v0)
1d01595c:	0f0043a8 	swl	v1,15(v0)
1d015960:	0c0043b8 	swr	v1,12(v0)
1d015964:	21200000 	move	a0,zero
1d015968:	ae70400f 	jal	0x1d01c2b8
1d01596c:	02000524 	li	a1,2
1d015970:	21200000 	move	a0,zero
1d015974:	b970400f 	jal	0x1d01c2e4
1d015978:	02000524 	li	a1,2
1d01597c:	01000224 	li	v0,1
1d015980:	1400bf8f 	lw	ra,20(sp)
1d015984:	1000b08f 	lw	s0,16(sp)
1d015988:	0800e003 	jr	ra
1d01598c:	1800bd27 	addiu	sp,sp,24
1d015990:	d8ffbd27 	addiu	sp,sp,-40
1d015994:	2400bfaf 	sw	ra,36(sp)
1d015998:	2000b3af 	sw	s3,32(sp)
1d01599c:	1c00b2af 	sw	s2,28(sp)
1d0159a0:	1800b1af 	sw	s1,24(sp)
1d0159a4:	1400b0af 	sw	s0,20(sp)
1d0159a8:	21808000 	move	s0,a0
1d0159ac:	2188a000 	move	s1,a1
1d0159b0:	21200000 	move	a0,zero
1d0159b4:	0970400f 	jal	0x1d01c024
1d0159b8:	21280000 	move	a1,zero
1d0159bc:	16004010 	beqz	v0,0x1d015a18
1d0159c0:	00000000 	nop
1d0159c4:	03004588 	lwl	a1,3(v0)
1d0159c8:	00004598 	lwr	a1,0(v0)
1d0159cc:	07004488 	lwl	a0,7(v0)
1d0159d0:	04004498 	lwr	a0,4(v0)
1d0159d4:	0b004388 	lwl	v1,11(v0)
1d0159d8:	08004398 	lwr	v1,8(v0)
1d0159dc:	0f004688 	lwl	a2,15(v0)
1d0159e0:	0c004698 	lwr	a2,12(v0)
1d0159e4:	030005aa 	swl	a1,3(s0)
1d0159e8:	000005ba 	swr	a1,0(s0)
1d0159ec:	070004aa 	swl	a0,7(s0)
1d0159f0:	040004ba 	swr	a0,4(s0)
1d0159f4:	0b0003aa 	swl	v1,11(s0)
1d0159f8:	080003ba 	swr	v1,8(s0)
1d0159fc:	0f0006aa 	swl	a2,15(s0)
1d015a00:	0c0006ba 	swr	a2,12(s0)
1d015a04:	21200000 	move	a0,zero
1d015a08:	ae70400f 	jal	0x1d01c2b8
1d015a0c:	21280000 	move	a1,zero
1d015a10:	bb56400b 	j	0x1d015aec
1d015a14:	01000224 	li	v0,1
1d015a18:	34002012 	beqz	s1,0x1d015aec
1d015a1c:	21100000 	move	v0,zero
1d015a20:	1171400f 	jal	0x1d01c444
1d015a24:	21200000 	move	a0,zero
1d015a28:	21904000 	move	s2,v0
1d015a2c:	1971400f 	jal	0x1d01c464
1d015a30:	21200000 	move	a0,zero
1d015a34:	21884000 	move	s1,v0
1d015a38:	8480938f 	lw	s3,-32636(gp)
1d015a3c:	2b986202 	sltu	s3,s3,v0
1d015a40:	8880828f 	lw	v0,-32632(gp)
1d015a44:	2b105200 	sltu	v0,v0,s2
1d015a48:	10004054 	bnezl	v0,0x1d015a8c
1d015a4c:	21200002 	move	a0,s0
1d015a50:	0b006052 	beqzl	s3,0x1d015a80
1d015a54:	888092af 	sw	s2,-32632(gp)
1d015a58:	b156400b 	j	0x1d015ac4
1d015a5c:	21200002 	move	a0,s0
1d015a60:	05006012 	beqz	s3,0x1d015a78
1d015a64:	8480848f 	lw	a0,-32636(gp)
1d015a68:	23186400 	subu	v1,v1,a0
1d015a6c:	0b0003a2 	sb	v1,11(s0)
1d015a70:	9f56400b 	j	0x1d015a7c
1d015a74:	21984000 	move	s3,v0
1d015a78:	21984000 	move	s3,v0
1d015a7c:	888092af 	sw	s2,-32632(gp)
1d015a80:	848091af 	sw	s1,-32636(gp)
1d015a84:	bb56400b 	j	0x1d015aec
1d015a88:	21106002 	move	v0,s3
1d015a8c:	21280000 	move	a1,zero
1d015a90:	c96d400f 	jal	0x1d01b724
1d015a94:	10000624 	li	a2,16
1d015a98:	0f000224 	li	v0,15
1d015a9c:	040002ae 	sw	v0,4(s0)
1d015aa0:	ff004232 	andi	v0,s2,0xff
1d015aa4:	080002a2 	sb	v0,8(s0)
1d015aa8:	ff002332 	andi	v1,s1,0xff
1d015aac:	090003a2 	sb	v1,9(s0)
1d015ab0:	8880848f 	lw	a0,-32632(gp)
1d015ab4:	23104400 	subu	v0,v0,a0
1d015ab8:	0a0002a2 	sb	v0,10(s0)
1d015abc:	9856400b 	j	0x1d015a60
1d015ac0:	01000224 	li	v0,1
1d015ac4:	21280000 	move	a1,zero
1d015ac8:	c96d400f 	jal	0x1d01b724
1d015acc:	10000624 	li	a2,16
1d015ad0:	0f000224 	li	v0,15
1d015ad4:	040002ae 	sw	v0,4(s0)
1d015ad8:	080012a2 	sb	s2,8(s0)
1d015adc:	ff002332 	andi	v1,s1,0xff
1d015ae0:	090003a2 	sb	v1,9(s0)
1d015ae4:	9856400b 	j	0x1d015a60
1d015ae8:	21106002 	move	v0,s3
1d015aec:	2400bf8f 	lw	ra,36(sp)
1d015af0:	2000b38f 	lw	s3,32(sp)
1d015af4:	1c00b28f 	lw	s2,28(sp)
1d015af8:	1800b18f 	lw	s1,24(sp)
1d015afc:	1400b08f 	lw	s0,20(sp)
1d015b00:	0800e003 	jr	ra
1d015b04:	2800bd27 	addiu	sp,sp,40
1d015b08:	e8ffbd27 	addiu	sp,sp,-24
1d015b0c:	1400bfaf 	sw	ra,20(sp)
1d015b10:	1971400f 	jal	0x1d01c464
1d015b14:	21200000 	move	a0,zero
1d015b18:	ff004230 	andi	v0,v0,0xff
1d015b1c:	1400bf8f 	lw	ra,20(sp)
1d015b20:	0800e003 	jr	ra
1d015b24:	1800bd27 	addiu	sp,sp,24
1d015b28:	e8ffbd27 	addiu	sp,sp,-24
1d015b2c:	1400bfaf 	sw	ra,20(sp)
1d015b30:	1171400f 	jal	0x1d01c444
1d015b34:	21200000 	move	a0,zero
1d015b38:	ff004230 	andi	v0,v0,0xff
1d015b3c:	1400bf8f 	lw	ra,20(sp)
1d015b40:	0800e003 	jr	ra
1d015b44:	1800bd27 	addiu	sp,sp,24
1d015b48:	c0ffbd27 	addiu	sp,sp,-64
1d015b4c:	3c00bfaf 	sw	ra,60(sp)
1d015b50:	3800b1af 	sw	s1,56(sp)
1d015b54:	3400b0af 	sw	s0,52(sp)
1d015b58:	21888000 	move	s1,a0
1d015b5c:	01000424 	li	a0,1
1d015b60:	5c70400f 	jal	0x1d01c170
1d015b64:	01000524 	li	a1,1
1d015b68:	01000424 	li	a0,1
1d015b6c:	e570400f 	jal	0x1d01c394
1d015b70:	04000524 	li	a1,4
1d015b74:	04001024 	li	s0,4
1d015b78:	0171400f 	jal	0x1d01c404
1d015b7c:	01000424 	li	a0,1
1d015b80:	fdff5014 	bne	v0,s0,0x1d015b78
1d015b84:	00000000 	nop
1d015b88:	06002016 	bnez	s1,0x1d015ba4
1d015b8c:	02000224 	li	v0,2
1d015b90:	01000424 	li	a0,1
1d015b94:	5c70400f 	jal	0x1d01c170
1d015b98:	21280000 	move	a1,zero
1d015b9c:	3057400b 	j	0x1d015cc0
1d015ba0:	3c00bf8f 	lw	ra,60(sp)
1d015ba4:	1c00a2af 	sw	v0,28(sp)
1d015ba8:	1800a2af 	sw	v0,24(sp)
1d015bac:	2000a2af 	sw	v0,32(sp)
1d015bb0:	01001024 	li	s0,1
1d015bb4:	2800b0af 	sw	s0,40(sp)
1d015bb8:	2c00b0af 	sw	s0,44(sp)
1d015bbc:	2400b0af 	sw	s0,36(sp)
1d015bc0:	01000424 	li	a0,1
1d015bc4:	1800a527 	addiu	a1,sp,24
1d015bc8:	6202063c 	lui	a2,0x262
1d015bcc:	005ac624 	addiu	a2,a2,23040
1d015bd0:	2c6d400f 	jal	0x1d01b4b0
1d015bd4:	21382002 	move	a3,s1
1d015bd8:	01000424 	li	a0,1
1d015bdc:	01a0053c 	lui	a1,0xa001
1d015be0:	fc0ca524 	addiu	a1,a1,3324
1d015be4:	ef70400f 	jal	0x1d01c3bc
1d015be8:	40080624 	li	a2,2112
1d015bec:	01000424 	li	a0,1
1d015bf0:	21280000 	move	a1,zero
1d015bf4:	40000624 	li	a2,64
1d015bf8:	906f400f 	jal	0x1d01be40
1d015bfc:	01000724 	li	a3,1
1d015c00:	1000b0af 	sw	s0,16(sp)
1d015c04:	01000424 	li	a0,1
1d015c08:	01000524 	li	a1,1
1d015c0c:	40000624 	li	a2,64
1d015c10:	1d6e400f 	jal	0x1d01b874
1d015c14:	01000724 	li	a3,1
1d015c18:	03000224 	li	v0,3
1d015c1c:	1000a2af 	sw	v0,16(sp)
1d015c20:	01000424 	li	a0,1
1d015c24:	02000524 	li	a1,2
1d015c28:	04000624 	li	a2,4
1d015c2c:	1d6e400f 	jal	0x1d01b874
1d015c30:	01000724 	li	a3,1
1d015c34:	1000b0af 	sw	s0,16(sp)
1d015c38:	01000424 	li	a0,1
1d015c3c:	21280000 	move	a1,zero
1d015c40:	21300000 	move	a2,zero
1d015c44:	9b6d400f 	jal	0x1d01b66c
1d015c48:	01000724 	li	a3,1
1d015c4c:	01000424 	li	a0,1
1d015c50:	21280000 	move	a1,zero
1d015c54:	21300000 	move	a2,zero
1d015c58:	db6e400f 	jal	0x1d01bb6c
1d015c5c:	01000724 	li	a3,1
1d015c60:	01000424 	li	a0,1
1d015c64:	21280000 	move	a1,zero
1d015c68:	21300000 	move	a2,zero
1d015c6c:	a86f400f 	jal	0x1d01bea0
1d015c70:	21380000 	move	a3,zero
1d015c74:	01000424 	li	a0,1
1d015c78:	21280000 	move	a1,zero
1d015c7c:	766f400f 	jal	0x1d01bdd8
1d015c80:	01000624 	li	a2,1
1d015c84:	01000424 	li	a0,1
1d015c88:	03000524 	li	a1,3
1d015c8c:	7a70400f 	jal	0x1d01c1e8
1d015c90:	01000624 	li	a2,1
1d015c94:	01000424 	li	a0,1
1d015c98:	08080524 	li	a1,2056
1d015c9c:	7a70400f 	jal	0x1d01c1e8
1d015ca0:	21300000 	move	a2,zero
1d015ca4:	01000424 	li	a0,1
1d015ca8:	e570400f 	jal	0x1d01c394
1d015cac:	21280000 	move	a1,zero
1d015cb0:	0171400f 	jal	0x1d01c404
1d015cb4:	01000424 	li	a0,1
1d015cb8:	fdff4014 	bnez	v0,0x1d015cb0
1d015cbc:	3c00bf8f 	lw	ra,60(sp)
1d015cc0:	3800b18f 	lw	s1,56(sp)
1d015cc4:	3400b08f 	lw	s0,52(sp)
1d015cc8:	0800e003 	jr	ra
1d015ccc:	4000bd27 	addiu	sp,sp,64
1d015cd0:	e8ffbd27 	addiu	sp,sp,-24
1d015cd4:	1400bfaf 	sw	ra,20(sp)
1d015cd8:	1000b0af 	sw	s0,16(sp)
1d015cdc:	01000424 	li	a0,1
1d015ce0:	5c70400f 	jal	0x1d01c170
1d015ce4:	01000524 	li	a1,1
1d015ce8:	01000424 	li	a0,1
1d015cec:	e570400f 	jal	0x1d01c394
1d015cf0:	04000524 	li	a1,4
1d015cf4:	04001024 	li	s0,4
1d015cf8:	0171400f 	jal	0x1d01c404
1d015cfc:	01000424 	li	a0,1
1d015d00:	fdff5014 	bne	v0,s0,0x1d015cf8
1d015d04:	01000424 	li	a0,1
1d015d08:	5c70400f 	jal	0x1d01c170
1d015d0c:	21280000 	move	a1,zero
1d015d10:	1400bf8f 	lw	ra,20(sp)
1d015d14:	1000b08f 	lw	s0,16(sp)
1d015d18:	0800e003 	jr	ra
1d015d1c:	1800bd27 	addiu	sp,sp,24
1d015d20:	e8ffbd27 	addiu	sp,sp,-24
1d015d24:	1400bfaf 	sw	ra,20(sp)
1d015d28:	0971400f 	jal	0x1d01c424
1d015d2c:	01000424 	li	a0,1
1d015d30:	2b100200 	sltu	v0,zero,v0
1d015d34:	1400bf8f 	lw	ra,20(sp)
1d015d38:	0800e003 	jr	ra
1d015d3c:	1800bd27 	addiu	sp,sp,24
1d015d40:	e8ffbd27 	addiu	sp,sp,-24
1d015d44:	1400bfaf 	sw	ra,20(sp)
1d015d48:	1000b0af 	sw	s0,16(sp)
1d015d4c:	21808000 	move	s0,a0
1d015d50:	01000424 	li	a0,1
1d015d54:	1a70400f 	jal	0x1d01c068
1d015d58:	01000524 	li	a1,1
1d015d5c:	18004050 	beqzl	v0,0x1d015dc0
1d015d60:	21100000 	move	v0,zero
1d015d64:	0300068a 	lwl	a2,3(s0)
1d015d68:	0000069a 	lwr	a2,0(s0)
1d015d6c:	0700058a 	lwl	a1,7(s0)
1d015d70:	0400059a 	lwr	a1,4(s0)
1d015d74:	0b00048a 	lwl	a0,11(s0)
1d015d78:	0800049a 	lwr	a0,8(s0)
1d015d7c:	0f00038a 	lwl	v1,15(s0)
1d015d80:	0c00039a 	lwr	v1,12(s0)
1d015d84:	030046a8 	swl	a2,3(v0)
1d015d88:	000046b8 	swr	a2,0(v0)
1d015d8c:	070045a8 	swl	a1,7(v0)
1d015d90:	040045b8 	swr	a1,4(v0)
1d015d94:	0b0044a8 	swl	a0,11(v0)
1d015d98:	080044b8 	swr	a0,8(v0)
1d015d9c:	0f0043a8 	swl	v1,15(v0)
1d015da0:	0c0043b8 	swr	v1,12(v0)
1d015da4:	01000424 	li	a0,1
1d015da8:	ae70400f 	jal	0x1d01c2b8
1d015dac:	01000524 	li	a1,1
1d015db0:	01000424 	li	a0,1
1d015db4:	b970400f 	jal	0x1d01c2e4
1d015db8:	01000524 	li	a1,1
1d015dbc:	01000224 	li	v0,1
1d015dc0:	1400bf8f 	lw	ra,20(sp)
1d015dc4:	1000b08f 	lw	s0,16(sp)
1d015dc8:	0800e003 	jr	ra
1d015dcc:	1800bd27 	addiu	sp,sp,24
1d015dd0:	e8ffbd27 	addiu	sp,sp,-24
1d015dd4:	1400bfaf 	sw	ra,20(sp)
1d015dd8:	1000b0af 	sw	s0,16(sp)
1d015ddc:	21808000 	move	s0,a0
1d015de0:	01000424 	li	a0,1
1d015de4:	1a70400f 	jal	0x1d01c068
1d015de8:	02000524 	li	a1,2
1d015dec:	18004050 	beqzl	v0,0x1d015e50
1d015df0:	21100000 	move	v0,zero
1d015df4:	0300068a 	lwl	a2,3(s0)
1d015df8:	0000069a 	lwr	a2,0(s0)
1d015dfc:	0700058a 	lwl	a1,7(s0)
1d015e00:	0400059a 	lwr	a1,4(s0)
1d015e04:	0b00048a 	lwl	a0,11(s0)
1d015e08:	0800049a 	lwr	a0,8(s0)
1d015e0c:	0f00038a 	lwl	v1,15(s0)
1d015e10:	0c00039a 	lwr	v1,12(s0)
1d015e14:	030046a8 	swl	a2,3(v0)
1d015e18:	000046b8 	swr	a2,0(v0)
1d015e1c:	070045a8 	swl	a1,7(v0)
1d015e20:	040045b8 	swr	a1,4(v0)
1d015e24:	0b0044a8 	swl	a0,11(v0)
1d015e28:	080044b8 	swr	a0,8(v0)
1d015e2c:	0f0043a8 	swl	v1,15(v0)
1d015e30:	0c0043b8 	swr	v1,12(v0)
1d015e34:	01000424 	li	a0,1
1d015e38:	ae70400f 	jal	0x1d01c2b8
1d015e3c:	02000524 	li	a1,2
1d015e40:	01000424 	li	a0,1
1d015e44:	b970400f 	jal	0x1d01c2e4
1d015e48:	02000524 	li	a1,2
1d015e4c:	01000224 	li	v0,1
1d015e50:	1400bf8f 	lw	ra,20(sp)
1d015e54:	1000b08f 	lw	s0,16(sp)
1d015e58:	0800e003 	jr	ra
1d015e5c:	1800bd27 	addiu	sp,sp,24
1d015e60:	d8ffbd27 	addiu	sp,sp,-40
1d015e64:	2400bfaf 	sw	ra,36(sp)
1d015e68:	2000b3af 	sw	s3,32(sp)
1d015e6c:	1c00b2af 	sw	s2,28(sp)
1d015e70:	1800b1af 	sw	s1,24(sp)
1d015e74:	1400b0af 	sw	s0,20(sp)
1d015e78:	21808000 	move	s0,a0
1d015e7c:	2188a000 	move	s1,a1
1d015e80:	01000424 	li	a0,1
1d015e84:	0970400f 	jal	0x1d01c024
1d015e88:	21280000 	move	a1,zero
1d015e8c:	16004010 	beqz	v0,0x1d015ee8
1d015e90:	00000000 	nop
1d015e94:	03004588 	lwl	a1,3(v0)
1d015e98:	00004598 	lwr	a1,0(v0)
1d015e9c:	07004488 	lwl	a0,7(v0)
1d015ea0:	04004498 	lwr	a0,4(v0)
1d015ea4:	0b004388 	lwl	v1,11(v0)
1d015ea8:	08004398 	lwr	v1,8(v0)
1d015eac:	0f004688 	lwl	a2,15(v0)
1d015eb0:	0c004698 	lwr	a2,12(v0)
1d015eb4:	030005aa 	swl	a1,3(s0)
1d015eb8:	000005ba 	swr	a1,0(s0)
1d015ebc:	070004aa 	swl	a0,7(s0)
1d015ec0:	040004ba 	swr	a0,4(s0)
1d015ec4:	0b0003aa 	swl	v1,11(s0)
1d015ec8:	080003ba 	swr	v1,8(s0)
1d015ecc:	0f0006aa 	swl	a2,15(s0)
1d015ed0:	0c0006ba 	swr	a2,12(s0)
1d015ed4:	01000424 	li	a0,1
1d015ed8:	ae70400f 	jal	0x1d01c2b8
1d015edc:	21280000 	move	a1,zero
1d015ee0:	ef57400b 	j	0x1d015fbc
1d015ee4:	01000224 	li	v0,1
1d015ee8:	34002012 	beqz	s1,0x1d015fbc
1d015eec:	21100000 	move	v0,zero
1d015ef0:	1171400f 	jal	0x1d01c444
1d015ef4:	01000424 	li	a0,1
1d015ef8:	21904000 	move	s2,v0
1d015efc:	1971400f 	jal	0x1d01c464
1d015f00:	01000424 	li	a0,1
1d015f04:	21884000 	move	s1,v0
1d015f08:	7c80938f 	lw	s3,-32644(gp)
1d015f0c:	2b986202 	sltu	s3,s3,v0
1d015f10:	8080828f 	lw	v0,-32640(gp)
1d015f14:	2b105200 	sltu	v0,v0,s2
1d015f18:	10004054 	bnezl	v0,0x1d015f5c
1d015f1c:	21200002 	move	a0,s0
1d015f20:	0b006052 	beqzl	s3,0x1d015f50
1d015f24:	808092af 	sw	s2,-32640(gp)
1d015f28:	e557400b 	j	0x1d015f94
1d015f2c:	21200002 	move	a0,s0
1d015f30:	05006012 	beqz	s3,0x1d015f48
1d015f34:	7c80848f 	lw	a0,-32644(gp)
1d015f38:	23186400 	subu	v1,v1,a0
1d015f3c:	0b0003a2 	sb	v1,11(s0)
1d015f40:	d357400b 	j	0x1d015f4c
1d015f44:	21984000 	move	s3,v0
1d015f48:	21984000 	move	s3,v0
1d015f4c:	808092af 	sw	s2,-32640(gp)
1d015f50:	7c8091af 	sw	s1,-32644(gp)
1d015f54:	ef57400b 	j	0x1d015fbc
1d015f58:	21106002 	move	v0,s3
1d015f5c:	21280000 	move	a1,zero
1d015f60:	c96d400f 	jal	0x1d01b724
1d015f64:	10000624 	li	a2,16
1d015f68:	0f000224 	li	v0,15
1d015f6c:	040002ae 	sw	v0,4(s0)
1d015f70:	ff004232 	andi	v0,s2,0xff
1d015f74:	080002a2 	sb	v0,8(s0)
1d015f78:	ff002332 	andi	v1,s1,0xff
1d015f7c:	090003a2 	sb	v1,9(s0)
1d015f80:	8080848f 	lw	a0,-32640(gp)
1d015f84:	23104400 	subu	v0,v0,a0
1d015f88:	0a0002a2 	sb	v0,10(s0)
1d015f8c:	cc57400b 	j	0x1d015f30
1d015f90:	01000224 	li	v0,1
1d015f94:	21280000 	move	a1,zero
1d015f98:	c96d400f 	jal	0x1d01b724
1d015f9c:	10000624 	li	a2,16
1d015fa0:	0f000224 	li	v0,15
1d015fa4:	040002ae 	sw	v0,4(s0)
1d015fa8:	080012a2 	sb	s2,8(s0)
1d015fac:	ff002332 	andi	v1,s1,0xff
1d015fb0:	090003a2 	sb	v1,9(s0)
1d015fb4:	cc57400b 	j	0x1d015f30
1d015fb8:	21106002 	move	v0,s3
1d015fbc:	2400bf8f 	lw	ra,36(sp)
1d015fc0:	2000b38f 	lw	s3,32(sp)
1d015fc4:	1c00b28f 	lw	s2,28(sp)
1d015fc8:	1800b18f 	lw	s1,24(sp)
1d015fcc:	1400b08f 	lw	s0,20(sp)
1d015fd0:	0800e003 	jr	ra
1d015fd4:	2800bd27 	addiu	sp,sp,40
1d015fd8:	e8ffbd27 	addiu	sp,sp,-24
1d015fdc:	1400bfaf 	sw	ra,20(sp)
1d015fe0:	1971400f 	jal	0x1d01c464
1d015fe4:	01000424 	li	a0,1
1d015fe8:	ff004230 	andi	v0,v0,0xff
1d015fec:	1400bf8f 	lw	ra,20(sp)
1d015ff0:	0800e003 	jr	ra
1d015ff4:	1800bd27 	addiu	sp,sp,24
1d015ff8:	e8ffbd27 	addiu	sp,sp,-24
1d015ffc:	1400bfaf 	sw	ra,20(sp)
1d016000:	1171400f 	jal	0x1d01c444
1d016004:	01000424 	li	a0,1
1d016008:	ff004230 	andi	v0,v0,0xff
1d01600c:	1400bf8f 	lw	ra,20(sp)
1d016010:	0800e003 	jr	ra
1d016014:	1800bd27 	addiu	sp,sp,24
1d016018:	e8ffbd27 	addiu	sp,sp,-24
1d01601c:	1400bfaf 	sw	ra,20(sp)
1d016020:	21288000 	move	a1,a0
1d016024:	2a47400f 	jal	0x1d011ca8
1d016028:	03000424 	li	a0,3
1d01602c:	1400bf8f 	lw	ra,20(sp)
1d016030:	0800e003 	jr	ra
1d016034:	1800bd27 	addiu	sp,sp,24
1d016038:	e8ffbd27 	addiu	sp,sp,-24
1d01603c:	1400bfaf 	sw	ra,20(sp)
1d016040:	4843400f 	jal	0x1d010d20
1d016044:	03000424 	li	a0,3
1d016048:	01000224 	li	v0,1
1d01604c:	1400bf8f 	lw	ra,20(sp)
1d016050:	0800e003 	jr	ra
1d016054:	1800bd27 	addiu	sp,sp,24
1d016058:	e8ffbd27 	addiu	sp,sp,-24
1d01605c:	1400bfaf 	sw	ra,20(sp)
1d016060:	6941400f 	jal	0x1d0105a4
1d016064:	03000424 	li	a0,3
1d016068:	1400bf8f 	lw	ra,20(sp)
1d01606c:	0800e003 	jr	ra
1d016070:	1800bd27 	addiu	sp,sp,24
1d016074:	d8ffbd27 	addiu	sp,sp,-40
1d016078:	2400bfaf 	sw	ra,36(sp)
1d01607c:	2000b1af 	sw	s1,32(sp)
1d016080:	1c00b0af 	sw	s0,28(sp)
1d016084:	21888000 	move	s1,a0
1d016088:	6941400f 	jal	0x1d0105a4
1d01608c:	03000424 	li	a0,3
1d016090:	1f004010 	beqz	v0,0x1d016110
1d016094:	21804000 	move	s0,v0
1d016098:	bb42400f 	jal	0x1d010aec
1d01609c:	03000424 	li	a0,3
1d0160a0:	04004230 	andi	v0,v0,0x4
1d0160a4:	ff004230 	andi	v0,v0,0xff
1d0160a8:	19004054 	bnezl	v0,0x1d016110
1d0160ac:	21800000 	move	s0,zero
1d0160b0:	0400228e 	lw	v0,4(s1)
1d0160b4:	0007477c 	ext	a3,v0,0x1c,0x1
1d0160b8:	0800e010 	beqz	a3,0x1d0160dc
1d0160bc:	0f004330 	andi	v1,v0,0xf
1d0160c0:	0000268e 	lw	a2,0(s1)
1d0160c4:	ff07c630 	andi	a2,a2,0x7ff
1d0160c8:	80340600 	sll	a2,a2,0x12
1d0160cc:	0400228e 	lw	v0,4(s1)
1d0160d0:	808a427c 	ext	v0,v0,0xa,0x12
1d0160d4:	3958400b 	j	0x1d0160e4
1d0160d8:	2530c200 	or	a2,a2,v0
1d0160dc:	0000268e 	lw	a2,0(s1)
1d0160e0:	ff07c630 	andi	a2,a2,0x7ff
1d0160e4:	08003126 	addiu	s1,s1,8
1d0160e8:	1000b1af 	sw	s1,16(sp)
1d0160ec:	1400a3af 	sw	v1,20(sp)
1d0160f0:	03000424 	li	a0,3
1d0160f4:	2545400f 	jal	0x1d011494
1d0160f8:	21280000 	move	a1,zero
1d0160fc:	03000424 	li	a0,3
1d016100:	4144400f 	jal	0x1d011104
1d016104:	21280000 	move	a1,zero
1d016108:	4558400b 	j	0x1d016114
1d01610c:	21100002 	move	v0,s0
1d016110:	21100002 	move	v0,s0
1d016114:	2400bf8f 	lw	ra,36(sp)
1d016118:	2000b18f 	lw	s1,32(sp)
1d01611c:	1c00b08f 	lw	s0,28(sp)
1d016120:	0800e003 	jr	ra
1d016124:	2800bd27 	addiu	sp,sp,40
1d016128:	c8ffbd27 	addiu	sp,sp,-56
1d01612c:	3400bfaf 	sw	ra,52(sp)
1d016130:	3000b4af 	sw	s4,48(sp)
1d016134:	2c00b3af 	sw	s3,44(sp)
1d016138:	2800b2af 	sw	s2,40(sp)
1d01613c:	2400b1af 	sw	s1,36(sp)
1d016140:	2000b0af 	sw	s0,32(sp)
1d016144:	21888000 	move	s1,a0
1d016148:	2190a000 	move	s2,a1
1d01614c:	6941400f 	jal	0x1d0105a4
1d016150:	03000424 	li	a0,3
1d016154:	5d004010 	beqz	v0,0x1d0162cc
1d016158:	21804000 	move	s0,v0
1d01615c:	6d41400f 	jal	0x1d0105b4
1d016160:	03000424 	li	a0,3
1d016164:	2a004010 	beqz	v0,0x1d016210
1d016168:	21984000 	move	s3,v0
1d01616c:	1c00a227 	addiu	v0,sp,28
1d016170:	1000a2af 	sw	v0,16(sp)
1d016174:	03000424 	li	a0,3
1d016178:	1800a527 	addiu	a1,sp,24
1d01617c:	1d00a627 	addiu	a2,sp,29
1d016180:	ea47400f 	jal	0x1d011fa8
1d016184:	08002726 	addiu	a3,s1,8
1d016188:	21004010 	beqz	v0,0x1d016210
1d01618c:	1800a28f 	lw	v0,24(sp)
1d016190:	1d00a493 	lbu	a0,29(sp)
1d016194:	1c00a393 	lbu	v1,28(sp)
1d016198:	000020ae 	sw	zero,0(s1)
1d01619c:	0900652c 	sltiu	a1,v1,9
1d0161a0:	0500a010 	beqz	a1,0x1d0161b8
1d0161a4:	040020ae 	sw	zero,4(s1)
1d0161a8:	21280000 	move	a1,zero
1d0161ac:	0418657c 	ins	a1,v1,0x0,0x4
1d0161b0:	7258400b 	j	0x1d0161c8
1d0161b4:	040025ae 	sw	a1,4(s1)
1d0161b8:	0400238e 	lw	v1,4(s1)
1d0161bc:	08000524 	li	a1,8
1d0161c0:	0418a37c 	ins	v1,a1,0x0,0x4
1d0161c4:	040023ae 	sw	v1,4(s1)
1d0161c8:	0a008010 	beqz	a0,0x1d0161f4
1d0161cc:	0400238e 	lw	v1,4(s1)
1d0161d0:	01000424 	li	a0,1
1d0161d4:	04e7837c 	ins	v1,a0,0x1c,0x1
1d0161d8:	84da437c 	ins	v1,v0,0xa,0x12
1d0161dc:	040023ae 	sw	v1,4(s1)
1d0161e0:	82140200 	srl	v0,v0,0x12
1d0161e4:	0000238e 	lw	v1,0(s1)
1d0161e8:	0450437c 	ins	v1,v0,0x0,0xb
1d0161ec:	8258400b 	j	0x1d016208
1d0161f0:	000023ae 	sw	v1,0(s1)
1d0161f4:	04e7037c 	ins	v1,zero,0x1c,0x1
1d0161f8:	040023ae 	sw	v1,4(s1)
1d0161fc:	0000238e 	lw	v1,0(s1)
1d016200:	0450437c 	ins	v1,v0,0x0,0xb
1d016204:	000023ae 	sw	v1,0(s1)
1d016208:	b358400b 	j	0x1d0162cc
1d01620c:	21806002 	move	s0,s3
1d016210:	2e004052 	beqzl	s2,0x1d0162cc
1d016214:	21800000 	move	s0,zero
1d016218:	03000424 	li	a0,3
1d01621c:	1c00a527 	addiu	a1,sp,28
1d016220:	d547400f 	jal	0x1d011f54
1d016224:	1800a627 	addiu	a2,sp,24
1d016228:	1c00b293 	lbu	s2,28(sp)
1d01622c:	1800b393 	lbu	s3,24(sp)
1d016230:	7480828f 	lw	v0,-32652(gp)
1d016234:	2ba05300 	sltu	s4,v0,s3
1d016238:	7880828f 	lw	v0,-32648(gp)
1d01623c:	2b105200 	sltu	v0,v0,s2
1d016240:	10004014 	bnez	v0,0x1d016284
1d016244:	21202002 	move	a0,s1
1d016248:	0b008052 	beqzl	s4,0x1d016278
1d01624c:	788092af 	sw	s2,-32648(gp)
1d016250:	ac58400b 	j	0x1d0162b0
1d016254:	21280000 	move	a1,zero
1d016258:	04008012 	beqz	s4,0x1d01626c
1d01625c:	7480828f 	lw	v0,-32652(gp)
1d016260:	23106202 	subu	v0,s3,v0
1d016264:	9b58400b 	j	0x1d01626c
1d016268:	0b0022a2 	sb	v0,11(s1)
1d01626c:	788092af 	sw	s2,-32648(gp)
1d016270:	b358400b 	j	0x1d0162cc
1d016274:	748093af 	sw	s3,-32652(gp)
1d016278:	748093af 	sw	s3,-32652(gp)
1d01627c:	b358400b 	j	0x1d0162cc
1d016280:	21800000 	move	s0,zero
1d016284:	21280000 	move	a1,zero
1d016288:	c96d400f 	jal	0x1d01b724
1d01628c:	10000624 	li	a2,16
1d016290:	0f000224 	li	v0,15
1d016294:	040022ae 	sw	v0,4(s1)
1d016298:	080032a2 	sb	s2,8(s1)
1d01629c:	090033a2 	sb	s3,9(s1)
1d0162a0:	7880828f 	lw	v0,-32648(gp)
1d0162a4:	23104202 	subu	v0,s2,v0
1d0162a8:	9658400b 	j	0x1d016258
1d0162ac:	0a0022a2 	sb	v0,10(s1)
1d0162b0:	c96d400f 	jal	0x1d01b724
1d0162b4:	10000624 	li	a2,16
1d0162b8:	0f000224 	li	v0,15
1d0162bc:	040022ae 	sw	v0,4(s1)
1d0162c0:	080032a2 	sb	s2,8(s1)
1d0162c4:	9658400b 	j	0x1d016258
1d0162c8:	090033a2 	sb	s3,9(s1)
1d0162cc:	21100002 	move	v0,s0
1d0162d0:	3400bf8f 	lw	ra,52(sp)
1d0162d4:	3000b48f 	lw	s4,48(sp)
1d0162d8:	2c00b38f 	lw	s3,44(sp)
1d0162dc:	2800b28f 	lw	s2,40(sp)
1d0162e0:	2400b18f 	lw	s1,36(sp)
1d0162e4:	2000b08f 	lw	s0,32(sp)
1d0162e8:	0800e003 	jr	ra
1d0162ec:	3800bd27 	addiu	sp,sp,56
1d0162f0:	e8ffbd27 	addiu	sp,sp,-24
1d0162f4:	1400bfaf 	sw	ra,20(sp)
1d0162f8:	c147400f 	jal	0x1d011f04
1d0162fc:	03000424 	li	a0,3
1d016300:	1400bf8f 	lw	ra,20(sp)
1d016304:	0800e003 	jr	ra
1d016308:	1800bd27 	addiu	sp,sp,24
1d01630c:	e8ffbd27 	addiu	sp,sp,-24
1d016310:	1400bfaf 	sw	ra,20(sp)
1d016314:	cb47400f 	jal	0x1d011f2c
1d016318:	03000424 	li	a0,3
1d01631c:	1400bf8f 	lw	ra,20(sp)
1d016320:	0800e003 	jr	ra
1d016324:	1800bd27 	addiu	sp,sp,24
1d016328:	e8ffbd27 	addiu	sp,sp,-24
1d01632c:	1400bfaf 	sw	ra,20(sp)
1d016330:	21288000 	move	a1,a0
1d016334:	2a47400f 	jal	0x1d011ca8
1d016338:	02000424 	li	a0,2
1d01633c:	1400bf8f 	lw	ra,20(sp)
1d016340:	0800e003 	jr	ra
1d016344:	1800bd27 	addiu	sp,sp,24
1d016348:	e8ffbd27 	addiu	sp,sp,-24
1d01634c:	1400bfaf 	sw	ra,20(sp)
1d016350:	4843400f 	jal	0x1d010d20
1d016354:	02000424 	li	a0,2
1d016358:	01000224 	li	v0,1
1d01635c:	1400bf8f 	lw	ra,20(sp)
1d016360:	0800e003 	jr	ra
1d016364:	1800bd27 	addiu	sp,sp,24
1d016368:	e8ffbd27 	addiu	sp,sp,-24
1d01636c:	1400bfaf 	sw	ra,20(sp)
1d016370:	6941400f 	jal	0x1d0105a4
1d016374:	02000424 	li	a0,2
1d016378:	1400bf8f 	lw	ra,20(sp)
1d01637c:	0800e003 	jr	ra
1d016380:	1800bd27 	addiu	sp,sp,24
1d016384:	d8ffbd27 	addiu	sp,sp,-40
1d016388:	2400bfaf 	sw	ra,36(sp)
1d01638c:	2000b1af 	sw	s1,32(sp)
1d016390:	1c00b0af 	sw	s0,28(sp)
1d016394:	21888000 	move	s1,a0
1d016398:	6941400f 	jal	0x1d0105a4
1d01639c:	02000424 	li	a0,2
1d0163a0:	1f004010 	beqz	v0,0x1d016420
1d0163a4:	21804000 	move	s0,v0
1d0163a8:	bb42400f 	jal	0x1d010aec
1d0163ac:	02000424 	li	a0,2
1d0163b0:	04004230 	andi	v0,v0,0x4
1d0163b4:	ff004230 	andi	v0,v0,0xff
1d0163b8:	19004054 	bnezl	v0,0x1d016420
1d0163bc:	21800000 	move	s0,zero
1d0163c0:	0400228e 	lw	v0,4(s1)
1d0163c4:	0007477c 	ext	a3,v0,0x1c,0x1
1d0163c8:	0800e010 	beqz	a3,0x1d0163ec
1d0163cc:	0f004330 	andi	v1,v0,0xf
1d0163d0:	0000268e 	lw	a2,0(s1)
1d0163d4:	ff07c630 	andi	a2,a2,0x7ff
1d0163d8:	80340600 	sll	a2,a2,0x12
1d0163dc:	0400228e 	lw	v0,4(s1)
1d0163e0:	808a427c 	ext	v0,v0,0xa,0x12
1d0163e4:	fd58400b 	j	0x1d0163f4
1d0163e8:	2530c200 	or	a2,a2,v0
1d0163ec:	0000268e 	lw	a2,0(s1)
1d0163f0:	ff07c630 	andi	a2,a2,0x7ff
1d0163f4:	08003126 	addiu	s1,s1,8
1d0163f8:	1000b1af 	sw	s1,16(sp)
1d0163fc:	1400a3af 	sw	v1,20(sp)
1d016400:	02000424 	li	a0,2
1d016404:	2545400f 	jal	0x1d011494
1d016408:	21280000 	move	a1,zero
1d01640c:	02000424 	li	a0,2
1d016410:	4144400f 	jal	0x1d011104
1d016414:	21280000 	move	a1,zero
1d016418:	0959400b 	j	0x1d016424
1d01641c:	21100002 	move	v0,s0
1d016420:	21100002 	move	v0,s0
1d016424:	2400bf8f 	lw	ra,36(sp)
1d016428:	2000b18f 	lw	s1,32(sp)
1d01642c:	1c00b08f 	lw	s0,28(sp)
1d016430:	0800e003 	jr	ra
1d016434:	2800bd27 	addiu	sp,sp,40
1d016438:	c8ffbd27 	addiu	sp,sp,-56
1d01643c:	3400bfaf 	sw	ra,52(sp)
1d016440:	3000b4af 	sw	s4,48(sp)
1d016444:	2c00b3af 	sw	s3,44(sp)
1d016448:	2800b2af 	sw	s2,40(sp)
1d01644c:	2400b1af 	sw	s1,36(sp)
1d016450:	2000b0af 	sw	s0,32(sp)
1d016454:	21888000 	move	s1,a0
1d016458:	2190a000 	move	s2,a1
1d01645c:	6941400f 	jal	0x1d0105a4
1d016460:	02000424 	li	a0,2
1d016464:	5d004010 	beqz	v0,0x1d0165dc
1d016468:	21804000 	move	s0,v0
1d01646c:	6d41400f 	jal	0x1d0105b4
1d016470:	02000424 	li	a0,2
1d016474:	2a004010 	beqz	v0,0x1d016520
1d016478:	21984000 	move	s3,v0
1d01647c:	1c00a227 	addiu	v0,sp,28
1d016480:	1000a2af 	sw	v0,16(sp)
1d016484:	02000424 	li	a0,2
1d016488:	1800a527 	addiu	a1,sp,24
1d01648c:	1d00a627 	addiu	a2,sp,29
1d016490:	ea47400f 	jal	0x1d011fa8
1d016494:	08002726 	addiu	a3,s1,8
1d016498:	21004010 	beqz	v0,0x1d016520
1d01649c:	1800a28f 	lw	v0,24(sp)
1d0164a0:	1d00a493 	lbu	a0,29(sp)
1d0164a4:	1c00a393 	lbu	v1,28(sp)
1d0164a8:	000020ae 	sw	zero,0(s1)
1d0164ac:	0900652c 	sltiu	a1,v1,9
1d0164b0:	0500a010 	beqz	a1,0x1d0164c8
1d0164b4:	040020ae 	sw	zero,4(s1)
1d0164b8:	21280000 	move	a1,zero
1d0164bc:	0418657c 	ins	a1,v1,0x0,0x4
1d0164c0:	3659400b 	j	0x1d0164d8
1d0164c4:	040025ae 	sw	a1,4(s1)
1d0164c8:	0400238e 	lw	v1,4(s1)
1d0164cc:	08000524 	li	a1,8
1d0164d0:	0418a37c 	ins	v1,a1,0x0,0x4
1d0164d4:	040023ae 	sw	v1,4(s1)
1d0164d8:	0a008010 	beqz	a0,0x1d016504
1d0164dc:	0400238e 	lw	v1,4(s1)
1d0164e0:	01000424 	li	a0,1
1d0164e4:	04e7837c 	ins	v1,a0,0x1c,0x1
1d0164e8:	84da437c 	ins	v1,v0,0xa,0x12
1d0164ec:	040023ae 	sw	v1,4(s1)
1d0164f0:	82140200 	srl	v0,v0,0x12
1d0164f4:	0000238e 	lw	v1,0(s1)
1d0164f8:	0450437c 	ins	v1,v0,0x0,0xb
1d0164fc:	4659400b 	j	0x1d016518
1d016500:	000023ae 	sw	v1,0(s1)
1d016504:	04e7037c 	ins	v1,zero,0x1c,0x1
1d016508:	040023ae 	sw	v1,4(s1)
1d01650c:	0000238e 	lw	v1,0(s1)
1d016510:	0450437c 	ins	v1,v0,0x0,0xb
1d016514:	000023ae 	sw	v1,0(s1)
1d016518:	7759400b 	j	0x1d0165dc
1d01651c:	21806002 	move	s0,s3
1d016520:	2e004052 	beqzl	s2,0x1d0165dc
1d016524:	21800000 	move	s0,zero
1d016528:	02000424 	li	a0,2
1d01652c:	1c00a527 	addiu	a1,sp,28
1d016530:	d547400f 	jal	0x1d011f54
1d016534:	1800a627 	addiu	a2,sp,24
1d016538:	1c00b293 	lbu	s2,28(sp)
1d01653c:	1800b393 	lbu	s3,24(sp)
1d016540:	6c80828f 	lw	v0,-32660(gp)
1d016544:	2ba05300 	sltu	s4,v0,s3
1d016548:	7080828f 	lw	v0,-32656(gp)
1d01654c:	2b105200 	sltu	v0,v0,s2
1d016550:	10004014 	bnez	v0,0x1d016594
1d016554:	21202002 	move	a0,s1
1d016558:	0b008052 	beqzl	s4,0x1d016588
1d01655c:	708092af 	sw	s2,-32656(gp)
1d016560:	7059400b 	j	0x1d0165c0
1d016564:	21280000 	move	a1,zero
1d016568:	04008012 	beqz	s4,0x1d01657c
1d01656c:	6c80828f 	lw	v0,-32660(gp)
1d016570:	23106202 	subu	v0,s3,v0
1d016574:	5f59400b 	j	0x1d01657c
1d016578:	0b0022a2 	sb	v0,11(s1)
1d01657c:	708092af 	sw	s2,-32656(gp)
1d016580:	7759400b 	j	0x1d0165dc
1d016584:	6c8093af 	sw	s3,-32660(gp)
1d016588:	6c8093af 	sw	s3,-32660(gp)
1d01658c:	7759400b 	j	0x1d0165dc
1d016590:	21800000 	move	s0,zero
1d016594:	21280000 	move	a1,zero
1d016598:	c96d400f 	jal	0x1d01b724
1d01659c:	10000624 	li	a2,16
1d0165a0:	0f000224 	li	v0,15
1d0165a4:	040022ae 	sw	v0,4(s1)
1d0165a8:	080032a2 	sb	s2,8(s1)
1d0165ac:	090033a2 	sb	s3,9(s1)
1d0165b0:	7080828f 	lw	v0,-32656(gp)
1d0165b4:	23104202 	subu	v0,s2,v0
1d0165b8:	5a59400b 	j	0x1d016568
1d0165bc:	0a0022a2 	sb	v0,10(s1)
1d0165c0:	c96d400f 	jal	0x1d01b724
1d0165c4:	10000624 	li	a2,16
1d0165c8:	0f000224 	li	v0,15
1d0165cc:	040022ae 	sw	v0,4(s1)
1d0165d0:	080032a2 	sb	s2,8(s1)
1d0165d4:	5a59400b 	j	0x1d016568
1d0165d8:	090033a2 	sb	s3,9(s1)
1d0165dc:	21100002 	move	v0,s0
1d0165e0:	3400bf8f 	lw	ra,52(sp)
1d0165e4:	3000b48f 	lw	s4,48(sp)
1d0165e8:	2c00b38f 	lw	s3,44(sp)
1d0165ec:	2800b28f 	lw	s2,40(sp)
1d0165f0:	2400b18f 	lw	s1,36(sp)
1d0165f4:	2000b08f 	lw	s0,32(sp)
1d0165f8:	0800e003 	jr	ra
1d0165fc:	3800bd27 	addiu	sp,sp,56
1d016600:	e8ffbd27 	addiu	sp,sp,-24
1d016604:	1400bfaf 	sw	ra,20(sp)
1d016608:	c147400f 	jal	0x1d011f04
1d01660c:	02000424 	li	a0,2
1d016610:	1400bf8f 	lw	ra,20(sp)
1d016614:	0800e003 	jr	ra
1d016618:	1800bd27 	addiu	sp,sp,24
1d01661c:	e8ffbd27 	addiu	sp,sp,-24
1d016620:	1400bfaf 	sw	ra,20(sp)
1d016624:	cb47400f 	jal	0x1d011f2c
1d016628:	02000424 	li	a0,2
1d01662c:	1400bf8f 	lw	ra,20(sp)
1d016630:	0800e003 	jr	ra
1d016634:	1800bd27 	addiu	sp,sp,24
1d016638:	e8ffbd27 	addiu	sp,sp,-24
1d01663c:	1400bfaf 	sw	ra,20(sp)
1d016640:	01a0043c 	lui	a0,0xa001
1d016644:	2c368424 	addiu	a0,a0,13868
1d016648:	21280000 	move	a1,zero
1d01664c:	c96d400f 	jal	0x1d01b724
1d016650:	48000624 	li	a2,72
1d016654:	5c8080af 	sw	zero,-32676(gp)
1d016658:	588080af 	sw	zero,-32680(gp)
1d01665c:	548080af 	sw	zero,-32684(gp)
1d016660:	518080a3 	sb	zero,-32687(gp)
1d016664:	508080a3 	sb	zero,-32688(gp)
1d016668:	4c8080af 	sw	zero,-32692(gp)
1d01666c:	488080af 	sw	zero,-32696(gp)
1d016670:	448080af 	sw	zero,-32700(gp)
1d016674:	01000224 	li	v0,1
1d016678:	188082a3 	sb	v0,-32744(gp)
1d01667c:	1400bf8f 	lw	ra,20(sp)
1d016680:	0800e003 	jr	ra
1d016684:	1800bd27 	addiu	sp,sp,24
1d016688:	01a0023c 	lui	v0,0xa001
1d01668c:	3036428c 	lw	v0,13872(v0)
1d016690:	20004050 	beqzl	v0,0x1d016714
1d016694:	01a0023c 	lui	v0,0xa001
1d016698:	ffff4224 	addiu	v0,v0,-1
1d01669c:	01a0033c 	lui	v1,0xa001
1d0166a0:	1b004014 	bnez	v0,0x1d016710
1d0166a4:	303662ac 	sw	v0,13872(v1)
1d0166a8:	01a0023c 	lui	v0,0xa001
1d0166ac:	2c364290 	lbu	v0,13868(v0)
1d0166b0:	18004010 	beqz	v0,0x1d016714
1d0166b4:	01a0023c 	lui	v0,0xa001
1d0166b8:	01a0023c 	lui	v0,0xa001
1d0166bc:	35364290 	lbu	v0,13877(v0)
1d0166c0:	14004010 	beqz	v0,0x1d016714
1d0166c4:	01a0023c 	lui	v0,0xa001
1d0166c8:	5480828f 	lw	v0,-32684(gp)
1d0166cc:	06004010 	beqz	v0,0x1d0166e8
1d0166d0:	5c80828f 	lw	v0,-32676(gp)
1d0166d4:	51808393 	lbu	v1,-32687(gp)
1d0166d8:	01000224 	li	v0,1
1d0166dc:	ad006214 	bne	v1,v0,0x1d016994
1d0166e0:	01000324 	li	v1,1
1d0166e4:	5c80828f 	lw	v0,-32676(gp)
1d0166e8:	0a004010 	beqz	v0,0x1d016714
1d0166ec:	01a0023c 	lui	v0,0xa001
1d0166f0:	5880828f 	lw	v0,-32680(gp)
1d0166f4:	a7004014 	bnez	v0,0x1d016994
1d0166f8:	01000324 	li	v1,1
1d0166fc:	c559400b 	j	0x1d016714
1d016700:	01a0023c 	lui	v0,0xa001
1d016704:	4c8082af 	sw	v0,-32692(gp)
1d016708:	06000224 	li	v0,6
1d01670c:	448082af 	sw	v0,-32700(gp)
1d016710:	01a0023c 	lui	v0,0xa001
1d016714:	3836428c 	lw	v0,13880(v0)
1d016718:	19004010 	beqz	v0,0x1d016780
1d01671c:	ffff4224 	addiu	v0,v0,-1
1d016720:	01a0033c 	lui	v1,0xa001
1d016724:	16004014 	bnez	v0,0x1d016780
1d016728:	383662ac 	sw	v0,13880(v1)
1d01672c:	01a0023c 	lui	v0,0xa001
1d016730:	2c364290 	lbu	v0,13868(v0)
1d016734:	12004010 	beqz	v0,0x1d016780
1d016738:	5480828f 	lw	v0,-32684(gp)
1d01673c:	06004010 	beqz	v0,0x1d016758
1d016740:	5c80828f 	lw	v0,-32676(gp)
1d016744:	51808393 	lbu	v1,-32687(gp)
1d016748:	01000224 	li	v0,1
1d01674c:	98006214 	bne	v1,v0,0x1d0169b0
1d016750:	01000324 	li	v1,1
1d016754:	5c80828f 	lw	v0,-32676(gp)
1d016758:	0a004010 	beqz	v0,0x1d016784
1d01675c:	01a0023c 	lui	v0,0xa001
1d016760:	5880828f 	lw	v0,-32680(gp)
1d016764:	92004014 	bnez	v0,0x1d0169b0
1d016768:	01000324 	li	v1,1
1d01676c:	e159400b 	j	0x1d016784
1d016770:	01a0023c 	lui	v0,0xa001
1d016774:	4c8082af 	sw	v0,-32692(gp)
1d016778:	07000224 	li	v0,7
1d01677c:	448082af 	sw	v0,-32700(gp)
1d016780:	01a0023c 	lui	v0,0xa001
1d016784:	4836428c 	lw	v0,13896(v0)
1d016788:	20004050 	beqzl	v0,0x1d01680c
1d01678c:	01a0023c 	lui	v0,0xa001
1d016790:	ffff4224 	addiu	v0,v0,-1
1d016794:	01a0033c 	lui	v1,0xa001
1d016798:	1b004014 	bnez	v0,0x1d016808
1d01679c:	483662ac 	sw	v0,13896(v1)
1d0167a0:	01a0023c 	lui	v0,0xa001
1d0167a4:	44364290 	lbu	v0,13892(v0)
1d0167a8:	18004010 	beqz	v0,0x1d01680c
1d0167ac:	01a0023c 	lui	v0,0xa001
1d0167b0:	01a0023c 	lui	v0,0xa001
1d0167b4:	4d364290 	lbu	v0,13901(v0)
1d0167b8:	14004010 	beqz	v0,0x1d01680c
1d0167bc:	01a0023c 	lui	v0,0xa001
1d0167c0:	5480828f 	lw	v0,-32684(gp)
1d0167c4:	06004010 	beqz	v0,0x1d0167e0
1d0167c8:	5c80828f 	lw	v0,-32676(gp)
1d0167cc:	51808393 	lbu	v1,-32687(gp)
1d0167d0:	01000224 	li	v0,1
1d0167d4:	7d006214 	bne	v1,v0,0x1d0169cc
1d0167d8:	01000324 	li	v1,1
1d0167dc:	5c80828f 	lw	v0,-32676(gp)
1d0167e0:	0a004010 	beqz	v0,0x1d01680c
1d0167e4:	01a0023c 	lui	v0,0xa001
1d0167e8:	5880828f 	lw	v0,-32680(gp)
1d0167ec:	77004014 	bnez	v0,0x1d0169cc
1d0167f0:	01000324 	li	v1,1
1d0167f4:	035a400b 	j	0x1d01680c
1d0167f8:	01a0023c 	lui	v0,0xa001
1d0167fc:	4c8082af 	sw	v0,-32692(gp)
1d016800:	0a000224 	li	v0,10
1d016804:	448082af 	sw	v0,-32700(gp)
1d016808:	01a0023c 	lui	v0,0xa001
1d01680c:	5036428c 	lw	v0,13904(v0)
1d016810:	19004010 	beqz	v0,0x1d016878
1d016814:	ffff4224 	addiu	v0,v0,-1
1d016818:	01a0033c 	lui	v1,0xa001
1d01681c:	16004014 	bnez	v0,0x1d016878
1d016820:	503662ac 	sw	v0,13904(v1)
1d016824:	01a0023c 	lui	v0,0xa001
1d016828:	44364290 	lbu	v0,13892(v0)
1d01682c:	12004010 	beqz	v0,0x1d016878
1d016830:	5480828f 	lw	v0,-32684(gp)
1d016834:	06004010 	beqz	v0,0x1d016850
1d016838:	5c80828f 	lw	v0,-32676(gp)
1d01683c:	51808393 	lbu	v1,-32687(gp)
1d016840:	01000224 	li	v0,1
1d016844:	68006214 	bne	v1,v0,0x1d0169e8
1d016848:	01000324 	li	v1,1
1d01684c:	5c80828f 	lw	v0,-32676(gp)
1d016850:	0a004010 	beqz	v0,0x1d01687c
1d016854:	01a0023c 	lui	v0,0xa001
1d016858:	5880828f 	lw	v0,-32680(gp)
1d01685c:	62004014 	bnez	v0,0x1d0169e8
1d016860:	01000324 	li	v1,1
1d016864:	1f5a400b 	j	0x1d01687c
1d016868:	01a0023c 	lui	v0,0xa001
1d01686c:	4c8082af 	sw	v0,-32692(gp)
1d016870:	0b000224 	li	v0,11
1d016874:	448082af 	sw	v0,-32700(gp)
1d016878:	01a0023c 	lui	v0,0xa001
1d01687c:	6036428c 	lw	v0,13920(v0)
1d016880:	20004050 	beqzl	v0,0x1d016904
1d016884:	01a0023c 	lui	v0,0xa001
1d016888:	ffff4224 	addiu	v0,v0,-1
1d01688c:	01a0033c 	lui	v1,0xa001
1d016890:	1b004014 	bnez	v0,0x1d016900
1d016894:	603662ac 	sw	v0,13920(v1)
1d016898:	01a0023c 	lui	v0,0xa001
1d01689c:	5c364290 	lbu	v0,13916(v0)
1d0168a0:	18004010 	beqz	v0,0x1d016904
1d0168a4:	01a0023c 	lui	v0,0xa001
1d0168a8:	01a0023c 	lui	v0,0xa001
1d0168ac:	65364290 	lbu	v0,13925(v0)
1d0168b0:	14004010 	beqz	v0,0x1d016904
1d0168b4:	01a0023c 	lui	v0,0xa001
1d0168b8:	5480828f 	lw	v0,-32684(gp)
1d0168bc:	06004010 	beqz	v0,0x1d0168d8
1d0168c0:	5c80828f 	lw	v0,-32676(gp)
1d0168c4:	51808393 	lbu	v1,-32687(gp)
1d0168c8:	01000224 	li	v0,1
1d0168cc:	4d006214 	bne	v1,v0,0x1d016a04
1d0168d0:	01000324 	li	v1,1
1d0168d4:	5c80828f 	lw	v0,-32676(gp)
1d0168d8:	0a004010 	beqz	v0,0x1d016904
1d0168dc:	01a0023c 	lui	v0,0xa001
1d0168e0:	5880828f 	lw	v0,-32680(gp)
1d0168e4:	47004014 	bnez	v0,0x1d016a04
1d0168e8:	01000324 	li	v1,1
1d0168ec:	415a400b 	j	0x1d016904
1d0168f0:	01a0023c 	lui	v0,0xa001
1d0168f4:	4c8082af 	sw	v0,-32692(gp)
1d0168f8:	0e000224 	li	v0,14
1d0168fc:	448082af 	sw	v0,-32700(gp)
1d016900:	01a0023c 	lui	v0,0xa001
1d016904:	6836428c 	lw	v0,13928(v0)
1d016908:	19004010 	beqz	v0,0x1d016970
1d01690c:	ffff4224 	addiu	v0,v0,-1
1d016910:	01a0033c 	lui	v1,0xa001
1d016914:	16004014 	bnez	v0,0x1d016970
1d016918:	683662ac 	sw	v0,13928(v1)
1d01691c:	01a0023c 	lui	v0,0xa001
1d016920:	5c364290 	lbu	v0,13916(v0)
1d016924:	12004010 	beqz	v0,0x1d016970
1d016928:	5480828f 	lw	v0,-32684(gp)
1d01692c:	06004010 	beqz	v0,0x1d016948
1d016930:	5c80828f 	lw	v0,-32676(gp)
1d016934:	51808393 	lbu	v1,-32687(gp)
1d016938:	01000224 	li	v0,1
1d01693c:	39006214 	bne	v1,v0,0x1d016a24
1d016940:	01000324 	li	v1,1
1d016944:	5c80828f 	lw	v0,-32676(gp)
1d016948:	0e004010 	beqz	v0,0x1d016984
1d01694c:	5480828f 	lw	v0,-32684(gp)
1d016950:	5880828f 	lw	v0,-32680(gp)
1d016954:	33004014 	bnez	v0,0x1d016a24
1d016958:	01000324 	li	v1,1
1d01695c:	915a400b 	j	0x1d016a44
1d016960:	5c80828f 	lw	v0,-32676(gp)
1d016964:	4c8082af 	sw	v0,-32692(gp)
1d016968:	0f000224 	li	v0,15
1d01696c:	448082af 	sw	v0,-32700(gp)
1d016970:	5c80828f 	lw	v0,-32676(gp)
1d016974:	02004010 	beqz	v0,0x1d016980
1d016978:	ffff4224 	addiu	v0,v0,-1
1d01697c:	5c8082af 	sw	v0,-32676(gp)
1d016980:	5480828f 	lw	v0,-32684(gp)
1d016984:	31004010 	beqz	v0,0x1d016a4c
1d016988:	ffff4224 	addiu	v0,v0,-1
1d01698c:	0800e003 	jr	ra
1d016990:	548082af 	sw	v0,-32684(gp)
1d016994:	01a0023c 	lui	v0,0xa001
1d016998:	2d3643a0 	sb	v1,13869(v0)
1d01699c:	4c80828f 	lw	v0,-32692(gp)
1d0169a0:	58ff4050 	beqzl	v0,0x1d016704
1d0169a4:	01000224 	li	v0,1
1d0169a8:	c559400b 	j	0x1d016714
1d0169ac:	01a0023c 	lui	v0,0xa001
1d0169b0:	01a0023c 	lui	v0,0xa001
1d0169b4:	2d3643a0 	sb	v1,13869(v0)
1d0169b8:	4c80828f 	lw	v0,-32692(gp)
1d0169bc:	6dff4050 	beqzl	v0,0x1d016774
1d0169c0:	01000224 	li	v0,1
1d0169c4:	e159400b 	j	0x1d016784
1d0169c8:	01a0023c 	lui	v0,0xa001
1d0169cc:	01a0023c 	lui	v0,0xa001
1d0169d0:	453643a0 	sb	v1,13893(v0)
1d0169d4:	4c80828f 	lw	v0,-32692(gp)
1d0169d8:	88ff4050 	beqzl	v0,0x1d0167fc
1d0169dc:	01000224 	li	v0,1
1d0169e0:	035a400b 	j	0x1d01680c
1d0169e4:	01a0023c 	lui	v0,0xa001
1d0169e8:	01a0023c 	lui	v0,0xa001
1d0169ec:	453643a0 	sb	v1,13893(v0)
1d0169f0:	4c80828f 	lw	v0,-32692(gp)
1d0169f4:	9dff4050 	beqzl	v0,0x1d01686c
1d0169f8:	01000224 	li	v0,1
1d0169fc:	1f5a400b 	j	0x1d01687c
1d016a00:	01a0023c 	lui	v0,0xa001
1d016a04:	01a0023c 	lui	v0,0xa001
1d016a08:	5d3643a0 	sb	v1,13917(v0)
1d016a0c:	188080a3 	sb	zero,-32744(gp)
1d016a10:	4c80828f 	lw	v0,-32692(gp)
1d016a14:	b7ff4050 	beqzl	v0,0x1d0168f4
1d016a18:	01000224 	li	v0,1
1d016a1c:	415a400b 	j	0x1d016904
1d016a20:	01a0023c 	lui	v0,0xa001
1d016a24:	01a0023c 	lui	v0,0xa001
1d016a28:	5d3643a0 	sb	v1,13917(v0)
1d016a2c:	188080a3 	sb	zero,-32744(gp)
1d016a30:	4c80828f 	lw	v0,-32692(gp)
1d016a34:	cbff4050 	beqzl	v0,0x1d016964
1d016a38:	01000224 	li	v0,1
1d016a3c:	5d5a400b 	j	0x1d016974
1d016a40:	5c80828f 	lw	v0,-32676(gp)
1d016a44:	5f5a400b 	j	0x1d01697c
1d016a48:	ffff4224 	addiu	v0,v0,-1
1d016a4c:	0800e003 	jr	ra
1d016a50:	00000000 	nop
1d016a54:	07008290 	lbu	v0,7(a0)
1d016a58:	0000838c 	lw	v1,0(a0)
1d016a5c:	0006657c 	ext	a1,v1,0x18,0x1
1d016a60:	64000424 	li	a0,100
1d016a64:	01a0033c 	lui	v1,0xa001
1d016a68:	07004014 	bnez	v0,0x1d016a88
1d016a6c:	303664ac 	sw	a0,13872(v1)
1d016a70:	01a0033c 	lui	v1,0xa001
1d016a74:	2c366390 	lbu	v1,13868(v1)
1d016a78:	08006014 	bnez	v1,0x1d016a9c
1d016a7c:	ffff4324 	addiu	v1,v0,-1
1d016a80:	0800e003 	jr	ra
1d016a84:	00000000 	nop
1d016a88:	01a0033c 	lui	v1,0xa001
1d016a8c:	2c366390 	lbu	v1,13868(v1)
1d016a90:	1c006010 	beqz	v1,0x1d016b04
1d016a94:	01000424 	li	a0,1
1d016a98:	ffff4324 	addiu	v1,v0,-1
1d016a9c:	01a0043c 	lui	a0,0xa001
1d016aa0:	34368490 	lbu	a0,13876(a0)
1d016aa4:	23186400 	subu	v1,v1,a0
1d016aa8:	ff006330 	andi	v1,v1,0xff
1d016aac:	0300632c 	sltiu	v1,v1,3
1d016ab0:	17006014 	bnez	v1,0x1d016b10
1d016ab4:	01a0033c 	lui	v1,0xa001
1d016ab8:	5480838f 	lw	v1,-32684(gp)
1d016abc:	06006010 	beqz	v1,0x1d016ad8
1d016ac0:	5c80838f 	lw	v1,-32676(gp)
1d016ac4:	51808493 	lbu	a0,-32687(gp)
1d016ac8:	01000324 	li	v1,1
1d016acc:	14008314 	bne	a0,v1,0x1d016b20
1d016ad0:	01000324 	li	v1,1
1d016ad4:	5c80838f 	lw	v1,-32676(gp)
1d016ad8:	0d006010 	beqz	v1,0x1d016b10
1d016adc:	01a0033c 	lui	v1,0xa001
1d016ae0:	5880838f 	lw	v1,-32680(gp)
1d016ae4:	0e006054 	bnezl	v1,0x1d016b20
1d016ae8:	01000324 	li	v1,1
1d016aec:	c45a400b 	j	0x1d016b10
1d016af0:	01a0033c 	lui	v1,0xa001
1d016af4:	4c8082af 	sw	v0,-32692(gp)
1d016af8:	04000224 	li	v0,4
1d016afc:	0800e003 	jr	ra
1d016b00:	448082af 	sw	v0,-32700(gp)
1d016b04:	01a0033c 	lui	v1,0xa001
1d016b08:	2c3664a0 	sb	a0,13868(v1)
1d016b0c:	01a0033c 	lui	v1,0xa001
1d016b10:	2c366324 	addiu	v1,v1,13868
1d016b14:	080062a0 	sb	v0,8(v1)
1d016b18:	0800e003 	jr	ra
1d016b1c:	090065a0 	sb	a1,9(v1)
1d016b20:	01a0023c 	lui	v0,0xa001
1d016b24:	2d3643a0 	sb	v1,13869(v0)
1d016b28:	4c80828f 	lw	v0,-32692(gp)
1d016b2c:	f1ff4010 	beqz	v0,0x1d016af4
1d016b30:	01000224 	li	v0,1
1d016b34:	0800e003 	jr	ra
1d016b38:	00000000 	nop
1d016b3c:	07008290 	lbu	v0,7(a0)
1d016b40:	0000838c 	lw	v1,0(a0)
1d016b44:	0006657c 	ext	a1,v1,0x18,0x1
1d016b48:	64000424 	li	a0,100
1d016b4c:	01a0033c 	lui	v1,0xa001
1d016b50:	07004014 	bnez	v0,0x1d016b70
1d016b54:	483664ac 	sw	a0,13896(v1)
1d016b58:	01a0033c 	lui	v1,0xa001
1d016b5c:	44366390 	lbu	v1,13892(v1)
1d016b60:	08006014 	bnez	v1,0x1d016b84
1d016b64:	ffff4324 	addiu	v1,v0,-1
1d016b68:	0800e003 	jr	ra
1d016b6c:	00000000 	nop
1d016b70:	01a0033c 	lui	v1,0xa001
1d016b74:	44366390 	lbu	v1,13892(v1)
1d016b78:	1c006010 	beqz	v1,0x1d016bec
1d016b7c:	01000424 	li	a0,1
1d016b80:	ffff4324 	addiu	v1,v0,-1
1d016b84:	01a0043c 	lui	a0,0xa001
1d016b88:	4c368490 	lbu	a0,13900(a0)
1d016b8c:	23186400 	subu	v1,v1,a0
1d016b90:	ff006330 	andi	v1,v1,0xff
1d016b94:	0300632c 	sltiu	v1,v1,3
1d016b98:	17006014 	bnez	v1,0x1d016bf8
1d016b9c:	01a0033c 	lui	v1,0xa001
1d016ba0:	5480838f 	lw	v1,-32684(gp)
1d016ba4:	06006010 	beqz	v1,0x1d016bc0
1d016ba8:	5c80838f 	lw	v1,-32676(gp)
1d016bac:	51808493 	lbu	a0,-32687(gp)
1d016bb0:	01000324 	li	v1,1
1d016bb4:	14008314 	bne	a0,v1,0x1d016c08
1d016bb8:	01000324 	li	v1,1
1d016bbc:	5c80838f 	lw	v1,-32676(gp)
1d016bc0:	0d006010 	beqz	v1,0x1d016bf8
1d016bc4:	01a0033c 	lui	v1,0xa001
1d016bc8:	5880838f 	lw	v1,-32680(gp)
1d016bcc:	0e006054 	bnezl	v1,0x1d016c08
1d016bd0:	01000324 	li	v1,1
1d016bd4:	fe5a400b 	j	0x1d016bf8
1d016bd8:	01a0033c 	lui	v1,0xa001
1d016bdc:	4c8082af 	sw	v0,-32692(gp)
1d016be0:	08000224 	li	v0,8
1d016be4:	0800e003 	jr	ra
1d016be8:	448082af 	sw	v0,-32700(gp)
1d016bec:	01a0033c 	lui	v1,0xa001
1d016bf0:	443664a0 	sb	a0,13892(v1)
1d016bf4:	01a0033c 	lui	v1,0xa001
1d016bf8:	2c366324 	addiu	v1,v1,13868
1d016bfc:	200062a0 	sb	v0,32(v1)
1d016c00:	0800e003 	jr	ra
1d016c04:	210065a0 	sb	a1,33(v1)
1d016c08:	01a0023c 	lui	v0,0xa001
1d016c0c:	453643a0 	sb	v1,13893(v0)
1d016c10:	4c80828f 	lw	v0,-32692(gp)
1d016c14:	f1ff4010 	beqz	v0,0x1d016bdc
1d016c18:	01000224 	li	v0,1
1d016c1c:	0800e003 	jr	ra
1d016c20:	00000000 	nop
1d016c24:	07008290 	lbu	v0,7(a0)
1d016c28:	0000838c 	lw	v1,0(a0)
1d016c2c:	0004657c 	ext	a1,v1,0x10,0x1
1d016c30:	64000424 	li	a0,100
1d016c34:	01a0033c 	lui	v1,0xa001
1d016c38:	07004014 	bnez	v0,0x1d016c58
1d016c3c:	603664ac 	sw	a0,13920(v1)
1d016c40:	01a0033c 	lui	v1,0xa001
1d016c44:	5c366390 	lbu	v1,13916(v1)
1d016c48:	08006014 	bnez	v1,0x1d016c6c
1d016c4c:	ffff4324 	addiu	v1,v0,-1
1d016c50:	0800e003 	jr	ra
1d016c54:	00000000 	nop
1d016c58:	01a0033c 	lui	v1,0xa001
1d016c5c:	5c366390 	lbu	v1,13916(v1)
1d016c60:	1c006010 	beqz	v1,0x1d016cd4
1d016c64:	01000424 	li	a0,1
1d016c68:	ffff4324 	addiu	v1,v0,-1
1d016c6c:	01a0043c 	lui	a0,0xa001
1d016c70:	64368490 	lbu	a0,13924(a0)
1d016c74:	23186400 	subu	v1,v1,a0
1d016c78:	ff006330 	andi	v1,v1,0xff
1d016c7c:	0300632c 	sltiu	v1,v1,3
1d016c80:	17006014 	bnez	v1,0x1d016ce0
1d016c84:	01a0033c 	lui	v1,0xa001
1d016c88:	5480838f 	lw	v1,-32684(gp)
1d016c8c:	06006010 	beqz	v1,0x1d016ca8
1d016c90:	5c80838f 	lw	v1,-32676(gp)
1d016c94:	51808493 	lbu	a0,-32687(gp)
1d016c98:	01000324 	li	v1,1
1d016c9c:	14008314 	bne	a0,v1,0x1d016cf0
1d016ca0:	01000324 	li	v1,1
1d016ca4:	5c80838f 	lw	v1,-32676(gp)
1d016ca8:	0d006010 	beqz	v1,0x1d016ce0
1d016cac:	01a0033c 	lui	v1,0xa001
1d016cb0:	5880838f 	lw	v1,-32680(gp)
1d016cb4:	0e006054 	bnezl	v1,0x1d016cf0
1d016cb8:	01000324 	li	v1,1
1d016cbc:	385b400b 	j	0x1d016ce0
1d016cc0:	01a0033c 	lui	v1,0xa001
1d016cc4:	4c8082af 	sw	v0,-32692(gp)
1d016cc8:	0c000224 	li	v0,12
1d016ccc:	0800e003 	jr	ra
1d016cd0:	448082af 	sw	v0,-32700(gp)
1d016cd4:	01a0033c 	lui	v1,0xa001
1d016cd8:	5c3664a0 	sb	a0,13916(v1)
1d016cdc:	01a0033c 	lui	v1,0xa001
1d016ce0:	2c366324 	addiu	v1,v1,13868
1d016ce4:	380062a0 	sb	v0,56(v1)
1d016ce8:	0800e003 	jr	ra
1d016cec:	390065a0 	sb	a1,57(v1)
1d016cf0:	01a0023c 	lui	v0,0xa001
1d016cf4:	5d3643a0 	sb	v1,13917(v0)
1d016cf8:	188080a3 	sb	zero,-32744(gp)
1d016cfc:	4c80828f 	lw	v0,-32692(gp)
1d016d00:	f0ff4010 	beqz	v0,0x1d016cc4
1d016d04:	01000224 	li	v0,1
1d016d08:	0800e003 	jr	ra
1d016d0c:	00000000 	nop
1d016d10:	d0ffbd27 	addiu	sp,sp,-48
1d016d14:	2c00bfaf 	sw	ra,44(sp)
1d016d18:	2800b5af 	sw	s5,40(sp)
1d016d1c:	2400b4af 	sw	s4,36(sp)
1d016d20:	2000b3af 	sw	s3,32(sp)
1d016d24:	1c00b2af 	sw	s2,28(sp)
1d016d28:	1800b1af 	sw	s1,24(sp)
1d016d2c:	1400b0af 	sw	s0,20(sp)
1d016d30:	0400828c 	lw	v0,4(a0)
1d016d34:	0006507c 	ext	s0,v0,0x18,0x1
1d016d38:	ff000432 	andi	a0,s0,0xff
1d016d3c:	4006517c 	ext	s1,v0,0x19,0x1
1d016d40:	ff002532 	andi	a1,s1,0xff
1d016d44:	8006527c 	ext	s2,v0,0x1a,0x1
1d016d48:	ff005432 	andi	s4,s2,0xff
1d016d4c:	c006537c 	ext	s3,v0,0x1b,0x1
1d016d50:	0070153c 	lui	s5,0x7000
1d016d54:	24105500 	and	v0,v0,s5
1d016d58:	2ba80200 	sltu	s5,zero,v0
1d016d5c:	01a0023c 	lui	v0,0xa001
1d016d60:	3836428c 	lw	v0,13880(v0)
1d016d64:	36004010 	beqz	v0,0x1d016e40
1d016d68:	ff006332 	andi	v1,s3,0xff
1d016d6c:	0e006010 	beqz	v1,0x1d016da8
1d016d70:	01a0023c 	lui	v0,0xa001
1d016d74:	01a0023c 	lui	v0,0xa001
1d016d78:	3f364290 	lbu	v0,13887(v0)
1d016d7c:	0a004014 	bnez	v0,0x1d016da8
1d016d80:	01a0023c 	lui	v0,0xa001
1d016d84:	01000324 	li	v1,1
1d016d88:	01a0023c 	lui	v0,0xa001
1d016d8c:	2d3643a0 	sb	v1,13869(v0)
1d016d90:	4c80828f 	lw	v0,-32692(gp)
1d016d94:	2a004014 	bnez	v0,0x1d016e40
1d016d98:	01000224 	li	v0,1
1d016d9c:	4c8082af 	sw	v0,-32692(gp)
1d016da0:	905b400b 	j	0x1d016e40
1d016da4:	448082af 	sw	v0,-32700(gp)
1d016da8:	2c364290 	lbu	v0,13868(v0)
1d016dac:	24004010 	beqz	v0,0x1d016e40
1d016db0:	01a0023c 	lui	v0,0xa001
1d016db4:	3c364290 	lbu	v0,13884(v0)
1d016db8:	21004010 	beqz	v0,0x1d016e40
1d016dbc:	00000000 	nop
1d016dc0:	1f008014 	bnez	a0,0x1d016e40
1d016dc4:	00000000 	nop
1d016dc8:	1d00a014 	bnez	a1,0x1d016e40
1d016dcc:	01a0023c 	lui	v0,0xa001
1d016dd0:	3d364290 	lbu	v0,13885(v0)
1d016dd4:	1a004014 	bnez	v0,0x1d016e40
1d016dd8:	01a0023c 	lui	v0,0xa001
1d016ddc:	55364290 	lbu	v0,13909(v0)
1d016de0:	17004014 	bnez	v0,0x1d016e40
1d016de4:	01a0023c 	lui	v0,0xa001
1d016de8:	6d364290 	lbu	v0,13933(v0)
1d016dec:	14004014 	bnez	v0,0x1d016e40
1d016df0:	5480828f 	lw	v0,-32684(gp)
1d016df4:	05004010 	beqz	v0,0x1d016e0c
1d016df8:	5c80828f 	lw	v0,-32676(gp)
1d016dfc:	51808393 	lbu	v1,-32687(gp)
1d016e00:	01000224 	li	v0,1
1d016e04:	1f006214 	bne	v1,v0,0x1d016e84
1d016e08:	5c80828f 	lw	v0,-32676(gp)
1d016e0c:	0c004010 	beqz	v0,0x1d016e40
1d016e10:	5880828f 	lw	v0,-32680(gp)
1d016e14:	1b004014 	bnez	v0,0x1d016e84
1d016e18:	00000000 	nop
1d016e1c:	905b400b 	j	0x1d016e40
1d016e20:	00000000 	nop
1d016e24:	2d3643a0 	sb	v1,13869(v0)
1d016e28:	4c80828f 	lw	v0,-32692(gp)
1d016e2c:	04004014 	bnez	v0,0x1d016e40
1d016e30:	01000224 	li	v0,1
1d016e34:	4c8082af 	sw	v0,-32692(gp)
1d016e38:	05000224 	li	v0,5
1d016e3c:	448082af 	sw	v0,-32700(gp)
1d016e40:	06008012 	beqz	s4,0x1d016e5c
1d016e44:	01000224 	li	v0,1
1d016e48:	4c80838f 	lw	v1,-32692(gp)
1d016e4c:	04006214 	bne	v1,v0,0x1d016e60
1d016e50:	01a0023c 	lui	v0,0xa001
1d016e54:	02000224 	li	v0,2
1d016e58:	4c8082af 	sw	v0,-32692(gp)
1d016e5c:	01a0023c 	lui	v0,0xa001
1d016e60:	2c364224 	addiu	v0,v0,13868
1d016e64:	64000324 	li	v1,100
1d016e68:	0c0043ac 	sw	v1,12(v0)
1d016e6c:	100050a0 	sb	s0,16(v0)
1d016e70:	110051a0 	sb	s1,17(v0)
1d016e74:	120052a0 	sb	s2,18(v0)
1d016e78:	130053a0 	sb	s3,19(v0)
1d016e7c:	a75b400b 	j	0x1d016e9c
1d016e80:	140055a0 	sb	s5,20(v0)
1d016e84:	0754400f 	jal	0x1d01501c
1d016e88:	00000000 	nop
1d016e8c:	ecff4014 	bnez	v0,0x1d016e40
1d016e90:	01000324 	li	v1,1
1d016e94:	895b400b 	j	0x1d016e24
1d016e98:	01a0023c 	lui	v0,0xa001
1d016e9c:	2c00bf8f 	lw	ra,44(sp)
1d016ea0:	2800b58f 	lw	s5,40(sp)
1d016ea4:	2400b48f 	lw	s4,36(sp)
1d016ea8:	2000b38f 	lw	s3,32(sp)
1d016eac:	1c00b28f 	lw	s2,28(sp)
1d016eb0:	1800b18f 	lw	s1,24(sp)
1d016eb4:	1400b08f 	lw	s0,20(sp)
1d016eb8:	0800e003 	jr	ra
1d016ebc:	3000bd27 	addiu	sp,sp,48
1d016ec0:	d0ffbd27 	addiu	sp,sp,-48
1d016ec4:	2c00bfaf 	sw	ra,44(sp)
1d016ec8:	2800b5af 	sw	s5,40(sp)
1d016ecc:	2400b4af 	sw	s4,36(sp)
1d016ed0:	2000b3af 	sw	s3,32(sp)
1d016ed4:	1c00b2af 	sw	s2,28(sp)
1d016ed8:	1800b1af 	sw	s1,24(sp)
1d016edc:	1400b0af 	sw	s0,20(sp)
1d016ee0:	0400828c 	lw	v0,4(a0)
1d016ee4:	0006507c 	ext	s0,v0,0x18,0x1
1d016ee8:	ff000432 	andi	a0,s0,0xff
1d016eec:	4006517c 	ext	s1,v0,0x19,0x1
1d016ef0:	ff002532 	andi	a1,s1,0xff
1d016ef4:	8006527c 	ext	s2,v0,0x1a,0x1
1d016ef8:	ff005432 	andi	s4,s2,0xff
1d016efc:	c006537c 	ext	s3,v0,0x1b,0x1
1d016f00:	0070153c 	lui	s5,0x7000
1d016f04:	24105500 	and	v0,v0,s5
1d016f08:	2ba80200 	sltu	s5,zero,v0
1d016f0c:	01a0023c 	lui	v0,0xa001
1d016f10:	5036428c 	lw	v0,13904(v0)
1d016f14:	37004010 	beqz	v0,0x1d016ff4
1d016f18:	ff006332 	andi	v1,s3,0xff
1d016f1c:	0f006010 	beqz	v1,0x1d016f5c
1d016f20:	01a0023c 	lui	v0,0xa001
1d016f24:	01a0023c 	lui	v0,0xa001
1d016f28:	57364290 	lbu	v0,13911(v0)
1d016f2c:	0b004014 	bnez	v0,0x1d016f5c
1d016f30:	01a0023c 	lui	v0,0xa001
1d016f34:	01000324 	li	v1,1
1d016f38:	01a0023c 	lui	v0,0xa001
1d016f3c:	453643a0 	sb	v1,13893(v0)
1d016f40:	4c80828f 	lw	v0,-32692(gp)
1d016f44:	2b004014 	bnez	v0,0x1d016ff4
1d016f48:	01000224 	li	v0,1
1d016f4c:	4c8082af 	sw	v0,-32692(gp)
1d016f50:	02000224 	li	v0,2
1d016f54:	fd5b400b 	j	0x1d016ff4
1d016f58:	448082af 	sw	v0,-32700(gp)
1d016f5c:	44364290 	lbu	v0,13892(v0)
1d016f60:	24004010 	beqz	v0,0x1d016ff4
1d016f64:	01a0023c 	lui	v0,0xa001
1d016f68:	54364290 	lbu	v0,13908(v0)
1d016f6c:	21004010 	beqz	v0,0x1d016ff4
1d016f70:	00000000 	nop
1d016f74:	1f008014 	bnez	a0,0x1d016ff4
1d016f78:	00000000 	nop
1d016f7c:	1d00a014 	bnez	a1,0x1d016ff4
1d016f80:	01a0023c 	lui	v0,0xa001
1d016f84:	3d364290 	lbu	v0,13885(v0)
1d016f88:	1a004014 	bnez	v0,0x1d016ff4
1d016f8c:	01a0023c 	lui	v0,0xa001
1d016f90:	55364290 	lbu	v0,13909(v0)
1d016f94:	17004014 	bnez	v0,0x1d016ff4
1d016f98:	01a0023c 	lui	v0,0xa001
1d016f9c:	6d364290 	lbu	v0,13933(v0)
1d016fa0:	14004014 	bnez	v0,0x1d016ff4
1d016fa4:	5480828f 	lw	v0,-32684(gp)
1d016fa8:	05004010 	beqz	v0,0x1d016fc0
1d016fac:	5c80828f 	lw	v0,-32676(gp)
1d016fb0:	51808393 	lbu	v1,-32687(gp)
1d016fb4:	01000224 	li	v0,1
1d016fb8:	1f006214 	bne	v1,v0,0x1d017038
1d016fbc:	5c80828f 	lw	v0,-32676(gp)
1d016fc0:	0c004010 	beqz	v0,0x1d016ff4
1d016fc4:	5880828f 	lw	v0,-32680(gp)
1d016fc8:	1b004014 	bnez	v0,0x1d017038
1d016fcc:	00000000 	nop
1d016fd0:	fd5b400b 	j	0x1d016ff4
1d016fd4:	00000000 	nop
1d016fd8:	453643a0 	sb	v1,13893(v0)
1d016fdc:	4c80828f 	lw	v0,-32692(gp)
1d016fe0:	04004014 	bnez	v0,0x1d016ff4
1d016fe4:	01000224 	li	v0,1
1d016fe8:	4c8082af 	sw	v0,-32692(gp)
1d016fec:	09000224 	li	v0,9
1d016ff0:	448082af 	sw	v0,-32700(gp)
1d016ff4:	06008012 	beqz	s4,0x1d017010
1d016ff8:	01000224 	li	v0,1
1d016ffc:	4c80838f 	lw	v1,-32692(gp)
1d017000:	04006214 	bne	v1,v0,0x1d017014
1d017004:	01a0023c 	lui	v0,0xa001
1d017008:	02000224 	li	v0,2
1d01700c:	4c8082af 	sw	v0,-32692(gp)
1d017010:	01a0023c 	lui	v0,0xa001
1d017014:	2c364224 	addiu	v0,v0,13868
1d017018:	64000324 	li	v1,100
1d01701c:	240043ac 	sw	v1,36(v0)
1d017020:	280050a0 	sb	s0,40(v0)
1d017024:	290051a0 	sb	s1,41(v0)
1d017028:	2a0052a0 	sb	s2,42(v0)
1d01702c:	2b0053a0 	sb	s3,43(v0)
1d017030:	145c400b 	j	0x1d017050
1d017034:	2c0055a0 	sb	s5,44(v0)
1d017038:	0754400f 	jal	0x1d01501c
1d01703c:	00000000 	nop
1d017040:	ecff4014 	bnez	v0,0x1d016ff4
1d017044:	01000324 	li	v1,1
1d017048:	f65b400b 	j	0x1d016fd8
1d01704c:	01a0023c 	lui	v0,0xa001
1d017050:	2c00bf8f 	lw	ra,44(sp)
1d017054:	2800b58f 	lw	s5,40(sp)
1d017058:	2400b48f 	lw	s4,36(sp)
1d01705c:	2000b38f 	lw	s3,32(sp)
1d017060:	1c00b28f 	lw	s2,28(sp)
1d017064:	1800b18f 	lw	s1,24(sp)
1d017068:	1400b08f 	lw	s0,20(sp)
1d01706c:	0800e003 	jr	ra
1d017070:	3000bd27 	addiu	sp,sp,48
1d017074:	d8ffbd27 	addiu	sp,sp,-40
1d017078:	2400bfaf 	sw	ra,36(sp)
1d01707c:	2000b4af 	sw	s4,32(sp)
1d017080:	1c00b3af 	sw	s3,28(sp)
1d017084:	1800b2af 	sw	s2,24(sp)
1d017088:	1400b1af 	sw	s1,20(sp)
1d01708c:	1000b0af 	sw	s0,16(sp)
1d017090:	0400838c 	lw	v1,4(a0)
1d017094:	4006627c 	ext	v0,v1,0x19,0x1
1d017098:	03004010 	beqz	v0,0x1d0170a8
1d01709c:	21900000 	move	s2,zero
1d0170a0:	50809293 	lbu	s2,-32688(gp)
1d0170a4:	0100523a 	xori	s2,s2,0x1
1d0170a8:	01005232 	andi	s2,s2,0x1
1d0170ac:	0400828c 	lw	v0,4(a0)
1d0170b0:	4006507c 	ext	s0,v0,0x19,0x1
1d0170b4:	ff000732 	andi	a3,s0,0xff
1d0170b8:	508090a3 	sb	s0,-32688(gp)
1d0170bc:	04008494 	lhu	a0,4(a0)
1d0170c0:	588084af 	sw	a0,-32680(gp)
1d0170c4:	c8000524 	li	a1,200
1d0170c8:	5c8085af 	sw	a1,-32676(gp)
1d0170cc:	0006537c 	ext	s3,v0,0x18,0x1
1d0170d0:	ff006632 	andi	a2,s3,0xff
1d0170d4:	c006517c 	ext	s1,v0,0x1b,0x1
1d0170d8:	ff002532 	andi	a1,s1,0xff
1d0170dc:	0074143c 	lui	s4,0x7400
1d0170e0:	24187400 	and	v1,v1,s4
1d0170e4:	01a0023c 	lui	v0,0xa001
1d0170e8:	6836428c 	lw	v0,13928(v0)
1d0170ec:	38004010 	beqz	v0,0x1d0171d0
1d0170f0:	2ba00300 	sltu	s4,zero,v1
1d0170f4:	0f00a010 	beqz	a1,0x1d017134
1d0170f8:	01a0023c 	lui	v0,0xa001
1d0170fc:	01a0023c 	lui	v0,0xa001
1d017100:	6f364290 	lbu	v0,13935(v0)
1d017104:	0b004014 	bnez	v0,0x1d017134
1d017108:	01a0023c 	lui	v0,0xa001
1d01710c:	01000324 	li	v1,1
1d017110:	01a0023c 	lui	v0,0xa001
1d017114:	5d3643a0 	sb	v1,13917(v0)
1d017118:	4c80828f 	lw	v0,-32692(gp)
1d01711c:	2c004014 	bnez	v0,0x1d0171d0
1d017120:	01000224 	li	v0,1
1d017124:	4c8082af 	sw	v0,-32692(gp)
1d017128:	03000224 	li	v0,3
1d01712c:	745c400b 	j	0x1d0171d0
1d017130:	448082af 	sw	v0,-32700(gp)
1d017134:	5c364290 	lbu	v0,13916(v0)
1d017138:	25004010 	beqz	v0,0x1d0171d0
1d01713c:	01a0023c 	lui	v0,0xa001
1d017140:	6c364290 	lbu	v0,13932(v0)
1d017144:	22004010 	beqz	v0,0x1d0171d0
1d017148:	00000000 	nop
1d01714c:	2000c014 	bnez	a2,0x1d0171d0
1d017150:	00000000 	nop
1d017154:	1e00e014 	bnez	a3,0x1d0171d0
1d017158:	01a0023c 	lui	v0,0xa001
1d01715c:	3d364290 	lbu	v0,13885(v0)
1d017160:	1b004014 	bnez	v0,0x1d0171d0
1d017164:	01a0023c 	lui	v0,0xa001
1d017168:	55364290 	lbu	v0,13909(v0)
1d01716c:	18004014 	bnez	v0,0x1d0171d0
1d017170:	01a0023c 	lui	v0,0xa001
1d017174:	6d364290 	lbu	v0,13933(v0)
1d017178:	15004014 	bnez	v0,0x1d0171d0
1d01717c:	5480828f 	lw	v0,-32684(gp)
1d017180:	04004010 	beqz	v0,0x1d017194
1d017184:	51808393 	lbu	v1,-32687(gp)
1d017188:	01000224 	li	v0,1
1d01718c:	03006214 	bne	v1,v0,0x1d01719c
1d017190:	00000000 	nop
1d017194:	0e008010 	beqz	a0,0x1d0171d0
1d017198:	00000000 	nop
1d01719c:	0754400f 	jal	0x1d01501c
1d0171a0:	00000000 	nop
1d0171a4:	0a004014 	bnez	v0,0x1d0171d0
1d0171a8:	01000324 	li	v1,1
1d0171ac:	01a0023c 	lui	v0,0xa001
1d0171b0:	5d3643a0 	sb	v1,13917(v0)
1d0171b4:	188080a3 	sb	zero,-32744(gp)
1d0171b8:	4c80828f 	lw	v0,-32692(gp)
1d0171bc:	04004014 	bnez	v0,0x1d0171d0
1d0171c0:	01000224 	li	v0,1
1d0171c4:	4c8082af 	sw	v0,-32692(gp)
1d0171c8:	0d000224 	li	v0,13
1d0171cc:	448082af 	sw	v0,-32700(gp)
1d0171d0:	06004012 	beqz	s2,0x1d0171ec
1d0171d4:	01000224 	li	v0,1
1d0171d8:	4c80838f 	lw	v1,-32692(gp)
1d0171dc:	04006214 	bne	v1,v0,0x1d0171f0
1d0171e0:	01a0023c 	lui	v0,0xa001
1d0171e4:	02000224 	li	v0,2
1d0171e8:	4c8082af 	sw	v0,-32692(gp)
1d0171ec:	01a0023c 	lui	v0,0xa001
1d0171f0:	2c364224 	addiu	v0,v0,13868
1d0171f4:	64000324 	li	v1,100
1d0171f8:	3c0043ac 	sw	v1,60(v0)
1d0171fc:	400053a0 	sb	s3,64(v0)
1d017200:	410050a0 	sb	s0,65(v0)
1d017204:	420052a0 	sb	s2,66(v0)
1d017208:	430051a0 	sb	s1,67(v0)
1d01720c:	440054a0 	sb	s4,68(v0)
1d017210:	2400bf8f 	lw	ra,36(sp)
1d017214:	2000b48f 	lw	s4,32(sp)
1d017218:	1c00b38f 	lw	s3,28(sp)
1d01721c:	1800b28f 	lw	s2,24(sp)
1d017220:	1400b18f 	lw	s1,20(sp)
1d017224:	1000b08f 	lw	s0,16(sp)
1d017228:	0800e003 	jr	ra
1d01722c:	2800bd27 	addiu	sp,sp,40
1d017230:	00008294 	lhu	v0,0(a0)
1d017234:	0010427c 	ext	v0,v0,0x0,0x3
1d017238:	518082a3 	sb	v0,-32687(gp)
1d01723c:	c8000224 	li	v0,200
1d017240:	0800e003 	jr	ra
1d017244:	548082af 	sw	v0,-32684(gp)
1d017248:	04008290 	lbu	v0,4(a0)
1d01724c:	04004230 	andi	v0,v0,0x4
1d017250:	ff004230 	andi	v0,v0,0xff
1d017254:	0a004010 	beqz	v0,0x1d017280
1d017258:	00000000 	nop
1d01725c:	e8ffbd27 	addiu	sp,sp,-24
1d017260:	1400bfaf 	sw	ra,20(sp)
1d017264:	4c80828f 	lw	v0,-32692(gp)
1d017268:	04004010 	beqz	v0,0x1d01727c
1d01726c:	1400bf8f 	lw	ra,20(sp)
1d017270:	8e59400f 	jal	0x1d016638
1d017274:	00000000 	nop
1d017278:	1400bf8f 	lw	ra,20(sp)
1d01727c:	1800bd27 	addiu	sp,sp,24
1d017280:	0800e003 	jr	ra
1d017284:	00000000 	nop
1d017288:	0800e003 	jr	ra
1d01728c:	4c80828f 	lw	v0,-32692(gp)
1d017290:	0800e003 	jr	ra
1d017294:	4480828f 	lw	v0,-32700(gp)
1d017298:	4c80838f 	lw	v1,-32692(gp)
1d01729c:	03006010 	beqz	v1,0x1d0172ac
1d0172a0:	21100000 	move	v0,zero
1d0172a4:	4880828f 	lw	v0,-32696(gp)
1d0172a8:	0100422c 	sltiu	v0,v0,1
1d0172ac:	0800e003 	jr	ra
1d0172b0:	488083af 	sw	v1,-32696(gp)
1d0172b4:	4c80838f 	lw	v1,-32692(gp)
1d0172b8:	05006010 	beqz	v1,0x1d0172d0
1d0172bc:	01000224 	li	v0,1
1d0172c0:	18808493 	lbu	a0,-32744(gp)
1d0172c4:	01006238 	xori	v0,v1,0x1
1d0172c8:	0b200200 	movn	a0,zero,v0
1d0172cc:	21108000 	move	v0,a0
1d0172d0:	0800e003 	jr	ra
1d0172d4:	00000000 	nop

Disassembly of section .sec71:

1d0172d8 <.sec71>:
1d0172d8:	c0ffbd27 	addiu	sp,sp,-64
1d0172dc:	3c00bfaf 	sw	ra,60(sp)
1d0172e0:	3800b6af 	sw	s6,56(sp)
1d0172e4:	3400b5af 	sw	s5,52(sp)
1d0172e8:	3000b4af 	sw	s4,48(sp)
1d0172ec:	2c00b3af 	sw	s3,44(sp)
1d0172f0:	2800b2af 	sw	s2,40(sp)
1d0172f4:	2400b1af 	sw	s1,36(sp)
1d0172f8:	2000b0af 	sw	s0,32(sp)
1d0172fc:	21808000 	move	s0,a0
1d017300:	5400b597 	lhu	s5,84(sp)
1d017304:	38009190 	lbu	s1,56(a0)
1d017308:	69002016 	bnez	s1,0x1d0174b0
1d01730c:	5800b293 	lbu	s2,88(sp)
1d017310:	21b0a000 	move	s6,a1
1d017314:	21a0c000 	move	s4,a2
1d017318:	2198e000 	move	s3,a3
1d01731c:	21280000 	move	a1,zero
1d017320:	c96d400f 	jal	0x1d01b724
1d017324:	7c000624 	li	a2,124
1d017328:	000016ae 	sw	s6,0(s0)
1d01732c:	df07823a 	xori	v0,s4,0x7df
1d017330:	0aa00200 	movz	s4,zero,v0
1d017334:	040014a6 	sh	s4,4(s0)
1d017338:	05006016 	bnez	s3,0x1d017350
1d01733c:	21106002 	move	v0,s3
1d017340:	03008012 	beqz	s4,0x1d017350
1d017344:	21100000 	move	v0,zero
1d017348:	08009426 	addiu	s4,s4,8
1d01734c:	ffff8232 	andi	v0,s4,0xffff
1d017350:	060002a6 	sh	v0,6(s0)
1d017354:	5000a293 	lbu	v0,80(sp)
1d017358:	080002a2 	sb	v0,8(s0)
1d01735c:	05004012 	beqz	s2,0x1d017374
1d017360:	0b0012a2 	sb	s2,11(s0)
1d017364:	02121500 	srl	v0,s5,0x8
1d017368:	090002a2 	sb	v0,9(s0)
1d01736c:	de5c400b 	j	0x1d017378
1d017370:	0a0015a2 	sb	s5,10(s0)
1d017374:	090015a2 	sb	s5,9(s0)
1d017378:	5c00a28f 	lw	v0,92(sp)
1d01737c:	0c0002ae 	sw	v0,12(s0)
1d017380:	6000a38f 	lw	v1,96(sp)
1d017384:	0a180200 	movz	v1,zero,v0
1d017388:	100003ae 	sw	v1,16(s0)
1d01738c:	6400a48f 	lw	a0,100(sp)
1d017390:	180004ae 	sw	a0,24(s0)
1d017394:	6800a28f 	lw	v0,104(sp)
1d017398:	0a100400 	movz	v0,zero,a0
1d01739c:	1c0002ae 	sw	v0,28(s0)
1d0173a0:	1800a0af 	sw	zero,24(sp)
1d0173a4:	1c00a0af 	sw	zero,28(sp)
1d0173a8:	04000296 	lhu	v0,4(s0)
1d0173ac:	df070424 	li	a0,2015
1d0173b0:	0b204200 	movn	a0,v0,v0
1d0173b4:	08000224 	li	v0,8
1d0173b8:	1400a2af 	sw	v0,20(sp)
1d0173bc:	21100000 	move	v0,zero
1d0173c0:	0450827c 	ins	v0,a0,0x0,0xb
1d0173c4:	1000a2af 	sw	v0,16(sp)
1d0173c8:	0b000592 	lbu	a1,11(s0)
1d0173cc:	03000424 	li	a0,3
1d0173d0:	02000224 	li	v0,2
1d0173d4:	0b108500 	movn	v0,a0,a1
1d0173d8:	21104300 	addu	v0,v0,v1
1d0173dc:	0800432c 	sltiu	v1,v0,8
1d0173e0:	04006010 	beqz	v1,0x1d0173f4
1d0173e4:	4300432c 	sltiu	v1,v0,67
1d0173e8:	1800a2a3 	sb	v0,24(sp)
1d0173ec:	025d400b 	j	0x1d017408
1d0173f0:	01000224 	li	v0,1
1d0173f4:	2f006010 	beqz	v1,0x1d0174b4
1d0173f8:	10000324 	li	v1,16
1d0173fc:	1800a3a3 	sb	v1,24(sp)
1d017400:	1900a2a3 	sb	v0,25(sp)
1d017404:	02000224 	li	v0,2
1d017408:	1000a327 	addiu	v1,sp,16
1d01740c:	21206200 	addu	a0,v1,v0
1d017410:	08000392 	lbu	v1,8(s0)
1d017414:	080083a0 	sb	v1,8(a0)
1d017418:	02004324 	addiu	v1,v0,2
1d01741c:	09000592 	lbu	a1,9(s0)
1d017420:	05004012 	beqz	s2,0x1d017438
1d017424:	090085a0 	sb	a1,9(a0)
1d017428:	2118a303 	addu	v1,sp,v1
1d01742c:	0a000492 	lbu	a0,10(s0)
1d017430:	180064a0 	sb	a0,24(v1)
1d017434:	03004324 	addiu	v1,v0,3
1d017438:	0800622c 	sltiu	v0,v1,8
1d01743c:	15004050 	beqzl	v0,0x1d017494
1d017440:	0000028e 	lw	v0,0(s0)
1d017444:	1400028e 	lw	v0,20(s0)
1d017448:	1000048e 	lw	a0,16(s0)
1d01744c:	2b204400 	sltu	a0,v0,a0
1d017450:	0f008010 	beqz	a0,0x1d017490
1d017454:	2118a303 	addu	v1,sp,v1
1d017458:	0c00068e 	lw	a2,12(s0)
1d01745c:	18006324 	addiu	v1,v1,24
1d017460:	1f00a527 	addiu	a1,sp,31
1d017464:	01004424 	addiu	a0,v0,1
1d017468:	140004ae 	sw	a0,20(s0)
1d01746c:	2110c200 	addu	v0,a2,v0
1d017470:	00004290 	lbu	v0,0(v0)
1d017474:	06006510 	beq	v1,a1,0x1d017490
1d017478:	000062a0 	sb	v0,0(v1)
1d01747c:	21108000 	move	v0,a0
1d017480:	1000048e 	lw	a0,16(s0)
1d017484:	2b204400 	sltu	a0,v0,a0
1d017488:	f6ff8014 	bnez	a0,0x1d017464
1d01748c:	01006324 	addiu	v1,v1,1
1d017490:	0000028e 	lw	v0,0(s0)
1d017494:	09f84000 	jalr	v0
1d017498:	1000a427 	addiu	a0,sp,16
1d01749c:	05004010 	beqz	v0,0x1d0174b4
1d0174a0:	21884000 	move	s1,v0
1d0174a4:	01000224 	li	v0,1
1d0174a8:	2d5d400b 	j	0x1d0174b4
1d0174ac:	380002a2 	sb	v0,56(s0)
1d0174b0:	21880000 	move	s1,zero
1d0174b4:	21102002 	move	v0,s1
1d0174b8:	3c00bf8f 	lw	ra,60(sp)
1d0174bc:	3800b68f 	lw	s6,56(sp)
1d0174c0:	3400b58f 	lw	s5,52(sp)
1d0174c4:	3000b48f 	lw	s4,48(sp)
1d0174c8:	2c00b38f 	lw	s3,44(sp)
1d0174cc:	2800b28f 	lw	s2,40(sp)
1d0174d0:	2400b18f 	lw	s1,36(sp)
1d0174d4:	2000b08f 	lw	s0,32(sp)
1d0174d8:	0800e003 	jr	ra
1d0174dc:	4000bd27 	addiu	sp,sp,64
1d0174e0:	d8ffbd27 	addiu	sp,sp,-40
1d0174e4:	2400bfaf 	sw	ra,36(sp)
1d0174e8:	2000b0af 	sw	s0,32(sp)
1d0174ec:	38008290 	lbu	v0,56(a0)
1d0174f0:	25014010 	beqz	v0,0x1d017988
1d0174f4:	21808000 	move	s0,a0
1d0174f8:	0400a28c 	lw	v0,4(a1)
1d0174fc:	0007437c 	ext	v1,v0,0x1c,0x1
1d017500:	08006010 	beqz	v1,0x1d017524
1d017504:	0f004430 	andi	a0,v0,0xf
1d017508:	0000a68c 	lw	a2,0(a1)
1d01750c:	ff07c630 	andi	a2,a2,0x7ff
1d017510:	80340600 	sll	a2,a2,0x12
1d017514:	0400a28c 	lw	v0,4(a1)
1d017518:	808a427c 	ext	v0,v0,0xa,0x12
1d01751c:	4b5d400b 	j	0x1d01752c
1d017520:	2510c200 	or	v0,a2,v0
1d017524:	0000a28c 	lw	v0,0(a1)
1d017528:	ff074230 	andi	v0,v0,0x7ff
1d01752c:	16016014 	bnez	v1,0x1d017988
1d017530:	08000324 	li	v1,8
1d017534:	15018314 	bne	a0,v1,0x1d01798c
1d017538:	2400bf8f 	lw	ra,36(sp)
1d01753c:	06000396 	lhu	v1,6(s0)
1d017540:	07006014 	bnez	v1,0x1d017560
1d017544:	00000000 	nop
1d017548:	00f94324 	addiu	v1,v0,-1792
1d01754c:	0001632c 	sltiu	v1,v1,256
1d017550:	0f016050 	beqzl	v1,0x1d017990
1d017554:	2000b08f 	lw	s0,32(sp)
1d017558:	5a5d400b 	j	0x1d017568
1d01755c:	060002a6 	sh	v0,6(s0)
1d017560:	0a016214 	bne	v1,v0,0x1d01798c
1d017564:	2400bf8f 	lw	ra,36(sp)
1d017568:	04000296 	lhu	v0,4(s0)
1d01756c:	05004054 	bnezl	v0,0x1d017584
1d017570:	0800a290 	lbu	v0,8(a1)
1d017574:	06000296 	lhu	v0,6(s0)
1d017578:	f8ff4224 	addiu	v0,v0,-8
1d01757c:	040002a6 	sh	v0,4(s0)
1d017580:	0800a290 	lbu	v0,8(a1)
1d017584:	feff4324 	addiu	v1,v0,-2
1d017588:	ff006330 	andi	v1,v1,0xff
1d01758c:	0600632c 	sltiu	v1,v1,6
1d017590:	6d006010 	beqz	v1,0x1d017748
1d017594:	10000324 	li	v1,16
1d017598:	0900a390 	lbu	v1,9(a1)
1d01759c:	08000492 	lbu	a0,8(s0)
1d0175a0:	40008624 	addiu	a2,a0,64
1d0175a4:	34006654 	bnel	v1,a2,0x1d017678
1d0175a8:	7f000624 	li	a2,127
1d0175ac:	0a00a490 	lbu	a0,10(a1)
1d0175b0:	09000392 	lbu	v1,9(s0)
1d0175b4:	e0008354 	bnel	a0,v1,0x1d017938
1d0175b8:	390000a2 	sb	zero,57(s0)
1d0175bc:	0b00a490 	lbu	a0,11(a1)
1d0175c0:	0a000392 	lbu	v1,10(s0)
1d0175c4:	05008310 	beq	a0,v1,0x1d0175dc
1d0175c8:	0b000392 	lbu	v1,11(s0)
1d0175cc:	da006054 	bnezl	v1,0x1d017938
1d0175d0:	390000a2 	sb	zero,57(s0)
1d0175d4:	7c5d400b 	j	0x1d0175f0
1d0175d8:	2000048e 	lw	a0,32(s0)
1d0175dc:	03006010 	beqz	v1,0x1d0175ec
1d0175e0:	0300442c 	sltiu	a0,v0,3
1d0175e4:	d4008054 	bnezl	a0,0x1d017938
1d0175e8:	390000a2 	sb	zero,57(s0)
1d0175ec:	2000048e 	lw	a0,32(s0)
1d0175f0:	d1008054 	bnezl	a0,0x1d017938
1d0175f4:	390000a2 	sb	zero,57(s0)
1d0175f8:	d1006054 	bnezl	v1,0x1d017940
1d0175fc:	fdff4224 	addiu	v0,v0,-3
1d017600:	575e400b 	j	0x1d01795c
1d017604:	feff4224 	addiu	v0,v0,-2
1d017608:	2b206200 	sltu	a0,v1,v0
1d01760c:	10008010 	beqz	a0,0x1d017650
1d017610:	04000224 	li	v0,4
1d017614:	1800068e 	lw	a2,24(s0)
1d017618:	01006424 	addiu	a0,v1,1
1d01761c:	200004ae 	sw	a0,32(s0)
1d017620:	01004224 	addiu	v0,v0,1
1d017624:	2120a200 	addu	a0,a1,v0
1d017628:	07008490 	lbu	a0,7(a0)
1d01762c:	2118c300 	addu	v1,a2,v1
1d017630:	000064a0 	sb	a0,0(v1)
1d017634:	2000038e 	lw	v1,32(s0)
1d017638:	2400048e 	lw	a0,36(s0)
1d01763c:	2b206400 	sltu	a0,v1,a0
1d017640:	03008010 	beqz	a0,0x1d017650
1d017644:	0800442c 	sltiu	a0,v0,8
1d017648:	f3ff8054 	bnezl	a0,0x1d017618
1d01764c:	1800068e 	lw	a2,24(s0)
1d017650:	01000224 	li	v0,1
1d017654:	390002a2 	sb	v0,57(s0)
1d017658:	625e400b 	j	0x1d017988
1d01765c:	380000a2 	sb	zero,56(s0)
1d017660:	b5006054 	bnezl	v1,0x1d017938
1d017664:	390000a2 	sb	zero,57(s0)
1d017668:	01000224 	li	v0,1
1d01766c:	390002a2 	sb	v0,57(s0)
1d017670:	625e400b 	j	0x1d017988
1d017674:	380000a2 	sb	zero,56(s0)
1d017678:	af006654 	bnel	v1,a2,0x1d017938
1d01767c:	390000a2 	sb	zero,57(s0)
1d017680:	0a00a390 	lbu	v1,10(a1)
1d017684:	ac006454 	bnel	v1,a0,0x1d017938
1d017688:	390000a2 	sb	zero,57(s0)
1d01768c:	03000324 	li	v1,3
1d017690:	0f004354 	bnel	v0,v1,0x1d0176d0
1d017694:	2000038e 	lw	v1,32(s0)
1d017698:	0b00a390 	lbu	v1,11(a1)
1d01769c:	78000424 	li	a0,120
1d0176a0:	04006414 	bne	v1,a0,0x1d0176b4
1d0176a4:	31000424 	li	a0,49
1d0176a8:	01000224 	li	v0,1
1d0176ac:	625e400b 	j	0x1d017988
1d0176b0:	280002a2 	sb	v0,40(s0)
1d0176b4:	06006454 	bnel	v1,a0,0x1d0176d0
1d0176b8:	2000038e 	lw	v1,32(s0)
1d0176bc:	01000224 	li	v0,1
1d0176c0:	290002a2 	sb	v0,41(s0)
1d0176c4:	390000a2 	sb	zero,57(s0)
1d0176c8:	625e400b 	j	0x1d017988
1d0176cc:	380000a2 	sb	zero,56(s0)
1d0176d0:	99006054 	bnezl	v1,0x1d017938
1d0176d4:	390000a2 	sb	zero,57(s0)
1d0176d8:	feff4224 	addiu	v0,v0,-2
1d0176dc:	240002ae 	sw	v0,36(s0)
1d0176e0:	1c00038e 	lw	v1,28(s0)
1d0176e4:	2b186200 	sltu	v1,v1,v0
1d0176e8:	93006054 	bnezl	v1,0x1d017938
1d0176ec:	390000a2 	sb	zero,57(s0)
1d0176f0:	2000038e 	lw	v1,32(s0)
1d0176f4:	2b106200 	sltu	v0,v1,v0
1d0176f8:	8e004010 	beqz	v0,0x1d017934
1d0176fc:	03000224 	li	v0,3
1d017700:	08000424 	li	a0,8
1d017704:	1800078e 	lw	a3,24(s0)
1d017708:	01006624 	addiu	a2,v1,1
1d01770c:	200006ae 	sw	a2,32(s0)
1d017710:	01004224 	addiu	v0,v0,1
1d017714:	2130a200 	addu	a2,a1,v0
1d017718:	0700c690 	lbu	a2,7(a2)
1d01771c:	2118e300 	addu	v1,a3,v1
1d017720:	000066a0 	sb	a2,0(v1)
1d017724:	2000038e 	lw	v1,32(s0)
1d017728:	2400068e 	lw	a2,36(s0)
1d01772c:	2b306600 	sltu	a2,v1,a2
1d017730:	8100c050 	beqzl	a2,0x1d017938
1d017734:	390000a2 	sb	zero,57(s0)
1d017738:	f3ff4454 	bnel	v0,a0,0x1d017708
1d01773c:	1800078e 	lw	a3,24(s0)
1d017740:	4e5e400b 	j	0x1d017938
1d017744:	390000a2 	sb	zero,57(s0)
1d017748:	43004314 	bne	v0,v1,0x1d017858
1d01774c:	dfff4324 	addiu	v1,v0,-33
1d017750:	0900a290 	lbu	v0,9(a1)
1d017754:	f8ff4324 	addiu	v1,v0,-8
1d017758:	ff006330 	andi	v1,v1,0xff
1d01775c:	3b00632c 	sltiu	v1,v1,59
1d017760:	75006050 	beqzl	v1,0x1d017938
1d017764:	390000a2 	sb	zero,57(s0)
1d017768:	fdff4224 	addiu	v0,v0,-3
1d01776c:	240002ae 	sw	v0,36(s0)
1d017770:	0a00a490 	lbu	a0,10(a1)
1d017774:	08000392 	lbu	v1,8(s0)
1d017778:	40006324 	addiu	v1,v1,64
1d01777c:	6e008354 	bnel	a0,v1,0x1d017938
1d017780:	390000a2 	sb	zero,57(s0)
1d017784:	0b00a490 	lbu	a0,11(a1)
1d017788:	09000392 	lbu	v1,9(s0)
1d01778c:	6a008354 	bnel	a0,v1,0x1d017938
1d017790:	390000a2 	sb	zero,57(s0)
1d017794:	0c00a490 	lbu	a0,12(a1)
1d017798:	0a000392 	lbu	v1,10(s0)
1d01779c:	05008350 	beql	a0,v1,0x1d0177b4
1d0177a0:	2000038e 	lw	v1,32(s0)
1d0177a4:	0b000392 	lbu	v1,11(s0)
1d0177a8:	63006054 	bnezl	v1,0x1d017938
1d0177ac:	390000a2 	sb	zero,57(s0)
1d0177b0:	2000038e 	lw	v1,32(s0)
1d0177b4:	60006054 	bnezl	v1,0x1d017938
1d0177b8:	390000a2 	sb	zero,57(s0)
1d0177bc:	1c00038e 	lw	v1,28(s0)
1d0177c0:	2b106200 	sltu	v0,v1,v0
1d0177c4:	5c004054 	bnezl	v0,0x1d017938
1d0177c8:	390000a2 	sb	zero,57(s0)
1d0177cc:	05000224 	li	v0,5
1d0177d0:	fd5d400b 	j	0x1d0177f4
1d0177d4:	08000424 	li	a0,8
1d0177d8:	01006624 	addiu	a2,v1,1
1d0177dc:	200006ae 	sw	a2,32(s0)
1d0177e0:	01004224 	addiu	v0,v0,1
1d0177e4:	2130a200 	addu	a2,a1,v0
1d0177e8:	0700c690 	lbu	a2,7(a2)
1d0177ec:	2118e300 	addu	v1,a3,v1
1d0177f0:	000066a0 	sb	a2,0(v1)
1d0177f4:	2000038e 	lw	v1,32(s0)
1d0177f8:	2400068e 	lw	a2,36(s0)
1d0177fc:	2b306600 	sltu	a2,v1,a2
1d017800:	0400c050 	beqzl	a2,0x1d017814
1d017804:	1800a0af 	sw	zero,24(sp)
1d017808:	f3ff4454 	bnel	v0,a0,0x1d0177d8
1d01780c:	1800078e 	lw	a3,24(s0)
1d017810:	1800a0af 	sw	zero,24(sp)
1d017814:	1c00a0af 	sw	zero,28(sp)
1d017818:	30000224 	li	v0,48
1d01781c:	1800a2a3 	sb	v0,24(sp)
1d017820:	04000396 	lhu	v1,4(s0)
1d017824:	08000224 	li	v0,8
1d017828:	1400a2af 	sw	v0,20(sp)
1d01782c:	21100000 	move	v0,zero
1d017830:	0450627c 	ins	v0,v1,0x0,0xb
1d017834:	1000a2af 	sw	v0,16(sp)
1d017838:	0000028e 	lw	v0,0(s0)
1d01783c:	09f84000 	jalr	v0
1d017840:	1000a427 	addiu	a0,sp,16
1d017844:	51004014 	bnez	v0,0x1d01798c
1d017848:	2400bf8f 	lw	ra,36(sp)
1d01784c:	390000a2 	sb	zero,57(s0)
1d017850:	625e400b 	j	0x1d017988
1d017854:	380000a2 	sb	zero,56(s0)
1d017858:	ff006330 	andi	v1,v1,0xff
1d01785c:	0900632c 	sltiu	v1,v1,9
1d017860:	27006010 	beqz	v1,0x1d017900
1d017864:	30000324 	li	v1,48
1d017868:	2000038e 	lw	v1,32(s0)
1d01786c:	dfff4224 	addiu	v0,v0,-33
1d017870:	c0200200 	sll	a0,v0,0x3
1d017874:	23108200 	subu	v0,a0,v0
1d017878:	03004224 	addiu	v0,v0,3
1d01787c:	2e006254 	bnel	v1,v0,0x1d017938
1d017880:	390000a2 	sb	zero,57(s0)
1d017884:	2400048e 	lw	a0,36(s0)
1d017888:	1c00028e 	lw	v0,28(s0)
1d01788c:	2b104400 	sltu	v0,v0,a0
1d017890:	29004054 	bnezl	v0,0x1d017938
1d017894:	390000a2 	sb	zero,57(s0)
1d017898:	2b106400 	sltu	v0,v1,a0
1d01789c:	12004010 	beqz	v0,0x1d0178e8
1d0178a0:	00000000 	nop
1d0178a4:	01000224 	li	v0,1
1d0178a8:	08000724 	li	a3,8
1d0178ac:	1800068e 	lw	a2,24(s0)
1d0178b0:	01006424 	addiu	a0,v1,1
1d0178b4:	200004ae 	sw	a0,32(s0)
1d0178b8:	01004224 	addiu	v0,v0,1
1d0178bc:	2120a200 	addu	a0,a1,v0
1d0178c0:	07008490 	lbu	a0,7(a0)
1d0178c4:	2118c300 	addu	v1,a2,v1
1d0178c8:	000064a0 	sb	a0,0(v1)
1d0178cc:	2000038e 	lw	v1,32(s0)
1d0178d0:	2400048e 	lw	a0,36(s0)
1d0178d4:	2b306400 	sltu	a2,v1,a0
1d0178d8:	0300c010 	beqz	a2,0x1d0178e8
1d0178dc:	00000000 	nop
1d0178e0:	f3ff4754 	bnel	v0,a3,0x1d0178b0
1d0178e4:	1800068e 	lw	a2,24(s0)
1d0178e8:	28006414 	bne	v1,a0,0x1d01798c
1d0178ec:	2400bf8f 	lw	ra,36(sp)
1d0178f0:	01000224 	li	v0,1
1d0178f4:	390002a2 	sb	v0,57(s0)
1d0178f8:	625e400b 	j	0x1d017988
1d0178fc:	380000a2 	sb	zero,56(s0)
1d017900:	0d004354 	bnel	v0,v1,0x1d017938
1d017904:	390000a2 	sb	zero,57(s0)
1d017908:	0900a290 	lbu	v0,9(a1)
1d01790c:	0a004054 	bnezl	v0,0x1d017938
1d017910:	390000a2 	sb	zero,57(s0)
1d017914:	1400038e 	lw	v1,20(s0)
1d017918:	1000028e 	lw	v0,16(s0)
1d01791c:	2b106200 	sltu	v0,v1,v0
1d017920:	05004050 	beqzl	v0,0x1d017938
1d017924:	390000a2 	sb	zero,57(s0)
1d017928:	01000224 	li	v0,1
1d01792c:	625e400b 	j	0x1d017988
1d017930:	2a0002a2 	sb	v0,42(s0)
1d017934:	390000a2 	sb	zero,57(s0)
1d017938:	625e400b 	j	0x1d017988
1d01793c:	380000a2 	sb	zero,56(s0)
1d017940:	240002ae 	sw	v0,36(s0)
1d017944:	1c00038e 	lw	v1,28(s0)
1d017948:	2b206200 	sltu	a0,v1,v0
1d01794c:	2eff8050 	beqzl	a0,0x1d017608
1d017950:	2000038e 	lw	v1,32(s0)
1d017954:	985d400b 	j	0x1d017660
1d017958:	00000000 	nop
1d01795c:	240002ae 	sw	v0,36(s0)
1d017960:	1c00038e 	lw	v1,28(s0)
1d017964:	2b206200 	sltu	a0,v1,v0
1d017968:	3dff8014 	bnez	a0,0x1d017660
1d01796c:	00000000 	nop
1d017970:	2000038e 	lw	v1,32(s0)
1d017974:	2b106200 	sltu	v0,v1,v0
1d017978:	35ff4010 	beqz	v0,0x1d017650
1d01797c:	03000224 	li	v0,3
1d017980:	865d400b 	j	0x1d017618
1d017984:	1800068e 	lw	a2,24(s0)
1d017988:	2400bf8f 	lw	ra,36(sp)
1d01798c:	2000b08f 	lw	s0,32(sp)
1d017990:	0800e003 	jr	ra
1d017994:	2800bd27 	addiu	sp,sp,40
1d017998:	d0ffbd27 	addiu	sp,sp,-48
1d01799c:	2c00bfaf 	sw	ra,44(sp)
1d0179a0:	2800b2af 	sw	s2,40(sp)
1d0179a4:	2400b1af 	sw	s1,36(sp)
1d0179a8:	2000b0af 	sw	s0,32(sp)
1d0179ac:	21808000 	move	s0,a0
1d0179b0:	2190a000 	move	s2,a1
1d0179b4:	3400828c 	lw	v0,52(a0)
1d0179b8:	2b384700 	sltu	a3,v0,a3
1d0179bc:	0400e010 	beqz	a3,0x1d0179d0
1d0179c0:	2188c000 	move	s1,a2
1d0179c4:	01004224 	addiu	v0,v0,1
1d0179c8:	795e400b 	j	0x1d0179e4
1d0179cc:	340082ac 	sw	v0,52(a0)
1d0179d0:	38008290 	lbu	v0,56(a0)
1d0179d4:	04004050 	beqzl	v0,0x1d0179e8
1d0179d8:	3000028e 	lw	v0,48(s0)
1d0179dc:	390080a0 	sb	zero,57(a0)
1d0179e0:	380080a0 	sb	zero,56(a0)
1d0179e4:	3000028e 	lw	v0,48(s0)
1d0179e8:	04004050 	beqzl	v0,0x1d0179fc
1d0179ec:	2a000292 	lbu	v0,42(s0)
1d0179f0:	ffff4224 	addiu	v0,v0,-1
1d0179f4:	b85e400b 	j	0x1d017ae0
1d0179f8:	300002ae 	sw	v0,48(s0)
1d0179fc:	39004050 	beqzl	v0,0x1d017ae4
1d017a00:	38000392 	lbu	v1,56(s0)
1d017a04:	1000048e 	lw	a0,16(s0)
1d017a08:	1400028e 	lw	v0,20(s0)
1d017a0c:	2b104400 	sltu	v0,v0,a0
1d017a10:	34004050 	beqzl	v0,0x1d017ae4
1d017a14:	38000392 	lbu	v1,56(s0)
1d017a18:	2c00028e 	lw	v0,44(s0)
1d017a1c:	0900432c 	sltiu	v1,v0,9
1d017a20:	30006050 	beqzl	v1,0x1d017ae4
1d017a24:	38000392 	lbu	v1,56(s0)
1d017a28:	1800a0af 	sw	zero,24(sp)
1d017a2c:	1c00a0af 	sw	zero,28(sp)
1d017a30:	04000596 	lhu	a1,4(s0)
1d017a34:	08000324 	li	v1,8
1d017a38:	1400a3af 	sw	v1,20(sp)
1d017a3c:	21180000 	move	v1,zero
1d017a40:	0450a37c 	ins	v1,a1,0x0,0xb
1d017a44:	1000a3af 	sw	v1,16(sp)
1d017a48:	01004324 	addiu	v1,v0,1
1d017a4c:	2c0003ae 	sw	v1,44(s0)
1d017a50:	21004224 	addiu	v0,v0,33
1d017a54:	1800a2a3 	sb	v0,24(sp)
1d017a58:	1400028e 	lw	v0,20(s0)
1d017a5c:	2b184400 	sltu	v1,v0,a0
1d017a60:	2f006054 	bnezl	v1,0x1d017b20
1d017a64:	0c00038e 	lw	v1,12(s0)
1d017a68:	a95e400b 	j	0x1d017aa4
1d017a6c:	01000224 	li	v0,1
1d017a70:	0c00058e 	lw	a1,12(s0)
1d017a74:	01006624 	addiu	a2,v1,1
1d017a78:	140006ae 	sw	a2,20(s0)
1d017a7c:	2118a300 	addu	v1,a1,v1
1d017a80:	00006590 	lbu	a1,0(v1)
1d017a84:	1000a627 	addiu	a2,sp,16
1d017a88:	2118c200 	addu	v1,a2,v0
1d017a8c:	0c004710 	beq	v0,a3,0x1d017ac0
1d017a90:	070065a0 	sb	a1,7(v1)
1d017a94:	1400038e 	lw	v1,20(s0)
1d017a98:	2b286400 	sltu	a1,v1,a0
1d017a9c:	f4ffa054 	bnezl	a1,0x1d017a70
1d017aa0:	01004224 	addiu	v0,v0,1
1d017aa4:	01004224 	addiu	v0,v0,1
1d017aa8:	1000a427 	addiu	a0,sp,16
1d017aac:	21188200 	addu	v1,a0,v0
1d017ab0:	070060a0 	sb	zero,7(v1)
1d017ab4:	0800432c 	sltiu	v1,v0,8
1d017ab8:	fcff6014 	bnez	v1,0x1d017aac
1d017abc:	01004224 	addiu	v0,v0,1
1d017ac0:	0000028e 	lw	v0,0(s0)
1d017ac4:	09f84000 	jalr	v0
1d017ac8:	1000a427 	addiu	a0,sp,16
1d017acc:	03004014 	bnez	v0,0x1d017adc
1d017ad0:	09000224 	li	v0,9
1d017ad4:	390000a2 	sb	zero,57(s0)
1d017ad8:	380000a2 	sb	zero,56(s0)
1d017adc:	300002ae 	sw	v0,48(s0)
1d017ae0:	38000392 	lbu	v1,56(s0)
1d017ae4:	16006014 	bnez	v1,0x1d017b40
1d017ae8:	21100000 	move	v0,zero
1d017aec:	03004012 	beqz	s2,0x1d017afc
1d017af0:	00000000 	nop
1d017af4:	39000292 	lbu	v0,57(s0)
1d017af8:	000042a2 	sb	v0,0(s2)
1d017afc:	10002052 	beqzl	s1,0x1d017b40
1d017b00:	01000224 	li	v0,1
1d017b04:	39000392 	lbu	v1,57(s0)
1d017b08:	02006010 	beqz	v1,0x1d017b14
1d017b0c:	21100000 	move	v0,zero
1d017b10:	2400028e 	lw	v0,36(s0)
1d017b14:	000022ae 	sw	v0,0(s1)
1d017b18:	d05e400b 	j	0x1d017b40
1d017b1c:	01000224 	li	v0,1
1d017b20:	01004524 	addiu	a1,v0,1
1d017b24:	140005ae 	sw	a1,20(s0)
1d017b28:	21106200 	addu	v0,v1,v0
1d017b2c:	00004290 	lbu	v0,0(v0)
1d017b30:	1900a2a3 	sb	v0,25(sp)
1d017b34:	02000224 	li	v0,2
1d017b38:	a55e400b 	j	0x1d017a94
1d017b3c:	08000724 	li	a3,8
1d017b40:	2c00bf8f 	lw	ra,44(sp)
1d017b44:	2800b28f 	lw	s2,40(sp)
1d017b48:	2400b18f 	lw	s1,36(sp)
1d017b4c:	2000b08f 	lw	s0,32(sp)
1d017b50:	0800e003 	jr	ra
1d017b54:	3000bd27 	addiu	sp,sp,48

Disassembly of section .sec72:

1d017b58 <.sec72>:
1d017b58:	301088bf 	cache	0x8,4144(gp)
1d017b5c:	601088bf 	cache	0x8,4192(gp)
1d017b60:	01000000 	movf	zero,zero,$fcc0
1d017b64:	301088bf 	cache	0x8,4144(gp)
1d017b68:	601088bf 	cache	0x8,4192(gp)
1d017b6c:	02000000 	srl	zero,zero,0x0
1d017b70:	301088bf 	cache	0x8,4144(gp)
1d017b74:	601088bf 	cache	0x8,4192(gp)
1d017b78:	04000000 	sllv	zero,zero,zero
1d017b7c:	301088bf 	cache	0x8,4144(gp)
1d017b80:	601088bf 	cache	0x8,4192(gp)
1d017b84:	08000000 	jr	zero
1d017b88:	301088bf 	cache	0x8,4144(gp)
1d017b8c:	601088bf 	cache	0x8,4192(gp)
1d017b90:	80000000 	sll	zero,zero,0x2
1d017b94:	301088bf 	cache	0x8,4144(gp)
1d017b98:	601088bf 	cache	0x8,4192(gp)
1d017b9c:	00080000 	sll	at,zero,0x0
1d017ba0:	301088bf 	cache	0x8,4144(gp)
1d017ba4:	601088bf 	cache	0x8,4192(gp)
1d017ba8:	00800000 	sll	s0,zero,0x0
1d017bac:	301088bf 	cache	0x8,4144(gp)
1d017bb0:	601088bf 	cache	0x8,4192(gp)
1d017bb4:	00000800 	sll	zero,t0,0x0
1d017bb8:	301088bf 	cache	0x8,4144(gp)
1d017bbc:	601088bf 	cache	0x8,4192(gp)
1d017bc0:	10000000 	mfhi	zero
1d017bc4:	301088bf 	cache	0x8,4144(gp)
1d017bc8:	601088bf 	cache	0x8,4192(gp)
1d017bcc:	00010000 	sll	zero,zero,0x4
1d017bd0:	301088bf 	cache	0x8,4144(gp)
1d017bd4:	601088bf 	cache	0x8,4192(gp)
1d017bd8:	00100000 	sll	v0,zero,0x0
1d017bdc:	301088bf 	cache	0x8,4144(gp)
1d017be0:	601088bf 	cache	0x8,4192(gp)
1d017be4:	00000100 	sll	zero,at,0x0
1d017be8:	301088bf 	cache	0x8,4144(gp)
1d017bec:	601088bf 	cache	0x8,4192(gp)
1d017bf0:	00001000 	sll	zero,s0,0x0
1d017bf4:	301088bf 	cache	0x8,4144(gp)
1d017bf8:	601088bf 	cache	0x8,4192(gp)
1d017bfc:	20000000 	add	zero,zero,zero
1d017c00:	301088bf 	cache	0x8,4144(gp)
1d017c04:	601088bf 	cache	0x8,4192(gp)
1d017c08:	00020000 	sll	zero,zero,0x8
1d017c0c:	301088bf 	cache	0x8,4144(gp)
1d017c10:	601088bf 	cache	0x8,4192(gp)
1d017c14:	00200000 	sll	a0,zero,0x0
1d017c18:	301088bf 	cache	0x8,4144(gp)
1d017c1c:	601088bf 	cache	0x8,4192(gp)
1d017c20:	00000200 	sll	zero,v0,0x0
1d017c24:	301088bf 	cache	0x8,4144(gp)
1d017c28:	601088bf 	cache	0x8,4192(gp)
1d017c2c:	00002000 	0x200000
1d017c30:	401088bf 	cache	0x8,4160(gp)
1d017c34:	701088bf 	cache	0x8,4208(gp)
1d017c38:	00000020 	addi	zero,zero,0
1d017c3c:	401088bf 	cache	0x8,4160(gp)
1d017c40:	701088bf 	cache	0x8,4208(gp)
1d017c44:	00000040 	mfc0	zero,c0_index
1d017c48:	401088bf 	cache	0x8,4160(gp)
1d017c4c:	701088bf 	cache	0x8,4208(gp)
1d017c50:	00000080 	lb	zero,0(zero)
1d017c54:	501088bf 	cache	0x8,4176(gp)
1d017c58:	801088bf 	cache	0x8,4224(gp)
1d017c5c:	01000000 	movf	zero,zero,$fcc0
1d017c60:	501088bf 	cache	0x8,4176(gp)
1d017c64:	801088bf 	cache	0x8,4224(gp)
1d017c68:	02000000 	srl	zero,zero,0x0
1d017c6c:	301088bf 	cache	0x8,4144(gp)
1d017c70:	601088bf 	cache	0x8,4192(gp)
1d017c74:	40000000 	ssnop
1d017c78:	301088bf 	cache	0x8,4144(gp)
1d017c7c:	601088bf 	cache	0x8,4192(gp)
1d017c80:	00040000 	sll	zero,zero,0x10
1d017c84:	301088bf 	cache	0x8,4144(gp)
1d017c88:	601088bf 	cache	0x8,4192(gp)
1d017c8c:	00400000 	sll	t0,zero,0x0
1d017c90:	301088bf 	cache	0x8,4144(gp)
1d017c94:	601088bf 	cache	0x8,4192(gp)
1d017c98:	00000400 	sll	zero,a0,0x0
1d017c9c:	301088bf 	cache	0x8,4144(gp)
1d017ca0:	601088bf 	cache	0x8,4192(gp)
1d017ca4:	00004000 	0x400000
1d017ca8:	401088bf 	cache	0x8,4160(gp)
1d017cac:	701088bf 	cache	0x8,4208(gp)
1d017cb0:	01000000 	movf	zero,zero,$fcc0
	...
1d017cc0:	401088bf 	cache	0x8,4160(gp)
1d017cc4:	701088bf 	cache	0x8,4208(gp)
1d017cc8:	e0000000 	0xe0
1d017ccc:	301088bf 	cache	0x8,4144(gp)
1d017cd0:	601088bf 	cache	0x8,4192(gp)
1d017cd4:	0000001c 	bgtz	zero,0x1d017cd8
1d017cd8:	401088bf 	cache	0x8,4160(gp)
1d017cdc:	701088bf 	cache	0x8,4208(gp)
1d017ce0:	00070000 	sll	zero,zero,0x1c
	...
1d017cf0:	401088bf 	cache	0x8,4160(gp)
1d017cf4:	701088bf 	cache	0x8,4208(gp)
1d017cf8:	20000000 	add	zero,zero,zero
1d017cfc:	301088bf 	cache	0x8,4144(gp)
1d017d00:	601088bf 	cache	0x8,4192(gp)
1d017d04:	00000004 	bltz	zero,0x1d017d08
1d017d08:	401088bf 	cache	0x8,4160(gp)
1d017d0c:	701088bf 	cache	0x8,4208(gp)
1d017d10:	00010000 	sll	zero,zero,0x4
	...
1d017d20:	401088bf 	cache	0x8,4160(gp)
1d017d24:	701088bf 	cache	0x8,4208(gp)
1d017d28:	80000000 	sll	zero,zero,0x2
1d017d2c:	301088bf 	cache	0x8,4144(gp)
1d017d30:	601088bf 	cache	0x8,4192(gp)
1d017d34:	00000010 	b	0x1d017d38
1d017d38:	401088bf 	cache	0x8,4160(gp)
1d017d3c:	701088bf 	cache	0x8,4208(gp)
1d017d40:	00040000 	sll	zero,zero,0x10
	...
1d017d50:	401088bf 	cache	0x8,4160(gp)
1d017d54:	701088bf 	cache	0x8,4208(gp)
1d017d58:	40000000 	ssnop
1d017d5c:	301088bf 	cache	0x8,4144(gp)
1d017d60:	601088bf 	cache	0x8,4192(gp)
1d017d64:	00000008 	j	0x10000000
1d017d68:	401088bf 	cache	0x8,4160(gp)
1d017d6c:	701088bf 	cache	0x8,4208(gp)
1d017d70:	00020000 	sll	zero,zero,0x8
1d017d74:	301088bf 	cache	0x8,4144(gp)
1d017d78:	601088bf 	cache	0x8,4192(gp)
1d017d7c:	000000e0 	sc	zero,0(zero)
	...
1d017d8c:	301088bf 	cache	0x8,4144(gp)
1d017d90:	601088bf 	cache	0x8,4192(gp)
1d017d94:	0000001c 	bgtz	zero,0x1d017d98
1d017d98:	401088bf 	cache	0x8,4160(gp)
1d017d9c:	701088bf 	cache	0x8,4208(gp)
1d017da0:	e0000000 	0xe0
1d017da4:	401088bf 	cache	0x8,4160(gp)
1d017da8:	701088bf 	cache	0x8,4208(gp)
1d017dac:	00070000 	sll	zero,zero,0x1c
1d017db0:	301088bf 	cache	0x8,4144(gp)
1d017db4:	601088bf 	cache	0x8,4192(gp)
1d017db8:	00000020 	addi	zero,zero,0
	...
1d017dc8:	301088bf 	cache	0x8,4144(gp)
1d017dcc:	601088bf 	cache	0x8,4192(gp)
1d017dd0:	00000004 	bltz	zero,0x1d017dd4
1d017dd4:	401088bf 	cache	0x8,4160(gp)
1d017dd8:	701088bf 	cache	0x8,4208(gp)
1d017ddc:	20000000 	add	zero,zero,zero
1d017de0:	401088bf 	cache	0x8,4160(gp)
1d017de4:	701088bf 	cache	0x8,4208(gp)
1d017de8:	00010000 	sll	zero,zero,0x4
1d017dec:	301088bf 	cache	0x8,4144(gp)
1d017df0:	601088bf 	cache	0x8,4192(gp)
1d017df4:	00000040 	mfc0	zero,c0_index
	...
1d017e04:	301088bf 	cache	0x8,4144(gp)
1d017e08:	601088bf 	cache	0x8,4192(gp)
1d017e0c:	00000008 	j	0x10000000
1d017e10:	401088bf 	cache	0x8,4160(gp)
1d017e14:	701088bf 	cache	0x8,4208(gp)
1d017e18:	40000000 	ssnop
1d017e1c:	401088bf 	cache	0x8,4160(gp)
1d017e20:	701088bf 	cache	0x8,4208(gp)
1d017e24:	00020000 	sll	zero,zero,0x8
1d017e28:	301088bf 	cache	0x8,4144(gp)
1d017e2c:	601088bf 	cache	0x8,4192(gp)
1d017e30:	00000080 	lb	zero,0(zero)
	...
1d017e40:	301088bf 	cache	0x8,4144(gp)
1d017e44:	601088bf 	cache	0x8,4192(gp)
1d017e48:	00000010 	b	0x1d017e4c
1d017e4c:	401088bf 	cache	0x8,4160(gp)
1d017e50:	701088bf 	cache	0x8,4208(gp)
1d017e54:	80000000 	sll	zero,zero,0x2
1d017e58:	401088bf 	cache	0x8,4160(gp)
1d017e5c:	701088bf 	cache	0x8,4208(gp)
1d017e60:	00040000 	sll	zero,zero,0x10
1d017e64:	301088bf 	cache	0x8,4144(gp)
1d017e68:	601088bf 	cache	0x8,4192(gp)
1d017e6c:	0000001c 	bgtz	zero,0x1d017e70
1d017e70:	401088bf 	cache	0x8,4160(gp)
1d017e74:	701088bf 	cache	0x8,4208(gp)
1d017e78:	00070000 	sll	zero,zero,0x1c
1d017e7c:	401088bf 	cache	0x8,4160(gp)
1d017e80:	701088bf 	cache	0x8,4208(gp)
1d017e84:	e0000000 	0xe0
1d017e88:	501088bf 	cache	0x8,4176(gp)
1d017e8c:	801088bf 	cache	0x8,4224(gp)
1d017e90:	38000000 	0x38
1d017e94:	501088bf 	cache	0x8,4176(gp)
1d017e98:	801088bf 	cache	0x8,4224(gp)
1d017e9c:	000e0000 	sll	at,zero,0x18
1d017ea0:	501088bf 	cache	0x8,4176(gp)
1d017ea4:	801088bf 	cache	0x8,4224(gp)
1d017ea8:	c0010000 	sll	zero,zero,0x7
1d017eac:	301088bf 	cache	0x8,4144(gp)
1d017eb0:	601088bf 	cache	0x8,4192(gp)
1d017eb4:	00000004 	bltz	zero,0x1d017eb8
1d017eb8:	401088bf 	cache	0x8,4160(gp)
1d017ebc:	701088bf 	cache	0x8,4208(gp)
1d017ec0:	00010000 	sll	zero,zero,0x4
1d017ec4:	401088bf 	cache	0x8,4160(gp)
1d017ec8:	701088bf 	cache	0x8,4208(gp)
1d017ecc:	20000000 	add	zero,zero,zero
1d017ed0:	501088bf 	cache	0x8,4176(gp)
1d017ed4:	801088bf 	cache	0x8,4224(gp)
1d017ed8:	08000000 	jr	zero
1d017edc:	501088bf 	cache	0x8,4176(gp)
1d017ee0:	801088bf 	cache	0x8,4224(gp)
1d017ee4:	00020000 	sll	zero,zero,0x8
1d017ee8:	501088bf 	cache	0x8,4176(gp)
1d017eec:	801088bf 	cache	0x8,4224(gp)
1d017ef0:	40000000 	ssnop
1d017ef4:	301088bf 	cache	0x8,4144(gp)
1d017ef8:	601088bf 	cache	0x8,4192(gp)
1d017efc:	00000008 	j	0x10000000
1d017f00:	401088bf 	cache	0x8,4160(gp)
1d017f04:	701088bf 	cache	0x8,4208(gp)
1d017f08:	00020000 	sll	zero,zero,0x8
1d017f0c:	401088bf 	cache	0x8,4160(gp)
1d017f10:	701088bf 	cache	0x8,4208(gp)
1d017f14:	40000000 	ssnop
1d017f18:	501088bf 	cache	0x8,4176(gp)
1d017f1c:	801088bf 	cache	0x8,4224(gp)
1d017f20:	10000000 	mfhi	zero
1d017f24:	501088bf 	cache	0x8,4176(gp)
1d017f28:	801088bf 	cache	0x8,4224(gp)
1d017f2c:	00040000 	sll	zero,zero,0x10
1d017f30:	501088bf 	cache	0x8,4176(gp)
1d017f34:	801088bf 	cache	0x8,4224(gp)
1d017f38:	80000000 	sll	zero,zero,0x2
1d017f3c:	301088bf 	cache	0x8,4144(gp)
1d017f40:	601088bf 	cache	0x8,4192(gp)
1d017f44:	00000010 	b	0x1d017f48
1d017f48:	401088bf 	cache	0x8,4160(gp)
1d017f4c:	701088bf 	cache	0x8,4208(gp)
1d017f50:	00040000 	sll	zero,zero,0x10
1d017f54:	401088bf 	cache	0x8,4160(gp)
1d017f58:	701088bf 	cache	0x8,4208(gp)
1d017f5c:	80000000 	sll	zero,zero,0x2
1d017f60:	501088bf 	cache	0x8,4176(gp)
1d017f64:	801088bf 	cache	0x8,4224(gp)
1d017f68:	20000000 	add	zero,zero,zero
1d017f6c:	501088bf 	cache	0x8,4176(gp)
1d017f70:	801088bf 	cache	0x8,4224(gp)
1d017f74:	00080000 	sll	at,zero,0x0
1d017f78:	501088bf 	cache	0x8,4176(gp)
1d017f7c:	801088bf 	cache	0x8,4224(gp)
1d017f80:	00010000 	sll	zero,zero,0x4
1d017f84:	401088bf 	cache	0x8,4160(gp)
1d017f88:	701088bf 	cache	0x8,4208(gp)
1d017f8c:	02000000 	srl	zero,zero,0x0
1d017f90:	401088bf 	cache	0x8,4160(gp)
1d017f94:	701088bf 	cache	0x8,4208(gp)
1d017f98:	04000000 	sllv	zero,zero,zero
1d017f9c:	501088bf 	cache	0x8,4176(gp)
1d017fa0:	801088bf 	cache	0x8,4224(gp)
1d017fa4:	04000000 	sllv	zero,zero,zero
1d017fa8:	401088bf 	cache	0x8,4160(gp)
1d017fac:	701088bf 	cache	0x8,4208(gp)
1d017fb0:	08000000 	jr	zero
1d017fb4:	401088bf 	cache	0x8,4160(gp)
1d017fb8:	701088bf 	cache	0x8,4208(gp)
1d017fbc:	10000000 	mfhi	zero
1d017fc0:	401088bf 	cache	0x8,4160(gp)
1d017fc4:	701088bf 	cache	0x8,4208(gp)
1d017fc8:	00400000 	sll	t0,zero,0x0
1d017fcc:	401088bf 	cache	0x8,4160(gp)
1d017fd0:	701088bf 	cache	0x8,4208(gp)
1d017fd4:	00000001 	0x1000000
1d017fd8:	401088bf 	cache	0x8,4160(gp)
1d017fdc:	701088bf 	cache	0x8,4208(gp)
1d017fe0:	00800000 	sll	s0,zero,0x0
1d017fe4:	401088bf 	cache	0x8,4160(gp)
1d017fe8:	701088bf 	cache	0x8,4208(gp)
1d017fec:	00000100 	sll	zero,at,0x0
1d017ff0:	401088bf 	cache	0x8,4160(gp)
1d017ff4:	701088bf 	cache	0x8,4208(gp)
1d017ff8:	00000200 	sll	zero,v0,0x0
1d017ffc:	401088bf 	cache	0x8,4160(gp)
1d018000:	701088bf 	cache	0x8,4208(gp)
1d018004:	00000400 	sll	zero,a0,0x0
1d018008:	401088bf 	cache	0x8,4160(gp)
1d01800c:	701088bf 	cache	0x8,4208(gp)
1d018010:	00000800 	sll	zero,t0,0x0
1d018014:	401088bf 	cache	0x8,4160(gp)
1d018018:	701088bf 	cache	0x8,4208(gp)
1d01801c:	00001000 	sll	zero,s0,0x0
1d018020:	401088bf 	cache	0x8,4160(gp)
1d018024:	701088bf 	cache	0x8,4208(gp)
1d018028:	00002000 	0x200000
1d01802c:	401088bf 	cache	0x8,4160(gp)
1d018030:	701088bf 	cache	0x8,4208(gp)
1d018034:	00004000 	0x400000
1d018038:	401088bf 	cache	0x8,4160(gp)
1d01803c:	701088bf 	cache	0x8,4208(gp)
1d018040:	00008000 	0x800000
1d018044:	401088bf 	cache	0x8,4160(gp)
1d018048:	701088bf 	cache	0x8,4208(gp)
1d01804c:	00000002 	0x2000000
1d018050:	401088bf 	cache	0x8,4160(gp)
1d018054:	701088bf 	cache	0x8,4208(gp)
1d018058:	00000004 	bltz	zero,0x1d01805c
1d01805c:	401088bf 	cache	0x8,4160(gp)
1d018060:	701088bf 	cache	0x8,4208(gp)
1d018064:	00000008 	j	0x10000000
1d018068:	401088bf 	cache	0x8,4160(gp)
1d01806c:	701088bf 	cache	0x8,4208(gp)
1d018070:	00000010 	b	0x1d018074
1d018074:	901088bf 	cache	0x8,4240(gp)
1d018078:	00000000 	nop
1d01807c:	02000000 	srl	zero,zero,0x0
1d018080:	901088bf 	cache	0x8,4240(gp)
1d018084:	08000000 	jr	zero
1d018088:	0a000000 	movz	zero,zero,zero
1d01808c:	901088bf 	cache	0x8,4240(gp)
1d018090:	10000000 	mfhi	zero
1d018094:	12000000 	mflo	zero
1d018098:	901088bf 	cache	0x8,4240(gp)
1d01809c:	18000000 	mult	zero,zero
1d0180a0:	1a000000 	div	zero,zero,zero
1d0180a4:	a01088bf 	cache	0x8,4256(gp)
1d0180a8:	18000000 	mult	zero,zero
1d0180ac:	1a000000 	div	zero,zero,zero
1d0180b0:	b01088bf 	cache	0x8,4272(gp)
1d0180b4:	18000000 	mult	zero,zero
1d0180b8:	1a000000 	div	zero,zero,zero
1d0180bc:	c01088bf 	cache	0x8,4288(gp)
1d0180c0:	18000000 	mult	zero,zero
1d0180c4:	1a000000 	div	zero,zero,zero
1d0180c8:	d01088bf 	cache	0x8,4304(gp)
1d0180cc:	18000000 	mult	zero,zero
1d0180d0:	1a000000 	div	zero,zero,zero
1d0180d4:	a01088bf 	cache	0x8,4256(gp)
1d0180d8:	00000000 	nop
1d0180dc:	02000000 	srl	zero,zero,0x0
1d0180e0:	b01088bf 	cache	0x8,4272(gp)
1d0180e4:	00000000 	nop
1d0180e8:	02000000 	srl	zero,zero,0x0
1d0180ec:	c01088bf 	cache	0x8,4288(gp)
1d0180f0:	00000000 	nop
1d0180f4:	02000000 	srl	zero,zero,0x0
1d0180f8:	d01088bf 	cache	0x8,4304(gp)
1d0180fc:	00000000 	nop
1d018100:	02000000 	srl	zero,zero,0x0
1d018104:	e01088bf 	cache	0x8,4320(gp)
1d018108:	00000000 	nop
1d01810c:	02000000 	srl	zero,zero,0x0
1d018110:	a01088bf 	cache	0x8,4256(gp)
1d018114:	08000000 	jr	zero
1d018118:	0a000000 	movz	zero,zero,zero
1d01811c:	b01088bf 	cache	0x8,4272(gp)
1d018120:	08000000 	jr	zero
1d018124:	0a000000 	movz	zero,zero,zero
1d018128:	c01088bf 	cache	0x8,4288(gp)
1d01812c:	08000000 	jr	zero
1d018130:	0a000000 	movz	zero,zero,zero
1d018134:	d01088bf 	cache	0x8,4304(gp)
1d018138:	08000000 	jr	zero
1d01813c:	0a000000 	movz	zero,zero,zero
1d018140:	e01088bf 	cache	0x8,4320(gp)
1d018144:	08000000 	jr	zero
1d018148:	0a000000 	movz	zero,zero,zero
1d01814c:	a01088bf 	cache	0x8,4256(gp)
1d018150:	10000000 	mfhi	zero
1d018154:	12000000 	mflo	zero
1d018158:	b01088bf 	cache	0x8,4272(gp)
1d01815c:	10000000 	mfhi	zero
1d018160:	12000000 	mflo	zero
1d018164:	c01088bf 	cache	0x8,4288(gp)
1d018168:	10000000 	mfhi	zero
1d01816c:	12000000 	mflo	zero
1d018170:	d01088bf 	cache	0x8,4304(gp)
1d018174:	10000000 	mfhi	zero
1d018178:	12000000 	mflo	zero
1d01817c:	e01088bf 	cache	0x8,4320(gp)
1d018180:	10000000 	mfhi	zero
1d018184:	12000000 	mflo	zero
	...
1d018194:	001188bf 	cache	0x8,4352(gp)
1d018198:	18000000 	mult	zero,zero
1d01819c:	1a000000 	div	zero,zero,zero
1d0181a0:	f01088bf 	cache	0x8,4336(gp)
1d0181a4:	00000000 	nop
1d0181a8:	02000000 	srl	zero,zero,0x0
1d0181ac:	101188bf 	cache	0x8,4368(gp)
1d0181b0:	00000000 	nop
1d0181b4:	02000000 	srl	zero,zero,0x0
1d0181b8:	f01088bf 	cache	0x8,4336(gp)
1d0181bc:	00000000 	nop
1d0181c0:	02000000 	srl	zero,zero,0x0
1d0181c4:	101188bf 	cache	0x8,4368(gp)
1d0181c8:	00000000 	nop
1d0181cc:	02000000 	srl	zero,zero,0x0
1d0181d0:	001188bf 	cache	0x8,4352(gp)
1d0181d4:	18000000 	mult	zero,zero
1d0181d8:	1a000000 	div	zero,zero,zero
1d0181dc:	501188bf 	cache	0x8,4432(gp)
1d0181e0:	08000000 	jr	zero
1d0181e4:	0a000000 	movz	zero,zero,zero
1d0181e8:	501188bf 	cache	0x8,4432(gp)
1d0181ec:	18000000 	mult	zero,zero
1d0181f0:	1a000000 	div	zero,zero,zero
1d0181f4:	501188bf 	cache	0x8,4432(gp)
1d0181f8:	10000000 	mfhi	zero
1d0181fc:	12000000 	mflo	zero
1d018200:	f01088bf 	cache	0x8,4336(gp)
1d018204:	08000000 	jr	zero
1d018208:	0a000000 	movz	zero,zero,zero
	...
1d018218:	f01088bf 	cache	0x8,4336(gp)
1d01821c:	00000000 	nop
1d018220:	02000000 	srl	zero,zero,0x0
1d018224:	001188bf 	cache	0x8,4352(gp)
1d018228:	18000000 	mult	zero,zero
1d01822c:	1a000000 	div	zero,zero,zero
1d018230:	101188bf 	cache	0x8,4368(gp)
1d018234:	00000000 	nop
1d018238:	02000000 	srl	zero,zero,0x0
1d01823c:	f01088bf 	cache	0x8,4336(gp)
1d018240:	10000000 	mfhi	zero
1d018244:	12000000 	mflo	zero
1d018248:	f01088bf 	cache	0x8,4336(gp)
1d01824c:	18000000 	mult	zero,zero
1d018250:	1a000000 	div	zero,zero,zero
1d018254:	001188bf 	cache	0x8,4352(gp)
1d018258:	00000000 	nop
1d01825c:	02000000 	srl	zero,zero,0x0
1d018260:	001188bf 	cache	0x8,4352(gp)
1d018264:	08000000 	jr	zero
1d018268:	0a000000 	movz	zero,zero,zero
1d01826c:	001188bf 	cache	0x8,4352(gp)
1d018270:	10000000 	mfhi	zero
1d018274:	12000000 	mflo	zero
1d018278:	101188bf 	cache	0x8,4368(gp)
1d01827c:	10000000 	mfhi	zero
1d018280:	12000000 	mflo	zero
1d018284:	101188bf 	cache	0x8,4368(gp)
1d018288:	18000000 	mult	zero,zero
1d01828c:	1a000000 	div	zero,zero,zero
1d018290:	201188bf 	cache	0x8,4384(gp)
1d018294:	00000000 	nop
1d018298:	02000000 	srl	zero,zero,0x0
1d01829c:	201188bf 	cache	0x8,4384(gp)
1d0182a0:	08000000 	jr	zero
1d0182a4:	0a000000 	movz	zero,zero,zero
1d0182a8:	201188bf 	cache	0x8,4384(gp)
1d0182ac:	10000000 	mfhi	zero
1d0182b0:	12000000 	mflo	zero
1d0182b4:	201188bf 	cache	0x8,4384(gp)
1d0182b8:	18000000 	mult	zero,zero
1d0182bc:	1a000000 	div	zero,zero,zero
1d0182c0:	301188bf 	cache	0x8,4400(gp)
1d0182c4:	00000000 	nop
1d0182c8:	02000000 	srl	zero,zero,0x0
1d0182cc:	301188bf 	cache	0x8,4400(gp)
1d0182d0:	08000000 	jr	zero
1d0182d4:	0a000000 	movz	zero,zero,zero
1d0182d8:	301188bf 	cache	0x8,4400(gp)
1d0182dc:	10000000 	mfhi	zero
1d0182e0:	12000000 	mflo	zero
1d0182e4:	301188bf 	cache	0x8,4400(gp)
1d0182e8:	18000000 	mult	zero,zero
1d0182ec:	1a000000 	div	zero,zero,zero
1d0182f0:	401188bf 	cache	0x8,4416(gp)
1d0182f4:	00000000 	nop
1d0182f8:	02000000 	srl	zero,zero,0x0
1d0182fc:	401188bf 	cache	0x8,4416(gp)
1d018300:	08000000 	jr	zero
1d018304:	0a000000 	movz	zero,zero,zero
1d018308:	401188bf 	cache	0x8,4416(gp)
1d01830c:	10000000 	mfhi	zero
1d018310:	12000000 	mflo	zero
1d018314:	401188bf 	cache	0x8,4416(gp)
1d018318:	18000000 	mult	zero,zero
1d01831c:	1a000000 	div	zero,zero,zero
1d018320:	501188bf 	cache	0x8,4432(gp)
1d018324:	00000000 	nop
1d018328:	02000000 	srl	zero,zero,0x0

Disassembly of section .sec73:

1d01832c <.sec73>:
1d01832c:	88bf023c 	lui	v0,0xbf88
1d018330:	5060428c 	lw	v0,24656(v0)
1d018334:	0800e003 	jr	ra
1d018338:	c002427c 	ext	v0,v0,0xb,0x1
1d01833c:	41808293 	lbu	v0,-32703(gp)
1d018340:	0d004014 	bnez	v0,0x1d018378
1d018344:	00000000 	nop
1d018348:	05008010 	beqz	a0,0x1d018360
1d01834c:	10000324 	li	v1,16
1d018350:	88bf023c 	lui	v0,0xbf88
1d018354:	686043ac 	sw	v1,24680(v0)
1d018358:	db60400b 	j	0x1d01836c
1d01835c:	10000324 	li	v1,16
1d018360:	88bf023c 	lui	v0,0xbf88
1d018364:	646043ac 	sw	v1,24676(v0)
1d018368:	10000324 	li	v1,16
1d01836c:	88bf023c 	lui	v0,0xbf88
1d018370:	446043ac 	sw	v1,24644(v0)
1d018374:	408084a3 	sb	a0,-32704(gp)
1d018378:	0800e003 	jr	ra
1d01837c:	00000000 	nop
1d018380:	01000224 	li	v0,1
1d018384:	06008010 	beqz	a0,0x1d0183a0
1d018388:	418082a3 	sb	v0,-32703(gp)
1d01838c:	10000324 	li	v1,16
1d018390:	88bf023c 	lui	v0,0xbf88
1d018394:	686043ac 	sw	v1,24680(v0)
1d018398:	ec60400b 	j	0x1d0183b0
1d01839c:	10000324 	li	v1,16
1d0183a0:	10000324 	li	v1,16
1d0183a4:	88bf023c 	lui	v0,0xbf88
1d0183a8:	646043ac 	sw	v1,24676(v0)
1d0183ac:	10000324 	li	v1,16
1d0183b0:	88bf023c 	lui	v0,0xbf88
1d0183b4:	446043ac 	sw	v1,24644(v0)
1d0183b8:	0800e003 	jr	ra
1d0183bc:	408084a3 	sb	a0,-32704(gp)
1d0183c0:	0800e003 	jr	ra
1d0183c4:	40808293 	lbu	v0,-32704(gp)
1d0183c8:	d0ffbd27 	addiu	sp,sp,-48
1d0183cc:	2c00bfaf 	sw	ra,44(sp)
1d0183d0:	2800b5af 	sw	s5,40(sp)
1d0183d4:	2400b4af 	sw	s4,36(sp)
1d0183d8:	2000b3af 	sw	s3,32(sp)
1d0183dc:	1c00b2af 	sw	s2,28(sp)
1d0183e0:	1800b1af 	sw	s1,24(sp)
1d0183e4:	1400b0af 	sw	s0,20(sp)
1d0183e8:	01a0123c 	lui	s2,0xa001
1d0183ec:	b03340a2 	sb	zero,13232(s2)
1d0183f0:	88bf153c 	lui	s5,0xbf88
1d0183f4:	1000113c 	lui	s1,0x10
1d0183f8:	6410b1ae 	sw	s1,4196(s5)
1d0183fc:	00801334 	li	s3,0x8000
1d018400:	80bf023c 	lui	v0,0xbf80
1d018404:	040e53ac 	sw	s3,3588(v0)
1d018408:	88bf143c 	lui	s4,0xbf88
1d01840c:	02001024 	li	s0,2
1d018410:	741090ae 	sw	s0,4212(s4)
1d018414:	81bf023c 	lui	v0,0xbf81
1d018418:	049053ac 	sw	s3,-28668(v0)
1d01841c:	b0334226 	addiu	v0,s2,13232
1d018420:	010040a0 	sb	zero,1(v0)
1d018424:	f36c400f 	jal	0x1d01b3cc
1d018428:	03000424 	li	a0,3
1d01842c:	30000324 	li	v1,48
1d018430:	80bf023c 	lui	v0,0xbf80
1d018434:	000e43ac 	sw	v1,3584(v0)
1d018438:	80bf023c 	lui	v0,0xbf80
1d01843c:	100e40ac 	sw	zero,3600(v0)
1d018440:	e2040324 	li	v1,1250
1d018444:	80bf023c 	lui	v0,0xbf80
1d018448:	200e43ac 	sw	v1,3616(v0)
1d01844c:	80bf023c 	lui	v0,0xbf80
1d018450:	080e53ac 	sw	s3,3592(v0)
1d018454:	88bf023c 	lui	v0,0xbf88
1d018458:	341051ac 	sw	s1,4148(v0)
1d01845c:	88bf033c 	lui	v1,0xbf88
1d018460:	1c000224 	li	v0,28
1d018464:	e41062ac 	sw	v0,4324(v1)
1d018468:	88bf023c 	lui	v0,0xbf88
1d01846c:	08000424 	li	a0,8
1d018470:	e81044ac 	sw	a0,4328(v0)
1d018474:	03000424 	li	a0,3
1d018478:	e41064ac 	sw	a0,4324(v1)
1d01847c:	e81040ac 	sw	zero,4328(v0)
1d018480:	6410b1ae 	sw	s1,4196(s5)
1d018484:	88bf023c 	lui	v0,0xbf88
1d018488:	681051ac 	sw	s1,4200(v0)
1d01848c:	88bf023c 	lui	v0,0xbf88
1d018490:	441050ac 	sw	s0,4164(v0)
1d018494:	88bf033c 	lui	v1,0xbf88
1d018498:	001c023c 	lui	v0,0x1c00
1d01849c:	f41062ac 	sw	v0,4340(v1)
1d0184a0:	88bf023c 	lui	v0,0xbf88
1d0184a4:	000c043c 	lui	a0,0xc00
1d0184a8:	f81044ac 	sw	a0,4344(v0)
1d0184ac:	0003043c 	lui	a0,0x300
1d0184b0:	f41064ac 	sw	a0,4340(v1)
1d0184b4:	f81040ac 	sw	zero,4344(v0)
1d0184b8:	741090ae 	sw	s0,4212(s4)
1d0184bc:	88bf023c 	lui	v0,0xbf88
1d0184c0:	781050ac 	sw	s0,4216(v0)
1d0184c4:	01000224 	li	v0,1
1d0184c8:	b03342a2 	sb	v0,13232(s2)
1d0184cc:	2c00bf8f 	lw	ra,44(sp)
1d0184d0:	2800b58f 	lw	s5,40(sp)
1d0184d4:	2400b48f 	lw	s4,36(sp)
1d0184d8:	2000b38f 	lw	s3,32(sp)
1d0184dc:	1c00b28f 	lw	s2,28(sp)
1d0184e0:	1800b18f 	lw	s1,24(sp)
1d0184e4:	1400b08f 	lw	s0,20(sp)
1d0184e8:	0800e003 	jr	ra
1d0184ec:	3000bd27 	addiu	sp,sp,48
1d0184f0:	e8ffbd27 	addiu	sp,sp,-24
1d0184f4:	1400bfaf 	sw	ra,20(sp)
1d0184f8:	01a0023c 	lui	v0,0xa001
1d0184fc:	b0334290 	lbu	v0,13232(v0)
1d018500:	ff004230 	andi	v0,v0,0xff
1d018504:	04004014 	bnez	v0,0x1d018518
1d018508:	01a0023c 	lui	v0,0xa001
1d01850c:	f260400f 	jal	0x1d0183c8
1d018510:	00000000 	nop
1d018514:	01a0023c 	lui	v0,0xa001
1d018518:	b0334224 	addiu	v0,v0,13232
1d01851c:	03004290 	lbu	v0,3(v0)
1d018520:	ff004230 	andi	v0,v0,0xff
1d018524:	07004010 	beqz	v0,0x1d018544
1d018528:	1400bf8f 	lw	ra,20(sp)
1d01852c:	01a0023c 	lui	v0,0xa001
1d018530:	b0334224 	addiu	v0,v0,13232
1d018534:	030040a0 	sb	zero,3(v0)
1d018538:	9726400f 	jal	0x1d009a5c
1d01853c:	00000000 	nop
1d018540:	1400bf8f 	lw	ra,20(sp)
1d018544:	0800e003 	jr	ra
1d018548:	1800bd27 	addiu	sp,sp,24
1d01854c:	01a0023c 	lui	v0,0xa001
1d018550:	b0334224 	addiu	v0,v0,13232
1d018554:	02004290 	lbu	v0,2(v0)
1d018558:	0800e003 	jr	ra
1d01855c:	ff004230 	andi	v0,v0,0xff
1d018560:	01a0023c 	lui	v0,0xa001
1d018564:	b0334224 	addiu	v0,v0,13232
1d018568:	0c004290 	lbu	v0,12(v0)
1d01856c:	0800e003 	jr	ra
1d018570:	ff004230 	andi	v0,v0,0xff
1d018574:	01a0023c 	lui	v0,0xa001
1d018578:	b0334224 	addiu	v0,v0,13232
1d01857c:	0d004290 	lbu	v0,13(v0)
1d018580:	0800e003 	jr	ra
1d018584:	ff004230 	andi	v0,v0,0xff
1d018588:	01a0023c 	lui	v0,0xa001
1d01858c:	b0334224 	addiu	v0,v0,13232
1d018590:	0400428c 	lw	v0,4(v0)
1d018594:	0800e003 	jr	ra
1d018598:	00000000 	nop
1d01859c:	01a0023c 	lui	v0,0xa001
1d0185a0:	b0334224 	addiu	v0,v0,13232
1d0185a4:	0800428c 	lw	v0,8(v0)
1d0185a8:	0800e003 	jr	ra
1d0185ac:	00000000 	nop
1d0185b0:	00e85d41 	rdpgpr	sp,sp
1d0185b4:	00701b40 	mfc0	k1,c0_epc
1d0185b8:	02601a40 	mfc0	k0,c0_srsctl
1d0185bc:	e0ffbd27 	addiu	sp,sp,-32
1d0185c0:	1c00bbaf 	sw	k1,28(sp)
1d0185c4:	00601b40 	mfc0	k1,c0_status
1d0185c8:	1400baaf 	sw	k0,20(sp)
1d0185cc:	1800bbaf 	sw	k1,24(sp)
1d0185d0:	44781b7c 	ins	k1,zero,0x1,0xf
1d0185d4:	00087b37 	ori	k1,k1,0x800
1d0185d8:	00609b40 	mtc0	k1,c0_status
1d0185dc:	0800a3af 	sw	v1,8(sp)
1d0185e0:	0400a2af 	sw	v0,4(sp)
1d0185e4:	0c00a4af 	sw	a0,12(sp)
1d0185e8:	01a0023c 	lui	v0,0xa001
1d0185ec:	b0334224 	addiu	v0,v0,13232
1d0185f0:	01004290 	lbu	v0,1(v0)
1d0185f4:	ff004230 	andi	v0,v0,0xff
1d0185f8:	0c004014 	bnez	v0,0x1d01862c
1d0185fc:	01a0023c 	lui	v0,0xa001
1d018600:	01000324 	li	v1,1
1d018604:	b0334224 	addiu	v0,v0,13232
1d018608:	010043a0 	sb	v1,1(v0)
1d01860c:	02000324 	li	v1,2
1d018610:	88bf023c 	lui	v0,0xbf88
1d018614:	441043ac 	sw	v1,4164(v0)
1d018618:	04000324 	li	v1,4
1d01861c:	81bf023c 	lui	v0,0xbf81
1d018620:	089043ac 	sw	v1,-28664(v0)
1d018624:	9861400b 	j	0x1d018660
1d018628:	1000033c 	lui	v1,0x10
1d01862c:	b03340a0 	sb	zero,13232(v0)
1d018630:	1000033c 	lui	v1,0x10
1d018634:	88bf023c 	lui	v0,0xbf88
1d018638:	641043ac 	sw	v1,4196(v0)
1d01863c:	00800234 	li	v0,0x8000
1d018640:	80bf033c 	lui	v1,0xbf80
1d018644:	040e62ac 	sw	v0,3588(v1)
1d018648:	02000424 	li	a0,2
1d01864c:	88bf033c 	lui	v1,0xbf88
1d018650:	741064ac 	sw	a0,4212(v1)
1d018654:	81bf033c 	lui	v1,0xbf81
1d018658:	049062ac 	sw	v0,-28668(v1)
1d01865c:	1000033c 	lui	v1,0x10
1d018660:	88bf023c 	lui	v0,0xbf88
1d018664:	341043ac 	sw	v1,4148(v0)
1d018668:	1400a28f 	lw	v0,20(sp)
1d01866c:	0f004230 	andi	v0,v0,0xf
1d018670:	04004014 	bnez	v0,0x1d018684
1d018674:	00000000 	nop
1d018678:	0c00a48f 	lw	a0,12(sp)
1d01867c:	0800a38f 	lw	v1,8(sp)
1d018680:	0400a28f 	lw	v0,4(sp)
1d018684:	00606041 	di
1d018688:	c0000000 	ehb
1d01868c:	1c00ba8f 	lw	k0,28(sp)
1d018690:	1800bb8f 	lw	k1,24(sp)
1d018694:	00709a40 	mtc0	k0,c0_epc
1d018698:	1400ba8f 	lw	k0,20(sp)
1d01869c:	2000bd27 	addiu	sp,sp,32
1d0186a0:	02609a40 	mtc0	k0,c0_srsctl
1d0186a4:	00e8dd41 	wrpgpr	sp,sp
1d0186a8:	00609b40 	mtc0	k1,c0_status
1d0186ac:	18000042 	eret
1d0186b0:	00e85d41 	rdpgpr	sp,sp
1d0186b4:	00701b40 	mfc0	k1,c0_epc
1d0186b8:	02601a40 	mfc0	k0,c0_srsctl
1d0186bc:	e8ffbd27 	addiu	sp,sp,-24
1d0186c0:	1400bbaf 	sw	k1,20(sp)
1d0186c4:	00601b40 	mfc0	k1,c0_status
1d0186c8:	0c00baaf 	sw	k0,12(sp)
1d0186cc:	1000bbaf 	sw	k1,16(sp)
1d0186d0:	44781b7c 	ins	k1,zero,0x1,0xf
1d0186d4:	000c7b37 	ori	k1,k1,0xc00
1d0186d8:	00609b40 	mtc0	k1,c0_status
1d0186dc:	0400a3af 	sw	v1,4(sp)
1d0186e0:	0000a2af 	sw	v0,0(sp)
1d0186e4:	81bf023c 	lui	v0,0xbf81
1d0186e8:	7090428c 	lw	v0,-28560(v0)
1d0186ec:	388082af 	sw	v0,-32712(gp)
1d0186f0:	81bf033c 	lui	v1,0xbf81
1d0186f4:	8090638c 	lw	v1,-28544(v1)
1d0186f8:	3c8083af 	sw	v1,-32708(gp)
1d0186fc:	0401432c 	sltiu	v1,v0,260
1d018700:	16006010 	beqz	v1,0x1d01875c
1d018704:	2b01422c 	sltiu	v0,v0,299
1d018708:	30808327 	addiu	v1,gp,-32720
1d01870c:	0000628c 	lw	v0,0(v1)
1d018710:	01004224 	addiu	v0,v0,1
1d018714:	000062ac 	sw	v0,0(v1)
1d018718:	0400422c 	sltiu	v0,v0,4
1d01871c:	19004014 	bnez	v0,0x1d018784
1d018720:	3c80828f 	lw	v0,-32708(gp)
1d018724:	01a0023c 	lui	v0,0xa001
1d018728:	b0334224 	addiu	v0,v0,13232
1d01872c:	0c0040a0 	sb	zero,12(v0)
1d018730:	02004290 	lbu	v0,2(v0)
1d018734:	ff004230 	andi	v0,v0,0xff
1d018738:	12004054 	bnezl	v0,0x1d018784
1d01873c:	3c80828f 	lw	v0,-32708(gp)
1d018740:	01a0023c 	lui	v0,0xa001
1d018744:	b0334224 	addiu	v0,v0,13232
1d018748:	01000324 	li	v1,1
1d01874c:	020043a0 	sb	v1,2(v0)
1d018750:	030043a0 	sb	v1,3(v0)
1d018754:	e161400b 	j	0x1d018784
1d018758:	3c80828f 	lw	v0,-32708(gp)
1d01875c:	08004054 	bnezl	v0,0x1d018780
1d018760:	308080af 	sw	zero,-32720(gp)
1d018764:	01a0023c 	lui	v0,0xa001
1d018768:	b0334224 	addiu	v0,v0,13232
1d01876c:	01000324 	li	v1,1
1d018770:	0c0043a0 	sb	v1,12(v0)
1d018774:	020040a0 	sb	zero,2(v0)
1d018778:	030040a0 	sb	zero,3(v0)
1d01877c:	308080af 	sw	zero,-32720(gp)
1d018780:	3c80828f 	lw	v0,-32708(gp)
1d018784:	0401432c 	sltiu	v1,v0,260
1d018788:	0c006010 	beqz	v1,0x1d0187bc
1d01878c:	2b01422c 	sltiu	v0,v0,299
1d018790:	34808327 	addiu	v1,gp,-32716
1d018794:	0000628c 	lw	v0,0(v1)
1d018798:	01004224 	addiu	v0,v0,1
1d01879c:	000062ac 	sw	v0,0(v1)
1d0187a0:	0400422c 	sltiu	v0,v0,4
1d0187a4:	0d004014 	bnez	v0,0x1d0187dc
1d0187a8:	01a0023c 	lui	v0,0xa001
1d0187ac:	b0334224 	addiu	v0,v0,13232
1d0187b0:	0d0040a0 	sb	zero,13(v0)
1d0187b4:	f761400b 	j	0x1d0187dc
1d0187b8:	01a0023c 	lui	v0,0xa001
1d0187bc:	06004054 	bnezl	v0,0x1d0187d8
1d0187c0:	348080af 	sw	zero,-32716(gp)
1d0187c4:	01000324 	li	v1,1
1d0187c8:	01a0023c 	lui	v0,0xa001
1d0187cc:	b0334224 	addiu	v0,v0,13232
1d0187d0:	0d0043a0 	sb	v1,13(v0)
1d0187d4:	348080af 	sw	zero,-32716(gp)
1d0187d8:	01a0023c 	lui	v0,0xa001
1d0187dc:	b0334224 	addiu	v0,v0,13232
1d0187e0:	3880838f 	lw	v1,-32712(gp)
1d0187e4:	040043ac 	sw	v1,4(v0)
1d0187e8:	3c80838f 	lw	v1,-32708(gp)
1d0187ec:	080043ac 	sw	v1,8(v0)
1d0187f0:	010040a0 	sb	zero,1(v0)
1d0187f4:	02000324 	li	v1,2
1d0187f8:	88bf023c 	lui	v0,0xbf88
1d0187fc:	441043ac 	sw	v1,4164(v0)
1d018800:	0c00a28f 	lw	v0,12(sp)
1d018804:	0f004230 	andi	v0,v0,0xf
1d018808:	03004014 	bnez	v0,0x1d018818
1d01880c:	00000000 	nop
1d018810:	0400a38f 	lw	v1,4(sp)
1d018814:	0000a28f 	lw	v0,0(sp)
1d018818:	00606041 	di
1d01881c:	c0000000 	ehb
1d018820:	1400ba8f 	lw	k0,20(sp)
1d018824:	1000bb8f 	lw	k1,16(sp)
1d018828:	00709a40 	mtc0	k0,c0_epc
1d01882c:	0c00ba8f 	lw	k0,12(sp)
1d018830:	1800bd27 	addiu	sp,sp,24
1d018834:	02609a40 	mtc0	k0,c0_srsctl
1d018838:	00e8dd41 	wrpgpr	sp,sp
1d01883c:	00609b40 	mtc0	k1,c0_status
1d018840:	18000042 	eret
1d018844:	e8ffbd27 	addiu	sp,sp,-24
1d018848:	1400bfaf 	sw	ra,20(sp)
1d01884c:	1000b0af 	sw	s0,16(sp)
1d018850:	0400822c 	sltiu	v0,a0,4
1d018854:	27004010 	beqz	v0,0x1d0188f4
1d018858:	21808000 	move	s0,a0
1d01885c:	0400a28c 	lw	v0,4(a1)
1d018860:	0007437c 	ext	v1,v0,0x1c,0x1
1d018864:	08006050 	beqzl	v1,0x1d018888
1d018868:	0000a28c 	lw	v0,0(a1)
1d01886c:	0000a48c 	lw	a0,0(a1)
1d018870:	ff078430 	andi	a0,a0,0x7ff
1d018874:	80240400 	sll	a0,a0,0x12
1d018878:	0400a28c 	lw	v0,4(a1)
1d01887c:	808a427c 	ext	v0,v0,0xa,0x12
1d018880:	2362400b 	j	0x1d01888c
1d018884:	25108200 	or	v0,a0,v0
1d018888:	ff074230 	andi	v0,v0,0x7ff
1d01888c:	19006010 	beqz	v1,0x1d0188f4
1d018890:	de1f033c 	lui	v1,0x1fde
1d018894:	a1cb6334 	ori	v1,v1,0xcba1
1d018898:	21180302 	addu	v1,s0,v1
1d01889c:	16004314 	bne	v0,v1,0x1d0188f8
1d0188a0:	1400bf8f 	lw	ra,20(sp)
1d0188a4:	0800a424 	addiu	a0,a1,8
1d0188a8:	029d053c 	lui	a1,0x9d02
1d0188ac:	84c4a524 	addiu	a1,a1,-15228
1d0188b0:	6e6e400f 	jal	0x1d01b9b8
1d0188b4:	08000624 	li	a2,8
1d0188b8:	08004014 	bnez	v0,0x1d0188dc
1d0188bc:	80801000 	sll	s0,s0,0x2
1d0188c0:	01a0023c 	lui	v0,0xa001
1d0188c4:	74364224 	addiu	v0,v0,13940
1d0188c8:	21800202 	addu	s0,s0,v0
1d0188cc:	00000296 	lhu	v0,0(s0)
1d0188d0:	01004224 	addiu	v0,v0,1
1d0188d4:	3d62400b 	j	0x1d0188f4
1d0188d8:	000002a6 	sh	v0,0(s0)
1d0188dc:	01a0023c 	lui	v0,0xa001
1d0188e0:	74364224 	addiu	v0,v0,13940
1d0188e4:	21800202 	addu	s0,s0,v0
1d0188e8:	02000296 	lhu	v0,2(s0)
1d0188ec:	01004224 	addiu	v0,v0,1
1d0188f0:	020002a6 	sh	v0,2(s0)
1d0188f4:	1400bf8f 	lw	ra,20(sp)
1d0188f8:	1000b08f 	lw	s0,16(sp)
1d0188fc:	0800e003 	jr	ra
1d018900:	1800bd27 	addiu	sp,sp,24
1d018904:	d0ffbd27 	addiu	sp,sp,-48
1d018908:	2c00bfaf 	sw	ra,44(sp)
1d01890c:	2800b1af 	sw	s1,40(sp)
1d018910:	2400b0af 	sw	s0,36(sp)
1d018914:	21888000 	move	s1,a0
1d018918:	00008390 	lbu	v1,0(a0)
1d01891c:	50006324 	addiu	v1,v1,80
1d018920:	ff006330 	andi	v1,v1,0xff
1d018924:	1000632c 	sltiu	v1,v1,16
1d018928:	ec006010 	beqz	v1,0x1d018cdc
1d01892c:	21100000 	move	v0,zero
1d018930:	2180a000 	move	s0,a1
1d018934:	2120a000 	move	a0,a1
1d018938:	21280000 	move	a1,zero
1d01893c:	c96d400f 	jal	0x1d01b724
1d018940:	40000624 	li	a2,64
1d018944:	00002292 	lbu	v0,0(s1)
1d018948:	50004224 	addiu	v0,v0,80
1d01894c:	ff004330 	andi	v1,v0,0xff
1d018950:	0700632c 	sltiu	v1,v1,7
1d018954:	e0006010 	beqz	v1,0x1d018cd8
1d018958:	029d033c 	lui	v1,0x9d02
1d01895c:	ff004230 	andi	v0,v0,0xff
1d018960:	80100200 	sll	v0,v0,0x2
1d018964:	78896324 	addiu	v1,v1,-30344
1d018968:	21106200 	addu	v0,v1,v0
1d01896c:	0000428c 	lw	v0,0(v0)
1d018970:	08004000 	jr	v0
1d018974:	00000000 	nop
1d018978:	9489019d 	0x9d018994
1d01897c:	088a019d 	0x9d018a08
1d018980:	288b019d 	0x9d018b28
1d018984:	088c019d 	0x9d018c08
1d018988:	408c019d 	0x9d018c40
1d01898c:	788c019d 	0x9d018c78
1d018990:	b08c019d 	0x9d018cb0
1d018994:	b0ff0224 	li	v0,-80
1d018998:	000002a2 	sb	v0,0(s0)
1d01899c:	01000224 	li	v0,1
1d0189a0:	020002a6 	sh	v0,2(s0)
1d0189a4:	040000a6 	sh	zero,4(s0)
1d0189a8:	02000224 	li	v0,2
1d0189ac:	060002a6 	sh	v0,6(s0)
1d0189b0:	89bf023c 	lui	v0,0xbf89
1d0189b4:	20934390 	lbu	v1,-27872(v0)
1d0189b8:	080003a2 	sb	v1,8(s0)
1d0189bc:	21934290 	lbu	v0,-27871(v0)
1d0189c0:	090002a2 	sb	v0,9(s0)
1d0189c4:	89bf023c 	lui	v0,0xbf89
1d0189c8:	10934390 	lbu	v1,-27888(v0)
1d0189cc:	0a0003a2 	sb	v1,10(s0)
1d0189d0:	11934290 	lbu	v0,-27887(v0)
1d0189d4:	0b0002a2 	sb	v0,11(s0)
1d0189d8:	89bf023c 	lui	v0,0xbf89
1d0189dc:	00934390 	lbu	v1,-27904(v0)
1d0189e0:	0c0003a2 	sb	v1,12(s0)
1d0189e4:	01934290 	lbu	v0,-27903(v0)
1d0189e8:	0d0002a2 	sb	v0,13(s0)
1d0189ec:	0e000426 	addiu	a0,s0,14
1d0189f0:	029d053c 	lui	a1,0x9d02
1d0189f4:	90c4a524 	addiu	a1,a1,-15216
1d0189f8:	3d6f400f 	jal	0x1d01bcf4
1d0189fc:	32000624 	li	a2,50
1d018a00:	3763400b 	j	0x1d018cdc
1d018a04:	01000224 	li	v0,1
1d018a08:	b1ff0224 	li	v0,-79
1d018a0c:	000002a2 	sb	v0,0(s0)
1d018a10:	01002292 	lbu	v0,1(s1)
1d018a14:	010002a2 	sb	v0,1(s0)
1d018a18:	01002392 	lbu	v1,1(s1)
1d018a1c:	0400642c 	sltiu	a0,v1,4
1d018a20:	40008010 	beqz	a0,0x1d018b24
1d018a24:	21100000 	move	v0,zero
1d018a28:	01000224 	li	v0,1
1d018a2c:	0f006210 	beq	v1,v0,0x1d018a6c
1d018a30:	00000000 	nop
1d018a34:	07006010 	beqz	v1,0x1d018a54
1d018a38:	02000224 	li	v0,2
1d018a3c:	11006210 	beq	v1,v0,0x1d018a84
1d018a40:	03000224 	li	v0,3
1d018a44:	15006210 	beq	v1,v0,0x1d018a9c
1d018a48:	01000224 	li	v0,1
1d018a4c:	ad62400b 	j	0x1d018ab4
1d018a50:	00000000 	nop
1d018a54:	1456400f 	jal	0x1d015850
1d018a58:	00000000 	nop
1d018a5c:	32004054 	bnezl	v0,0x1d018b28
1d018a60:	020002a2 	sb	v0,2(s0)
1d018a64:	b962400b 	j	0x1d018ae4
1d018a68:	0700043c 	lui	a0,0x7
1d018a6c:	4857400f 	jal	0x1d015d20
1d018a70:	00000000 	nop
1d018a74:	2c004054 	bnezl	v0,0x1d018b28
1d018a78:	020002a2 	sb	v0,2(s0)
1d018a7c:	bd62400b 	j	0x1d018af4
1d018a80:	0700043c 	lui	a0,0x7
1d018a84:	1658400f 	jal	0x1d016058
1d018a88:	00000000 	nop
1d018a8c:	26004054 	bnezl	v0,0x1d018b28
1d018a90:	020002a2 	sb	v0,2(s0)
1d018a94:	c162400b 	j	0x1d018b04
1d018a98:	0700043c 	lui	a0,0x7
1d018a9c:	da58400f 	jal	0x1d016368
1d018aa0:	00000000 	nop
1d018aa4:	20004054 	bnezl	v0,0x1d018b28
1d018aa8:	020002a2 	sb	v0,2(s0)
1d018aac:	c562400b 	j	0x1d018b14
1d018ab0:	0700043c 	lui	a0,0x7
1d018ab4:	0f006210 	beq	v1,v0,0x1d018af4
1d018ab8:	0700043c 	lui	a0,0x7
1d018abc:	09006010 	beqz	v1,0x1d018ae4
1d018ac0:	00000000 	nop
1d018ac4:	02000224 	li	v0,2
1d018ac8:	0e006210 	beq	v1,v0,0x1d018b04
1d018acc:	00000000 	nop
1d018ad0:	03000224 	li	v0,3
1d018ad4:	0f006210 	beq	v1,v0,0x1d018b14
1d018ad8:	00000000 	nop
1d018adc:	c962400b 	j	0x1d018b24
1d018ae0:	21100000 	move	v0,zero
1d018ae4:	9e55400f 	jal	0x1d015678
1d018ae8:	20a18434 	ori	a0,a0,0xa120
1d018aec:	c962400b 	j	0x1d018b24
1d018af0:	01000224 	li	v0,1
1d018af4:	d256400f 	jal	0x1d015b48
1d018af8:	20a18434 	ori	a0,a0,0xa120
1d018afc:	c962400b 	j	0x1d018b24
1d018b00:	01000224 	li	v0,1
1d018b04:	0658400f 	jal	0x1d016018
1d018b08:	20a18434 	ori	a0,a0,0xa120
1d018b0c:	ca62400b 	j	0x1d018b28
1d018b10:	020002a2 	sb	v0,2(s0)
1d018b14:	ca58400f 	jal	0x1d016328
1d018b18:	20a18434 	ori	a0,a0,0xa120
1d018b1c:	ca62400b 	j	0x1d018b28
1d018b20:	020002a2 	sb	v0,2(s0)
1d018b24:	020002a2 	sb	v0,2(s0)
1d018b28:	b2ff0224 	li	v0,-78
1d018b2c:	000002a2 	sb	v0,0(s0)
1d018b30:	04002292 	lbu	v0,4(s1)
1d018b34:	040002a2 	sb	v0,4(s0)
1d018b38:	04002392 	lbu	v1,4(s1)
1d018b3c:	0400642c 	sltiu	a0,v1,4
1d018b40:	2e008010 	beqz	a0,0x1d018bfc
1d018b44:	21100000 	move	v0,zero
1d018b48:	de1f043c 	lui	a0,0x1fde
1d018b4c:	a1cb8434 	ori	a0,a0,0xcba1
1d018b50:	21206400 	addu	a0,v1,a0
1d018b54:	08000524 	li	a1,8
1d018b58:	01000224 	li	v0,1
1d018b5c:	04e7457c 	ins	a1,v0,0x1c,0x1
1d018b60:	84da857c 	ins	a1,a0,0xa,0x12
1d018b64:	1400a5af 	sw	a1,20(sp)
1d018b68:	822c0400 	srl	a1,a0,0x12
1d018b6c:	21200000 	move	a0,zero
1d018b70:	0450a47c 	ins	a0,a1,0x0,0xb
1d018b74:	1000a4af 	sw	a0,16(sp)
1d018b78:	029d043c 	lui	a0,0x9d02
1d018b7c:	84c4858c 	lw	a1,-15228(a0)
1d018b80:	84c48424 	addiu	a0,a0,-15228
1d018b84:	0400848c 	lw	a0,4(a0)
1d018b88:	1800a5af 	sw	a1,24(sp)
1d018b8c:	0f006210 	beq	v1,v0,0x1d018bcc
1d018b90:	1c00a4af 	sw	a0,28(sp)
1d018b94:	09006010 	beqz	v1,0x1d018bbc
1d018b98:	00000000 	nop
1d018b9c:	02000224 	li	v0,2
1d018ba0:	0e006210 	beq	v1,v0,0x1d018bdc
1d018ba4:	00000000 	nop
1d018ba8:	03000224 	li	v0,3
1d018bac:	0f006210 	beq	v1,v0,0x1d018bec
1d018bb0:	00000000 	nop
1d018bb4:	ff62400b 	j	0x1d018bfc
1d018bb8:	21100000 	move	v0,zero
1d018bbc:	684e400f 	jal	0x1d0139a0
1d018bc0:	1000a427 	addiu	a0,sp,16
1d018bc4:	0063400b 	j	0x1d018c00
1d018bc8:	050002a2 	sb	v0,5(s0)
1d018bcc:	ab4e400f 	jal	0x1d013aac
1d018bd0:	1000a427 	addiu	a0,sp,16
1d018bd4:	0063400b 	j	0x1d018c00
1d018bd8:	050002a2 	sb	v0,5(s0)
1d018bdc:	204d400f 	jal	0x1d013480
1d018be0:	1000a427 	addiu	a0,sp,16
1d018be4:	0063400b 	j	0x1d018c00
1d018be8:	050002a2 	sb	v0,5(s0)
1d018bec:	c44d400f 	jal	0x1d013710
1d018bf0:	1000a427 	addiu	a0,sp,16
1d018bf4:	0063400b 	j	0x1d018c00
1d018bf8:	050002a2 	sb	v0,5(s0)
1d018bfc:	050002a2 	sb	v0,5(s0)
1d018c00:	3763400b 	j	0x1d018cdc
1d018c04:	01000224 	li	v0,1
1d018c08:	b3ff0224 	li	v0,-77
1d018c0c:	000002a2 	sb	v0,0(s0)
1d018c10:	01a0023c 	lui	v0,0xa001
1d018c14:	74364224 	addiu	v0,v0,13940
1d018c18:	10004424 	addiu	a0,v0,16
1d018c1c:	00004394 	lhu	v1,0(v0)
1d018c20:	080003a6 	sh	v1,8(s0)
1d018c24:	02004394 	lhu	v1,2(v0)
1d018c28:	100003a6 	sh	v1,16(s0)
1d018c2c:	04004224 	addiu	v0,v0,4
1d018c30:	faff4414 	bne	v0,a0,0x1d018c1c
1d018c34:	02001026 	addiu	s0,s0,2
1d018c38:	3763400b 	j	0x1d018cdc
1d018c3c:	01000224 	li	v0,1
1d018c40:	b4ff0224 	li	v0,-76
1d018c44:	000002a2 	sb	v0,0(s0)
1d018c48:	01a0023c 	lui	v0,0xa001
1d018c4c:	743640a4 	sh	zero,13940(v0)
1d018c50:	74364224 	addiu	v0,v0,13940
1d018c54:	020040a4 	sh	zero,2(v0)
1d018c58:	040040a4 	sh	zero,4(v0)
1d018c5c:	060040a4 	sh	zero,6(v0)
1d018c60:	080040a4 	sh	zero,8(v0)
1d018c64:	0a0040a4 	sh	zero,10(v0)
1d018c68:	0c0040a4 	sh	zero,12(v0)
1d018c6c:	0e0040a4 	sh	zero,14(v0)
1d018c70:	3763400b 	j	0x1d018cdc
1d018c74:	01000224 	li	v0,1
1d018c78:	b5ff0224 	li	v0,-75
1d018c7c:	cb60400f 	jal	0x1d01832c
1d018c80:	000002a2 	sb	v0,0(s0)
1d018c84:	5861400f 	jal	0x1d018560
1d018c88:	010002a2 	sb	v0,1(s0)
1d018c8c:	5d61400f 	jal	0x1d018574
1d018c90:	040002a2 	sb	v0,4(s0)
1d018c94:	6261400f 	jal	0x1d018588
1d018c98:	080002a2 	sb	v0,8(s0)
1d018c9c:	6761400f 	jal	0x1d01859c
1d018ca0:	020002a6 	sh	v0,2(s0)
1d018ca4:	060002a6 	sh	v0,6(s0)
1d018ca8:	3763400b 	j	0x1d018cdc
1d018cac:	01000224 	li	v0,1
1d018cb0:	b6ff0224 	li	v0,-74
1d018cb4:	000002a2 	sb	v0,0(s0)
1d018cb8:	01002492 	lbu	a0,1(s1)
1d018cbc:	e060400f 	jal	0x1d018380
1d018cc0:	2b200400 	sltu	a0,zero,a0
1d018cc4:	f060400f 	jal	0x1d0183c0
1d018cc8:	00000000 	nop
1d018ccc:	010002a2 	sb	v0,1(s0)
1d018cd0:	3763400b 	j	0x1d018cdc
1d018cd4:	01000224 	li	v0,1
1d018cd8:	21100000 	move	v0,zero
1d018cdc:	2c00bf8f 	lw	ra,44(sp)
1d018ce0:	2800b18f 	lw	s1,40(sp)
1d018ce4:	2400b08f 	lw	s0,36(sp)
1d018ce8:	0800e003 	jr	ra
1d018cec:	3000bd27 	addiu	sp,sp,48

Disassembly of section .sec74:

1d018cf0 <.sec74>:
1d018cf0:	1300822c 	sltiu	v0,a0,19
1d018cf4:	41004010 	beqz	v0,0x1d018dfc
1d018cf8:	80200400 	sll	a0,a0,0x2
1d018cfc:	029d023c 	lui	v0,0x9d02
1d018d00:	148d4224 	addiu	v0,v0,-29420
1d018d04:	21204400 	addu	a0,v0,a0
1d018d08:	0000828c 	lw	v0,0(a0)
1d018d0c:	08004000 	jr	v0
1d018d10:	00000000 	nop
1d018d14:	608d019d 	0x9d018d60
1d018d18:	fc8d019d 	0x9d018dfc
1d018d1c:	fc8d019d 	0x9d018dfc
1d018d20:	fc8d019d 	0x9d018dfc
1d018d24:	088e019d 	0x9d018e08
1d018d28:	6c8d019d 	0x9d018d6c
1d018d2c:	788d019d 	0x9d018d78
1d018d30:	848d019d 	0x9d018d84
1d018d34:	908d019d 	0x9d018d90
1d018d38:	9c8d019d 	0x9d018d9c
1d018d3c:	a88d019d 	0x9d018da8
1d018d40:	b48d019d 	0x9d018db4
1d018d44:	c08d019d 	0x9d018dc0
1d018d48:	cc8d019d 	0x9d018dcc
1d018d4c:	fc8d019d 	0x9d018dfc
1d018d50:	fc8d019d 	0x9d018dfc
1d018d54:	d88d019d 	0x9d018dd8
1d018d58:	e48d019d 	0x9d018de4
1d018d5c:	f08d019d 	0x9d018df0
1d018d60:	029d023c 	lui	v0,0x9d02
1d018d64:	0800e003 	jr	ra
1d018d68:	a8ae4224 	addiu	v0,v0,-20824
1d018d6c:	029d023c 	lui	v0,0x9d02
1d018d70:	0800e003 	jr	ra
1d018d74:	d0ae4224 	addiu	v0,v0,-20784
1d018d78:	029d023c 	lui	v0,0x9d02
1d018d7c:	0800e003 	jr	ra
1d018d80:	e0ae4224 	addiu	v0,v0,-20768
1d018d84:	029d023c 	lui	v0,0x9d02
1d018d88:	0800e003 	jr	ra
1d018d8c:	f0ae4224 	addiu	v0,v0,-20752
1d018d90:	029d023c 	lui	v0,0x9d02
1d018d94:	0800e003 	jr	ra
1d018d98:	04af4224 	addiu	v0,v0,-20732
1d018d9c:	029d023c 	lui	v0,0x9d02
1d018da0:	0800e003 	jr	ra
1d018da4:	0caf4224 	addiu	v0,v0,-20724
1d018da8:	029d023c 	lui	v0,0x9d02
1d018dac:	0800e003 	jr	ra
1d018db0:	18af4224 	addiu	v0,v0,-20712
1d018db4:	029d023c 	lui	v0,0x9d02
1d018db8:	0800e003 	jr	ra
1d018dbc:	30af4224 	addiu	v0,v0,-20688
1d018dc0:	029d023c 	lui	v0,0x9d02
1d018dc4:	0800e003 	jr	ra
1d018dc8:	48af4224 	addiu	v0,v0,-20664
1d018dcc:	029d023c 	lui	v0,0x9d02
1d018dd0:	0800e003 	jr	ra
1d018dd4:	5caf4224 	addiu	v0,v0,-20644
1d018dd8:	029d023c 	lui	v0,0x9d02
1d018ddc:	0800e003 	jr	ra
1d018de0:	74af4224 	addiu	v0,v0,-20620
1d018de4:	029d023c 	lui	v0,0x9d02
1d018de8:	0800e003 	jr	ra
1d018dec:	90af4224 	addiu	v0,v0,-20592
1d018df0:	029d023c 	lui	v0,0x9d02
1d018df4:	0800e003 	jr	ra
1d018df8:	a4af4224 	addiu	v0,v0,-20572
1d018dfc:	029d023c 	lui	v0,0x9d02
1d018e00:	0800e003 	jr	ra
1d018e04:	b4af4224 	addiu	v0,v0,-20556
1d018e08:	029d023c 	lui	v0,0x9d02
1d018e0c:	0800e003 	jr	ra
1d018e10:	b4ae4224 	addiu	v0,v0,-20812
1d018e14:	f0ffbd27 	addiu	sp,sp,-16
1d018e18:	0c00bfaf 	sw	ra,12(sp)
1d018e1c:	00680240 	mfc0	v0,c0_cause
1d018e20:	8020427c 	ext	v0,v0,0x2,0x5
1d018e24:	688082af 	sw	v0,-32664(gp)
1d018e28:	00700240 	mfc0	v0,c0_epc
1d018e2c:	648082af 	sw	v0,-32668(gp)
1d018e30:	00600240 	mfc0	v0,c0_status
1d018e34:	ff0f033c 	lui	v1,0xfff
1d018e38:	feff6334 	ori	v1,v1,0xfffe
1d018e3c:	24104300 	and	v0,v0,v1
1d018e40:	00608240 	mtc0	v0,c0_status
1d018e44:	c0000000 	ehb
1d018e48:	6880828f 	lw	v0,-32664(gp)
1d018e4c:	fcff4224 	addiu	v0,v0,-4
1d018e50:	0a00432c 	sltiu	v1,v0,10
1d018e54:	29006010 	beqz	v1,0x1d018efc
1d018e58:	80100200 	sll	v0,v0,0x2
1d018e5c:	029d033c 	lui	v1,0x9d02
1d018e60:	748e6324 	addiu	v1,v1,-29068
1d018e64:	21106200 	addu	v0,v1,v0
1d018e68:	0000428c 	lw	v0,0(v0)
1d018e6c:	08004000 	jr	v0
1d018e70:	00000000 	nop
1d018e74:	9c8e019d 	0x9d018e9c
1d018e78:	ac8e019d 	0x9d018eac
1d018e7c:	dc8e019d 	0x9d018edc
1d018e80:	ec8e019d 	0x9d018eec
1d018e84:	fc8e019d 	0x9d018efc
1d018e88:	fc8e019d 	0x9d018efc
1d018e8c:	fc8e019d 	0x9d018efc
1d018e90:	fc8e019d 	0x9d018efc
1d018e94:	bc8e019d 	0x9d018ebc
1d018e98:	cc8e019d 	0x9d018ecc
1d018e9c:	03000224 	li	v0,3
1d018ea0:	608082af 	sw	v0,-32672(gp)
1d018ea4:	c263400b 	j	0x1d018f08
1d018ea8:	88bf093c 	lui	t1,0xbf88
1d018eac:	04000224 	li	v0,4
1d018eb0:	608082af 	sw	v0,-32672(gp)
1d018eb4:	c263400b 	j	0x1d018f08
1d018eb8:	88bf093c 	lui	t1,0xbf88
1d018ebc:	05000224 	li	v0,5
1d018ec0:	608082af 	sw	v0,-32672(gp)
1d018ec4:	c263400b 	j	0x1d018f08
1d018ec8:	88bf093c 	lui	t1,0xbf88
1d018ecc:	06000224 	li	v0,6
1d018ed0:	608082af 	sw	v0,-32672(gp)
1d018ed4:	c263400b 	j	0x1d018f08
1d018ed8:	88bf093c 	lui	t1,0xbf88
1d018edc:	07000224 	li	v0,7
1d018ee0:	608082af 	sw	v0,-32672(gp)
1d018ee4:	c263400b 	j	0x1d018f08
1d018ee8:	88bf093c 	lui	t1,0xbf88
1d018eec:	08000224 	li	v0,8
1d018ef0:	608082af 	sw	v0,-32672(gp)
1d018ef4:	c263400b 	j	0x1d018f08
1d018ef8:	88bf093c 	lui	t1,0xbf88
1d018efc:	02000224 	li	v0,2
1d018f00:	608082af 	sw	v0,-32672(gp)
1d018f04:	88bf093c 	lui	t1,0xbf88
1d018f08:	10000a24 	li	t2,16
1d018f0c:	0c00033c 	lui	v1,0xc
1d018f10:	00356324 	addiu	v1,v1,13568
1d018f14:	80bf053c 	lui	a1,0xbf80
1d018f18:	88bf083c 	lui	t0,0xbf88
1d018f1c:	20000624 	li	a2,32
1d018f20:	01000424 	li	a0,1
1d018f24:	e8602aad 	sw	t2,24808(t1)
1d018f28:	0000a0af 	sw	zero,0(sp)
1d018f2c:	0000a78f 	lw	a3,0(sp)
1d018f30:	6080828f 	lw	v0,-32672(gp)
1d018f34:	2b10e200 	sltu	v0,a3,v0
1d018f38:	25004010 	beqz	v0,0x1d018fd0
1d018f3c:	00000000 	nop
1d018f40:	e86026ad 	sw	a2,24808(t1)
1d018f44:	0400a0af 	sw	zero,4(sp)
1d018f48:	0400a28f 	lw	v0,4(sp)
1d018f4c:	2b104300 	sltu	v0,v0,v1
1d018f50:	09004010 	beqz	v0,0x1d018f78
1d018f54:	00000000 	nop
1d018f58:	0800a4ac 	sw	a0,8(a1)
1d018f5c:	0400a28f 	lw	v0,4(sp)
1d018f60:	01004224 	addiu	v0,v0,1
1d018f64:	0400a2af 	sw	v0,4(sp)
1d018f68:	0400a28f 	lw	v0,4(sp)
1d018f6c:	2b104300 	sltu	v0,v0,v1
1d018f70:	f9ff4014 	bnez	v0,0x1d018f58
1d018f74:	00000000 	nop
1d018f78:	e46006ad 	sw	a2,24804(t0)
1d018f7c:	0400a0af 	sw	zero,4(sp)
1d018f80:	0400a28f 	lw	v0,4(sp)
1d018f84:	2b104300 	sltu	v0,v0,v1
1d018f88:	09004010 	beqz	v0,0x1d018fb0
1d018f8c:	00000000 	nop
1d018f90:	0800a4ac 	sw	a0,8(a1)
1d018f94:	0400a28f 	lw	v0,4(sp)
1d018f98:	01004224 	addiu	v0,v0,1
1d018f9c:	0400a2af 	sw	v0,4(sp)
1d018fa0:	0400a28f 	lw	v0,4(sp)
1d018fa4:	2b104300 	sltu	v0,v0,v1
1d018fa8:	f9ff4014 	bnez	v0,0x1d018f90
1d018fac:	00000000 	nop
1d018fb0:	0000a28f 	lw	v0,0(sp)
1d018fb4:	01004224 	addiu	v0,v0,1
1d018fb8:	0000a2af 	sw	v0,0(sp)
1d018fbc:	0000a78f 	lw	a3,0(sp)
1d018fc0:	6080828f 	lw	v0,-32672(gp)
1d018fc4:	2b10e200 	sltu	v0,a3,v0
1d018fc8:	ddff4014 	bnez	v0,0x1d018f40
1d018fcc:	00000000 	nop
1d018fd0:	0000a0af 	sw	zero,0(sp)
1d018fd4:	0000a28f 	lw	v0,0(sp)
1d018fd8:	0a00422c 	sltiu	v0,v0,10
1d018fdc:	d1ff4010 	beqz	v0,0x1d018f24
1d018fe0:	00000000 	nop
1d018fe4:	e46006ad 	sw	a2,24804(t0)
1d018fe8:	0400a0af 	sw	zero,4(sp)
1d018fec:	0400a28f 	lw	v0,4(sp)
1d018ff0:	2b104300 	sltu	v0,v0,v1
1d018ff4:	09004010 	beqz	v0,0x1d01901c
1d018ff8:	00000000 	nop
1d018ffc:	0800a4ac 	sw	a0,8(a1)
1d019000:	0400a28f 	lw	v0,4(sp)
1d019004:	01004224 	addiu	v0,v0,1
1d019008:	0400a2af 	sw	v0,4(sp)
1d01900c:	0400a28f 	lw	v0,4(sp)
1d019010:	2b104300 	sltu	v0,v0,v1
1d019014:	f9ff4014 	bnez	v0,0x1d018ffc
1d019018:	00000000 	nop
1d01901c:	0000a28f 	lw	v0,0(sp)
1d019020:	01004224 	addiu	v0,v0,1
1d019024:	0000a2af 	sw	v0,0(sp)
1d019028:	0000a28f 	lw	v0,0(sp)
1d01902c:	0a00422c 	sltiu	v0,v0,10
1d019030:	ecff4014 	bnez	v0,0x1d018fe4
1d019034:	00000000 	nop
1d019038:	c963400b 	j	0x1d018f24
1d01903c:	00000000 	nop
1d019040:	d8ffbd27 	addiu	sp,sp,-40
1d019044:	2400bfaf 	sw	ra,36(sp)
1d019048:	2000b3af 	sw	s3,32(sp)
1d01904c:	1c00b2af 	sw	s2,28(sp)
1d019050:	1800b1af 	sw	s1,24(sp)
1d019054:	1400b0af 	sw	s0,20(sp)
1d019058:	21888000 	move	s1,a0
1d01905c:	00008290 	lbu	v0,0(a0)
1d019060:	ffff4224 	addiu	v0,v0,-1
1d019064:	ff004230 	andi	v0,v0,0xff
1d019068:	cf00422c 	sltiu	v0,v0,207
1d01906c:	b9004010 	beqz	v0,0x1d019354
1d019070:	21800000 	move	s0,zero
1d019074:	2190a000 	move	s2,a1
1d019078:	2120a000 	move	a0,a1
1d01907c:	21280000 	move	a1,zero
1d019080:	c96d400f 	jal	0x1d01b724
1d019084:	40000624 	li	a2,64
1d019088:	00002292 	lbu	v0,0(s1)
1d01908c:	c0000324 	li	v1,192
1d019090:	0a004314 	bne	v0,v1,0x1d0190bc
1d019094:	c1000324 	li	v1,193
1d019098:	c0ff0224 	li	v0,-64
1d01909c:	000042a2 	sb	v0,0(s2)
1d0190a0:	01000224 	li	v0,1
1d0190a4:	020042a6 	sh	v0,2(s2)
1d0190a8:	040040a6 	sh	zero,4(s2)
1d0190ac:	02000224 	li	v0,2
1d0190b0:	060042a6 	sh	v0,6(s2)
1d0190b4:	d564400b 	j	0x1d019354
1d0190b8:	01001024 	li	s0,1
1d0190bc:	25004314 	bne	v0,v1,0x1d019154
1d0190c0:	c2000324 	li	v1,194
1d0190c4:	c1ff0224 	li	v0,-63
1d0190c8:	000042a2 	sb	v0,0(s2)
1d0190cc:	01004226 	addiu	v0,s2,1
1d0190d0:	029d033c 	lui	v1,0x9d02
1d0190d4:	bcc4658c 	lw	a1,-15172(v1)
1d0190d8:	bcc46324 	addiu	v1,v1,-15172
1d0190dc:	0400648c 	lw	a0,4(v1)
1d0190e0:	040045aa 	swl	a1,4(s2)
1d0190e4:	000045b8 	swr	a1,0(v0)
1d0190e8:	070044a8 	swl	a0,7(v0)
1d0190ec:	040044b8 	swr	a0,4(v0)
1d0190f0:	08006490 	lbu	a0,8(v1)
1d0190f4:	080044a0 	sb	a0,8(v0)
1d0190f8:	09006490 	lbu	a0,9(v1)
1d0190fc:	090044a0 	sb	a0,9(v0)
1d019100:	0a006390 	lbu	v1,10(v1)
1d019104:	0a0043a0 	sb	v1,10(v0)
1d019108:	0c004426 	addiu	a0,s2,12
1d01910c:	029d053c 	lui	a1,0x9d02
1d019110:	c8c4a524 	addiu	a1,a1,-15160
1d019114:	3d6f400f 	jal	0x1d01bcf4
1d019118:	10000624 	li	a2,16
1d01911c:	fe49400f 	jal	0x1d0127f8
1d019120:	01001024 	li	s0,1
1d019124:	1c004426 	addiu	a0,s2,28
1d019128:	21284000 	move	a1,v0
1d01912c:	3d6f400f 	jal	0x1d01bcf4
1d019130:	12000624 	li	a2,18
1d019134:	8c4a400f 	jal	0x1d012a30
1d019138:	00000000 	nop
1d01913c:	2e004426 	addiu	a0,s2,46
1d019140:	21284000 	move	a1,v0
1d019144:	3d6f400f 	jal	0x1d01bcf4
1d019148:	12000624 	li	a2,18
1d01914c:	d664400b 	j	0x1d019358
1d019150:	21100002 	move	v0,s0
1d019154:	1b004314 	bne	v0,v1,0x1d0191c4
1d019158:	c3000324 	li	v1,195
1d01915c:	c2ff0224 	li	v0,-62
1d019160:	000042a2 	sb	v0,0(s2)
1d019164:	02002296 	lhu	v0,2(s1)
1d019168:	8f4a400f 	jal	0x1d012a3c
1d01916c:	020042a6 	sh	v0,2(s2)
1d019170:	21984000 	move	s3,v0
1d019174:	016b400f 	jal	0x1d01ac04
1d019178:	21204000 	move	a0,v0
1d01917c:	0010432c 	sltiu	v1,v0,4096
1d019180:	6d006010 	beqz	v1,0x1d019338
1d019184:	02002596 	lhu	a1,2(s1)
1d019188:	23204500 	subu	a0,v0,a1
1d01918c:	3c008428 	slti	a0,a0,60
1d019190:	6e008010 	beqz	a0,0x1d01934c
1d019194:	2118a000 	move	v1,a1
1d019198:	6a64400b 	j	0x1d0191a8
1d01919c:	23304300 	subu	a2,v0,v1
1d0191a0:	00100224 	li	v0,4096
1d0191a4:	23304300 	subu	a2,v0,v1
1d0191a8:	6a00c018 	blez	a2,0x1d019354
1d0191ac:	01001024 	li	s0,1
1d0191b0:	04004426 	addiu	a0,s2,4
1d0191b4:	a76a400f 	jal	0x1d01aa9c
1d0191b8:	21286502 	addu	a1,s3,a1
1d0191bc:	d564400b 	j	0x1d019354
1d0191c0:	01001024 	li	s0,1
1d0191c4:	20004314 	bne	v0,v1,0x1d019248
1d0191c8:	c4000324 	li	v1,196
1d0191cc:	c3ff0224 	li	v0,-61
1d0191d0:	000042a2 	sb	v0,0(s2)
1d0191d4:	02002296 	lhu	v0,2(s1)
1d0191d8:	07004054 	bnezl	v0,0x1d0191f8
1d0191dc:	02002496 	lhu	a0,2(s1)
1d0191e0:	01a0043c 	lui	a0,0xa001
1d0191e4:	7c1d8424 	addiu	a0,a0,7548
1d0191e8:	21280000 	move	a1,zero
1d0191ec:	c96d400f 	jal	0x1d01b724
1d0191f0:	00100624 	li	a2,4096
1d0191f4:	02002496 	lhu	a0,2(s1)
1d0191f8:	04101324 	li	s3,4100
1d0191fc:	23986402 	subu	s3,s3,a0
1d019200:	3d00632a 	slti	v1,s3,61
1d019204:	3c000224 	li	v0,60
1d019208:	0a984300 	movz	s3,v0,v1
1d01920c:	5100601a 	blez	s3,0x1d019354
1d019210:	01001024 	li	s0,1
1d019214:	01a0103c 	lui	s0,0xa001
1d019218:	7c1d1026 	addiu	s0,s0,7548
1d01921c:	21200402 	addu	a0,s0,a0
1d019220:	04002526 	addiu	a1,s1,4
1d019224:	a76a400f 	jal	0x1d01aa9c
1d019228:	21306002 	move	a2,s3
1d01922c:	02002296 	lhu	v0,2(s1)
1d019230:	21985300 	addu	s3,v0,s3
1d019234:	001013ae 	sw	s3,4096(s0)
1d019238:	02002296 	lhu	v0,2(s1)
1d01923c:	020042a6 	sh	v0,2(s2)
1d019240:	d564400b 	j	0x1d019354
1d019244:	01001024 	li	s0,1
1d019248:	0c004314 	bne	v0,v1,0x1d01927c
1d01924c:	38004324 	addiu	v1,v0,56
1d019250:	c4ff0224 	li	v0,-60
1d019254:	000042a2 	sb	v0,0(s2)
1d019258:	01a0023c 	lui	v0,0xa001
1d01925c:	7c1d4224 	addiu	v0,v0,7548
1d019260:	21204000 	move	a0,v0
1d019264:	624c400f 	jal	0x1d013188
1d019268:	0010458c 	lw	a1,4096(v0)
1d01926c:	9c4a400f 	jal	0x1d012a70
1d019270:	01001024 	li	s0,1
1d019274:	d664400b 	j	0x1d019358
1d019278:	21100002 	move	v0,s0
1d01927c:	ff006330 	andi	v1,v1,0xff
1d019280:	0800632c 	sltiu	v1,v1,8
1d019284:	33006010 	beqz	v1,0x1d019354
1d019288:	21800000 	move	s0,zero
1d01928c:	000042a2 	sb	v0,0(s2)
1d019290:	00003192 	lbu	s1,0(s1)
1d019294:	38ff3126 	addiu	s1,s1,-200
1d019298:	bd49400f 	jal	0x1d0126f4
1d01929c:	21202002 	move	a0,s1
1d0192a0:	23004010 	beqz	v0,0x1d019330
1d0192a4:	21804000 	move	s0,v0
1d0192a8:	01004292 	lbu	v0,1(s2)
1d0192ac:	01000324 	li	v1,1
1d0192b0:	0400627c 	ins	v0,v1,0x0,0x1
1d0192b4:	010042a2 	sb	v0,1(s2)
1d0192b8:	bf49400f 	jal	0x1d0126fc
1d0192bc:	21202002 	move	a0,s1
1d0192c0:	01004392 	lbu	v1,1(s2)
1d0192c4:	4408437c 	ins	v1,v0,0x1,0x1
1d0192c8:	010043a2 	sb	v1,1(s2)
1d0192cc:	c549400f 	jal	0x1d012714
1d0192d0:	21202002 	move	a0,s1
1d0192d4:	01004392 	lbu	v1,1(s2)
1d0192d8:	8410437c 	ins	v1,v0,0x2,0x1
1d0192dc:	010043a2 	sb	v1,1(s2)
1d0192e0:	cb49400f 	jal	0x1d01272c
1d0192e4:	21202002 	move	a0,s1
1d0192e8:	020042a6 	sh	v0,2(s2)
1d0192ec:	d149400f 	jal	0x1d012744
1d0192f0:	21202002 	move	a0,s1
1d0192f4:	040042a6 	sh	v0,4(s2)
1d0192f8:	d749400f 	jal	0x1d01275c
1d0192fc:	21202002 	move	a0,s1
1d019300:	06004426 	addiu	a0,s2,6
1d019304:	21284000 	move	a1,v0
1d019308:	3d6f400f 	jal	0x1d01bcf4
1d01930c:	10000624 	li	a2,16
1d019310:	dd49400f 	jal	0x1d012774
1d019314:	21202002 	move	a0,s1
1d019318:	16004426 	addiu	a0,s2,22
1d01931c:	21284000 	move	a1,v0
1d019320:	3d6f400f 	jal	0x1d01bcf4
1d019324:	2a000624 	li	a2,42
1d019328:	d664400b 	j	0x1d019358
1d01932c:	21100002 	move	v0,s0
1d019330:	d564400b 	j	0x1d019354
1d019334:	01001024 	li	s0,1
1d019338:	00100224 	li	v0,4096
1d01933c:	23104500 	subu	v0,v0,a1
1d019340:	3c004228 	slti	v0,v0,60
1d019344:	96ff4014 	bnez	v0,0x1d0191a0
1d019348:	2118a000 	move	v1,a1
1d01934c:	6c64400b 	j	0x1d0191b0
1d019350:	3c000624 	li	a2,60
1d019354:	21100002 	move	v0,s0
1d019358:	2400bf8f 	lw	ra,36(sp)
1d01935c:	2000b38f 	lw	s3,32(sp)
1d019360:	1c00b28f 	lw	s2,28(sp)
1d019364:	1800b18f 	lw	s1,24(sp)
1d019368:	1400b08f 	lw	s0,20(sp)
1d01936c:	0800e003 	jr	ra
1d019370:	2800bd27 	addiu	sp,sp,40

Disassembly of section .sec75:

1d019374 <.sec75>:
1d019374:	000000a0 	sb	zero,0(zero)
1d019378:	04000000 	sllv	zero,zero,zero
1d01937c:	01000000 	movf	zero,zero,$fcc0
1d019380:	ffffffff 	sdc3	$31,-1(ra)
1d019384:	1c0000a0 	sb	zero,28(zero)
1d019388:	01000000 	movf	zero,zero,$fcc0
1d01938c:	00000000 	nop
1d019390:	e43501a0 	sb	at,13796(zero)
1d019394:	48000000 	0x48
1d019398:	00000000 	nop
1d01939c:	1d0000a0 	sb	zero,29(zero)
1d0193a0:	03000000 	sra	zero,zero,0x0
1d0193a4:	00000000 	nop
1d0193a8:	7c1d01a0 	sb	at,7548(zero)
1d0193ac:	04100000 	sllv	v0,zero,zero
1d0193b0:	00000000 	nop
1d0193b4:	1c0100a0 	sb	zero,284(zero)
1d0193b8:	dc000000 	0xdc
1d0193bc:	01000000 	movf	zero,zero,$fcc0
1d0193c0:	a09d019d 	0x9d019da0
1d0193c4:	ac9d019d 	0x9d019dac
1d0193c8:	01000000 	movf	zero,zero,$fcc0
	...
1d0193dc:	01000000 	movf	zero,zero,$fcc0
1d0193e0:	00000000 	nop
1d0193e4:	01000000 	movf	zero,zero,$fcc0
1d0193e8:	01000000 	movf	zero,zero,$fcc0
1d0193ec:	c49d019d 	0x9d019dc4
1d0193f0:	d49d019d 	0x9d019dd4
1d0193f4:	05000000 	0x5
1d0193f8:	0000803d 	0x3d800000
	...
1d019408:	48000000 	0x48
1d01940c:	20000000 	add	zero,zero,zero
1d019410:	48000000 	0x48
1d019414:	48000000 	0x48
1d019418:	ec9d019d 	0x9d019dec
1d01941c:	009e019d 	0x9d019e00
1d019420:	01000000 	movf	zero,zero,$fcc0
	...
1d01943c:	01000000 	movf	zero,zero,$fcc0
1d019440:	00000000 	nop
1d019444:	409e019d 	0x9d019e40
1d019448:	549e019d 	0x9d019e54
1d01944c:	01000000 	movf	zero,zero,$fcc0
	...
1d019468:	01000000 	movf	zero,zero,$fcc0
1d01946c:	00000000 	nop
1d019470:	849e019d 	0x9d019e84
1d019474:	989e019d 	0x9d019e98
1d019478:	01000000 	movf	zero,zero,$fcc0
	...
1d019494:	01000000 	movf	zero,zero,$fcc0
1d019498:	00000000 	nop
1d01949c:	883301a0 	sb	at,13192(zero)
1d0194a0:	28000000 	0x28
1d0194a4:	00000000 	nop
1d0194a8:	b03301a0 	sb	at,13232(zero)
1d0194ac:	10000000 	mfhi	zero
1d0194b0:	00000000 	nop
1d0194b4:	200000a0 	sb	zero,32(zero)
1d0194b8:	14000000 	0x14
1d0194bc:	00000000 	nop
1d0194c0:	743601a0 	sb	at,13940(zero)
1d0194c4:	10000000 	mfhi	zero
1d0194c8:	00000000 	nop
1d0194cc:	040000a0 	sb	zero,4(zero)
1d0194d0:	04000000 	sllv	zero,zero,zero
1d0194d4:	01000000 	movf	zero,zero,$fcc0
1d0194d8:	2c010000 	0x12c
1d0194dc:	2c3601a0 	sb	at,13868(zero)
1d0194e0:	48000000 	0x48
1d0194e4:	00000000 	nop
1d0194e8:	080000a0 	sb	zero,8(zero)
1d0194ec:	01000000 	movf	zero,zero,$fcc0
1d0194f0:	01000000 	movf	zero,zero,$fcc0
1d0194f4:	01000000 	movf	zero,zero,$fcc0
1d0194f8:	340000a0 	sb	zero,52(zero)
1d0194fc:	1c000000 	0x1c
1d019500:	00000000 	nop
1d019504:	000200a0 	sb	zero,512(zero)
1d019508:	db020000 	0x2db
1d01950c:	00000000 	nop
1d019510:	500000a0 	sb	zero,80(zero)
1d019514:	0c000000 	syscall
1d019518:	00000000 	nop
1d01951c:	fc0c01a0 	sb	at,3324(zero)
1d019520:	80100000 	sll	v0,zero,0x2
1d019524:	00000000 	nop
1d019528:	5c0000a0 	sb	zero,92(zero)
1d01952c:	20000000 	add	zero,zero,zero
1d019530:	00000000 	nop
1d019534:	7c0000a0 	sb	zero,124(zero)
1d019538:	08000000 	jr	zero
1d01953c:	00000000 	nop
1d019540:	c03301a0 	sb	at,13248(zero)
1d019544:	80010000 	sll	zero,zero,0x6
1d019548:	00000000 	nop
1d01954c:	840000a0 	sb	zero,132(zero)
1d019550:	14000000 	0x14
1d019554:	00000000 	nop
1d019558:	403501a0 	sb	at,13632(zero)
1d01955c:	a4000000 	0xa4
1d019560:	01000000 	movf	zero,zero,$fcc0
1d019564:	f4010000 	teq	zero,zero,0x7
	...
1d01958c:	fa000000 	0xfa
	...
1d019608:	802d01a0 	sb	at,11648(zero)
1d01960c:	04060000 	0x604
1d019610:	00000000 	nop
1d019614:	0c0000a0 	sb	zero,12(zero)
1d019618:	0c000000 	syscall
1d01961c:	01000000 	movf	zero,zero,$fcc0
1d019620:	ffffffff 	sdc3	$31,-1(ra)
1d019624:	06000000 	srlv	zero,zero,zero
1d019628:	04000000 	sllv	zero,zero,zero
1d01962c:	980000a0 	sb	zero,152(zero)
1d019630:	14000000 	0x14
1d019634:	00000000 	nop
1d019638:	ac0000a0 	sb	zero,172(zero)
1d01963c:	08000000 	jr	zero
1d019640:	00000000 	nop
1d019644:	dc0400a0 	sb	zero,1244(zero)
1d019648:	20080100 	add	at,zero,at
1d01964c:	00000000 	nop
1d019650:	b40000a0 	sb	zero,180(zero)
1d019654:	08000000 	jr	zero
1d019658:	00000000 	nop
1d01965c:	180000a0 	sb	zero,24(zero)
1d019660:	04000000 	sllv	zero,zero,zero
1d019664:	01000000 	movf	zero,zero,$fcc0
1d019668:	ffffff7f 	0x7fffffff
1d01966c:	f80100a0 	sb	zero,504(zero)
1d019670:	08000000 	jr	zero
1d019674:	01000000 	movf	zero,zero,$fcc0
1d019678:	00b088bf 	cache	0x8,-20480(gp)
1d01967c:	00c088bf 	cache	0x8,-16384(gp)
1d019680:	843301a0 	sb	at,13188(zero)
1d019684:	04000000 	sllv	zero,zero,zero
	...
1d019690:	22222222 	addi	v0,s1,8738

Disassembly of section .sec76:

1d019694 <.sec76>:
1d019694:	e8ffbd27 	addiu	sp,sp,-24
1d019698:	1400bfaf 	sw	ra,20(sp)
1d01969c:	103a400f 	jal	0x1d00e840
1d0196a0:	00000000 	nop
1d0196a4:	8870400f 	jal	0x1d01c220
1d0196a8:	00000000 	nop
1d0196ac:	783b400f 	jal	0x1d00ede0
1d0196b0:	00000000 	nop
1d0196b4:	1400bf8f 	lw	ra,20(sp)
1d0196b8:	0800e003 	jr	ra
1d0196bc:	1800bd27 	addiu	sp,sp,24
1d0196c0:	0002033c 	lui	v1,0x200
1d0196c4:	88bf023c 	lui	v0,0xbf88
1d0196c8:	741043ac 	sw	v1,4212(v0)
1d0196cc:	0800e003 	jr	ra
1d0196d0:	00000000 	nop
1d0196d4:	e0ffbd27 	addiu	sp,sp,-32
1d0196d8:	1c00bfaf 	sw	ra,28(sp)
1d0196dc:	1800b1af 	sw	s1,24(sp)
1d0196e0:	1400b0af 	sw	s0,20(sp)
1d0196e4:	1481838f 	lw	v1,-32492(gp)
1d0196e8:	20000224 	li	v0,32
1d0196ec:	62006254 	bnel	v1,v0,0x1d019878
1d0196f0:	1c00bf8f 	lw	ra,28(sp)
1d0196f4:	a480828f 	lw	v0,-32604(gp)
1d0196f8:	07004010 	beqz	v0,0x1d019718
1d0196fc:	01a0103c 	lui	s0,0xa001
1d019700:	00004290 	lbu	v0,0(v0)
1d019704:	80004230 	andi	v0,v0,0x80
1d019708:	ff004230 	andi	v0,v0,0xff
1d01970c:	12004014 	bnez	v0,0x1d019758
1d019710:	a080828f 	lw	v0,-32608(gp)
1d019714:	01a0103c 	lui	s0,0xa001
1d019718:	00350426 	addiu	a0,s0,13568
1d01971c:	01a0113c 	lui	s1,0xa001
1d019720:	0239400f 	jal	0x1d00e408
1d019724:	c0342526 	addiu	a1,s1,13504
1d019728:	01000424 	li	a0,1
1d01972c:	01000524 	li	a1,1
1d019730:	c0342626 	addiu	a2,s1,13504
1d019734:	cf3a400f 	jal	0x1d00eb3c
1d019738:	40000724 	li	a3,64
1d01973c:	01000424 	li	a0,1
1d019740:	21280000 	move	a1,zero
1d019744:	00350626 	addiu	a2,s0,13568
1d019748:	cf3a400f 	jal	0x1d00eb3c
1d01974c:	40000724 	li	a3,64
1d019750:	a48082af 	sw	v0,-32604(gp)
1d019754:	a080828f 	lw	v0,-32608(gp)
1d019758:	07004050 	beqzl	v0,0x1d019778
1d01975c:	9c80828f 	lw	v0,-32612(gp)
1d019760:	00004290 	lbu	v0,0(v0)
1d019764:	80004230 	andi	v0,v0,0x80
1d019768:	ff004230 	andi	v0,v0,0xff
1d01976c:	1e004014 	bnez	v0,0x1d0197e8
1d019770:	9880828f 	lw	v0,-32616(gp)
1d019774:	9c80828f 	lw	v0,-32612(gp)
1d019778:	07004010 	beqz	v0,0x1d019798
1d01977c:	01a0043c 	lui	a0,0xa001
1d019780:	00004290 	lbu	v0,0(v0)
1d019784:	80004230 	andi	v0,v0,0x80
1d019788:	ff004230 	andi	v0,v0,0xff
1d01978c:	16004014 	bnez	v0,0x1d0197e8
1d019790:	9880828f 	lw	v0,-32616(gp)
1d019794:	01a0043c 	lui	a0,0xa001
1d019798:	80348424 	addiu	a0,a0,13440
1d01979c:	01a0053c 	lui	a1,0xa001
1d0197a0:	8850400f 	jal	0x1d014220
1d0197a4:	4034a524 	addiu	a1,a1,13376
1d0197a8:	08004010 	beqz	v0,0x1d0197cc
1d0197ac:	02000424 	li	a0,2
1d0197b0:	01000524 	li	a1,1
1d0197b4:	01a0063c 	lui	a2,0xa001
1d0197b8:	4034c624 	addiu	a2,a2,13376
1d0197bc:	cf3a400f 	jal	0x1d00eb3c
1d0197c0:	ff004730 	andi	a3,v0,0xff
1d0197c4:	9c8082af 	sw	v0,-32612(gp)
1d0197c8:	02000424 	li	a0,2
1d0197cc:	21280000 	move	a1,zero
1d0197d0:	01a0063c 	lui	a2,0xa001
1d0197d4:	8034c624 	addiu	a2,a2,13440
1d0197d8:	cf3a400f 	jal	0x1d00eb3c
1d0197dc:	40000724 	li	a3,64
1d0197e0:	a08082af 	sw	v0,-32608(gp)
1d0197e4:	9880828f 	lw	v0,-32616(gp)
1d0197e8:	07004010 	beqz	v0,0x1d019808
1d0197ec:	01a0103c 	lui	s0,0xa001
1d0197f0:	00004290 	lbu	v0,0(v0)
1d0197f4:	80004230 	andi	v0,v0,0x80
1d0197f8:	ff004230 	andi	v0,v0,0xff
1d0197fc:	0b004014 	bnez	v0,0x1d01982c
1d019800:	9480828f 	lw	v0,-32620(gp)
1d019804:	01a0103c 	lui	s0,0xa001
1d019808:	b150400f 	jal	0x1d0142c4
1d01980c:	00340426 	addiu	a0,s0,13312
1d019810:	03000424 	li	a0,3
1d019814:	21280000 	move	a1,zero
1d019818:	00340626 	addiu	a2,s0,13312
1d01981c:	cf3a400f 	jal	0x1d00eb3c
1d019820:	40000724 	li	a3,64
1d019824:	988082af 	sw	v0,-32616(gp)
1d019828:	9480828f 	lw	v0,-32620(gp)
1d01982c:	06004010 	beqz	v0,0x1d019848
1d019830:	01a0043c 	lui	a0,0xa001
1d019834:	00004290 	lbu	v0,0(v0)
1d019838:	80004230 	andi	v0,v0,0x80
1d01983c:	ff004230 	andi	v0,v0,0xff
1d019840:	0d004014 	bnez	v0,0x1d019878
1d019844:	1c00bf8f 	lw	ra,28(sp)
1d019848:	b850400f 	jal	0x1d0142e0
1d01984c:	c0338424 	addiu	a0,a0,13248
1d019850:	09004010 	beqz	v0,0x1d019878
1d019854:	1c00bf8f 	lw	ra,28(sp)
1d019858:	03000424 	li	a0,3
1d01985c:	01000524 	li	a1,1
1d019860:	01a0063c 	lui	a2,0xa001
1d019864:	c033c624 	addiu	a2,a2,13248
1d019868:	cf3a400f 	jal	0x1d00eb3c
1d01986c:	ff004730 	andi	a3,v0,0xff
1d019870:	948082af 	sw	v0,-32620(gp)
1d019874:	1c00bf8f 	lw	ra,28(sp)
1d019878:	1800b18f 	lw	s1,24(sp)
1d01987c:	1400b08f 	lw	s0,20(sp)
1d019880:	0800e003 	jr	ra
1d019884:	2000bd27 	addiu	sp,sp,32
1d019888:	e8ffbd27 	addiu	sp,sp,-24
1d01988c:	1400bfaf 	sw	ra,20(sp)
1d019890:	01000424 	li	a0,1
1d019894:	9a3a400f 	jal	0x1d00ea68
1d019898:	1d000524 	li	a1,29
1d01989c:	01000424 	li	a0,1
1d0198a0:	21280000 	move	a1,zero
1d0198a4:	01a0063c 	lui	a2,0xa001
1d0198a8:	0035c624 	addiu	a2,a2,13568
1d0198ac:	cf3a400f 	jal	0x1d00eb3c
1d0198b0:	40000724 	li	a3,64
1d0198b4:	a48082af 	sw	v0,-32604(gp)
1d0198b8:	02000424 	li	a0,2
1d0198bc:	9a3a400f 	jal	0x1d00ea68
1d0198c0:	1d000524 	li	a1,29
1d0198c4:	02000424 	li	a0,2
1d0198c8:	21280000 	move	a1,zero
1d0198cc:	01a0063c 	lui	a2,0xa001
1d0198d0:	8034c624 	addiu	a2,a2,13440
1d0198d4:	cf3a400f 	jal	0x1d00eb3c
1d0198d8:	40000724 	li	a3,64
1d0198dc:	a08082af 	sw	v0,-32608(gp)
1d0198e0:	03000424 	li	a0,3
1d0198e4:	9a3a400f 	jal	0x1d00ea68
1d0198e8:	1d000524 	li	a1,29
1d0198ec:	03000424 	li	a0,3
1d0198f0:	21280000 	move	a1,zero
1d0198f4:	01a0063c 	lui	a2,0xa001
1d0198f8:	0034c624 	addiu	a2,a2,13312
1d0198fc:	cf3a400f 	jal	0x1d00eb3c
1d019900:	40000724 	li	a3,64
1d019904:	988082af 	sw	v0,-32616(gp)
1d019908:	1400bf8f 	lw	ra,20(sp)
1d01990c:	0800e003 	jr	ra
1d019910:	1800bd27 	addiu	sp,sp,24
1d019914:	0800e003 	jr	ra
1d019918:	00000000 	nop
1d01991c:	0800e003 	jr	ra
1d019920:	00000000 	nop
1d019924:	0800e003 	jr	ra
1d019928:	00000000 	nop
1d01992c:	0800e003 	jr	ra
1d019930:	00000000 	nop
1d019934:	e8ffbd27 	addiu	sp,sp,-24
1d019938:	1400bfaf 	sw	ra,20(sp)
1d01993c:	7d69400f 	jal	0x1d01a5f4
1d019940:	00000000 	nop
1d019944:	1400bf8f 	lw	ra,20(sp)
1d019948:	0800e003 	jr	ra
1d01994c:	1800bd27 	addiu	sp,sp,24
1d019950:	0800e003 	jr	ra
1d019954:	00000000 	nop
1d019958:	e8ffbd27 	addiu	sp,sp,-24
1d01995c:	01000224 	li	v0,1
1d019960:	06008210 	beq	a0,v0,0x1d01997c
1d019964:	1400bfaf 	sw	ra,20(sp)
1d019968:	03000224 	li	v0,3
1d01996c:	07008210 	beq	a0,v0,0x1d01998c
1d019970:	01000224 	li	v0,1
1d019974:	6766400b 	j	0x1d01999c
1d019978:	1400bf8f 	lw	ra,20(sp)
1d01997c:	2266400f 	jal	0x1d019888
1d019980:	00000000 	nop
1d019984:	6666400b 	j	0x1d019998
1d019988:	01000224 	li	v0,1
1d01998c:	7d69400f 	jal	0x1d01a5f4
1d019990:	00000000 	nop
1d019994:	01000224 	li	v0,1
1d019998:	1400bf8f 	lw	ra,20(sp)
1d01999c:	0800e003 	jr	ra
1d0199a0:	1800bd27 	addiu	sp,sp,24
1d0199a4:	e0ffbd27 	addiu	sp,sp,-32
1d0199a8:	1c00bfaf 	sw	ra,28(sp)
1d0199ac:	1800b1af 	sw	s1,24(sp)
1d0199b0:	1400b0af 	sw	s0,20(sp)
1d0199b4:	21808000 	move	s0,a0
1d0199b8:	000080a0 	sb	zero,0(a0)
1d0199bc:	010080a0 	sb	zero,1(a0)
1d0199c0:	020080a0 	sb	zero,2(a0)
1d0199c4:	030080a0 	sb	zero,3(a0)
1d0199c8:	040080a0 	sb	zero,4(a0)
1d0199cc:	050080a0 	sb	zero,5(a0)
1d0199d0:	060080a0 	sb	zero,6(a0)
1d0199d4:	8c4a400f 	jal	0x1d012a30
1d0199d8:	070080a0 	sb	zero,7(a0)
1d0199dc:	21884000 	move	s1,v0
1d0199e0:	2c808293 	lbu	v0,-32724(gp)
1d0199e4:	08004054 	bnezl	v0,0x1d019a08
1d0199e8:	00002392 	lbu	v1,0(s1)
1d0199ec:	00002292 	lbu	v0,0(s1)
1d0199f0:	07004010 	beqz	v0,0x1d019a10
1d0199f4:	01000224 	li	v0,1
1d0199f8:	2c8082a3 	sb	v0,-32724(gp)
1d0199fc:	ffff0224 	li	v0,-1
1d019a00:	108082af 	sw	v0,-32752(gp)
1d019a04:	00002392 	lbu	v1,0(s1)
1d019a08:	05006014 	bnez	v1,0x1d019a20
1d019a0c:	01000224 	li	v0,1
1d019a10:	bb49400f 	jal	0x1d0126ec
1d019a14:	00000000 	nop
1d019a18:	01004238 	xori	v0,v0,0x1
1d019a1c:	ff004230 	andi	v0,v0,0xff
1d019a20:	01000392 	lbu	v1,1(s0)
1d019a24:	0400437c 	ins	v1,v0,0x0,0x1
1d019a28:	b749400f 	jal	0x1d0126dc
1d019a2c:	010003a2 	sb	v1,1(s0)
1d019a30:	01000392 	lbu	v1,1(s0)
1d019a34:	4408437c 	ins	v1,v0,0x1,0x1
1d019a38:	b949400f 	jal	0x1d0126e4
1d019a3c:	010003a2 	sb	v1,1(s0)
1d019a40:	01000392 	lbu	v1,1(s0)
1d019a44:	8410437c 	ins	v1,v0,0x2,0x1
1d019a48:	010003a2 	sb	v1,1(s0)
1d019a4c:	1080838f 	lw	v1,-32752(gp)
1d019a50:	01006324 	addiu	v1,v1,1
1d019a54:	0700622c 	sltiu	v0,v1,7
1d019a58:	03004014 	bnez	v0,0x1d019a68
1d019a5c:	108083af 	sw	v1,-32752(gp)
1d019a60:	a966400b 	j	0x1d019aa4
1d019a64:	108080af 	sw	zero,-32752(gp)
1d019a68:	83004010 	beqz	v0,0x1d019c78
1d019a6c:	80180300 	sll	v1,v1,0x2
1d019a70:	029d023c 	lui	v0,0x9d02
1d019a74:	889a4224 	addiu	v0,v0,-25976
1d019a78:	21184300 	addu	v1,v0,v1
1d019a7c:	0000628c 	lw	v0,0(v1)
1d019a80:	08004000 	jr	v0
1d019a84:	00000000 	nop
1d019a88:	a49a019d 	0x9d019aa4
1d019a8c:	f09a019d 	0x9d019af0
1d019a90:	309b019d 	0x9d019b30
1d019a94:	6c9b019d 	0x9d019b6c
1d019a98:	9c9b019d 	0x9d019b9c
1d019a9c:	e89b019d 	0x9d019be8
1d019aa0:	349c019d 	0x9d019c34
1d019aa4:	000000a2 	sb	zero,0(s0)
1d019aa8:	bf49400f 	jal	0x1d0126fc
1d019aac:	21200000 	move	a0,zero
1d019ab0:	02000396 	lhu	v1,2(s0)
1d019ab4:	0400437c 	ins	v1,v0,0x0,0x1
1d019ab8:	020003a6 	sh	v1,2(s0)
1d019abc:	c549400f 	jal	0x1d012714
1d019ac0:	21200000 	move	a0,zero
1d019ac4:	02000396 	lhu	v1,2(s0)
1d019ac8:	4408437c 	ins	v1,v0,0x1,0x1
1d019acc:	020003a6 	sh	v1,2(s0)
1d019ad0:	cb49400f 	jal	0x1d01272c
1d019ad4:	21200000 	move	a0,zero
1d019ad8:	040002a6 	sh	v0,4(s0)
1d019adc:	d149400f 	jal	0x1d012744
1d019ae0:	21200000 	move	a0,zero
1d019ae4:	060002a6 	sh	v0,6(s0)
1d019ae8:	1f67400b 	j	0x1d019c7c
1d019aec:	01000224 	li	v0,1
1d019af0:	80ff0224 	li	v0,-128
1d019af4:	e649400f 	jal	0x1d012798
1d019af8:	000002a2 	sb	v0,0(s0)
1d019afc:	ea49400f 	jal	0x1d0127a8
1d019b00:	020002a2 	sb	v0,2(s0)
1d019b04:	ee49400f 	jal	0x1d0127b8
1d019b08:	030002a2 	sb	v0,3(s0)
1d019b0c:	f249400f 	jal	0x1d0127c8
1d019b10:	040002a2 	sb	v0,4(s0)
1d019b14:	f649400f 	jal	0x1d0127d8
1d019b18:	050002a2 	sb	v0,5(s0)
1d019b1c:	fa49400f 	jal	0x1d0127e8
1d019b20:	060002a2 	sb	v0,6(s0)
1d019b24:	070002a2 	sb	v0,7(s0)
1d019b28:	1f67400b 	j	0x1d019c7c
1d019b2c:	01000224 	li	v0,1
1d019b30:	81ff0224 	li	v0,-127
1d019b34:	000002a2 	sb	v0,0(s0)
1d019b38:	32000224 	li	v0,50
1d019b3c:	020002a2 	sb	v0,2(s0)
1d019b40:	30000224 	li	v0,48
1d019b44:	030002a2 	sb	v0,3(s0)
1d019b48:	31000324 	li	v1,49
1d019b4c:	040003a2 	sb	v1,4(s0)
1d019b50:	39000324 	li	v1,57
1d019b54:	050003a2 	sb	v1,5(s0)
1d019b58:	2f000324 	li	v1,47
1d019b5c:	060003a2 	sb	v1,6(s0)
1d019b60:	070002a2 	sb	v0,7(s0)
1d019b64:	1f67400b 	j	0x1d019c7c
1d019b68:	01000224 	li	v0,1
1d019b6c:	82ff0224 	li	v0,-126
1d019b70:	000002a2 	sb	v0,0(s0)
1d019b74:	33000224 	li	v0,51
1d019b78:	020002a2 	sb	v0,2(s0)
1d019b7c:	2f000224 	li	v0,47
1d019b80:	030002a2 	sb	v0,3(s0)
1d019b84:	30000224 	li	v0,48
1d019b88:	040002a2 	sb	v0,4(s0)
1d019b8c:	34000224 	li	v0,52
1d019b90:	050002a2 	sb	v0,5(s0)
1d019b94:	1f67400b 	j	0x1d019c7c
1d019b98:	01000224 	li	v0,1
1d019b9c:	00002392 	lbu	v1,0(s1)
1d019ba0:	36006010 	beqz	v1,0x1d019c7c
1d019ba4:	21100000 	move	v0,zero
1d019ba8:	83ff0224 	li	v0,-125
1d019bac:	000002a2 	sb	v0,0(s0)
1d019bb0:	00002292 	lbu	v0,0(s1)
1d019bb4:	020002a2 	sb	v0,2(s0)
1d019bb8:	01002292 	lbu	v0,1(s1)
1d019bbc:	030002a2 	sb	v0,3(s0)
1d019bc0:	02002292 	lbu	v0,2(s1)
1d019bc4:	040002a2 	sb	v0,4(s0)
1d019bc8:	03002292 	lbu	v0,3(s1)
1d019bcc:	050002a2 	sb	v0,5(s0)
1d019bd0:	04002292 	lbu	v0,4(s1)
1d019bd4:	060002a2 	sb	v0,6(s0)
1d019bd8:	05002292 	lbu	v0,5(s1)
1d019bdc:	070002a2 	sb	v0,7(s0)
1d019be0:	1f67400b 	j	0x1d019c7c
1d019be4:	01000224 	li	v0,1
1d019be8:	00002392 	lbu	v1,0(s1)
1d019bec:	23006010 	beqz	v1,0x1d019c7c
1d019bf0:	21100000 	move	v0,zero
1d019bf4:	84ff0224 	li	v0,-124
1d019bf8:	000002a2 	sb	v0,0(s0)
1d019bfc:	06002292 	lbu	v0,6(s1)
1d019c00:	020002a2 	sb	v0,2(s0)
1d019c04:	07002292 	lbu	v0,7(s1)
1d019c08:	030002a2 	sb	v0,3(s0)
1d019c0c:	08002292 	lbu	v0,8(s1)
1d019c10:	040002a2 	sb	v0,4(s0)
1d019c14:	09002292 	lbu	v0,9(s1)
1d019c18:	050002a2 	sb	v0,5(s0)
1d019c1c:	0a002292 	lbu	v0,10(s1)
1d019c20:	060002a2 	sb	v0,6(s0)
1d019c24:	0b002292 	lbu	v0,11(s1)
1d019c28:	070002a2 	sb	v0,7(s0)
1d019c2c:	1f67400b 	j	0x1d019c7c
1d019c30:	01000224 	li	v0,1
1d019c34:	00002392 	lbu	v1,0(s1)
1d019c38:	10006010 	beqz	v1,0x1d019c7c
1d019c3c:	21100000 	move	v0,zero
1d019c40:	85ff0224 	li	v0,-123
1d019c44:	000002a2 	sb	v0,0(s0)
1d019c48:	0c002292 	lbu	v0,12(s1)
1d019c4c:	020002a2 	sb	v0,2(s0)
1d019c50:	0d002292 	lbu	v0,13(s1)
1d019c54:	030002a2 	sb	v0,3(s0)
1d019c58:	0e002292 	lbu	v0,14(s1)
1d019c5c:	040002a2 	sb	v0,4(s0)
1d019c60:	0f002292 	lbu	v0,15(s1)
1d019c64:	050002a2 	sb	v0,5(s0)
1d019c68:	10002292 	lbu	v0,16(s1)
1d019c6c:	060002a2 	sb	v0,6(s0)
1d019c70:	1f67400b 	j	0x1d019c7c
1d019c74:	01000224 	li	v0,1
1d019c78:	21100000 	move	v0,zero
1d019c7c:	1c00bf8f 	lw	ra,28(sp)
1d019c80:	1800b18f 	lw	s1,24(sp)
1d019c84:	1400b08f 	lw	s0,20(sp)
1d019c88:	0800e003 	jr	ra
1d019c8c:	2000bd27 	addiu	sp,sp,32

Disassembly of section .sec77:

1d019c90 <.sec77>:
1d019c90:	464f5244 	0x44524f46
1d019c94:	5f503520 	addi	s5,at,20575
1d019c98:	53746565 	0x65657453
1d019c9c:	72000000 	tlt	zero,zero,0x1
1d019ca0:	46515e17 	bne	k0,s8,0x1d02e1bc
1d019ca4:	a7db61a5 	sh	at,-9305(t3)
1d019ca8:	37b847fc 	sdc3	$7,-18377(v0)
1d019cac:	e512074a 	c2	0x712e5
1d019cb0:	95110180 	lb	at,4501(zero)
1d019cb4:	66194d94 	lhu	t5,6502(v0)
1d019cb8:	189cfe69 	0x69fe9c18
1d019cbc:	7523dedd 	ldc3	$30,9077(t6)
1d019cc0:	739e6ef7 	sdc1	$f14,-24973(k1)
1d019cc4:	e981cca6 	sh	t4,-32279(s6)
1d019cc8:	67eba232 	andi	v0,s5,0xeb67
1d019ccc:	9b2f72d7 	ldc1	$f18,12187(k1)
1d019cd0:	258e7cee 	swc3	$28,-29147(s3)
1d019cd4:	a0153354 	bnel	at,s3,0x1d01f358
1d019cd8:	f691166d 	0x6d1691f6
1d019cdc:	39afe865 	0x65e8af39
1d019ce0:	e7d8924f 	c3	0x192d8e7
1d019ce4:	ca4bda5d 	0x5dda4bca
1d019ce8:	e4f24e36 	ori	t6,s2,0xf2e4
1d019cec:	05b01fd0 	0xd01fb005
1d019cf0:	6af82409 	j	0x1493e1a8
1d019cf4:	c8f13fb1 	0xb13ff1c8
1d019cf8:	7997988b 	lwl	t8,-26759(gp)
1d019cfc:	3dacb37d 	0x7db3ac3d
1d019d00:	bca3ff31 	andi	ra,t7,0xa3bc
1d019d04:	5f13d3d9 	ldc2	$19,4959(t6)
1d019d08:	6c2726b7 	0xb726276c
1d019d0c:	b4cead90 	lbu	t5,-12620(a1)
1d019d10:	e32dd502 	0x2d52de3
1d019d14:	1e7f0f34 	li	t7,0x7f1e
1d019d18:	417177c4 	lwc1	$f23,28993(v1)
1d019d1c:	2240f0f5 	sdc1	$f16,16418(t7)
1d019d20:	884ce630 	andi	a2,a3,0x4c88
1d019d24:	d620850e 	jal	0x1a148358
1d019d28:	f4c0a821 	addi	t0,t5,-16140
1d019d2c:	c9c3ed42 	c0	0xedc3c9
1d019d30:	450a48cf 	pref	0x8,2629(k0)
1d019d34:	60cb70c6 	lwc1	$f16,-13472(s3)
1d019d38:	891dfac5 	lwc1	$f26,7561(t7)
1d019d3c:	e264c79a 	lwr	a3,25826(s6)
1d019d40:	53d13cbf 	cache	0x1c,-11949(t9)
1d019d44:	eaaba429 	slti	a0,t5,-21526
1d019d48:	d48f0828 	slti	t0,zero,-28716
1d019d4c:	842bcd3e 	0x3ecd2b84
1d019d50:	5543b55a 	0x5ab54355
1d019d54:	c2040c8c 	lw	t4,1218(zero)
1d019d58:	58e0445c 	0x5c44e058
1d019d5c:	8357a9f3 	0xf3a95783
1d019d60:	ec35df93 	lbu	ra,13804(s8)
1d019d64:	aa1c3896 	lhu	t8,7338(s1)
1d019d68:	6fb999fd 	sdc3	$25,-18065(t4)
1d019d6c:	8ddc14a1 	sb	s4,-9075(t0)
1d019d70:	031ae100 	0xe11a03
1d019d74:	06ef5076 	jalx	0x1943bc18
1d019d78:	7452ba68 	0x68ba5274
1d019d7c:	2abe622e 	sltiu	v0,s3,-16854
1d019d80:	497a9dbb 	swr	sp,31305(gp)
1d019d84:	107bd2f9 	sdc2	$18,31504(t6)
1d019d88:	7e5b3ab6 	0xb63a5b7e
1d019d8c:	860b6b9f 	0x9f6b0b86
1d019d90:	8a63c1bd 	cache	0x1,25482(t6)
1d019d94:	1bae593b 	xori	t9,k0,0xae1b
1d019d98:	5687820d 	jal	0x160a1d58
1d019d9c:	782cb2fb 	sdc2	$18,11384(sp)
1d019da0:	416c6c6f 	0x6f6c6c41
1d019da4:	7749676e 	0x6e674977
1d019da8:	6f726500 	0x65726f
1d019dac:	416c6c6f 	0x6f6c6c41
1d019db0:	77207468 	0x68742077
1d019db4:	65204947 	c1	0x1492065
1d019db8:	4e4f5245 	0x45524f4e
1d019dbc:	20626974 	jalx	0x11a58880
1d019dc0:	00000000 	nop
1d019dc4:	4f766572 	0x7265764f
1d019dc8:	72696465 	0x65646972
1d019dcc:	54687265 	0x65726854
1d019dd0:	73680000 	tltu	zero,zero,0x1a1
1d019dd4:	4f766572 	0x7265764f
1d019dd8:	72696465 	0x65646972
1d019ddc:	20746872 	0x72687420
1d019de0:	6573686f 	0x6f687365
1d019de4:	6c642028 	slti	zero,at,25708
1d019de8:	4e6d2900 	0x296d4e
1d019dec:	556e6c69 	0x696c6e55
1d019df0:	6d697465 	0x6574696d
1d019df4:	64537465 	0x65745364
1d019df8:	6572696e 	0x6e697265
1d019dfc:	67000000 	0x67
1d019e00:	556e6c69 	0x696c6e55
1d019e04:	6d697465 	0x6574696d
1d019e08:	64207374 	jalx	0x11cc8190
1d019e0c:	65657269 	0x69726565
1d019e10:	6e672076 	jalx	0x18819db8
1d019e14:	656c6f63 	0x636f6c65
1d019e18:	69747920 	addi	t9,v1,29801
1d019e1c:	7768656e 	0x6e656877
1d019e20:	20535645 	0x45565320
1d019e24:	4c3d302c 	sltiu	s0,at,15692
1d019e28:	206f7468 	0x68746f20
1d019e2c:	65727769 	0x69777265
1d019e30:	73652035 	ori	zero,t1,0x6573
1d019e34:	30302064 	0x64203030
1d019e38:	65672f73 	0x732f6765
1d019e3c:	00000000 	nop
1d019e40:	496e6869 	0x69686e49
1d019e44:	62697449 	0x49746962
1d019e48:	646c6553 	beql	k1,a1,0x1d034fdc
1d019e4c:	68757464 	0x64747568
1d019e50:	6f776e00 	0x6e776f
1d019e54:	496e6869 	0x69686e49
1d019e58:	62697420 	addi	s4,v1,26978
1d019e5c:	656e6769 	0x69676e65
1d019e60:	6e652069 	0x6920656e
1d019e64:	646c6520 	addi	a1,v1,27748
1d019e68:	73687574 	jalx	0x11d5a1cc
1d019e6c:	646f776e 	0x6e776f64
1d019e70:	20616674 	jalx	0x11998480
1d019e74:	65722033 	andi	zero,t9,0x7265
1d019e78:	30206d69 	0x696d2030
1d019e7c:	6e757465 	0x6574756e
1d019e80:	73000000 	tltu	zero,zero,0x1
1d019e84:	57646353 	beql	k1,v1,0x1d032fe4
1d019e88:	75707072 	0x72707075
1d019e8c:	65737344 	0x44737365
1d019e90:	69736162 	0x62617369
1d019e94:	6c656400 	0x64656c
1d019e98:	53757070 	udi3	v1,s0,t6,0x15
1d019e9c:	72657373 	0x73736572
1d019ea0:	20746865 	0x65687420
1d019ea4:	20776174 	jalx	0x1185dc80
1d019ea8:	6368646f 	0x6f646863
1d019eac:	6720636f 	0x6f632067
1d019eb0:	756e7465 	0x65746e75
1d019eb4:	72205858 	0x58582072
1d019eb8:	585f4449 	0x49445f58
1d019ebc:	5341424c 	0x4c424153
1d019ec0:	45442066 	0x66204445
1d019ec4:	61756c74 	jalx	0x11b1d584
1d019ec8:	20636f6e 	0x6e6f6320
1d019ecc:	64697469 	0x69746964
1d019ed0:	6f6e7320 	addi	s3,v1,28271
1d019ed4:	28747261 	0x61727428
1d019ed8:	6e736974 	jalx	0x11a5cdb8
1d019edc:	696f6e20 	addi	t6,v1,28521
1d019ee0:	66726f6d 	0x6d6f7266
1d019ee4:	20656e61 	0x616e6520
1d019ee8:	626c6564 	0x64656c62
1d019eec:	20746f20 	addi	t7,v1,29728
1d019ef0:	64697361 	0x61736964
1d019ef4:	626c6564 	0x64656c62
1d019ef8:	20776974 	jalx	0x11a5dc80
1d019efc:	686f7574 	jalx	0x11d5bda0
1d019f00:	206f7665 	0x65766f20
1d019f04:	72726964 	0x64697272
1d019f08:	65290000 	0x2965

Disassembly of section .sec78:

1d019f0c <.sec78>:
1d019f0c:	c8ffbd27 	addiu	sp,sp,-56
1d019f10:	3400bfaf 	sw	ra,52(sp)
1d019f14:	3000b7af 	sw	s7,48(sp)
1d019f18:	2c00b6af 	sw	s6,44(sp)
1d019f1c:	2800b5af 	sw	s5,40(sp)
1d019f20:	2400b4af 	sw	s4,36(sp)
1d019f24:	2000b3af 	sw	s3,32(sp)
1d019f28:	1c00b2af 	sw	s2,28(sp)
1d019f2c:	1800b1af 	sw	s1,24(sp)
1d019f30:	1400b0af 	sw	s0,20(sp)
1d019f34:	01a0133c 	lui	s3,0xa001
1d019f38:	2190a000 	move	s2,a1
1d019f3c:	21108000 	move	v0,a0
1d019f40:	21a8c000 	move	s5,a2
1d019f44:	0200a010 	beqz	a1,0x1d019f50
1d019f48:	843360ae 	sw	zero,13188(s3)
1d019f4c:	000044ae 	sw	a0,0(s2)
1d019f50:	029d163c 	lui	s6,0x9d02
1d019f54:	d9b1d626 	addiu	s6,s6,-20007
1d019f58:	01005024 	addiu	s0,v0,1
1d019f5c:	ffff0482 	lb	a0,-1(s0)
1d019f60:	2118c402 	addu	v1,s6,a0
1d019f64:	00006380 	lb	v1,0(v1)
1d019f68:	88006330 	andi	v1,v1,0x88
1d019f6c:	faff6054 	bnezl	v1,0x1d019f58
1d019f70:	21100002 	move	v0,s0
1d019f74:	2d000324 	li	v1,45
1d019f78:	4d008310 	beq	a0,v1,0x1d01a0b0
1d019f7c:	2b000324 	li	v1,43
1d019f80:	4f008310 	beq	a0,v1,0x1d01a0c0
1d019f84:	21a00000 	move	s4,zero
1d019f88:	30000224 	li	v0,48
1d019f8c:	3a008210 	beq	a0,v0,0x1d01a078
1d019f90:	01000226 	addiu	v0,s0,1
1d019f94:	0200a016 	bnez	s5,0x1d019fa0
1d019f98:	21b80000 	move	s7,zero
1d019f9c:	0a001524 	li	s5,10
1d019fa0:	f767400b 	j	0x1d019fdc
1d019fa4:	21880000 	move	s1,zero
1d019fa8:	1a006010 	beqz	v1,0x1d01a014
1d019fac:	2a185500 	slt	v1,v0,s5
1d019fb0:	19006010 	beqz	v1,0x1d01a018
1d019fb4:	21180000 	move	v1,zero
1d019fb8:	02183572 	mul	v1,s1,s5
1d019fbc:	21106200 	addu	v0,v1,v0
1d019fc0:	2b185100 	sltu	v1,v0,s1
1d019fc4:	28006054 	bnezl	v1,0x1d01a068
1d019fc8:	22000224 	li	v0,34
1d019fcc:	01001026 	addiu	s0,s0,1
1d019fd0:	ffff0482 	lb	a0,-1(s0)
1d019fd4:	01001724 	li	s7,1
1d019fd8:	21884000 	move	s1,v0
1d019fdc:	2110c402 	addu	v0,s6,a0
1d019fe0:	00004390 	lbu	v1,0(v0)
1d019fe4:	d0ff8224 	addiu	v0,a0,-48
1d019fe8:	2014027c 	seb	v0,v0
1d019fec:	03006530 	andi	a1,v1,0x3
1d019ff0:	edffa010 	beqz	a1,0x1d019fa8
1d019ff4:	04006330 	andi	v1,v1,0x4
1d019ff8:	f870400f 	jal	0x1d01c3e0
1d019ffc:	00000000 	nop
1d01a000:	c9ff4224 	addiu	v0,v0,-55
1d01a004:	2014027c 	seb	v0,v0
1d01a008:	2a185500 	slt	v1,v0,s5
1d01a00c:	ebff6014 	bnez	v1,0x1d019fbc
1d01a010:	02183572 	mul	v1,s1,s5
1d01a014:	21180000 	move	v1,zero
1d01a018:	0400e012 	beqz	s7,0x1d01a02c
1d01a01c:	00000000 	nop
1d01a020:	02004012 	beqz	s2,0x1d01a02c
1d01a024:	ffff1026 	addiu	s0,s0,-1
1d01a028:	000050ae 	sw	s0,0(s2)
1d01a02c:	03006014 	bnez	v1,0x1d01a03c
1d01a030:	ffff0224 	li	v0,-1
1d01a034:	23101100 	negu	v0,s1
1d01a038:	0a103402 	movz	v0,s1,s4
1d01a03c:	3400bf8f 	lw	ra,52(sp)
1d01a040:	3000b78f 	lw	s7,48(sp)
1d01a044:	2c00b68f 	lw	s6,44(sp)
1d01a048:	2800b58f 	lw	s5,40(sp)
1d01a04c:	2400b48f 	lw	s4,36(sp)
1d01a050:	2000b38f 	lw	s3,32(sp)
1d01a054:	1c00b28f 	lw	s2,28(sp)
1d01a058:	1800b18f 	lw	s1,24(sp)
1d01a05c:	1400b08f 	lw	s0,20(sp)
1d01a060:	0800e003 	jr	ra
1d01a064:	3800bd27 	addiu	sp,sp,56
1d01a068:	843362ae 	sw	v0,13188(s3)
1d01a06c:	01001026 	addiu	s0,s0,1
1d01a070:	0668400b 	j	0x1d01a018
1d01a074:	01000324 	li	v1,1
1d01a078:	efff0524 	li	a1,-17
1d01a07c:	2418a502 	and	v1,s5,a1
1d01a080:	08006014 	bnez	v1,0x1d01a0a4
1d01a084:	00000482 	lb	a0,0(s0)
1d01a088:	dfff0324 	li	v1,-33
1d01a08c:	24288300 	and	a1,a0,v1
1d01a090:	58000324 	li	v1,88
1d01a094:	0d00a350 	beql	a1,v1,0x1d01a0cc
1d01a098:	02000226 	addiu	v0,s0,2
1d01a09c:	08000324 	li	v1,8
1d01a0a0:	0aa87500 	movz	s5,v1,s5
1d01a0a4:	21804000 	move	s0,v0
1d01a0a8:	e867400b 	j	0x1d019fa0
1d01a0ac:	01001724 	li	s7,1
1d01a0b0:	02005024 	addiu	s0,v0,2
1d01a0b4:	01004480 	lb	a0,1(v0)
1d01a0b8:	e267400b 	j	0x1d019f88
1d01a0bc:	01001424 	li	s4,1
1d01a0c0:	01004480 	lb	a0,1(v0)
1d01a0c4:	e267400b 	j	0x1d019f88
1d01a0c8:	02005024 	addiu	s0,v0,2
1d01a0cc:	01000482 	lb	a0,1(s0)
1d01a0d0:	10001524 	li	s5,16
1d01a0d4:	21804000 	move	s0,v0
1d01a0d8:	e867400b 	j	0x1d019fa0
1d01a0dc:	01001724 	li	s7,1

Disassembly of section .sec79:

1d01a0e0 <.sec79>:
1d01a0e0:	44415445 	bc1any4f	$fcc5,0x1d02a5f4
1d01a0e4:	3d000000 	0x3d
1d01a0e8:	4d41433d 	0x3d43414d
1d01a0ec:	00000000 	nop
1d01a0f0:	4d414353 	beql	k0,v1,0x1d02a628
1d01a0f4:	3d000000 	0x3d
1d01a0f8:	56494e3d 	0x3d4e4956
1d01a0fc:	00000000 	nop
1d01a100:	56494e53 	beql	k0,t6,0x1d02c65c
1d01a104:	3d000000 	0x3d
1d01a108:	42415345 	0x45534142
1d01a10c:	00000000 	nop
1d01a110:	42617365 	0x65736142
1d01a114:	2066756e 	0x6e756620
1d01a118:	6374696f 	0x6f697463
1d01a11c:	6e616c69 	0x696c616e
1d01a120:	74790000 	teq	zero,zero,0x1e5
1d01a124:	436f6e74 	jalx	0x11b9bd0c
1d01a128:	61637420 	addi	s4,v1,25441
1d01a12c:	696e666f 	0x6f666e69
1d01a130:	40646174 	jalx	0x11859100
1d01a134:	61737065 	0x65707361
1d01a138:	6564696e 	0x6e696465
1d01a13c:	632e636f 	0x6f632e63
1d01a140:	6d20666f 	0x6f66206d
1d01a144:	72206c69 	0x696c2072
1d01a148:	63656e73 	0x736e6563
1d01a14c:	6520696e 	0x6e692065
1d01a150:	666f726d 	0x6d726f66
1d01a154:	6174696f 	0x6f697461
1d01a158:	6e000000 	0x6e
1d01a15c:	5349474e 	c3	0x474953
1d01a160:	41545552 	beql	s2,s5,0x1d02f268
1d01a164:	453d0000 	0x3d45
1d01a168:	41444153 	beql	k0,at,0x1d02b270
1d01a16c:	5f4b4954 	bnel	v0,t1,0x1d02ceec
1d01a170:	00000000 	nop
1d01a174:	47524f55 	bnel	t2,t7,0x1d02ea94
1d01a178:	503d0000 	0x3d50
1d01a17c:	54524941 	0x41495254
1d01a180:	4c3d0000 	syscall	0xf5
1d01a184:	50524f44 	0x444f5250
1d01a188:	5543543d 	0x3d544355
1d01a18c:	00000000 	nop
1d01a190:	46454154 	bnel	v0,at,0x1d02b6ac
1d01a194:	5552453d 	0x3d455255
1d01a198:	00000000 	nop
1d01a19c:	c2f46c9c 	0x9c6cf4c2
1d01a1a0:	fd51330a 	j	0x18cd47f4
1d01a1a4:	0e4019ed 	swc3	$25,16398(t0)
1d01a1a8:	03ac0010 	b	0x1d0051b8
1d01a1ac:	f1ec2c7b 	0x7b2cecf1
1d01a1b0:	696dbc9b 	lwr	gp,28009(sp)
1d01a1b4:	3f568593 	lbu	a1,22079(gp)
1d01a1b8:	c7ca1cf0 	0xf01ccac7
1d01a1bc:	e4d0477e 	0x7e47d0e4
1d01a1c0:	05e6b21a 	0x1ab2e605
1d01a1c4:	43f66b26 	addiu	t3,s3,-2493
1d01a1c8:	d435b745 	0x45b735d4
1d01a1cc:	bdfb0c55 	bnel	t0,t4,0x1d0190c4
1d01a1d0:	751e9237 	ori	s2,gp,0x1e75
1d01a1d4:	7c5ac5eb 	swc2	$5,23164(s8)
1d01a1d8:	da96df4f 	c3	0x1df96da
1d01a1dc:	2541cb42 	c0	0xcb4125
1d01a1e0:	13fa46a4 	sh	a2,-1517(v0)
1d01a1e4:	e594a912 	beq	s5,t1,0x1cfff57c
1d01a1e8:	248b0de9 	swc2	$13,-29916(t0)
1d01a1ec:	9030161f 	0x1f163090
1d01a1f0:	68b5a3d8 	ldc2	$3,-19096(a1)
1d01a1f4:	9dc8d21d 	0x1dd2c89d
1d01a1f8:	6e9eb8d9 	ldc2	$24,-24978(t5)
1d01a1fc:	b6cd31f5 	sdc1	$f17,-12874(t1)
1d01a200:	78623e5b 	0x5b3e6278
1d01a204:	491138d7 	ldc1	$f24,4425(t9)
1d01a208:	4adeceab 	swl	t6,-8630(s8)
1d01a20c:	86c6b448 	0x48b4c686
1d01a210:	6f0b9857 	bnel	gp,t8,0x1d01cfd0
1d01a214:	80740676 	jalx	0x1819d200
1d01a218:	9fdcd352 	beql	s6,s3,0x1d011498
1d01a21c:	663d3421 	addi	s4,t1,15718
1d01a220:	01c3e84e 	c3	0xe8c301
1d01a224:	32a06a02 	tlt	s3,t2,0x280
1d01a228:	e3ba4c18 	0x184cbae3
1d01a22c:	71b1895c 	0x5c89b171
1d01a230:	5f595ea1 	sb	s8,22879(t2)
1d01a234:	448df2f9 	sdc2	$18,-29372(t7)
1d01a238:	2e77677d 	lle	a3,238(t3)
1d01a23c:	a2273c4b 	c2	0x13c27a2
1d01a240:	8ed6cf7f 	0x7fcfd68e
1d01a244:	073b722f 	sltiu	s2,k1,15111
1d01a248:	ef500f64 	0x640f50ef
1d01a24c:	20af60f8 	sdc2	$0,-20704(v1)
1d01a250:	8cc053ae 	sw	s3,-16244(s2)
1d01a254:	877a9ac9 	lwc2	$26,31367(t4)
1d01a258:	9554ea99 	lwr	t2,21653(t7)
1d01a25c:	65aa2a82 	lb	t2,-21915(s1)
1d01a260:	a6a563fe 	sdc3	$3,-23130(s3)
1d01a264:	bfee9108 	j	0x1247bafc
1d01a268:	2917cc8f 	lw	t4,5929(s8)
1d01a26c:	d53a22b3 	0xb3223ad5
1d01a270:	d1ad83dd 	ldc3	$3,-21039(t4)
1d01a274:	f7a8e088 	lwl	zero,-22281(a3)
1d01a278:	b9db61ff 	sdc3	$1,-9287(k1)
1d01a27c:	e13614f3 	0xf31436e1
1d01a280:	8423bee7 	swc1	$f30,9092(sp)
1d01a284:	8158972b 	slti	s7,gp,22657
1d01a288:	e2733979 	0x793973e2
1d01a28c:	bb04284d 	0x4d2804bb
1d01a290:	1ba7c1c4 	lwc1	$f1,-22757(a2)
1d01a294:	5dfc7015 	bne	t3,s0,0x1d01940c
1d01a298:	09b08a2d 	sltiu	t2,t4,-20471
1d01a29c:	08a1019d 	0x9d01a108
1d01a2a0:	10a1019d 	0x9d01a110
1d01a2a4:	00000000 	nop
1d01a2a8:	00040000 	sll	zero,zero,0x10

Disassembly of section .sec80:

1d01a2ac <.sec80>:
1d01a2ac:	e8ffbd27 	addiu	sp,sp,-24
1d01a2b0:	1400bfaf 	sw	ra,20(sp)
1d01a2b4:	1000b0af 	sw	s0,16(sp)
1d01a2b8:	81bf023c 	lui	v0,0xbf81
1d01a2bc:	00f24390 	lbu	v1,-3584(v0)
1d01a2c0:	c418037c 	ins	v1,zero,0x3,0x1
1d01a2c4:	00f243a0 	sb	v1,-3584(v0)
1d01a2c8:	4f71400f 	jal	0x1d01c53c
1d01a2cc:	00000000 	nop
1d01a2d0:	21804000 	move	s0,v0
1d01a2d4:	40000324 	li	v1,64
1d01a2d8:	88bf023c 	lui	v0,0xbf88
1d01a2dc:	042043ac 	sw	v1,8196(v0)
1d01a2e0:	4f71400f 	jal	0x1d01c53c
1d01a2e4:	00000000 	nop
1d01a2e8:	01000424 	li	a0,1
1d01a2ec:	88bf033c 	lui	v1,0xbf88
1d01a2f0:	004064ac 	sw	a0,16384(v1)
1d01a2f4:	2871400f 	jal	0x1d01c4a0
1d01a2f8:	21204000 	move	a0,v0
1d01a2fc:	4f71400f 	jal	0x1d01c53c
1d01a300:	00000000 	nop
1d01a304:	88bf033c 	lui	v1,0xbf88
1d01a308:	0030638c 	lw	v1,12288(v1)
1d01a30c:	0003637c 	ext	v1,v1,0xc,0x1
1d01a310:	24006014 	bnez	v1,0x1d01a3a4
1d01a314:	81bf053c 	lui	a1,0xbf81
1d01a318:	00100424 	li	a0,4096
1d01a31c:	88bf033c 	lui	v1,0xbf88
1d01a320:	083064ac 	sw	a0,12296(v1)
1d01a324:	88bf053c 	lui	a1,0xbf88
1d01a328:	0030a38c 	lw	v1,12288(a1)
1d01a32c:	00086330 	andi	v1,v1,0x800
1d01a330:	fdff6014 	bnez	v1,0x1d01a328
1d01a334:	00000000 	nop
1d01a338:	ff68400b 	j	0x1d01a3fc
1d01a33c:	81bf053c 	lui	a1,0xbf81
1d01a340:	88bf033c 	lui	v1,0xbf88
1d01a344:	083064ac 	sw	a0,12296(v1)
1d01a348:	88bf053c 	lui	a1,0xbf88
1d01a34c:	0030a38c 	lw	v1,12288(a1)
1d01a350:	00086330 	andi	v1,v1,0x800
1d01a354:	fdff6014 	bnez	v1,0x1d01a34c
1d01a358:	00000000 	nop
1d01a35c:	2871400f 	jal	0x1d01c4a0
1d01a360:	21204000 	move	a0,v0
1d01a364:	88bf033c 	lui	v1,0xbf88
1d01a368:	0040628c 	lw	v0,16384(v1)
1d01a36c:	30004234 	ori	v0,v0,0x30
1d01a370:	004062ac 	sw	v0,16384(v1)
1d01a374:	3571400f 	jal	0x1d01c4d4
1d01a378:	00000000 	nop
1d01a37c:	81bf023c 	lui	v0,0xbf81
1d01a380:	00f0428c 	lw	v0,-4096(v0)
1d01a384:	2871400f 	jal	0x1d01c4a0
1d01a388:	21200002 	move	a0,s0
1d01a38c:	a270400f 	jal	0x1d01c288
1d01a390:	21200000 	move	a0,zero
1d01a394:	4d71400f 	jal	0x1d01c534
1d01a398:	00000000 	nop
1d01a39c:	1369400b 	j	0x1d01a44c
1d01a3a0:	1400bf8f 	lw	ra,20(sp)
1d01a3a4:	30f2a0ac 	sw	zero,-3536(a1)
1d01a3a8:	99aa033c 	lui	v1,0xaa99
1d01a3ac:	55666324 	addiu	v1,v1,26197
1d01a3b0:	30f2a3ac 	sw	v1,-3536(a1)
1d01a3b4:	6655033c 	lui	v1,0x5566
1d01a3b8:	aa996334 	ori	v1,v1,0x99aa
1d01a3bc:	30f2a3ac 	sw	v1,-3536(a1)
1d01a3c0:	81bf043c 	lui	a0,0xbf81
1d01a3c4:	00f0838c 	lw	v1,-4096(a0)
1d01a3c8:	c4a4037c 	ins	v1,zero,0x13,0x2
1d01a3cc:	00f083ac 	sw	v1,-4096(a0)
1d01a3d0:	00f0838c 	lw	v1,-4096(a0)
1d01a3d4:	3333033c 	lui	v1,0x3333
1d01a3d8:	33336324 	addiu	v1,v1,13107
1d01a3dc:	30f2a3ac 	sw	v1,-3536(a1)
1d01a3e0:	88bf033c 	lui	v1,0xbf88
1d01a3e4:	0030638c 	lw	v1,12288(v1)
1d01a3e8:	0003637c 	ext	v1,v1,0xc,0x1
1d01a3ec:	d4ff6010 	beqz	v1,0x1d01a340
1d01a3f0:	00100424 	li	a0,4096
1d01a3f4:	d768400b 	j	0x1d01a35c
1d01a3f8:	00000000 	nop
1d01a3fc:	30f2a0ac 	sw	zero,-3536(a1)
1d01a400:	99aa033c 	lui	v1,0xaa99
1d01a404:	55666324 	addiu	v1,v1,26197
1d01a408:	30f2a3ac 	sw	v1,-3536(a1)
1d01a40c:	6655033c 	lui	v1,0x5566
1d01a410:	aa996334 	ori	v1,v1,0x99aa
1d01a414:	30f2a3ac 	sw	v1,-3536(a1)
1d01a418:	81bf063c 	lui	a2,0xbf81
1d01a41c:	00f0c38c 	lw	v1,-4096(a2)
1d01a420:	c4a4037c 	ins	v1,zero,0x13,0x2
1d01a424:	00f0c3ac 	sw	v1,-4096(a2)
1d01a428:	00f0c38c 	lw	v1,-4096(a2)
1d01a42c:	3333033c 	lui	v1,0x3333
1d01a430:	33336324 	addiu	v1,v1,13107
1d01a434:	30f2a3ac 	sw	v1,-3536(a1)
1d01a438:	00100424 	li	a0,4096
1d01a43c:	88bf033c 	lui	v1,0xbf88
1d01a440:	043064ac 	sw	a0,12292(v1)
1d01a444:	d768400b 	j	0x1d01a35c
1d01a448:	00000000 	nop
1d01a44c:	1000b08f 	lw	s0,16(sp)
1d01a450:	0800e003 	jr	ra
1d01a454:	1800bd27 	addiu	sp,sp,24

Disassembly of section .sec81:

1d01a458 <.sec81>:
1d01a458:	d8ffbd27 	addiu	sp,sp,-40
1d01a45c:	2400bfaf 	sw	ra,36(sp)
1d01a460:	2000b4af 	sw	s4,32(sp)
1d01a464:	1c00b3af 	sw	s3,28(sp)
1d01a468:	1800b2af 	sw	s2,24(sp)
1d01a46c:	1400b1af 	sw	s1,20(sp)
1d01a470:	1000b0af 	sw	s0,16(sp)
1d01a474:	01a0143c 	lui	s4,0xa001
1d01a478:	21988000 	move	s3,a0
1d01a47c:	843380ae 	sw	zero,13188(s4)
1d01a480:	00009180 	lb	s1,0(a0)
1d01a484:	029d033c 	lui	v1,0x9d02
1d01a488:	d9b16324 	addiu	v1,v1,-20007
1d01a48c:	21107100 	addu	v0,v1,s1
1d01a490:	00004280 	lb	v0,0(v0)
1d01a494:	2190a000 	move	s2,a1
1d01a498:	88004230 	andi	v0,v0,0x88
1d01a49c:	08004010 	beqz	v0,0x1d01a4c0
1d01a4a0:	21808000 	move	s0,a0
1d01a4a4:	01001026 	addiu	s0,s0,1
1d01a4a8:	00001182 	lb	s1,0(s0)
1d01a4ac:	21107100 	addu	v0,v1,s1
1d01a4b0:	00004280 	lb	v0,0(v0)
1d01a4b4:	88004230 	andi	v0,v0,0x88
1d01a4b8:	fbff4054 	bnezl	v0,0x1d01a4a8
1d01a4bc:	01001026 	addiu	s0,s0,1
1d01a4c0:	2d000224 	li	v0,45
1d01a4c4:	29002212 	beq	s1,v0,0x1d01a56c
1d01a4c8:	2b000224 	li	v0,43
1d01a4cc:	02002252 	beql	s1,v0,0x1d01a4d8
1d01a4d0:	01001026 	addiu	s0,s0,1
1d01a4d4:	2b001124 	li	s1,43
1d01a4d8:	21200002 	move	a0,s0
1d01a4dc:	c367400f 	jal	0x1d019f0c
1d01a4e0:	21284002 	move	a1,s2
1d01a4e4:	06004012 	beqz	s2,0x1d01a500
1d01a4e8:	2b000324 	li	v1,43
1d01a4ec:	0000438e 	lw	v1,0(s2)
1d01a4f0:	36007050 	beql	v1,s0,0x1d01a5cc
1d01a4f4:	000053ae 	sw	s3,0(s2)
1d01a4f8:	34006312 	beq	s3,v1,0x1d01a5cc
1d01a4fc:	2b000324 	li	v1,43
1d01a500:	1c002312 	beq	s1,v1,0x1d01a574
1d01a504:	2d000324 	li	v1,45
1d01a508:	09002312 	beq	s1,v1,0x1d01a530
1d01a50c:	0080033c 	lui	v1,0x8000
1d01a510:	2400bf8f 	lw	ra,36(sp)
1d01a514:	2000b48f 	lw	s4,32(sp)
1d01a518:	1c00b38f 	lw	s3,28(sp)
1d01a51c:	1800b28f 	lw	s2,24(sp)
1d01a520:	1400b18f 	lw	s1,20(sp)
1d01a524:	1000b08f 	lw	s0,16(sp)
1d01a528:	0800e003 	jr	ra
1d01a52c:	2800bd27 	addiu	sp,sp,40
1d01a530:	01006324 	addiu	v1,v1,1
1d01a534:	2b184300 	sltu	v1,v0,v1
1d01a538:	1c006014 	bnez	v1,0x1d01a5ac
1d01a53c:	23100200 	negu	v0,v0
1d01a540:	22000224 	li	v0,34
1d01a544:	843382ae 	sw	v0,13188(s4)
1d01a548:	0080023c 	lui	v0,0x8000
1d01a54c:	2400bf8f 	lw	ra,36(sp)
1d01a550:	2000b48f 	lw	s4,32(sp)
1d01a554:	1c00b38f 	lw	s3,28(sp)
1d01a558:	1800b28f 	lw	s2,24(sp)
1d01a55c:	1400b18f 	lw	s1,20(sp)
1d01a560:	1000b08f 	lw	s0,16(sp)
1d01a564:	0800e003 	jr	ra
1d01a568:	2800bd27 	addiu	sp,sp,40
1d01a56c:	3669400b 	j	0x1d01a4d8
1d01a570:	01001026 	addiu	s0,s0,1
1d01a574:	e7ff4104 	bgez	v0,0x1d01a514
1d01a578:	2400bf8f 	lw	ra,36(sp)
1d01a57c:	22000224 	li	v0,34
1d01a580:	843382ae 	sw	v0,13188(s4)
1d01a584:	ff7f023c 	lui	v0,0x7fff
1d01a588:	ffff4234 	ori	v0,v0,0xffff
1d01a58c:	2400bf8f 	lw	ra,36(sp)
1d01a590:	2000b48f 	lw	s4,32(sp)
1d01a594:	1c00b38f 	lw	s3,28(sp)
1d01a598:	1800b28f 	lw	s2,24(sp)
1d01a59c:	1400b18f 	lw	s1,20(sp)
1d01a5a0:	1000b08f 	lw	s0,16(sp)
1d01a5a4:	0800e003 	jr	ra
1d01a5a8:	2800bd27 	addiu	sp,sp,40
1d01a5ac:	2400bf8f 	lw	ra,36(sp)
1d01a5b0:	2000b48f 	lw	s4,32(sp)
1d01a5b4:	1c00b38f 	lw	s3,28(sp)
1d01a5b8:	1800b28f 	lw	s2,24(sp)
1d01a5bc:	1400b18f 	lw	s1,20(sp)
1d01a5c0:	1000b08f 	lw	s0,16(sp)
1d01a5c4:	0800e003 	jr	ra
1d01a5c8:	2800bd27 	addiu	sp,sp,40
1d01a5cc:	ccff4010 	beqz	v0,0x1d01a500
1d01a5d0:	2b000324 	li	v1,43
1d01a5d4:	22000224 	li	v0,34
1d01a5d8:	843382ae 	sw	v0,13188(s4)
1d01a5dc:	2d000324 	li	v1,45
1d01a5e0:	cbff2312 	beq	s1,v1,0x1d01a510
1d01a5e4:	0080023c 	lui	v0,0x8000
1d01a5e8:	ff7f023c 	lui	v0,0x7fff
1d01a5ec:	6369400b 	j	0x1d01a58c
1d01a5f0:	ffff4234 	ori	v0,v0,0xffff

Disassembly of section .sec82:

1d01a5f4 <.sec82>:
1d01a5f4:	e8808393 	lbu	v1,-32536(gp)
1d01a5f8:	1f006330 	andi	v1,v1,0x1f
1d01a5fc:	01000224 	li	v0,1
1d01a600:	60006214 	bne	v1,v0,0x1d01a784
1d01a604:	00000000 	nop
1d01a608:	ec808293 	lbu	v0,-32532(gp)
1d01a60c:	ff004230 	andi	v0,v0,0xff
1d01a610:	5c004014 	bnez	v0,0x1d01a784
1d01a614:	00000000 	nop
1d01a618:	e9808393 	lbu	v1,-32535(gp)
1d01a61c:	ff006330 	andi	v1,v1,0xff
1d01a620:	06000224 	li	v0,6
1d01a624:	21006214 	bne	v1,v0,0x1d01a6ac
1d01a628:	00000000 	nop
1d01a62c:	eb808293 	lbu	v0,-32533(gp)
1d01a630:	ff004230 	andi	v0,v0,0xff
1d01a634:	21000324 	li	v1,33
1d01a638:	05004310 	beq	v0,v1,0x1d01a650
1d01a63c:	22000324 	li	v1,34
1d01a640:	12004310 	beq	v0,v1,0x1d01a68c
1d01a644:	00a0023c 	lui	v0,0xa000
1d01a648:	ab69400b 	j	0x1d01a6ac
1d01a64c:	00000000 	nop
1d01a650:	d8808393 	lbu	v1,-32552(gp)
1d01a654:	ff006330 	andi	v1,v1,0xff
1d01a658:	01000224 	li	v0,1
1d01a65c:	13006214 	bne	v1,v0,0x1d01a6ac
1d01a660:	00a0023c 	lui	v0,0xa000
1d01a664:	029d033c 	lui	v1,0x9d02
1d01a668:	42b36324 	addiu	v1,v1,-19646
1d01a66c:	800443ac 	sw	v1,1152(v0)
1d01a670:	80044224 	addiu	v0,v0,1152
1d01a674:	09000324 	li	v1,9
1d01a678:	080043a4 	sh	v1,8(v0)
1d01a67c:	c0ff0324 	li	v1,-64
1d01a680:	040043a0 	sb	v1,4(v0)
1d01a684:	ab69400b 	j	0x1d01a6ac
1d01a688:	00000000 	nop
1d01a68c:	029d033c 	lui	v1,0x9d02
1d01a690:	ecb26324 	addiu	v1,v1,-19732
1d01a694:	800443ac 	sw	v1,1152(v0)
1d01a698:	80044224 	addiu	v0,v0,1152
1d01a69c:	1d000324 	li	v1,29
1d01a6a0:	080043a4 	sh	v1,8(v0)
1d01a6a4:	c0ff0324 	li	v1,-64
1d01a6a8:	040043a0 	sb	v1,4(v0)
1d01a6ac:	e8808393 	lbu	v1,-32536(gp)
1d01a6b0:	60006330 	andi	v1,v1,0x60
1d01a6b4:	20000224 	li	v0,32
1d01a6b8:	32006214 	bne	v1,v0,0x1d01a784
1d01a6bc:	00000000 	nop
1d01a6c0:	e9808293 	lbu	v0,-32535(gp)
1d01a6c4:	ff004230 	andi	v0,v0,0xff
1d01a6c8:	03000324 	li	v1,3
1d01a6cc:	1e004310 	beq	v0,v1,0x1d01a748
1d01a6d0:	0400432c 	sltiu	v1,v0,4
1d01a6d4:	06006010 	beqz	v1,0x1d01a6f0
1d01a6d8:	0a000324 	li	v1,10
1d01a6dc:	02000324 	li	v1,2
1d01a6e0:	09004310 	beq	v0,v1,0x1d01a708
1d01a6e4:	00a0023c 	lui	v0,0xa000
1d01a6e8:	0800e003 	jr	ra
1d01a6ec:	00000000 	nop
1d01a6f0:	0e004310 	beq	v0,v1,0x1d01a72c
1d01a6f4:	0b000324 	li	v1,11
1d01a6f8:	1d004310 	beq	v0,v1,0x1d01a770
1d01a6fc:	80ff0324 	li	v1,-128
1d01a700:	0800e003 	jr	ra
1d01a704:	00000000 	nop
1d01a708:	28818327 	addiu	v1,gp,-32472
1d01a70c:	800443ac 	sw	v1,1152(v0)
1d01a710:	80044224 	addiu	v0,v0,1152
1d01a714:	01000324 	li	v1,1
1d01a718:	080043a4 	sh	v1,8(v0)
1d01a71c:	c1ff0324 	li	v1,-63
1d01a720:	040043a0 	sb	v1,4(v0)
1d01a724:	0800e003 	jr	ra
1d01a728:	00000000 	nop
1d01a72c:	80ff0324 	li	v1,-128
1d01a730:	00a0023c 	lui	v0,0xa000
1d01a734:	80044224 	addiu	v0,v0,1152
1d01a738:	040043a0 	sb	v1,4(v0)
1d01a73c:	eb808293 	lbu	v0,-32533(gp)
1d01a740:	0800e003 	jr	ra
1d01a744:	288182a3 	sb	v0,-32472(gp)
1d01a748:	00a0023c 	lui	v0,0xa000
1d01a74c:	29818327 	addiu	v1,gp,-32471
1d01a750:	800443ac 	sw	v1,1152(v0)
1d01a754:	80044224 	addiu	v0,v0,1152
1d01a758:	01000324 	li	v1,1
1d01a75c:	080043a4 	sh	v1,8(v0)
1d01a760:	81ff0324 	li	v1,-127
1d01a764:	040043a0 	sb	v1,4(v0)
1d01a768:	0800e003 	jr	ra
1d01a76c:	00000000 	nop
1d01a770:	00a0023c 	lui	v0,0xa000
1d01a774:	80044224 	addiu	v0,v0,1152
1d01a778:	040043a0 	sb	v1,4(v0)
1d01a77c:	ea808293 	lbu	v0,-32534(gp)
1d01a780:	298182a3 	sb	v0,-32471(gp)
1d01a784:	0800e003 	jr	ra
1d01a788:	00000000 	nop
1d01a78c:	ffff0324 	li	v1,-1
1d01a790:	81bf023c 	lui	v0,0xbf81
1d01a794:	609043ac 	sw	v1,-28576(v0)
1d01a798:	30000224 	li	v0,48
1d01a79c:	88bf033c 	lui	v1,0xbf88
1d01a7a0:	e46062ac 	sw	v0,24804(v1)
1d01a7a4:	88bf033c 	lui	v1,0xbf88
1d01a7a8:	c46062ac 	sw	v0,24772(v1)
1d01a7ac:	01000224 	li	v0,1
1d01a7b0:	88bf033c 	lui	v1,0xbf88
1d01a7b4:	286162ac 	sw	v0,24872(v1)
1d01a7b8:	88bf033c 	lui	v1,0xbf88
1d01a7bc:	046162ac 	sw	v0,24836(v1)
1d01a7c0:	0800e003 	jr	ra
1d01a7c4:	00000000 	nop
1d01a7c8:	c8ffbd27 	addiu	sp,sp,-56
1d01a7cc:	3400bfaf 	sw	ra,52(sp)
1d01a7d0:	3000b7af 	sw	s7,48(sp)
1d01a7d4:	2c00b6af 	sw	s6,44(sp)
1d01a7d8:	2800b5af 	sw	s5,40(sp)
1d01a7dc:	2400b4af 	sw	s4,36(sp)
1d01a7e0:	2000b3af 	sw	s3,32(sp)
1d01a7e4:	1c00b2af 	sw	s2,28(sp)
1d01a7e8:	1800b1af 	sw	s1,24(sp)
1d01a7ec:	ab68400f 	jal	0x1d01a2ac
1d01a7f0:	1400b0af 	sw	s0,20(sp)
1d01a7f4:	e369400f 	jal	0x1d01a78c
1d01a7f8:	80bf103c 	lui	s0,0xbf80
1d01a7fc:	01001124 	li	s1,1
1d01a800:	080011ae 	sw	s1,8(s0)
1d01a804:	079d023c 	lui	v0,0x9d07
1d01a808:	cc7f4290 	lbu	v0,32716(v0)
1d01a80c:	079d023c 	lui	v0,0x9d07
1d01a810:	c07f4294 	lhu	v0,32704(v0)
1d01a814:	079d023c 	lui	v0,0x9d07
1d01a818:	c47f4294 	lhu	v0,32708(v0)
1d01a81c:	079d023c 	lui	v0,0x9d07
1d01a820:	c87f4294 	lhu	v0,32712(v0)
1d01a824:	9e26400f 	jal	0x1d009a78
1d01a828:	00000000 	nop
1d01a82c:	346c400f 	jal	0x1d01b0d0
1d01a830:	71020424 	li	a0,625
1d01a834:	080011ae 	sw	s1,8(s0)
1d01a838:	a565400f 	jal	0x1d019694
1d01a83c:	00000000 	nop
1d01a840:	080011ae 	sw	s1,8(s0)
1d01a844:	21800000 	move	s0,zero
1d01a848:	80bf163c 	lui	s6,0xbf80
1d01a84c:	01001524 	li	s5,1
1d01a850:	b7d1143c 	lui	s4,0xd1b7
1d01a854:	59179426 	addiu	s4,s4,5977
1d01a858:	88bf113c 	lui	s1,0xbf88
1d01a85c:	20001324 	li	s3,32
1d01a860:	6210123c 	lui	s2,0x1062
1d01a864:	d34d5226 	addiu	s2,s2,19923
1d01a868:	88bf173c 	lui	s7,0xbf88
1d01a86c:	b565400f 	jal	0x1d0196d4
1d01a870:	00000000 	nop
1d01a874:	6a2e400f 	jal	0x1d00b9a8
1d01a878:	00000000 	nop
1d01a87c:	8c808293 	lbu	v0,-32628(gp)
1d01a880:	ff004230 	andi	v0,v0,0xff
1d01a884:	f9ff4010 	beqz	v0,0x1d01a86c
1d01a888:	00000000 	nop
1d01a88c:	9080848f 	lw	a0,-32624(gp)
1d01a890:	8c8080a3 	sb	zero,-32628(gp)
1d01a894:	0800d5ae 	sw	s5,8(s6)
1d01a898:	f126400f 	jal	0x1d009bc4
1d01a89c:	00000000 	nop
1d01a8a0:	01000226 	addiu	v0,s0,1
1d01a8a4:	19005400 	multu	v0,s4
1d01a8a8:	10800000 	mfhi	s0
1d01a8ac:	42831000 	srl	s0,s0,0xd
1d01a8b0:	80181000 	sll	v1,s0,0x2
1d01a8b4:	c0211000 	sll	a0,s0,0x7
1d01a8b8:	23188300 	subu	v1,a0,v1
1d01a8bc:	21807000 	addu	s0,v1,s0
1d01a8c0:	80181000 	sll	v1,s0,0x2
1d01a8c4:	21800302 	addu	s0,s0,v1
1d01a8c8:	00811000 	sll	s0,s0,0x4
1d01a8cc:	23805000 	subu	s0,v0,s0
1d01a8d0:	e46033ae 	sw	s3,24804(s1)
1d01a8d4:	19001202 	multu	s0,s2
1d01a8d8:	10100000 	mfhi	v0
1d01a8dc:	c2110200 	srl	v0,v0,0x7
1d01a8e0:	80180200 	sll	v1,v0,0x2
1d01a8e4:	c0210200 	sll	a0,v0,0x7
1d01a8e8:	23188300 	subu	v1,a0,v1
1d01a8ec:	21106200 	addu	v0,v1,v0
1d01a8f0:	00110200 	sll	v0,v0,0x4
1d01a8f4:	23100202 	subu	v0,s0,v0
1d01a8f8:	c800422c 	sltiu	v0,v0,200
1d01a8fc:	04004010 	beqz	v0,0x1d01a910
1d01a900:	10000224 	li	v0,16
1d01a904:	e860e2ae 	sw	v0,24808(s7)
1d01a908:	1b6a400b 	j	0x1d01a86c
1d01a90c:	00000000 	nop
1d01a910:	e46022ae 	sw	v0,24804(s1)
1d01a914:	1b6a400b 	j	0x1d01a86c
1d01a918:	00000000 	nop

Disassembly of section .sec83:

1d01a91c <.sec83>:
	...
1d01a924:	80000000 	sll	zero,zero,0x2
1d01a928:	00000000 	nop
1d01a92c:	01000000 	movf	zero,zero,$fcc0
1d01a930:	00800000 	sll	s0,zero,0x0
1d01a934:	00000000 	nop
1d01a938:	02000000 	srl	zero,zero,0x0
1d01a93c:	00008000 	0x800000
1d01a940:	00000000 	nop
1d01a944:	03000000 	sra	zero,zero,0x0
1d01a948:	00000080 	lb	zero,0(zero)
1d01a94c:	01000000 	movf	zero,zero,$fcc0
1d01a950:	00000000 	nop
1d01a954:	80000000 	sll	zero,zero,0x2
1d01a958:	01000000 	movf	zero,zero,$fcc0
1d01a95c:	01000000 	movf	zero,zero,$fcc0
1d01a960:	00800000 	sll	s0,zero,0x0
1d01a964:	01000000 	movf	zero,zero,$fcc0
1d01a968:	02000000 	srl	zero,zero,0x0
1d01a96c:	00008000 	0x800000
1d01a970:	01000000 	movf	zero,zero,$fcc0
1d01a974:	03000000 	sra	zero,zero,0x0
1d01a978:	00000080 	lb	zero,0(zero)
1d01a97c:	02000000 	srl	zero,zero,0x0
1d01a980:	00000000 	nop
1d01a984:	80000000 	sll	zero,zero,0x2
1d01a988:	02000000 	srl	zero,zero,0x0
1d01a98c:	01000000 	movf	zero,zero,$fcc0
1d01a990:	00800000 	sll	s0,zero,0x0
1d01a994:	02000000 	srl	zero,zero,0x0
1d01a998:	02000000 	srl	zero,zero,0x0
1d01a99c:	00008000 	0x800000
1d01a9a0:	02000000 	srl	zero,zero,0x0
1d01a9a4:	03000000 	sra	zero,zero,0x0
1d01a9a8:	00000080 	lb	zero,0(zero)
1d01a9ac:	03000000 	sra	zero,zero,0x0
1d01a9b0:	00000000 	nop
1d01a9b4:	80000000 	sll	zero,zero,0x2
1d01a9b8:	03000000 	sra	zero,zero,0x0
1d01a9bc:	01000000 	movf	zero,zero,$fcc0
1d01a9c0:	00800000 	sll	s0,zero,0x0
1d01a9c4:	03000000 	sra	zero,zero,0x0
1d01a9c8:	02000000 	srl	zero,zero,0x0
1d01a9cc:	00008000 	0x800000
1d01a9d0:	03000000 	sra	zero,zero,0x0
1d01a9d4:	03000000 	sra	zero,zero,0x0
1d01a9d8:	00000080 	lb	zero,0(zero)
1d01a9dc:	04000000 	sllv	zero,zero,zero
1d01a9e0:	00000000 	nop
1d01a9e4:	80000000 	sll	zero,zero,0x2
1d01a9e8:	04000000 	sllv	zero,zero,zero
1d01a9ec:	01000000 	movf	zero,zero,$fcc0
1d01a9f0:	00800000 	sll	s0,zero,0x0
1d01a9f4:	04000000 	sllv	zero,zero,zero
1d01a9f8:	02000000 	srl	zero,zero,0x0
1d01a9fc:	00008000 	0x800000
1d01aa00:	04000000 	sllv	zero,zero,zero
1d01aa04:	03000000 	sra	zero,zero,0x0
1d01aa08:	00000080 	lb	zero,0(zero)
1d01aa0c:	05000000 	0x5
1d01aa10:	00000000 	nop
1d01aa14:	80000000 	sll	zero,zero,0x2
1d01aa18:	05000000 	0x5
1d01aa1c:	01000000 	movf	zero,zero,$fcc0
1d01aa20:	00800000 	sll	s0,zero,0x0
1d01aa24:	05000000 	0x5
1d01aa28:	02000000 	srl	zero,zero,0x0
1d01aa2c:	00008000 	0x800000
1d01aa30:	05000000 	0x5
1d01aa34:	03000000 	sra	zero,zero,0x0
1d01aa38:	00000080 	lb	zero,0(zero)
1d01aa3c:	06000000 	srlv	zero,zero,zero
1d01aa40:	00000000 	nop
1d01aa44:	80000000 	sll	zero,zero,0x2
1d01aa48:	06000000 	srlv	zero,zero,zero
1d01aa4c:	01000000 	movf	zero,zero,$fcc0
1d01aa50:	00800000 	sll	s0,zero,0x0
1d01aa54:	06000000 	srlv	zero,zero,zero
1d01aa58:	02000000 	srl	zero,zero,0x0
1d01aa5c:	00008000 	0x800000
1d01aa60:	06000000 	srlv	zero,zero,zero
1d01aa64:	03000000 	sra	zero,zero,0x0
1d01aa68:	00000080 	lb	zero,0(zero)
1d01aa6c:	07000000 	srav	zero,zero,zero
1d01aa70:	00000000 	nop
1d01aa74:	80000000 	sll	zero,zero,0x2
1d01aa78:	07000000 	srav	zero,zero,zero
1d01aa7c:	01000000 	movf	zero,zero,$fcc0
1d01aa80:	00800000 	sll	s0,zero,0x0
1d01aa84:	07000000 	srav	zero,zero,zero
1d01aa88:	02000000 	srl	zero,zero,0x0
1d01aa8c:	00008000 	0x800000
1d01aa90:	07000000 	srav	zero,zero,zero
1d01aa94:	03000000 	sra	zero,zero,0x0
1d01aa98:	00000080 	lb	zero,0(zero)

Disassembly of section .sec84:

1d01aa9c <.sec84>:
1d01aa9c:	21108000 	move	v0,a0
1d01aaa0:	5600c010 	beqz	a2,0x1d01abfc
1d01aaa4:	0c00ca2c 	sltiu	t2,a2,12
1d01aaa8:	4d004015 	bnez	t2,0x1d01abe0
1d01aaac:	2618a400 	xor	v1,a1,a0
1d01aab0:	03006330 	andi	v1,v1,0x3
1d01aab4:	23380400 	negu	a3,a0
1d01aab8:	29006010 	beqz	v1,0x1d01ab60
1d01aabc:	0300e730 	andi	a3,a3,0x3
1d01aac0:	0600e010 	beqz	a3,0x1d01aadc
1d01aac4:	2330c700 	subu	a2,a2,a3
1d01aac8:	0000a398 	lwr	v1,0(a1)
1d01aacc:	0300a388 	lwl	v1,3(a1)
1d01aad0:	2128a700 	addu	a1,a1,a3
1d01aad4:	000083b8 	swr	v1,0(a0)
1d01aad8:	21208700 	addu	a0,a0,a3
1d01aadc:	0f00c330 	andi	v1,a2,0xf
1d01aae0:	2338c300 	subu	a3,a2,v1
1d01aae4:	1100e010 	beqz	a3,0x1d01ab2c
1d01aae8:	21306000 	move	a2,v1
1d01aaec:	2138e500 	addu	a3,a3,a1
1d01aaf0:	0000a398 	lwr	v1,0(a1)
1d01aaf4:	0300a388 	lwl	v1,3(a1)
1d01aaf8:	0400a898 	lwr	t0,4(a1)
1d01aafc:	0700a888 	lwl	t0,7(a1)
1d01ab00:	0800a998 	lwr	t1,8(a1)
1d01ab04:	0b00a988 	lwl	t1,11(a1)
1d01ab08:	0c00aa98 	lwr	t2,12(a1)
1d01ab0c:	0f00aa88 	lwl	t2,15(a1)
1d01ab10:	000083ac 	sw	v1,0(a0)
1d01ab14:	040088ac 	sw	t0,4(a0)
1d01ab18:	080089ac 	sw	t1,8(a0)
1d01ab1c:	1000a524 	addiu	a1,a1,16
1d01ab20:	10008424 	addiu	a0,a0,16
1d01ab24:	f2ffa714 	bne	a1,a3,0x1d01aaf0
1d01ab28:	fcff8aac 	sw	t2,-4(a0)
1d01ab2c:	0300c330 	andi	v1,a2,0x3
1d01ab30:	2338c300 	subu	a3,a2,v1
1d01ab34:	2a00e010 	beqz	a3,0x1d01abe0
1d01ab38:	21306000 	move	a2,v1
1d01ab3c:	2138e500 	addu	a3,a3,a1
1d01ab40:	0000a398 	lwr	v1,0(a1)
1d01ab44:	0300a388 	lwl	v1,3(a1)
1d01ab48:	0400a524 	addiu	a1,a1,4
1d01ab4c:	04008424 	addiu	a0,a0,4
1d01ab50:	fbffa714 	bne	a1,a3,0x1d01ab40
1d01ab54:	fcff83ac 	sw	v1,-4(a0)
1d01ab58:	21000010 	b	0x1d01abe0
1d01ab5c:	00000000 	nop
1d01ab60:	0500e010 	beqz	a3,0x1d01ab78
1d01ab64:	2330c700 	subu	a2,a2,a3
1d01ab68:	0000a398 	lwr	v1,0(a1)
1d01ab6c:	2128a700 	addu	a1,a1,a3
1d01ab70:	000083b8 	swr	v1,0(a0)
1d01ab74:	21208700 	addu	a0,a0,a3
1d01ab78:	0f00c330 	andi	v1,a2,0xf
1d01ab7c:	2338c300 	subu	a3,a2,v1
1d01ab80:	0d00e010 	beqz	a3,0x1d01abb8
1d01ab84:	21306000 	move	a2,v1
1d01ab88:	2138e500 	addu	a3,a3,a1
1d01ab8c:	0000a38c 	lw	v1,0(a1)
1d01ab90:	0400a88c 	lw	t0,4(a1)
1d01ab94:	0800a98c 	lw	t1,8(a1)
1d01ab98:	0c00aa8c 	lw	t2,12(a1)
1d01ab9c:	000083ac 	sw	v1,0(a0)
1d01aba0:	040088ac 	sw	t0,4(a0)
1d01aba4:	080089ac 	sw	t1,8(a0)
1d01aba8:	1000a524 	addiu	a1,a1,16
1d01abac:	10008424 	addiu	a0,a0,16
1d01abb0:	f6ffa714 	bne	a1,a3,0x1d01ab8c
1d01abb4:	fcff8aac 	sw	t2,-4(a0)
1d01abb8:	0300c330 	andi	v1,a2,0x3
1d01abbc:	2338c300 	subu	a3,a2,v1
1d01abc0:	0700e010 	beqz	a3,0x1d01abe0
1d01abc4:	21306000 	move	a2,v1
1d01abc8:	2138e500 	addu	a3,a3,a1
1d01abcc:	0000a38c 	lw	v1,0(a1)
1d01abd0:	0400a524 	addiu	a1,a1,4
1d01abd4:	04008424 	addiu	a0,a0,4
1d01abd8:	fcffa714 	bne	a1,a3,0x1d01abcc
1d01abdc:	fcff83ac 	sw	v1,-4(a0)
1d01abe0:	0600c010 	beqz	a2,0x1d01abfc
1d01abe4:	2138c500 	addu	a3,a2,a1
1d01abe8:	0000a390 	lbu	v1,0(a1)
1d01abec:	0100a524 	addiu	a1,a1,1
1d01abf0:	01008424 	addiu	a0,a0,1
1d01abf4:	fcffa714 	bne	a1,a3,0x1d01abe8
1d01abf8:	ffff83a0 	sb	v1,-1(a0)
1d01abfc:	0800e003 	jr	ra
1d01ac00:	00000000 	nop
1d01ac04:	00008a90 	lbu	t2,0(a0)
1d01ac08:	21108000 	move	v0,a0
1d01ac0c:	03004015 	bnez	t2,0x1d01ac1c
1d01ac10:	00000000 	nop
1d01ac14:	0800e003 	jr	ra
1d01ac18:	00000224 	li	v0,0
1d01ac1c:	01008a90 	lbu	t2,1(a0)
1d01ac20:	03004015 	bnez	t2,0x1d01ac30
1d01ac24:	00000000 	nop
1d01ac28:	0800e003 	jr	ra
1d01ac2c:	01000224 	li	v0,1
1d01ac30:	02008a90 	lbu	t2,2(a0)
1d01ac34:	03004015 	bnez	t2,0x1d01ac44
1d01ac38:	00000000 	nop
1d01ac3c:	0800e003 	jr	ra
1d01ac40:	02000224 	li	v0,2
1d01ac44:	03008a90 	lbu	t2,3(a0)
1d01ac48:	03004015 	bnez	t2,0x1d01ac58
1d01ac4c:	82200400 	srl	a0,a0,0x2
1d01ac50:	0800e003 	jr	ra
1d01ac54:	03000224 	li	v0,3
1d01ac58:	01008424 	addiu	a0,a0,1
1d01ac5c:	80200400 	sll	a0,a0,0x2
1d01ac60:	00008a8c 	lw	t2,0(a0)
1d01ac64:	0101093c 	lui	t1,0x101
1d01ac68:	01012935 	ori	t1,t1,0x101
1d01ac6c:	c0790900 	sll	t7,t1,0x7
1d01ac70:	23404901 	subu	t0,t2,t1
1d01ac74:	24400f01 	and	t0,t0,t7
1d01ac78:	06000011 	beqz	t0,0x1d01ac94
1d01ac7c:	24600a01 	and	t4,t0,t2
1d01ac80:	04008811 	beq	t4,t0,0x1d01ac94
1d01ac84:	00000000 	nop
1d01ac88:	00008a90 	lbu	t2,0(a0)
1d01ac8c:	22000010 	b	0x1d01ad18
1d01ac90:	00008424 	addiu	a0,a0,0
1d01ac94:	04008b8c 	lw	t3,4(a0)
1d01ac98:	23406901 	subu	t0,t3,t1
1d01ac9c:	24400f01 	and	t0,t0,t7
1d01aca0:	06000011 	beqz	t0,0x1d01acbc
1d01aca4:	24600b01 	and	t4,t0,t3
1d01aca8:	04008811 	beq	t4,t0,0x1d01acbc
1d01acac:	00000000 	nop
1d01acb0:	04008a90 	lbu	t2,4(a0)
1d01acb4:	18000010 	b	0x1d01ad18
1d01acb8:	04008424 	addiu	a0,a0,4
1d01acbc:	08008a8c 	lw	t2,8(a0)
1d01acc0:	23404901 	subu	t0,t2,t1
1d01acc4:	24400f01 	and	t0,t0,t7
1d01acc8:	06000011 	beqz	t0,0x1d01ace4
1d01accc:	24600a01 	and	t4,t0,t2
1d01acd0:	04008811 	beq	t4,t0,0x1d01ace4
1d01acd4:	00000000 	nop
1d01acd8:	08008a90 	lbu	t2,8(a0)
1d01acdc:	0e000010 	b	0x1d01ad18
1d01ace0:	08008424 	addiu	a0,a0,8
1d01ace4:	0c008b8c 	lw	t3,12(a0)
1d01ace8:	23406901 	subu	t0,t3,t1
1d01acec:	24400f01 	and	t0,t0,t7
1d01acf0:	06000011 	beqz	t0,0x1d01ad0c
1d01acf4:	24600b01 	and	t4,t0,t3
1d01acf8:	04008811 	beq	t4,t0,0x1d01ad0c
1d01acfc:	00000000 	nop
1d01ad00:	0c008a90 	lbu	t2,12(a0)
1d01ad04:	04000010 	b	0x1d01ad18
1d01ad08:	0c008424 	addiu	a0,a0,12
1d01ad0c:	10008a8c 	lw	t2,16(a0)
1d01ad10:	d7ff0010 	b	0x1d01ac70
1d01ad14:	10008424 	addiu	a0,a0,16
1d01ad18:	04004015 	bnez	t2,0x1d01ad2c
1d01ad1c:	00000000 	nop
1d01ad20:	00008424 	addiu	a0,a0,0
1d01ad24:	0800e003 	jr	ra
1d01ad28:	23108200 	subu	v0,a0,v0
1d01ad2c:	01008a90 	lbu	t2,1(a0)
1d01ad30:	04004015 	bnez	t2,0x1d01ad44
1d01ad34:	00000000 	nop
1d01ad38:	01008424 	addiu	a0,a0,1
1d01ad3c:	0800e003 	jr	ra
1d01ad40:	23108200 	subu	v0,a0,v0
1d01ad44:	02008a90 	lbu	t2,2(a0)
1d01ad48:	04004015 	bnez	t2,0x1d01ad5c
1d01ad4c:	00000000 	nop
1d01ad50:	02008424 	addiu	a0,a0,2
1d01ad54:	0800e003 	jr	ra
1d01ad58:	23108200 	subu	v0,a0,v0
1d01ad5c:	03008a90 	lbu	t2,3(a0)
1d01ad60:	03008424 	addiu	a0,a0,3
1d01ad64:	0800e003 	jr	ra
1d01ad68:	23108200 	subu	v0,a0,v0

Disassembly of section .sec85:

1d01ad6c <.sec85>:
1d01ad6c:	d0ffbd27 	addiu	sp,sp,-48
1d01ad70:	2c00bfaf 	sw	ra,44(sp)
1d01ad74:	2800b5af 	sw	s5,40(sp)
1d01ad78:	2400b4af 	sw	s4,36(sp)
1d01ad7c:	2000b3af 	sw	s3,32(sp)
1d01ad80:	1c00b2af 	sw	s2,28(sp)
1d01ad84:	1800b1af 	sw	s1,24(sp)
1d01ad88:	1400b0af 	sw	s0,20(sp)
1d01ad8c:	80180400 	sll	v1,a0,0x2
1d01ad90:	029d023c 	lui	v0,0x9d02
1d01ad94:	04c54224 	addiu	v0,v0,-15100
1d01ad98:	21106200 	addu	v0,v1,v0
1d01ad9c:	40190400 	sll	v1,a0,0x5
1d01ada0:	1c009324 	addiu	s3,a0,28
1d01ada4:	029d103c 	lui	s0,0x9d02
1d01ada8:	18b91026 	addiu	s0,s0,-18152
1d01adac:	21800302 	addu	s0,s0,v1
1d01adb0:	2190a000 	move	s2,a1
1d01adb4:	0000518c 	lw	s1,0(v0)
1d01adb8:	21206002 	move	a0,s3
1d01adbc:	21280000 	move	a1,zero
1d01adc0:	6b70400f 	jal	0x1d01c1ac
1d01adc4:	21a8c000 	move	s5,a2
1d01adc8:	0800048e 	lw	a0,8(s0)
1d01adcc:	0c00058e 	lw	a1,12(s0)
1d01add0:	00800234 	li	v0,0x8000
1d01add4:	040022ae 	sw	v0,4(s1)
1d01add8:	4c70400f 	jal	0x1d01c130
1d01addc:	00805236 	ori	s2,s2,0x8000
1d01ade0:	1000048e 	lw	a0,16(s0)
1d01ade4:	1400058e 	lw	a1,20(s0)
1d01ade8:	3c70400f 	jal	0x1d01c0f0
1d01adec:	20005432 	andi	s4,s2,0x20
1d01adf0:	26008012 	beqz	s4,0x1d01ae8c
1d01adf4:	029d023c 	lui	v0,0x9d02
1d01adf8:	029d023c 	lui	v0,0x9d02
1d01adfc:	30c14224 	addiu	v0,v0,-16080
1d01ae00:	0000048e 	lw	a0,0(s0)
1d01ae04:	09f84000 	jalr	v0
1d01ae08:	0400058e 	lw	a1,4(s0)
1d01ae0c:	0080023c 	lui	v0,0x8000
1d01ae10:	80004224 	addiu	v0,v0,128
1d01ae14:	24104202 	and	v0,s2,v0
1d01ae18:	0a004010 	beqz	v0,0x1d01ae44
1d01ae1c:	00000000 	nop
1d01ae20:	1c004106 	bgez	s2,0x1d01ae94
1d01ae24:	8007427e 	ext	v0,s2,0x1e,0x1
1d01ae28:	1d004010 	beqz	v0,0x1d01aea0
1d01ae2c:	029d023c 	lui	v0,0x9d02
1d01ae30:	029d023c 	lui	v0,0x9d02
1d01ae34:	f0c04224 	addiu	v0,v0,-16144
1d01ae38:	1800048e 	lw	a0,24(s0)
1d01ae3c:	09f84000 	jalr	v0
1d01ae40:	1c00058e 	lw	a1,28(s0)
1d01ae44:	c470400f 	jal	0x1d01c310
1d01ae48:	21206002 	move	a0,s3
1d01ae4c:	42a81500 	srl	s5,s5,0x1
1d01ae50:	ffffb526 	addiu	s5,s5,-1
1d01ae54:	300035ae 	sw	s5,48(s1)
1d01ae58:	2000228e 	lw	v0,32(s1)
1d01ae5c:	40000224 	li	v0,64
1d01ae60:	140022ae 	sw	v0,20(s1)
1d01ae64:	000032ae 	sw	s2,0(s1)
1d01ae68:	2c00bf8f 	lw	ra,44(sp)
1d01ae6c:	2800b58f 	lw	s5,40(sp)
1d01ae70:	2400b48f 	lw	s4,36(sp)
1d01ae74:	2000b38f 	lw	s3,32(sp)
1d01ae78:	1c00b28f 	lw	s2,28(sp)
1d01ae7c:	1800b18f 	lw	s1,24(sp)
1d01ae80:	1400b08f 	lw	s0,20(sp)
1d01ae84:	0800e003 	jr	ra
1d01ae88:	3000bd27 	addiu	sp,sp,48
1d01ae8c:	806b400b 	j	0x1d01ae00
1d01ae90:	f0c04224 	addiu	v0,v0,-16144
1d01ae94:	e7ff8052 	beqzl	s4,0x1d01ae34
1d01ae98:	029d023c 	lui	v0,0x9d02
1d01ae9c:	029d023c 	lui	v0,0x9d02
1d01aea0:	8e6b400b 	j	0x1d01ae38
1d01aea4:	30c14224 	addiu	v0,v0,-16080

Disassembly of section .sec86:

1d01aea8 <.sec86>:
1d01aea8:	496e7465 	0x65746e49
1d01aeac:	72727570 	0x70757272
1d01aeb0:	74000000 	teq	zero,zero,0x1
1d01aeb4:	41646472 	0x72646441
1d01aeb8:	65737320 	addi	s3,v1,29541
1d01aebc:	286c6f61 	0x616f6c28
1d01aec0:	64206f72 	0x726f2064
1d01aec4:	20696665 	0x65666920
1d01aec8:	74636829 	slti	t0,t3,25460
1d01aecc:	00000000 	nop
1d01aed0:	41646472 	0x72646441
1d01aed4:	65737320 	addi	s3,v1,29541
1d01aed8:	2873746f 	0x6f747328
1d01aedc:	72652900 	tlt	at,t1,0x195
1d01aee0:	42757320 	addi	s3,v1,30018
1d01aee4:	28696665 	0x65666928
1d01aee8:	74636829 	slti	t0,t3,25460
1d01aeec:	00000000 	nop
1d01aef0:	42757320 	addi	s3,v1,30018
1d01aef4:	286c6f61 	0x616f6c28
1d01aef8:	642f7374 	jalx	0x11ccbd90
1d01aefc:	6f726529 	slti	a1,t3,29295
1d01af00:	00000000 	nop
1d01af04:	53797363 	0x63737953
1d01af08:	616c6c00 	0x6c6c61
1d01af0c:	42726561 	0x61657242
1d01af10:	6b706f69 	0x696f706b
1d01af14:	6e740000 	0x746e
1d01af18:	52657365 	0x65736552
1d01af1c:	72766564 	0x64657672
1d01af20:	20696e73 	0x736e6920
1d01af24:	74727563 	0x63757274
1d01af28:	74696f6e 	0x6e6f6974
1d01af2c:	00000000 	nop
1d01af30:	436f7072 	0x72706f43
1d01af34:	6f636573 	0x7365636f
1d01af38:	736f7220 	addi	s2,v1,28531
1d01af3c:	756e7573 	0x73756e75
1d01af40:	61626c65 	0x656c6261
1d01af44:	00000000 	nop
1d01af48:	41726974 	jalx	0x11a5c904
1d01af4c:	686d6574 	jalx	0x1195b5a0
1d01af50:	6963206f 	0x6f206369
1d01af54:	76657266 	0x66726576
1d01af58:	6c6f7700 	0x776f6c
1d01af5c:	54726170 	udi4	v1,at,t6,0x9
1d01af60:	20286469 	0x69642820
1d01af64:	76696465 	0x65646976
1d01af68:	20627920 	addi	t9,v1,25120
1d01af6c:	7a65726f 	0x6f72657a
1d01af70:	3f290000 	0x293f
1d01af74:	496d706c 	0x6c706d49
1d01af78:	656d656e 	0x6e656d65
1d01af7c:	74617469 	0x69746174
1d01af80:	6f6e2073 	0x73206e6f
1d01af84:	70656369 	0x69636570
1d01af88:	66696320 	addi	v1,v1,26982
1d01af8c:	31000000 	tgeu	zero,zero
1d01af90:	436f7245 	0x45726f43
1d01af94:	7874656e 	0x6e657478
1d01af98:	6420556e 	0x6e552064
1d01af9c:	75736561 	0x61657375
1d01afa0:	626c6500 	0x656c62
1d01afa4:	436f7072 	0x72706f43
1d01afa8:	6f636573 	0x7365636f
1d01afac:	736f7220 	addi	s2,v1,28531
1d01afb0:	32000000 	tlt	zero,zero
1d01afb4:	556e6b6e 	0x6e6b6e55
1d01afb8:	6f776e00 	0x6e776f

Disassembly of section .sec87:

1d01afbc <.sec87>:
1d01afbc:	e8ffbd27 	addiu	sp,sp,-24
1d01afc0:	1400bfaf 	sw	ra,20(sp)
1d01afc4:	1000b0af 	sw	s0,16(sp)
1d01afc8:	4f71400f 	jal	0x1d01c53c
1d01afcc:	21808000 	move	s0,a0
1d01afd0:	88bf063c 	lui	a2,0xbf88
1d01afd4:	0030c78c 	lw	a3,12288(a2)
1d01afd8:	0003e77c 	ext	a3,a3,0xc,0x1
1d01afdc:	0800e014 	bnez	a3,0x1d01b000
1d01afe0:	00400336 	ori	v1,s0,0x4000
1d01afe4:	00100424 	li	a0,4096
1d01afe8:	88bf033c 	lui	v1,0xbf88
1d01afec:	083064ac 	sw	a0,12296(v1)
1d01aff0:	0030c38c 	lw	v1,12288(a2)
1d01aff4:	00086330 	andi	v1,v1,0x800
1d01aff8:	fdff6014 	bnez	v1,0x1d01aff0
1d01affc:	00400336 	ori	v1,s0,0x4000
1d01b000:	81bf103c 	lui	s0,0xbf81
1d01b004:	00f403ae 	sw	v1,-3072(s0)
1d01b008:	00480540 	mfc0	a1,c0_count
1d01b00c:	00480340 	mfc0	v1,c0_count
1d01b010:	23186500 	subu	v1,v1,a1
1d01b014:	f000632c 	sltiu	v1,v1,240
1d01b018:	fcff6014 	bnez	v1,0x1d01b00c
1d01b01c:	81bf033c 	lui	v1,0xbf81
1d01b020:	99aa043c 	lui	a0,0xaa99
1d01b024:	55668424 	addiu	a0,a0,26197
1d01b028:	10f464ac 	sw	a0,-3056(v1)
1d01b02c:	6655043c 	lui	a0,0x5566
1d01b030:	aa998434 	ori	a0,a0,0x99aa
1d01b034:	10f464ac 	sw	a0,-3056(v1)
1d01b038:	00800434 	li	a0,0x8000
1d01b03c:	81bf033c 	lui	v1,0xbf81
1d01b040:	08f464ac 	sw	a0,-3064(v1)
1d01b044:	00f4038e 	lw	v1,-3072(s0)
1d01b048:	00806330 	andi	v1,v1,0x8000
1d01b04c:	fdff6014 	bnez	v1,0x1d01b044
1d01b050:	00400424 	li	a0,16384
1d01b054:	81bf033c 	lui	v1,0xbf81
1d01b058:	04f464ac 	sw	a0,-3068(v1)
1d01b05c:	1200e010 	beqz	a3,0x1d01b0a8
1d01b060:	00100424 	li	a0,4096
1d01b064:	0030c38c 	lw	v1,12288(a2)
1d01b068:	0003637c 	ext	v1,v1,0xc,0x1
1d01b06c:	06006014 	bnez	v1,0x1d01b088
1d01b070:	88bf033c 	lui	v1,0xbf88
1d01b074:	083064ac 	sw	a0,12296(v1)
1d01b078:	0030c38c 	lw	v1,12288(a2)
1d01b07c:	00086330 	andi	v1,v1,0x800
1d01b080:	fdff6014 	bnez	v1,0x1d01b078
1d01b084:	00000000 	nop
1d01b088:	2871400f 	jal	0x1d01c4a0
1d01b08c:	21204000 	move	a0,v0
1d01b090:	00f4028e 	lw	v0,-3072(s0)
1d01b094:	00304230 	andi	v0,v0,0x3000
1d01b098:	1400bf8f 	lw	ra,20(sp)
1d01b09c:	1000b08f 	lw	s0,16(sp)
1d01b0a0:	0800e003 	jr	ra
1d01b0a4:	1800bd27 	addiu	sp,sp,24
1d01b0a8:	88bf033c 	lui	v1,0xbf88
1d01b0ac:	043064ac 	sw	a0,12292(v1)
1d01b0b0:	2871400f 	jal	0x1d01c4a0
1d01b0b4:	21204000 	move	a0,v0
1d01b0b8:	00f4028e 	lw	v0,-3072(s0)
1d01b0bc:	00304230 	andi	v0,v0,0x3000
1d01b0c0:	1400bf8f 	lw	ra,20(sp)
1d01b0c4:	1000b08f 	lw	s0,16(sp)
1d01b0c8:	0800e003 	jr	ra
1d01b0cc:	1800bd27 	addiu	sp,sp,24

Disassembly of section .sec88:

1d01b0d0 <.sec88>:
1d01b0d0:	20000324 	li	v1,32
1d01b0d4:	80bf023c 	lui	v0,0xbf80
1d01b0d8:	000643ac 	sw	v1,1536(v0)
1d01b0dc:	80bf023c 	lui	v0,0xbf80
1d01b0e0:	100640ac 	sw	zero,1552(v0)
1d01b0e4:	80bf023c 	lui	v0,0xbf80
1d01b0e8:	200644ac 	sw	a0,1568(v0)
1d01b0ec:	00800334 	li	v1,0x8000
1d01b0f0:	80bf023c 	lui	v0,0xbf80
1d01b0f4:	080643ac 	sw	v1,1544(v0)
1d01b0f8:	10000224 	li	v0,16
1d01b0fc:	88bf033c 	lui	v1,0xbf88
1d01b100:	341062ac 	sw	v0,4148(v1)
1d01b104:	88bf043c 	lui	a0,0xbf88
1d01b108:	1c000324 	li	v1,28
1d01b10c:	a41083ac 	sw	v1,4260(a0)
1d01b110:	88bf033c 	lui	v1,0xbf88
1d01b114:	08000524 	li	a1,8
1d01b118:	a81065ac 	sw	a1,4264(v1)
1d01b11c:	03000524 	li	a1,3
1d01b120:	a41085ac 	sw	a1,4260(a0)
1d01b124:	a81060ac 	sw	zero,4264(v1)
1d01b128:	88bf033c 	lui	v1,0xbf88
1d01b12c:	641062ac 	sw	v0,4196(v1)
1d01b130:	88bf033c 	lui	v1,0xbf88
1d01b134:	681062ac 	sw	v0,4200(v1)
1d01b138:	0800e003 	jr	ra
1d01b13c:	00000000 	nop
1d01b140:	00e85d41 	rdpgpr	sp,sp
1d01b144:	00701b40 	mfc0	k1,c0_epc
1d01b148:	02601a40 	mfc0	k0,c0_srsctl
1d01b14c:	e8ffbd27 	addiu	sp,sp,-24
1d01b150:	1400bbaf 	sw	k1,20(sp)
1d01b154:	00601b40 	mfc0	k1,c0_status
1d01b158:	0c00baaf 	sw	k0,12(sp)
1d01b15c:	1000bbaf 	sw	k1,16(sp)
1d01b160:	44781b7c 	ins	k1,zero,0x1,0xf
1d01b164:	00087b37 	ori	k1,k1,0x800
1d01b168:	00609b40 	mtc0	k1,c0_status
1d01b16c:	0400a3af 	sw	v1,4(sp)
1d01b170:	0000a2af 	sw	v0,0(sp)
1d01b174:	9080828f 	lw	v0,-32624(gp)
1d01b178:	01004224 	addiu	v0,v0,1
1d01b17c:	908082af 	sw	v0,-32624(gp)
1d01b180:	01000224 	li	v0,1
1d01b184:	8c8082a3 	sb	v0,-32628(gp)
1d01b188:	10000324 	li	v1,16
1d01b18c:	88bf023c 	lui	v0,0xbf88
1d01b190:	341043ac 	sw	v1,4148(v0)
1d01b194:	0c00a28f 	lw	v0,12(sp)
1d01b198:	0f004230 	andi	v0,v0,0xf
1d01b19c:	03004014 	bnez	v0,0x1d01b1ac
1d01b1a0:	00000000 	nop
1d01b1a4:	0400a38f 	lw	v1,4(sp)
1d01b1a8:	0000a28f 	lw	v0,0(sp)
1d01b1ac:	00606041 	di
1d01b1b0:	c0000000 	ehb
1d01b1b4:	1400ba8f 	lw	k0,20(sp)
1d01b1b8:	1000bb8f 	lw	k1,16(sp)
1d01b1bc:	00709a40 	mtc0	k0,c0_epc
1d01b1c0:	0c00ba8f 	lw	k0,12(sp)
1d01b1c4:	1800bd27 	addiu	sp,sp,24
1d01b1c8:	02609a40 	mtc0	k0,c0_srsctl
1d01b1cc:	00e8dd41 	wrpgpr	sp,sp
1d01b1d0:	00609b40 	mtc0	k1,c0_status
1d01b1d4:	18000042 	eret

Disassembly of section .sec89:

1d01b1d8 <.sec89>:
1d01b1d8:	00202020 	addi	zero,at,8192
1d01b1dc:	20202020 	addi	zero,at,8224
1d01b1e0:	20202828 	slti	t0,at,8224
1d01b1e4:	28282820 	addi	t0,at,10280
1d01b1e8:	20202020 	addi	zero,at,8224
1d01b1ec:	20202020 	addi	zero,at,8224
1d01b1f0:	20202020 	addi	zero,at,8224
1d01b1f4:	20202020 	addi	zero,at,8224
1d01b1f8:	20801010 	beq	zero,s0,0x1cffb27c
1d01b1fc:	10101010 	beq	zero,s0,0x1d01f240
1d01b200:	10101010 	beq	zero,s0,0x1d01f244
1d01b204:	10101010 	beq	zero,s0,0x1d01f248
1d01b208:	10040404 	0x4040410
1d01b20c:	04040404 	0x4040404
1d01b210:	04040410 	beq	zero,a0,0x1d01c224
1d01b214:	10101010 	beq	zero,s0,0x1d01f258
1d01b218:	10104141 	0x41411010
1d01b21c:	41414141 	0x41414141
1d01b220:	01010101 	0x1010101
1d01b224:	01010101 	0x1010101
1d01b228:	01010101 	0x1010101
1d01b22c:	01010101 	0x1010101
1d01b230:	01010101 	0x1010101
1d01b234:	10101010 	beq	zero,s0,0x1d01f278
1d01b238:	10104242 	c0	0x421010
1d01b23c:	42424242 	c0	0x424242
1d01b240:	02020202 	0x2020202
1d01b244:	02020202 	0x2020202
1d01b248:	02020202 	0x2020202
1d01b24c:	02020202 	0x2020202
1d01b250:	02020202 	0x2020202
1d01b254:	10101010 	beq	zero,s0,0x1d01f298
1d01b258:	20000000 	add	zero,zero,zero
	...
1d01b2dc:	2cb3019d 	0x9d01b32c
1d01b2e0:	0cb3019d 	0x9d01b30c
1d01b2e4:	94b3019d 	0x9d01b394
1d01b2e8:	30b3019d 	0x9d01b330
1d01b2ec:	0600ff09 	j	0x17fc0018
1d01b2f0:	01a10119 	0x1901a101
1d01b2f4:	01294015 	bnez	t2,0x1d0256fc
1d01b2f8:	0026ff00 	0xff2600
1d01b2fc:	75089540 	0x40950875
1d01b300:	81001901 	0x1190081
1d01b304:	29409100 	0x914029
1d01b308:	c0000000 	ehb
1d01b30c:	1e034400 	0x44031e
1d01b310:	61007400 	0x740061
1d01b314:	61007300 	0x730061
1d01b318:	70006500 	tge	v1,a1,0x1
1d01b31c:	65006400 	0x640065
1d01b320:	20004900 	add	zero,v0,t1
1d01b324:	6e006300 	0x63006e
1d01b328:	2e000000 	0x2e
1d01b32c:	04030904 	tgeiu	zero,772
1d01b330:	09024e00 	0x4e0209
1d01b334:	020100c0 	ll	zero,258(zero)
1d01b338:	32090400 	tlt	zero,a0,0x24
1d01b33c:	00020300 	sll	zero,v1,0x8
1d01b340:	00000921 	addi	t1,t0,0
1d01b344:	11010001 	0x1000111
1d01b348:	221d0007 	bltz	t8,0x1d0227d4
1d01b34c:	05810340 	0x40038105
1d01b350:	00010705 	aclr	0x0,256(t0)
1d01b354:	01034000 	0x400301
1d01b358:	01090401 	0x1040901
1d01b35c:	0004ffff 	sdc3	$31,1024(ra)
1d01b360:	ff000705 	aclr	0x0,255(t0)
1d01b364:	02024000 	0x400202
1d01b368:	01070582 	lb	a1,1793(s0)
1d01b36c:	02400001 	0x1004002
1d01b370:	07050302 	0x2030507
1d01b374:	40000107 	bgez	t8,0x1d01b478
1d01b378:	05830240 	0x40028305
1d01b37c:	00010000 	sll	zero,zero,0x4
1d01b380:	12010002 	0x2000112
1d01b384:	00000040 	mfc0	zero,c0_index
1d01b388:	23691101 	0x1116923
1d01b38c:	00000102 	0x2010000
1d01b390:	00010000 	sll	zero,zero,0x4
1d01b394:	38034400 	0x440338
1d01b398:	72006900 	tlt	v1,t1,0x1
1d01b39c:	76006500 	tne	v1,a1,0x1
1d01b3a0:	2d004200 	0x42002d
1d01b3a4:	79002d00 	0x2d0079
1d01b3a8:	57006900 	0x690057
1d01b3ac:	72006500 	tlt	v1,a1,0x1
1d01b3b0:	20004600 	add	zero,v0,a2
1d01b3b4:	4f005200 	0x52004f
1d01b3b8:	44005f00 	0x5f0044
1d01b3bc:	50003500 	0x350050
1d01b3c0:	20005300 	add	zero,v0,s3
1d01b3c4:	74006500 	teq	v1,a1,0x1
1d01b3c8:	65007200 	0x720065

Disassembly of section .sec90:

1d01b3cc <.sec90>:
1d01b3cc:	81bf023c 	lui	v0,0xbf81
1d01b3d0:	009040ac 	sw	zero,-28672(v0)
1d01b3d4:	81bf023c 	lui	v0,0xbf81
1d01b3d8:	109040ac 	sw	zero,-28656(v0)
1d01b3dc:	81bf023c 	lui	v0,0xbf81
1d01b3e0:	209040ac 	sw	zero,-28640(v0)
1d01b3e4:	88bf023c 	lui	v0,0xbf88
1d01b3e8:	5060438c 	lw	v1,24656(v0)
1d01b3ec:	25188300 	or	v1,a0,v1
1d01b3f0:	506043ac 	sw	v1,24656(v0)
1d01b3f4:	27180400 	nor	v1,zero,a0
1d01b3f8:	81bf023c 	lui	v0,0xbf81
1d01b3fc:	609043ac 	sw	v1,-28576(v0)
1d01b400:	81bf023c 	lui	v0,0xbf81
1d01b404:	509044ac 	sw	a0,-28592(v0)
1d01b408:	07008010 	beqz	a0,0x1d01b428
1d01b40c:	21100000 	move	v0,zero
1d01b410:	01008330 	andi	v1,a0,0x1
1d01b414:	42200400 	srl	a0,a0,0x1
1d01b418:	fdff8014 	bnez	a0,0x1d01b410
1d01b41c:	21104300 	addu	v0,v0,v1
1d01b420:	0b6d400b 	j	0x1d01b42c
1d01b424:	81bf033c 	lui	v1,0xbf81
1d01b428:	81bf033c 	lui	v1,0xbf81
1d01b42c:	00906494 	lhu	a0,-28672(v1)
1d01b430:	07000524 	li	a1,7
1d01b434:	4439a47c 	ins	a0,a1,0x5,0x3
1d01b438:	009064a4 	sh	a0,-28672(v1)
1d01b43c:	00906594 	lhu	a1,-28672(v1)
1d01b440:	01000424 	li	a0,1
1d01b444:	0421857c 	ins	a1,a0,0x4,0x1
1d01b448:	009065a4 	sh	a1,-28672(v1)
1d01b44c:	81bf033c 	lui	v1,0xbf81
1d01b450:	10906594 	lhu	a1,-28656(v1)
1d01b454:	447b057c 	ins	a1,zero,0xd,0x3
1d01b458:	109065a4 	sh	a1,-28656(v1)
1d01b45c:	10906594 	lhu	a1,-28656(v1)
1d01b460:	8452857c 	ins	a1,a0,0xa,0x1
1d01b464:	109065a4 	sh	a1,-28656(v1)
1d01b468:	ffff4224 	addiu	v0,v0,-1
1d01b46c:	10906594 	lhu	a1,-28656(v1)
1d01b470:	8428457c 	ins	a1,v0,0x2,0x4
1d01b474:	109065a4 	sh	a1,-28656(v1)
1d01b478:	81bf023c 	lui	v0,0xbf81
1d01b47c:	20904394 	lhu	v1,-28640(v0)
1d01b480:	c47b837c 	ins	v1,a0,0xf,0x1
1d01b484:	209043a4 	sh	v1,-28640(v0)
1d01b488:	20904494 	lhu	a0,-28640(v0)
1d01b48c:	1f000324 	li	v1,31
1d01b490:	0462647c 	ins	a0,v1,0x8,0x5
1d01b494:	209044a4 	sh	a0,-28640(v0)
1d01b498:	209043a0 	sb	v1,-28640(v0)
1d01b49c:	00800334 	li	v1,0x8000
1d01b4a0:	81bf023c 	lui	v0,0xbf81
1d01b4a4:	089043ac 	sw	v1,-28664(v0)
1d01b4a8:	0800e003 	jr	ra
1d01b4ac:	00000000 	nop

Disassembly of section .sec91:

1d01b4b0 <.sec91>:
1d01b4b0:	0400a38c 	lw	v1,4(a1)
1d01b4b4:	0000a28c 	lw	v0,0(a1)
1d01b4b8:	0800a88c 	lw	t0,8(a1)
1d01b4bc:	21106200 	addu	v0,v1,v0
1d01b4c0:	04004224 	addiu	v0,v0,4
1d01b4c4:	21104800 	addu	v0,v0,t0
1d01b4c8:	40100200 	sll	v0,v0,0x1
1d01b4cc:	02384770 	mul	a3,v0,a3
1d01b4d0:	0c00a88c 	lw	t0,12(a1)
1d01b4d4:	80200400 	sll	a0,a0,0x2
1d01b4d8:	00a0023c 	lui	v0,0xa000
1d01b4dc:	f8014224 	addiu	v0,v0,504
1d01b4e0:	21208200 	addu	a0,a0,v0
1d01b4e4:	0000828c 	lw	v0,0(a0)
1d01b4e8:	1b00c700 	divu	zero,a2,a3
1d01b4ec:	f401e000 	teq	a3,zero,0x7
1d01b4f0:	12380000 	mflo	a3
1d01b4f4:	01000424 	li	a0,1
1d01b4f8:	1c000411 	beq	t0,a0,0x1d01b56c
1d01b4fc:	ffffe724 	addiu	a3,a3,-1
1d01b500:	00800434 	li	a0,0x8000
1d01b504:	140044ac 	sw	a0,20(v0)
1d01b508:	1000a68c 	lw	a2,16(a1)
1d01b50c:	01000424 	li	a0,1
1d01b510:	1c00c410 	beq	a2,a0,0x1d01b584
1d01b514:	00400424 	li	a0,16384
1d01b518:	140044ac 	sw	a0,20(v0)
1d01b51c:	1000448c 	lw	a0,16(v0)
1d01b520:	c46a647c 	ins	a0,v1,0xb,0x3
1d01b524:	100044ac 	sw	a0,16(v0)
1d01b528:	1000438c 	lw	v1,16(v0)
1d01b52c:	0000a48c 	lw	a0,0(a1)
1d01b530:	0494837c 	ins	v1,a0,0x10,0x3
1d01b534:	100043ac 	sw	v1,16(v0)
1d01b538:	1000438c 	lw	v1,16(v0)
1d01b53c:	0800a48c 	lw	a0,8(a1)
1d01b540:	0452837c 	ins	v1,a0,0x8,0x3
1d01b544:	100043ac 	sw	v1,16(v0)
1d01b548:	1000438c 	lw	v1,16(v0)
1d01b54c:	1400a48c 	lw	a0,20(a1)
1d01b550:	8439837c 	ins	v1,a0,0x6,0x2
1d01b554:	100043ac 	sw	v1,16(v0)
1d01b558:	1000438c 	lw	v1,16(v0)
1d01b55c:	0428e37c 	ins	v1,a3,0x0,0x6
1d01b560:	100043ac 	sw	v1,16(v0)
1d01b564:	0800e003 	jr	ra
1d01b568:	00000000 	nop
1d01b56c:	00800434 	li	a0,0x8000
1d01b570:	180044ac 	sw	a0,24(v0)
1d01b574:	1000a68c 	lw	a2,16(a1)
1d01b578:	01000424 	li	a0,1
1d01b57c:	e6ffc414 	bne	a2,a0,0x1d01b518
1d01b580:	00400424 	li	a0,16384
1d01b584:	180044ac 	sw	a0,24(v0)
1d01b588:	476d400b 	j	0x1d01b51c
1d01b58c:	00000000 	nop

Disassembly of section .sec92:

1d01b590 <.sec92>:
1d01b590:	a8ffbd27 	addiu	sp,sp,-88
1d01b594:	0400a1af 	sw	at,4(sp)
1d01b598:	0800a2af 	sw	v0,8(sp)
1d01b59c:	0c00a3af 	sw	v1,12(sp)
1d01b5a0:	1000a4af 	sw	a0,16(sp)
1d01b5a4:	1400a5af 	sw	a1,20(sp)
1d01b5a8:	1800a6af 	sw	a2,24(sp)
1d01b5ac:	1c00a7af 	sw	a3,28(sp)
1d01b5b0:	2000a8af 	sw	t0,32(sp)
1d01b5b4:	2400a9af 	sw	t1,36(sp)
1d01b5b8:	2800aaaf 	sw	t2,40(sp)
1d01b5bc:	2c00abaf 	sw	t3,44(sp)
1d01b5c0:	3000acaf 	sw	t4,48(sp)
1d01b5c4:	3400adaf 	sw	t5,52(sp)
1d01b5c8:	3800aeaf 	sw	t6,56(sp)
1d01b5cc:	3c00afaf 	sw	t7,60(sp)
1d01b5d0:	4000b8af 	sw	t8,64(sp)
1d01b5d4:	4400b9af 	sw	t9,68(sp)
1d01b5d8:	4800bfaf 	sw	ra,72(sp)
1d01b5dc:	12400000 	mflo	t0
1d01b5e0:	4c00a8af 	sw	t0,76(sp)
1d01b5e4:	10400000 	mfhi	t0
1d01b5e8:	5000a8af 	sw	t0,80(sp)
1d01b5ec:	029d1a3c 	lui	k0,0x9d02
1d01b5f0:	148e5a27 	addiu	k0,k0,-29164
1d01b5f4:	00000000 	nop
1d01b5f8:	00680440 	mfc0	a0,c0_cause
1d01b5fc:	00600540 	mfc0	a1,c0_status
1d01b600:	09f84003 	jalr	k0
1d01b604:	00000000 	nop
1d01b608:	5000a88f 	lw	t0,80(sp)
1d01b60c:	11000001 	mthi	t0
1d01b610:	4c00a88f 	lw	t0,76(sp)
1d01b614:	13000001 	mtlo	t0
1d01b618:	0400a18f 	lw	at,4(sp)
1d01b61c:	0800a28f 	lw	v0,8(sp)
1d01b620:	0c00a38f 	lw	v1,12(sp)
1d01b624:	1000a48f 	lw	a0,16(sp)
1d01b628:	1400a58f 	lw	a1,20(sp)
1d01b62c:	1800a68f 	lw	a2,24(sp)
1d01b630:	1c00a78f 	lw	a3,28(sp)
1d01b634:	2000a88f 	lw	t0,32(sp)
1d01b638:	2400a98f 	lw	t1,36(sp)
1d01b63c:	2800aa8f 	lw	t2,40(sp)
1d01b640:	2c00ab8f 	lw	t3,44(sp)
1d01b644:	3000ac8f 	lw	t4,48(sp)
1d01b648:	3400ad8f 	lw	t5,52(sp)
1d01b64c:	3800ae8f 	lw	t6,56(sp)
1d01b650:	3c00af8f 	lw	t7,60(sp)
1d01b654:	4000b88f 	lw	t8,64(sp)
1d01b658:	4400b98f 	lw	t9,68(sp)
1d01b65c:	4800bf8f 	lw	ra,72(sp)
1d01b660:	5800bd27 	addiu	sp,sp,88
1d01b664:	c0000000 	ehb
1d01b668:	18000042 	eret

Disassembly of section .sec93:

1d01b66c <.sec93>:
1d01b66c:	80200400 	sll	a0,a0,0x2
1d01b670:	00a0023c 	lui	v0,0xa000
1d01b674:	f8014224 	addiu	v0,v0,504
1d01b678:	21208200 	addu	a0,a0,v0
1d01b67c:	1000a28f 	lw	v0,16(sp)
1d01b680:	1200e014 	bnez	a3,0x1d01b6cc
1d01b684:	0000848c 	lw	a0,0(a0)
1d01b688:	0800a324 	addiu	v1,a1,8
1d01b68c:	00190300 	sll	v1,v1,0x4
1d01b690:	21188300 	addu	v1,a0,v1
1d01b694:	0000678c 	lw	a3,0(v1)
1d01b698:	8054c87c 	ext	t0,a2,0x12,0xb
1d01b69c:	44fd077d 	ins	a3,t0,0x15,0xb
1d01b6a0:	000067ac 	sw	a3,0(v1)
1d01b6a4:	0000678c 	lw	a3,0(v1)
1d01b6a8:	0488c77c 	ins	a3,a2,0x0,0x12
1d01b6ac:	000067ac 	sw	a3,0(v1)
1d01b6b0:	11004050 	beqzl	v0,0x1d01b6f8
1d01b6b4:	00290500 	sll	a1,a1,0x4
1d01b6b8:	01000324 	li	v1,1
1d01b6bc:	13004310 	beq	v0,v1,0x1d01b70c
1d01b6c0:	0800a524 	addiu	a1,a1,8
1d01b6c4:	0800e003 	jr	ra
1d01b6c8:	00000000 	nop
1d01b6cc:	01000324 	li	v1,1
1d01b6d0:	f7ffe314 	bne	a3,v1,0x1d01b6b0
1d01b6d4:	0800a324 	addiu	v1,a1,8
1d01b6d8:	00190300 	sll	v1,v1,0x4
1d01b6dc:	21188300 	addu	v1,a0,v1
1d01b6e0:	0000678c 	lw	a3,0(v1)
1d01b6e4:	44fdc77c 	ins	a3,a2,0x15,0xb
1d01b6e8:	000067ac 	sw	a3,0(v1)
1d01b6ec:	f3ff4014 	bnez	v0,0x1d01b6bc
1d01b6f0:	01000324 	li	v1,1
1d01b6f4:	00290500 	sll	a1,a1,0x4
1d01b6f8:	21208500 	addu	a0,a0,a1
1d01b6fc:	0800023c 	lui	v0,0x8
1d01b700:	880082ac 	sw	v0,136(a0)
1d01b704:	0800e003 	jr	ra
1d01b708:	00000000 	nop
1d01b70c:	00290500 	sll	a1,a1,0x4
1d01b710:	21208500 	addu	a0,a0,a1
1d01b714:	0800023c 	lui	v0,0x8
1d01b718:	040082ac 	sw	v0,4(a0)
1d01b71c:	0800e003 	jr	ra
1d01b720:	00000000 	nop

Disassembly of section .sec94:

1d01b724 <.sec94>:
1d01b724:	21108000 	move	v0,a0
1d01b728:	2600c010 	beqz	a2,0x1d01b7c4
1d01b72c:	1000ca2c 	sltiu	t2,a2,16
1d01b730:	1f004015 	bnez	t2,0x1d01b7b0
1d01b734:	ff00a530 	andi	a1,a1,0xff
1d01b738:	00520500 	sll	t2,a1,0x8
1d01b73c:	2528aa00 	or	a1,a1,t2
1d01b740:	00540500 	sll	t2,a1,0x10
1d01b744:	2528aa00 	or	a1,a1,t2
1d01b748:	03008330 	andi	v1,a0,0x3
1d01b74c:	05006010 	beqz	v1,0x1d01b764
1d01b750:	04000724 	li	a3,4
1d01b754:	2338e300 	subu	a3,a3,v1
1d01b758:	2330c700 	subu	a2,a2,a3
1d01b75c:	000085b8 	swr	a1,0(a0)
1d01b760:	21208700 	addu	a0,a0,a3
1d01b764:	0f00c330 	andi	v1,a2,0xf
1d01b768:	2338c300 	subu	a3,a2,v1
1d01b76c:	0800e010 	beqz	a3,0x1d01b790
1d01b770:	21306000 	move	a2,v1
1d01b774:	2138e400 	addu	a3,a3,a0
1d01b778:	000085ac 	sw	a1,0(a0)
1d01b77c:	040085ac 	sw	a1,4(a0)
1d01b780:	080085ac 	sw	a1,8(a0)
1d01b784:	10008424 	addiu	a0,a0,16
1d01b788:	fbff8714 	bne	a0,a3,0x1d01b778
1d01b78c:	fcff85ac 	sw	a1,-4(a0)
1d01b790:	0300c330 	andi	v1,a2,0x3
1d01b794:	2338c300 	subu	a3,a2,v1
1d01b798:	0500e010 	beqz	a3,0x1d01b7b0
1d01b79c:	21306000 	move	a2,v1
1d01b7a0:	2138e400 	addu	a3,a3,a0
1d01b7a4:	04008424 	addiu	a0,a0,4
1d01b7a8:	feff8714 	bne	a0,a3,0x1d01b7a4
1d01b7ac:	fcff85ac 	sw	a1,-4(a0)
1d01b7b0:	0400c010 	beqz	a2,0x1d01b7c4
1d01b7b4:	2138c400 	addu	a3,a2,a0
1d01b7b8:	01008424 	addiu	a0,a0,1
1d01b7bc:	feff8714 	bne	a0,a3,0x1d01b7b8
1d01b7c0:	ffff85a0 	sb	a1,-1(a0)
1d01b7c4:	0800e003 	jr	ra
1d01b7c8:	00000000 	nop

Disassembly of section .sec95:

1d01b7cc <.sec95>:
1d01b7cc:	20000324 	li	v1,32
1d01b7d0:	09000524 	li	a1,9
1d01b7d4:	00008280 	lb	v0,0(a0)
1d01b7d8:	feff4350 	beql	v0,v1,0x1d01b7d4
1d01b7dc:	01008424 	addiu	a0,a0,1
1d01b7e0:	03004554 	bnel	v0,a1,0x1d01b7f0
1d01b7e4:	2d000324 	li	v1,45
1d01b7e8:	f56d400b 	j	0x1d01b7d4
1d01b7ec:	01008424 	addiu	a0,a0,1
1d01b7f0:	19004310 	beq	v0,v1,0x1d01b858
1d01b7f4:	21288000 	move	a1,a0
1d01b7f8:	2b000324 	li	v1,43
1d01b7fc:	1a004310 	beq	v0,v1,0x1d01b868
1d01b800:	21480000 	move	t1,zero
1d01b804:	029d083c 	lui	t0,0x9d02
1d01b808:	d9b10825 	addiu	t0,t0,-20007
1d01b80c:	21180201 	addu	v1,t0,v0
1d01b810:	00006390 	lbu	v1,0(v1)
1d01b814:	04006330 	andi	v1,v1,0x4
1d01b818:	0c006010 	beqz	v1,0x1d01b84c
1d01b81c:	21180000 	move	v1,zero
1d01b820:	01008424 	addiu	a0,a0,1
1d01b824:	d0ff4624 	addiu	a2,v0,-48
1d01b828:	00008280 	lb	v0,0(a0)
1d01b82c:	40380300 	sll	a3,v1,0x1
1d01b830:	c0180300 	sll	v1,v1,0x3
1d01b834:	21280201 	addu	a1,t0,v0
1d01b838:	0000a590 	lbu	a1,0(a1)
1d01b83c:	2118e300 	addu	v1,a3,v1
1d01b840:	0400a530 	andi	a1,a1,0x4
1d01b844:	f6ffa014 	bnez	a1,0x1d01b820
1d01b848:	21186600 	addu	v1,v1,a2
1d01b84c:	23100300 	negu	v0,v1
1d01b850:	0800e003 	jr	ra
1d01b854:	0a106900 	movz	v0,v1,t1
1d01b858:	01008424 	addiu	a0,a0,1
1d01b85c:	0100a280 	lb	v0,1(a1)
1d01b860:	016e400b 	j	0x1d01b804
1d01b864:	01000924 	li	t1,1
1d01b868:	01008424 	addiu	a0,a0,1
1d01b86c:	016e400b 	j	0x1d01b804
1d01b870:	0100a280 	lb	v0,1(a1)

Disassembly of section .sec96:

1d01b874 <.sec96>:
1d01b874:	80200400 	sll	a0,a0,0x2
1d01b878:	00a0023c 	lui	v0,0xa000
1d01b87c:	f8014224 	addiu	v0,v0,504
1d01b880:	21208200 	addu	a0,a0,v0
1d01b884:	0000838c 	lw	v1,0(a0)
1d01b888:	80290500 	sll	a1,a1,0x6
1d01b88c:	21106500 	addu	v0,v1,a1
1d01b890:	80000424 	li	a0,128
1d01b894:	580344ac 	sw	a0,856(v0)
1d01b898:	5003448c 	lw	a0,848(v0)
1d01b89c:	ffffc624 	addiu	a2,a2,-1
1d01b8a0:	04a4c47c 	ins	a0,a2,0x10,0x5
1d01b8a4:	500344ac 	sw	a0,848(v0)
1d01b8a8:	1200e010 	beqz	a3,0x1d01b8f4
1d01b8ac:	01000424 	li	a0,1
1d01b8b0:	0800e410 	beq	a3,a0,0x1d01b8d4
1d01b8b4:	04000424 	li	a0,4
1d01b8b8:	21186500 	addu	v1,v1,a1
1d01b8bc:	5003628c 	lw	v0,848(v1)
1d01b8c0:	1000a48f 	lw	a0,16(sp)
1d01b8c4:	0408827c 	ins	v0,a0,0x0,0x2
1d01b8c8:	500362ac 	sw	v0,848(v1)
1d01b8cc:	0800e003 	jr	ra
1d01b8d0:	00000000 	nop
1d01b8d4:	540344ac 	sw	a0,852(v0)
1d01b8d8:	21186500 	addu	v1,v1,a1
1d01b8dc:	5003628c 	lw	v0,848(v1)
1d01b8e0:	1000a48f 	lw	a0,16(sp)
1d01b8e4:	0408827c 	ins	v0,a0,0x0,0x2
1d01b8e8:	500362ac 	sw	v0,848(v1)
1d01b8ec:	0800e003 	jr	ra
1d01b8f0:	00000000 	nop
1d01b8f4:	04000424 	li	a0,4
1d01b8f8:	580344ac 	sw	a0,856(v0)
1d01b8fc:	21186500 	addu	v1,v1,a1
1d01b900:	5003628c 	lw	v0,848(v1)
1d01b904:	1000a48f 	lw	a0,16(sp)
1d01b908:	0408827c 	ins	v0,a0,0x0,0x2
1d01b90c:	500362ac 	sw	v0,848(v1)
1d01b910:	0800e003 	jr	ra
1d01b914:	00000000 	nop

Disassembly of section .sec97:

1d01b918 <.sec97>:
1d01b918:	06000000 	srlv	zero,zero,zero
1d01b91c:	00000000 	nop
1d01b920:	06000000 	srlv	zero,zero,zero
1d01b924:	00000000 	nop
1d01b928:	06000000 	srlv	zero,zero,zero
1d01b92c:	00000000 	nop
1d01b930:	06000000 	srlv	zero,zero,zero
1d01b934:	00000000 	nop
1d01b938:	06000000 	srlv	zero,zero,zero
1d01b93c:	00000000 	nop
1d01b940:	06000000 	srlv	zero,zero,zero
1d01b944:	00000000 	nop
1d01b948:	06000000 	srlv	zero,zero,zero
1d01b94c:	00000000 	nop
1d01b950:	06000000 	srlv	zero,zero,zero
1d01b954:	00000000 	nop
1d01b958:	05000000 	0x5
1d01b95c:	40000000 	ssnop
1d01b960:	05000000 	0x5
1d01b964:	00010000 	sll	zero,zero,0x4
1d01b968:	05000000 	0x5
1d01b96c:	80000000 	sll	zero,zero,0x2
1d01b970:	05000000 	0x5
1d01b974:	00020000 	sll	zero,zero,0x8
1d01b978:	02000000 	srl	zero,zero,0x0
1d01b97c:	02000000 	srl	zero,zero,0x0
1d01b980:	02000000 	srl	zero,zero,0x0
1d01b984:	08000000 	jr	zero
1d01b988:	02000000 	srl	zero,zero,0x0
1d01b98c:	04000000 	sllv	zero,zero,zero
1d01b990:	02000000 	srl	zero,zero,0x0
1d01b994:	00020000 	sll	zero,zero,0x8
1d01b998:	00000000 	nop
1d01b99c:	00400000 	sll	t0,zero,0x0
1d01b9a0:	04000000 	sllv	zero,zero,zero
1d01b9a4:	20000000 	add	zero,zero,zero
1d01b9a8:	04000000 	sllv	zero,zero,zero
1d01b9ac:	10000000 	mfhi	zero
1d01b9b0:	00000000 	nop
1d01b9b4:	00010000 	sll	zero,zero,0x4

Disassembly of section .sec98:

1d01b9b8 <.sec98>:
1d01b9b8:	0400c928 	slti	t1,a2,4
1d01b9bc:	05002011 	beqz	t1,0x1d01b9d4
1d01b9c0:	21388600 	addu	a3,a0,a2
1d01b9c4:	1700c01c 	bgtz	a2,0x1d01ba24
1d01b9c8:	00000000 	nop
1d01b9cc:	0800e003 	jr	ra
1d01b9d0:	21100000 	move	v0,zero
1d01b9d4:	25408500 	or	t0,a0,a1
1d01b9d8:	03000831 	andi	t0,t0,0x3
1d01b9dc:	03000011 	beqz	t0,0x1d01b9ec
1d01b9e0:	00000000 	nop
1d01b9e4:	10000010 	b	0x1d01ba28
1d01b9e8:	00008890 	lbu	t0,0(a0)
1d01b9ec:	0000888c 	lw	t0,0(a0)
1d01b9f0:	0000a98c 	lw	t1,0(a1)
1d01b9f4:	04008424 	addiu	a0,a0,4
1d01b9f8:	05000911 	beq	t0,t1,0x1d01ba10
1d01b9fc:	0400a524 	addiu	a1,a1,4
1d01ba00:	fcffa524 	addiu	a1,a1,-4
1d01ba04:	fcff8424 	addiu	a0,a0,-4
1d01ba08:	07000010 	b	0x1d01ba28
1d01ba0c:	00008890 	lbu	t0,0(a0)
1d01ba10:	fcffc624 	addiu	a2,a2,-4
1d01ba14:	f5ffc01c 	bgtz	a2,0x1d01b9ec
1d01ba18:	00000000 	nop
1d01ba1c:	0800e003 	jr	ra
1d01ba20:	21100000 	move	v0,zero
1d01ba24:	00008890 	lbu	t0,0(a0)
1d01ba28:	0000a990 	lbu	t1,0(a1)
1d01ba2c:	01008424 	addiu	a0,a0,1
1d01ba30:	03000911 	beq	t0,t1,0x1d01ba40
1d01ba34:	0100a524 	addiu	a1,a1,1
1d01ba38:	0800e003 	jr	ra
1d01ba3c:	23100901 	subu	v0,t0,t1
1d01ba40:	f8ff8714 	bne	a0,a3,0x1d01ba24
1d01ba44:	00000000 	nop
1d01ba48:	0800e003 	jr	ra
1d01ba4c:	21100000 	move	v0,zero

Disassembly of section .sec99:

1d01ba50 <.sec99>:
1d01ba50:	e0ffbd27 	addiu	sp,sp,-32
1d01ba54:	1c00bfaf 	sw	ra,28(sp)
1d01ba58:	1800b1af 	sw	s1,24(sp)
1d01ba5c:	1400b0af 	sw	s0,20(sp)
1d01ba60:	21808000 	move	s0,a0
1d01ba64:	0f008014 	bnez	a0,0x1d01baa4
1d01ba68:	2188a000 	move	s1,a1
1d01ba6c:	ad6e400b 	j	0x1d01bab4
1d01ba70:	21100000 	move	v0,zero
1d01ba74:	016b400f 	jal	0x1d01ac04
1d01ba78:	21202002 	move	a0,s1
1d01ba7c:	21200002 	move	a0,s0
1d01ba80:	21282002 	move	a1,s1
1d01ba84:	5a6f400f 	jal	0x1d01bd68
1d01ba88:	21304000 	move	a2,v0
1d01ba8c:	0e004010 	beqz	v0,0x1d01bac8
1d01ba90:	01000426 	addiu	a0,s0,1
1d01ba94:	da70400f 	jal	0x1d01c368
1d01ba98:	00002582 	lb	a1,0(s1)
1d01ba9c:	04004010 	beqz	v0,0x1d01bab0
1d01baa0:	21804000 	move	s0,v0
1d01baa4:	00000282 	lb	v0,0(s0)
1d01baa8:	f2ff4014 	bnez	v0,0x1d01ba74
1d01baac:	00000000 	nop
1d01bab0:	21100000 	move	v0,zero
1d01bab4:	1c00bf8f 	lw	ra,28(sp)
1d01bab8:	1800b18f 	lw	s1,24(sp)
1d01babc:	1400b08f 	lw	s0,20(sp)
1d01bac0:	0800e003 	jr	ra
1d01bac4:	2000bd27 	addiu	sp,sp,32
1d01bac8:	21100002 	move	v0,s0
1d01bacc:	1c00bf8f 	lw	ra,28(sp)
1d01bad0:	1800b18f 	lw	s1,24(sp)
1d01bad4:	1400b08f 	lw	s0,20(sp)
1d01bad8:	0800e003 	jr	ra
1d01badc:	2000bd27 	addiu	sp,sp,32

Disassembly of section .sec100:

1d01bae0 <.sec100>:
1d01bae0:	1480838f 	lw	v1,-32748(gp)
1d01bae4:	01006324 	addiu	v1,v1,1
1d01bae8:	6210023c 	lui	v0,0x1062
1d01baec:	d34d4224 	addiu	v0,v0,19923
1d01baf0:	19006200 	multu	v1,v0
1d01baf4:	10100000 	mfhi	v0
1d01baf8:	82110200 	srl	v0,v0,0x6
1d01bafc:	80200200 	sll	a0,v0,0x2
1d01bb00:	c0290200 	sll	a1,v0,0x7
1d01bb04:	2320a400 	subu	a0,a1,a0
1d01bb08:	21108200 	addu	v0,a0,v0
1d01bb0c:	c0100200 	sll	v0,v0,0x3
1d01bb10:	23106200 	subu	v0,v1,v0
1d01bb14:	148082af 	sw	v0,-32748(gp)
1d01bb18:	2c014238 	xori	v0,v0,0x12c
1d01bb1c:	0800e003 	jr	ra
1d01bb20:	0100422c 	sltiu	v0,v0,1
1d01bb24:	00008390 	lbu	v1,0(a0)
1d01bb28:	80100300 	sll	v0,v1,0x2
1d01bb2c:	00190300 	sll	v1,v1,0x4
1d01bb30:	21104300 	addu	v0,v0,v1
1d01bb34:	80180200 	sll	v1,v0,0x2
1d01bb38:	21104300 	addu	v0,v0,v1
1d01bb3c:	0800e003 	jr	ra
1d01bb40:	148082af 	sw	v0,-32748(gp)
1d01bb44:	03000224 	li	v0,3
1d01bb48:	000082a0 	sb	v0,0(a0)
1d01bb4c:	01000224 	li	v0,1
1d01bb50:	010082a0 	sb	v0,1(a0)
1d01bb54:	01000224 	li	v0,1
1d01bb58:	020082a4 	sh	v0,2(a0)
1d01bb5c:	040080a4 	sh	zero,4(a0)
1d01bb60:	02000224 	li	v0,2
1d01bb64:	0800e003 	jr	ra
1d01bb68:	060082a4 	sh	v0,6(a0)

Disassembly of section .sec101:

1d01bb6c <.sec101>:
1d01bb6c:	80200400 	sll	a0,a0,0x2
1d01bb70:	00a0023c 	lui	v0,0xa000
1d01bb74:	f8014224 	addiu	v0,v0,504
1d01bb78:	21208200 	addu	a0,a0,v0
1d01bb7c:	0d00e010 	beqz	a3,0x1d01bbb4
1d01bb80:	0000828c 	lw	v0,0(a0)
1d01bb84:	01000324 	li	v1,1
1d01bb88:	0800e314 	bne	a3,v1,0x1d01bbac
1d01bb8c:	1400a524 	addiu	a1,a1,20
1d01bb90:	00290500 	sll	a1,a1,0x4
1d01bb94:	21104500 	addu	v0,v0,a1
1d01bb98:	0000438c 	lw	v1,0(v0)
1d01bb9c:	44fdc37c 	ins	v1,a2,0x15,0xb
1d01bba0:	000043ac 	sw	v1,0(v0)
1d01bba4:	0800033c 	lui	v1,0x8
1d01bba8:	040043ac 	sw	v1,4(v0)
1d01bbac:	0800e003 	jr	ra
1d01bbb0:	00000000 	nop
1d01bbb4:	1400a324 	addiu	v1,a1,20
1d01bbb8:	00190300 	sll	v1,v1,0x4
1d01bbbc:	21184300 	addu	v1,v0,v1
1d01bbc0:	0000648c 	lw	a0,0(v1)
1d01bbc4:	8054c77c 	ext	a3,a2,0x12,0xb
1d01bbc8:	00290500 	sll	a1,a1,0x4
1d01bbcc:	44fde47c 	ins	a0,a3,0x15,0xb
1d01bbd0:	000064ac 	sw	a0,0(v1)
1d01bbd4:	0000648c 	lw	a0,0(v1)
1d01bbd8:	21104500 	addu	v0,v0,a1
1d01bbdc:	0488c47c 	ins	a0,a2,0x0,0x12
1d01bbe0:	000064ac 	sw	a0,0(v1)
1d01bbe4:	0800033c 	lui	v1,0x8
1d01bbe8:	480143ac 	sw	v1,328(v0)
1d01bbec:	0800e003 	jr	ra
1d01bbf0:	00000000 	nop

Disassembly of section .sec102:

1d01bbf4 <.sec102>:
1d01bbf4:	2118e003 	move	v1,ra
1d01bbf8:	029d083c 	lui	t0,0x9d02
1d01bbfc:	74930825 	addiu	t0,t0,-27788
1d01bc00:	0000098d 	lw	t1,0(t0)
1d01bc04:	18002011 	beqz	t1,0x1d01bc68
1d01bc08:	04000825 	addiu	t0,t0,4
1d01bc0c:	00000a8d 	lw	t2,0(t0)
1d01bc10:	04000825 	addiu	t0,t0,4
1d01bc14:	00000b8d 	lw	t3,0(t0)
1d01bc18:	09006011 	beqz	t3,0x1d01bc40
1d01bc1c:	04000825 	addiu	t0,t0,4
1d01bc20:	00000c91 	lbu	t4,0(t0)
1d01bc24:	ffff4a25 	addiu	t2,t2,-1
1d01bc28:	01000825 	addiu	t0,t0,1
1d01bc2c:	00002ca1 	sb	t4,0(t1)
1d01bc30:	fbff4015 	bnez	t2,0x1d01bc20
1d01bc34:	01002925 	addiu	t1,t1,1
1d01bc38:	05000010 	b	0x1d01bc50
1d01bc3c:	00000000 	nop
1d01bc40:	000020a1 	sb	zero,0(t1)
1d01bc44:	ffff4a25 	addiu	t2,t2,-1
1d01bc48:	fdff4015 	bnez	t2,0x1d01bc40
1d01bc4c:	01002925 	addiu	t1,t1,1
1d01bc50:	03000825 	addiu	t0,t0,3
1d01bc54:	fcff0a24 	li	t2,-4
1d01bc58:	24404801 	and	t0,t2,t0
1d01bc5c:	0000098d 	lw	t1,0(t0)
1d01bc60:	e7ff2015 	bnez	t1,0x1d01bc00
1d01bc64:	00000000 	nop
1d01bc68:	21f86000 	move	ra,v1
1d01bc6c:	0800e003 	jr	ra
1d01bc70:	00000000 	nop
1d01bc74:	00000000 	nop

Disassembly of section .sec103:

1d01bc78 <.sec103>:
1d01bc78:	e8ffbd27 	addiu	sp,sp,-24
1d01bc7c:	1400bfaf 	sw	ra,20(sp)
1d01bc80:	4f71400f 	jal	0x1d01c53c
1d01bc84:	00000000 	nop
1d01bc88:	88bf023c 	lui	v0,0xbf88
1d01bc8c:	0030438c 	lw	v1,12288(v0)
1d01bc90:	0003637c 	ext	v1,v1,0xc,0x1
1d01bc94:	09006054 	bnezl	v1,0x1d01bcbc
1d01bc98:	81bf023c 	lui	v0,0xbf81
1d01bc9c:	00100424 	li	a0,4096
1d01bca0:	88bf033c 	lui	v1,0xbf88
1d01bca4:	083064ac 	sw	a0,12296(v1)
1d01bca8:	0030438c 	lw	v1,12288(v0)
1d01bcac:	00086330 	andi	v1,v1,0x800
1d01bcb0:	fdff6014 	bnez	v1,0x1d01bca8
1d01bcb4:	00000000 	nop
1d01bcb8:	81bf023c 	lui	v0,0xbf81
1d01bcbc:	30f240ac 	sw	zero,-3536(v0)
1d01bcc0:	99aa033c 	lui	v1,0xaa99
1d01bcc4:	55666324 	addiu	v1,v1,26197
1d01bcc8:	30f243ac 	sw	v1,-3536(v0)
1d01bccc:	6655033c 	lui	v1,0x5566
1d01bcd0:	aa996334 	ori	v1,v1,0x99aa
1d01bcd4:	30f243ac 	sw	v1,-3536(v0)
1d01bcd8:	01000324 	li	v1,1
1d01bcdc:	81bf023c 	lui	v0,0xbf81
1d01bce0:	18f643ac 	sw	v1,-2536(v0)
1d01bce4:	81bf023c 	lui	v0,0xbf81
1d01bce8:	10f6428c 	lw	v0,-2544(v0)
1d01bcec:	3b6f400b 	j	0x1d01bcec
1d01bcf0:	00000000 	nop

Disassembly of section .sec104:

1d01bcf4 <.sec104>:
1d01bcf4:	1000c010 	beqz	a2,0x1d01bd38
1d01bcf8:	21108000 	move	v0,a0
1d01bcfc:	0000a480 	lb	a0,0(a1)
1d01bd00:	ffffc624 	addiu	a2,a2,-1
1d01bd04:	01004324 	addiu	v1,v0,1
1d01bd08:	0100a524 	addiu	a1,a1,1
1d01bd0c:	07008014 	bnez	a0,0x1d01bd2c
1d01bd10:	000044a0 	sb	a0,0(v0)
1d01bd14:	516f400b 	j	0x1d01bd44
1d01bd18:	21286600 	addu	a1,v1,a2
1d01bd1c:	ffffa780 	lb	a3,-1(a1)
1d01bd20:	ffffc624 	addiu	a2,a2,-1
1d01bd24:	0600e010 	beqz	a3,0x1d01bd40
1d01bd28:	ffff67a0 	sb	a3,-1(v1)
1d01bd2c:	0100a524 	addiu	a1,a1,1
1d01bd30:	faffc014 	bnez	a2,0x1d01bd1c
1d01bd34:	01006324 	addiu	v1,v1,1
1d01bd38:	0800e003 	jr	ra
1d01bd3c:	00000000 	nop
1d01bd40:	21286600 	addu	a1,v1,a2
1d01bd44:	0600c010 	beqz	a2,0x1d01bd60
1d01bd48:	00000000 	nop
1d01bd4c:	01006324 	addiu	v1,v1,1
1d01bd50:	feff6514 	bne	v1,a1,0x1d01bd4c
1d01bd54:	ffff60a0 	sb	zero,-1(v1)
1d01bd58:	0800e003 	jr	ra
1d01bd5c:	00000000 	nop
1d01bd60:	0800e003 	jr	ra
1d01bd64:	00000000 	nop

Disassembly of section .sec105:

1d01bd68 <.sec105>:
1d01bd68:	1400c010 	beqz	a2,0x1d01bdbc
1d01bd6c:	ffffc824 	addiu	t0,a2,-1
1d01bd70:	00008380 	lb	v1,0(a0)
1d01bd74:	0000a780 	lb	a3,0(a1)
1d01bd78:	0d006010 	beqz	v1,0x1d01bdb0
1d01bd7c:	21100000 	move	v0,zero
1d01bd80:	0b006754 	bnel	v1,a3,0x1d01bdb0
1d01bd84:	ff006230 	andi	v0,v1,0xff
1d01bd88:	0100a624 	addiu	a2,a1,1
1d01bd8c:	0b000211 	beq	t0,v0,0x1d01bdbc
1d01bd90:	01008424 	addiu	a0,a0,1
1d01bd94:	00008380 	lb	v1,0(a0)
1d01bd98:	0a006010 	beqz	v1,0x1d01bdc4
1d01bd9c:	01004224 	addiu	v0,v0,1
1d01bda0:	0000c780 	lb	a3,0(a2)
1d01bda4:	f8ff6710 	beq	v1,a3,0x1d01bd88
1d01bda8:	2128c000 	move	a1,a2
1d01bdac:	ff006230 	andi	v0,v1,0xff
1d01bdb0:	ff00e730 	andi	a3,a3,0xff
1d01bdb4:	0800e003 	jr	ra
1d01bdb8:	23104700 	subu	v0,v0,a3
1d01bdbc:	0800e003 	jr	ra
1d01bdc0:	21100000 	move	v0,zero
1d01bdc4:	0100a780 	lb	a3,1(a1)
1d01bdc8:	21100000 	move	v0,zero
1d01bdcc:	ff00e730 	andi	a3,a3,0xff
1d01bdd0:	0800e003 	jr	ra
1d01bdd4:	23104700 	subu	v0,v0,a3

Disassembly of section .sec106:

1d01bdd8 <.sec106>:
1d01bdd8:	80100500 	sll	v0,a1,0x2
1d01bddc:	00290500 	sll	a1,a1,0x4
1d01bde0:	80200400 	sll	a0,a0,0x2
1d01bde4:	2328a200 	subu	a1,a1,v0
1d01bde8:	029d033c 	lui	v1,0x9d02
1d01bdec:	1ca96324 	addiu	v1,v1,-22244
1d01bdf0:	2128a300 	addu	a1,a1,v1
1d01bdf4:	00a0023c 	lui	v0,0xa000
1d01bdf8:	f8014224 	addiu	v0,v0,504
1d01bdfc:	21208200 	addu	a0,a0,v0
1d01be00:	0000848c 	lw	a0,0(a0)
1d01be04:	0800a38c 	lw	v1,8(a1)
1d01be08:	01000224 	li	v0,1
1d01be0c:	0700c210 	beq	a2,v0,0x1d01be2c
1d01be10:	0000a58c 	lw	a1,0(a1)
1d01be14:	0c00a524 	addiu	a1,a1,12
1d01be18:	00290500 	sll	a1,a1,0x4
1d01be1c:	21208500 	addu	a0,a0,a1
1d01be20:	040083ac 	sw	v1,4(a0)
1d01be24:	0800e003 	jr	ra
1d01be28:	00000000 	nop
1d01be2c:	00290500 	sll	a1,a1,0x4
1d01be30:	21208500 	addu	a0,a0,a1
1d01be34:	c80083ac 	sw	v1,200(a0)
1d01be38:	0800e003 	jr	ra
1d01be3c:	00000000 	nop

Disassembly of section .sec107:

1d01be40 <.sec107>:
1d01be40:	80200400 	sll	a0,a0,0x2
1d01be44:	00a0023c 	lui	v0,0xa000
1d01be48:	f8014224 	addiu	v0,v0,504
1d01be4c:	21208200 	addu	a0,a0,v0
1d01be50:	0000828c 	lw	v0,0(a0)
1d01be54:	80290500 	sll	a1,a1,0x6
1d01be58:	21284500 	addu	a1,v0,a1
1d01be5c:	80000224 	li	v0,128
1d01be60:	5403a2ac 	sw	v0,852(a1)
1d01be64:	5003a28c 	lw	v0,848(a1)
1d01be68:	ffffc624 	addiu	a2,a2,-1
1d01be6c:	04a4c27c 	ins	v0,a2,0x10,0x5
1d01be70:	5003a2ac 	sw	v0,848(a1)
1d01be74:	0600e010 	beqz	a3,0x1d01be90
1d01be78:	01000224 	li	v0,1
1d01be7c:	0200e214 	bne	a3,v0,0x1d01be88
1d01be80:	00100224 	li	v0,4096
1d01be84:	5403a2ac 	sw	v0,852(a1)
1d01be88:	0800e003 	jr	ra
1d01be8c:	00000000 	nop
1d01be90:	00100224 	li	v0,4096
1d01be94:	5803a2ac 	sw	v0,856(a1)
1d01be98:	0800e003 	jr	ra
1d01be9c:	00000000 	nop

Disassembly of section .sec108:

1d01bea0 <.sec108>:
1d01bea0:	80100500 	sll	v0,a1,0x2
1d01bea4:	00290500 	sll	a1,a1,0x4
1d01bea8:	2328a200 	subu	a1,a1,v0
1d01beac:	029d023c 	lui	v0,0x9d02
1d01beb0:	1ca94224 	addiu	v0,v0,-22244
1d01beb4:	2128a200 	addu	a1,a1,v0
1d01beb8:	80200400 	sll	a0,a0,0x2
1d01bebc:	00a0023c 	lui	v0,0xa000
1d01bec0:	f8014224 	addiu	v0,v0,504
1d01bec4:	21208200 	addu	a0,a0,v0
1d01bec8:	0000a88c 	lw	t0,0(a1)
1d01becc:	0000838c 	lw	v1,0(a0)
1d01bed0:	0400a28c 	lw	v0,4(a1)
1d01bed4:	40310600 	sll	a2,a2,0x5
1d01bed8:	00410800 	sll	t0,t0,0x4
1d01bedc:	2538c700 	or	a3,a2,a3
1d01bee0:	21406800 	addu	t0,v1,t0
1d01bee4:	ff00e630 	andi	a2,a3,0xff
1d01bee8:	21100201 	addu	v0,t0,v0
1d01beec:	c00046a0 	sb	a2,192(v0)
1d01bef0:	0800e003 	jr	ra
1d01bef4:	00000000 	nop

Disassembly of section .sec109:

1d01bef8 <.sec109>:
1d01bef8:	0000043c 	lui	a0,0x0
1d01befc:	e8ffbd27 	addiu	sp,sp,-24
1d01bf00:	00008424 	addiu	a0,a0,0
1d01bf04:	03008010 	beqz	a0,0x1d01bf14
1d01bf08:	1400bfaf 	sw	ra,20(sp)
1d01bf0c:	09f88000 	jalr	a0
1d01bf10:	00000000 	nop
1d01bf14:	00008430 	andi	a0,a0,0x0
1d01bf18:	0000a530 	andi	a1,a1,0x0
1d01bf1c:	029d083c 	lui	t0,0x9d02
1d01bf20:	c8a70825 	addiu	t0,t0,-22584
1d01bf24:	09f80001 	jalr	t0
1d01bf28:	00000000 	nop
1d01bf2c:	0000023c 	lui	v0,0x0
1d01bf30:	00004224 	addiu	v0,v0,0
1d01bf34:	03004010 	beqz	v0,0x1d01bf44
1d01bf38:	00000000 	nop
1d01bf3c:	09f84000 	jalr	v0
1d01bf40:	00000000 	nop
1d01bf44:	f9ff0010 	b	0x1d01bf2c
1d01bf48:	00000000 	nop

Disassembly of section .sec110:

1d01bf4c <.sec110>:
1d01bf4c:	406088bf 	cache	0x8,24640(gp)
1d01bf50:	ffff0000 	0xffff
1d01bf54:	609080bf 	cache	0x0,-28576(gp)
1d01bf58:	806088bf 	cache	0x8,24704(gp)
	...
1d01bf64:	c06088bf 	cache	0x8,24768(gp)
	...
1d01bf70:	006188bf 	cache	0x8,24832(gp)
	...
1d01bf7c:	406188bf 	cache	0x8,24896(gp)
	...
1d01bf88:	806188bf 	cache	0x8,24960(gp)
	...

Disassembly of section .sec111:

1d01bf94 <.sec111>:
1d01bf94:	0000023c 	lui	v0,0x0
1d01bf98:	00004224 	addiu	v0,v0,0
1d01bf9c:	05004010 	beqz	v0,0x1d01bfb4
1d01bfa0:	0000023c 	lui	v0,0x0
1d01bfa4:	00004224 	addiu	v0,v0,0
1d01bfa8:	03004010 	beqz	v0,0x1d01bfb8
1d01bfac:	029d023c 	lui	v0,0x9d02
1d01bfb0:	3f000070 	sdbbp
1d01bfb4:	029d023c 	lui	v0,0x9d02
1d01bfb8:	acc04224 	addiu	v0,v0,-16212
1d01bfbc:	05004010 	beqz	v0,0x1d01bfd4
1d01bfc0:	00000000 	nop
1d01bfc4:	e8ffbd27 	addiu	sp,sp,-24
1d01bfc8:	1400bfaf 	sw	ra,20(sp)
1d01bfcc:	09f84000 	jalr	v0
1d01bfd0:	00000000 	nop
1d01bfd4:	f56f400b 	j	0x1d01bfd4
1d01bfd8:	00000000 	nop

Disassembly of section .sec112:

1d01bfdc <.sec112>:
1d01bfdc:	0000023c 	lui	v0,0x0
1d01bfe0:	00004224 	addiu	v0,v0,0
1d01bfe4:	07004010 	beqz	v0,0x1d01c004
1d01bfe8:	0000023c 	lui	v0,0x0
1d01bfec:	00004224 	addiu	v0,v0,0
1d01bff0:	05004050 	beqzl	v0,0x1d01c008
1d01bff4:	029d023c 	lui	v0,0x9d02
1d01bff8:	3f000070 	sdbbp
1d01bffc:	0800e003 	jr	ra
1d01c000:	00000000 	nop
1d01c004:	029d023c 	lui	v0,0x9d02
1d01c008:	acc04224 	addiu	v0,v0,-16212
1d01c00c:	03004010 	beqz	v0,0x1d01c01c
1d01c010:	00000000 	nop
1d01c014:	09f84000 	jalr	v0
1d01c018:	00000000 	nop
1d01c01c:	0800e003 	jr	ra
1d01c020:	00000000 	nop

Disassembly of section .sec113:

1d01c024 <.sec113>:
1d01c024:	80200400 	sll	a0,a0,0x2
1d01c028:	00a0023c 	lui	v0,0xa000
1d01c02c:	f8014224 	addiu	v0,v0,504
1d01c030:	21208200 	addu	a0,a0,v0
1d01c034:	0000828c 	lw	v0,0(a0)
1d01c038:	80290500 	sll	a1,a1,0x6
1d01c03c:	21284500 	addu	a1,v0,a1
1d01c040:	6003a28c 	lw	v0,864(a1)
1d01c044:	01004230 	andi	v0,v0,0x1
1d01c048:	05004010 	beqz	v0,0x1d01c060
1d01c04c:	00000000 	nop
1d01c050:	7003a38c 	lw	v1,880(a1)
1d01c054:	00a0023c 	lui	v0,0xa000
1d01c058:	0800e003 	jr	ra
1d01c05c:	25106200 	or	v0,v1,v0
1d01c060:	0800e003 	jr	ra
1d01c064:	21100000 	move	v0,zero

Disassembly of section .sec114:

1d01c068 <.sec114>:
1d01c068:	80200400 	sll	a0,a0,0x2
1d01c06c:	00a0023c 	lui	v0,0xa000
1d01c070:	f8014224 	addiu	v0,v0,504
1d01c074:	21208200 	addu	a0,a0,v0
1d01c078:	0000828c 	lw	v0,0(a0)
1d01c07c:	80290500 	sll	a1,a1,0x6
1d01c080:	21284500 	addu	a1,v0,a1
1d01c084:	6003a28c 	lw	v0,864(a1)
1d01c088:	8002427c 	ext	v0,v0,0xa,0x1
1d01c08c:	05004010 	beqz	v0,0x1d01c0a4
1d01c090:	00000000 	nop
1d01c094:	7003a38c 	lw	v1,880(a1)
1d01c098:	00a0023c 	lui	v0,0xa000
1d01c09c:	0800e003 	jr	ra
1d01c0a0:	25106200 	or	v0,v1,v0
1d01c0a4:	0800e003 	jr	ra
1d01c0a8:	21100000 	move	v0,zero

Disassembly of section .sec115:

1d01c0ac <.sec115>:
1d01c0ac:	00606041 	di
1d01c0b0:	c0000000 	ehb
1d01c0b4:	99aa033c 	lui	v1,0xaa99
1d01c0b8:	81bf023c 	lui	v0,0xbf81
1d01c0bc:	55666324 	addiu	v1,v1,26197
1d01c0c0:	30f240ac 	sw	zero,-3536(v0)
1d01c0c4:	30f243ac 	sw	v1,-3536(v0)
1d01c0c8:	6655033c 	lui	v1,0x5566
1d01c0cc:	aa996334 	ori	v1,v1,0x99aa
1d01c0d0:	30f243ac 	sw	v1,-3536(v0)
1d01c0d4:	81bf023c 	lui	v0,0xbf81
1d01c0d8:	01000324 	li	v1,1
1d01c0dc:	18f643ac 	sw	v1,-2536(v0)
1d01c0e0:	81bf023c 	lui	v0,0xbf81
1d01c0e4:	10f6428c 	lw	v0,-2544(v0)
1d01c0e8:	2d70400b 	j	0x1d01c0b4
1d01c0ec:	00000000 	nop

Disassembly of section .sec116:

1d01c0f0 <.sec116>:
1d01c0f0:	80100400 	sll	v0,a0,0x2
1d01c0f4:	00210400 	sll	a0,a0,0x4
1d01c0f8:	23208200 	subu	a0,a0,v0
1d01c0fc:	029d023c 	lui	v0,0x9d02
1d01c100:	4cbf4224 	addiu	v0,v0,-16564
1d01c104:	21204400 	addu	a0,v0,a0
1d01c108:	0000838c 	lw	v1,0(a0)
1d01c10c:	0800828c 	lw	v0,8(a0)
1d01c110:	080065ac 	sw	a1,8(v1)
1d01c114:	04004010 	beqz	v0,0x1d01c128
1d01c118:	00000000 	nop
1d01c11c:	0400838c 	lw	v1,4(a0)
1d01c120:	2428a300 	and	a1,a1,v1
1d01c124:	080045ac 	sw	a1,8(v0)
1d01c128:	0800e003 	jr	ra
1d01c12c:	00000000 	nop

Disassembly of section .sec117:

1d01c130 <.sec117>:
1d01c130:	80100400 	sll	v0,a0,0x2
1d01c134:	00210400 	sll	a0,a0,0x4
1d01c138:	23208200 	subu	a0,a0,v0
1d01c13c:	029d023c 	lui	v0,0x9d02
1d01c140:	4cbf4224 	addiu	v0,v0,-16564
1d01c144:	21204400 	addu	a0,v0,a0
1d01c148:	0000838c 	lw	v1,0(a0)
1d01c14c:	0800828c 	lw	v0,8(a0)
1d01c150:	040065ac 	sw	a1,4(v1)
1d01c154:	04004010 	beqz	v0,0x1d01c168
1d01c158:	00000000 	nop
1d01c15c:	0400838c 	lw	v1,4(a0)
1d01c160:	2428a300 	and	a1,a1,v1
1d01c164:	080045ac 	sw	a1,8(v0)
1d01c168:	0800e003 	jr	ra
1d01c16c:	00000000 	nop

Disassembly of section .sec118:

1d01c170 <.sec118>:
1d01c170:	80200400 	sll	a0,a0,0x2
1d01c174:	00a0023c 	lui	v0,0xa000
1d01c178:	f8014224 	addiu	v0,v0,504
1d01c17c:	21208200 	addu	a0,a0,v0
1d01c180:	01000224 	li	v0,1
1d01c184:	0500a210 	beq	a1,v0,0x1d01c19c
1d01c188:	0000838c 	lw	v1,0(a0)
1d01c18c:	00800234 	li	v0,0x8000
1d01c190:	040062ac 	sw	v0,4(v1)
1d01c194:	0800e003 	jr	ra
1d01c198:	00000000 	nop
1d01c19c:	00800234 	li	v0,0x8000
1d01c1a0:	080062ac 	sw	v0,8(v1)
1d01c1a4:	0800e003 	jr	ra
1d01c1a8:	00000000 	nop

Disassembly of section .sec119:

1d01c1ac <.sec119>:
1d01c1ac:	80100400 	sll	v0,a0,0x2
1d01c1b0:	00210400 	sll	a0,a0,0x4
1d01c1b4:	23208200 	subu	a0,a0,v0
1d01c1b8:	019d023c 	lui	v0,0x9d01
1d01c1bc:	587b4224 	addiu	v0,v0,31576
1d01c1c0:	21204400 	addu	a0,v0,a0
1d01c1c4:	0400828c 	lw	v0,4(a0)
1d01c1c8:	0400a014 	bnez	a1,0x1d01c1dc
1d01c1cc:	0800838c 	lw	v1,8(a0)
1d01c1d0:	040043ac 	sw	v1,4(v0)
1d01c1d4:	0800e003 	jr	ra
1d01c1d8:	00000000 	nop
1d01c1dc:	080043ac 	sw	v1,8(v0)
1d01c1e0:	0800e003 	jr	ra
1d01c1e4:	00000000 	nop

Disassembly of section .sec120:

1d01c1e8 <.sec120>:
1d01c1e8:	80200400 	sll	a0,a0,0x2
1d01c1ec:	00a0023c 	lui	v0,0xa000
1d01c1f0:	f8014224 	addiu	v0,v0,504
1d01c1f4:	21208200 	addu	a0,a0,v0
1d01c1f8:	0000838c 	lw	v1,0(a0)
1d01c1fc:	01000224 	li	v0,1
1d01c200:	0400c210 	beq	a2,v0,0x1d01c214
1d01c204:	002c0500 	sll	a1,a1,0x10
1d01c208:	240065ac 	sw	a1,36(v1)
1d01c20c:	0800e003 	jr	ra
1d01c210:	00000000 	nop
1d01c214:	280065ac 	sw	a1,40(v1)
1d01c218:	0800e003 	jr	ra
1d01c21c:	00000000 	nop

Disassembly of section .sec121:

1d01c220 <.sec121>:
1d01c220:	e8ffbd27 	addiu	sp,sp,-24
1d01c224:	1400bfaf 	sw	ra,20(sp)
1d01c228:	00680340 	mfc0	v1,c0_cause
1d01c22c:	8000023c 	lui	v0,0x80
1d01c230:	25106200 	or	v0,v1,v0
1d01c234:	00688240 	mtc0	v0,c0_cause
1d01c238:	00100324 	li	v1,4096
1d01c23c:	88bf023c 	lui	v0,0xbf88
1d01c240:	4d71400f 	jal	0x1d01c534
1d01c244:	081043ac 	sw	v1,4104(v0)
1d01c248:	1400bf8f 	lw	ra,20(sp)
1d01c24c:	0800e003 	jr	ra
1d01c250:	1800bd27 	addiu	sp,sp,24

Disassembly of section .sec122:

1d01c254 <.sec122>:
1d01c254:	e8ffbd27 	addiu	sp,sp,-24
1d01c258:	1400bfaf 	sw	ra,20(sp)
1d01c25c:	00e0827c 	ext	v0,a0,0x0,0x1d
1d01c260:	01400424 	li	a0,16385
1d01c264:	81bf033c 	lui	v1,0xbf81
1d01c268:	20f462ac 	sw	v0,-3040(v1)
1d01c26c:	81bf023c 	lui	v0,0xbf81
1d01c270:	30f445ac 	sw	a1,-3024(v0)
1d01c274:	ef6b400f 	jal	0x1d01afbc
1d01c278:	00000000 	nop
1d01c27c:	1400bf8f 	lw	ra,20(sp)
1d01c280:	0800e003 	jr	ra
1d01c284:	1800bd27 	addiu	sp,sp,24

Disassembly of section .sec123:

1d01c288 <.sec123>:
1d01c288:	00680340 	mfc0	v1,c0_cause
1d01c28c:	8000023c 	lui	v0,0x80
1d01c290:	25106200 	or	v0,v1,v0
1d01c294:	00688240 	mtc0	v0,c0_cause
1d01c298:	04008010 	beqz	a0,0x1d01c2ac
1d01c29c:	00100324 	li	v1,4096
1d01c2a0:	88bf023c 	lui	v0,0xbf88
1d01c2a4:	0800e003 	jr	ra
1d01c2a8:	041043ac 	sw	v1,4100(v0)
1d01c2ac:	88bf023c 	lui	v0,0xbf88
1d01c2b0:	0800e003 	jr	ra
1d01c2b4:	081043ac 	sw	v1,4104(v0)

Disassembly of section .sec124:

1d01c2b8 <.sec124>:
1d01c2b8:	80200400 	sll	a0,a0,0x2
1d01c2bc:	00a0023c 	lui	v0,0xa000
1d01c2c0:	f8014224 	addiu	v0,v0,504
1d01c2c4:	21208200 	addu	a0,a0,v0
1d01c2c8:	0000828c 	lw	v0,0(a0)
1d01c2cc:	80290500 	sll	a1,a1,0x6
1d01c2d0:	21104500 	addu	v0,v0,a1
1d01c2d4:	00200324 	li	v1,8192
1d01c2d8:	580343ac 	sw	v1,856(v0)
1d01c2dc:	0800e003 	jr	ra
1d01c2e0:	00000000 	nop

Disassembly of section .sec125:

1d01c2e4 <.sec125>:
1d01c2e4:	80200400 	sll	a0,a0,0x2
1d01c2e8:	00a0023c 	lui	v0,0xa000
1d01c2ec:	f8014224 	addiu	v0,v0,504
1d01c2f0:	21208200 	addu	a0,a0,v0
1d01c2f4:	0000828c 	lw	v0,0(a0)
1d01c2f8:	80290500 	sll	a1,a1,0x6
1d01c2fc:	21104500 	addu	v0,v0,a1
1d01c300:	08000324 	li	v1,8
1d01c304:	580343ac 	sw	v1,856(v0)
1d01c308:	0800e003 	jr	ra
1d01c30c:	00000000 	nop

Disassembly of section .sec126:

1d01c310 <.sec126>:
1d01c310:	80100400 	sll	v0,a0,0x2
1d01c314:	00210400 	sll	a0,a0,0x4
1d01c318:	23208200 	subu	a0,a0,v0
1d01c31c:	019d023c 	lui	v0,0x9d01
1d01c320:	587b4224 	addiu	v0,v0,31576
1d01c324:	21204400 	addu	a0,v0,a0
1d01c328:	0000828c 	lw	v0,0(a0)
1d01c32c:	0800838c 	lw	v1,8(a0)
1d01c330:	040043ac 	sw	v1,4(v0)
1d01c334:	0800e003 	jr	ra
1d01c338:	00000000 	nop

Disassembly of section .sec127:

1d01c33c <.sec127>:
1d01c33c:	e8ffbd27 	addiu	sp,sp,-24
1d01c340:	1400bfaf 	sw	ra,20(sp)
1d01c344:	00e0837c 	ext	v1,a0,0x0,0x1d
1d01c348:	04400424 	li	a0,16388
1d01c34c:	81bf023c 	lui	v0,0xbf81
1d01c350:	20f443ac 	sw	v1,-3040(v0)
1d01c354:	ef6b400f 	jal	0x1d01afbc
1d01c358:	00000000 	nop
1d01c35c:	1400bf8f 	lw	ra,20(sp)
1d01c360:	0800e003 	jr	ra
1d01c364:	1800bd27 	addiu	sp,sp,24

Disassembly of section .sec128:

1d01c368 <.sec128>:
1d01c368:	de70400b 	j	0x1d01c378
1d01c36c:	202c057c 	seb	a1,a1
1d01c370:	06004010 	beqz	v0,0x1d01c38c
1d01c374:	01008424 	addiu	a0,a0,1
1d01c378:	00008280 	lb	v0,0(a0)
1d01c37c:	fcff4514 	bne	v0,a1,0x1d01c370
1d01c380:	00000000 	nop
1d01c384:	0800e003 	jr	ra
1d01c388:	21108000 	move	v0,a0
1d01c38c:	0800e003 	jr	ra
1d01c390:	21100000 	move	v0,zero

Disassembly of section .sec129:

1d01c394 <.sec129>:
1d01c394:	80200400 	sll	a0,a0,0x2
1d01c398:	00a0023c 	lui	v0,0xa000
1d01c39c:	f8014224 	addiu	v0,v0,504
1d01c3a0:	21208200 	addu	a0,a0,v0
1d01c3a4:	0000828c 	lw	v0,0(a0)
1d01c3a8:	0000438c 	lw	v1,0(v0)
1d01c3ac:	04d6a37c 	ins	v1,a1,0x18,0x3
1d01c3b0:	000043ac 	sw	v1,0(v0)
1d01c3b4:	0800e003 	jr	ra
1d01c3b8:	00000000 	nop

Disassembly of section .sec130:

1d01c3bc <.sec130>:
1d01c3bc:	80200400 	sll	a0,a0,0x2
1d01c3c0:	00a0023c 	lui	v0,0xa000
1d01c3c4:	f8014224 	addiu	v0,v0,504
1d01c3c8:	21208200 	addu	a0,a0,v0
1d01c3cc:	0000828c 	lw	v0,0(a0)
1d01c3d0:	00e0a57c 	ext	a1,a1,0x0,0x1d
1d01c3d4:	400345ac 	sw	a1,832(v0)
1d01c3d8:	0800e003 	jr	ra
1d01c3dc:	00000000 	nop

Disassembly of section .sec131:

1d01c3e0 <.sec131>:
1d01c3e0:	029d023c 	lui	v0,0x9d02
1d01c3e4:	d9b14224 	addiu	v0,v0,-20007
1d01c3e8:	21108200 	addu	v0,a0,v0
1d01c3ec:	00004290 	lbu	v0,0(v0)
1d01c3f0:	e0ff8324 	addiu	v1,a0,-32
1d01c3f4:	02004230 	andi	v0,v0,0x2
1d01c3f8:	0b206200 	movn	a0,v1,v0
1d01c3fc:	0800e003 	jr	ra
1d01c400:	21108000 	move	v0,a0

Disassembly of section .sec132:

1d01c404 <.sec132>:
1d01c404:	80200400 	sll	a0,a0,0x2
1d01c408:	00a0023c 	lui	v0,0xa000
1d01c40c:	f8014224 	addiu	v0,v0,504
1d01c410:	21208200 	addu	a0,a0,v0
1d01c414:	0000828c 	lw	v0,0(a0)
1d01c418:	0000428c 	lw	v0,0(v0)
1d01c41c:	0800e003 	jr	ra
1d01c420:	4015427c 	ext	v0,v0,0x15,0x3

Disassembly of section .sec133:

1d01c424 <.sec133>:
1d01c424:	80200400 	sll	a0,a0,0x2
1d01c428:	00a0023c 	lui	v0,0xa000
1d01c42c:	f8014224 	addiu	v0,v0,504
1d01c430:	21208200 	addu	a0,a0,v0
1d01c434:	0000828c 	lw	v0,0(a0)
1d01c438:	0000428c 	lw	v0,0(v0)
1d01c43c:	0800e003 	jr	ra
1d01c440:	c002427c 	ext	v0,v0,0xb,0x1

Disassembly of section .sec134:

1d01c444 <.sec134>:
1d01c444:	80200400 	sll	a0,a0,0x2
1d01c448:	00a0023c 	lui	v0,0xa000
1d01c44c:	f8014224 	addiu	v0,v0,504
1d01c450:	21208200 	addu	a0,a0,v0
1d01c454:	0000828c 	lw	v0,0(a0)
1d01c458:	4000428c 	lw	v0,64(v0)
1d01c45c:	0800e003 	jr	ra
1d01c460:	ff004230 	andi	v0,v0,0xff

Disassembly of section .sec135:

1d01c464 <.sec135>:
1d01c464:	80200400 	sll	a0,a0,0x2
1d01c468:	00a0023c 	lui	v0,0xa000
1d01c46c:	f8014224 	addiu	v0,v0,504
1d01c470:	21208200 	addu	a0,a0,v0
1d01c474:	0000828c 	lw	v0,0(a0)
1d01c478:	4000428c 	lw	v0,64(v0)
1d01c47c:	0800e003 	jr	ra
1d01c480:	003a427c 	ext	v0,v0,0x8,0x8

Disassembly of section .sec136:

1d01c484 <.sec136>:
1d01c484:	41444153 	beql	k0,at,0x1d02d58c
1d01c488:	54535452 	beql	s2,s4,0x1d0311dc
1d01c48c:	00000000 	nop
1d01c490:	464f5244 	0x44524f46
1d01c494:	5f503520 	addi	s5,at,20575
1d01c498:	53746565 	0x65657453
1d01c49c:	72000000 	tlt	zero,zero,0x1

Disassembly of section .sec137:

1d01c4a0 <.sec137>:
1d01c4a0:	01008430 	andi	a0,a0,0x1
1d01c4a4:	03008014 	bnez	a0,0x1d01c4b4
1d01c4a8:	00000000 	nop
1d01c4ac:	0800e003 	jr	ra
1d01c4b0:	00606041 	di
1d01c4b4:	0800e003 	jr	ra
1d01c4b8:	20606041 	ei

Disassembly of section .sec138:

1d01c4bc <.sec138>:
1d01c4bc:	32303139 	xori	s1,t1,0x3032
1d01c4c0:	2f30332f 	sltiu	s3,t9,12335
1d01c4c4:	30340000 	tge	zero,zero,0xd0
1d01c4c8:	41444153 	beql	k0,at,0x1d02d5d0
1d01c4cc:	5f4b4954 	bnel	v0,t1,0x1d02f24c
1d01c4d0:	00000000 	nop

Disassembly of section .sec139:

1d01c4d4 <.sec139>:
1d01c4d4:	00800340 	mfc0	v1,c0_config
1d01c4d8:	f8ff0224 	li	v0,-8
1d01c4dc:	24106200 	and	v0,v1,v0
1d01c4e0:	03004234 	ori	v0,v0,0x3
1d01c4e4:	0800e003 	jr	ra
1d01c4e8:	00808240 	mtc0	v0,c0_config

Disassembly of section .sec140:

1d01c4ec <.sec140>:
1d01c4ec:	00601a40 	mfc0	k0,c0_status
1d01c4f0:	bfff1b3c 	lui	k1,0xffbf
1d01c4f4:	ffff7b37 	ori	k1,k1,0xffff
1d01c4f8:	24d05b03 	and	k0,k0,k1
1d01c4fc:	00609a40 	mtc0	k0,c0_status
1d01c500:	18000042 	eret

Disassembly of section .sec141:

1d01c504 <.sec141>:
	...
1d01c50c:	005a80bf 	cache	0x0,23040(gp)
1d01c510:	005880bf 	cache	0x0,22528(gp)
1d01c514:	005c80bf 	cache	0x0,23552(gp)
1d01c518:	464f5244 	0x44524f46
1d01c51c:	5f503520 	addi	s5,at,20575
1d01c520:	53746565 	0x65657453
1d01c524:	72000000 	tlt	zero,zero,0x1

Disassembly of section .sec142:

1d01c528 <.sec142>:
1d01c528:	20240000 	0x2420
1d01c52c:	00040810 	beq	zero,t0,0x1d01d530
1d01c530:	14180000 	0x1814

Disassembly of section .sec143:

1d01c534 <.sec143>:
1d01c534:	0800e003 	jr	ra
1d01c538:	20606241 	ei	v0

Disassembly of section .sec144:

1d01c53c <.sec144>:
1d01c53c:	0800e003 	jr	ra
1d01c540:	00606241 	di	v0

Disassembly of section .sec145:

1d01c544 <.sec145>:
1d01c544:	0800e003 	jr	ra
1d01c548:	00000000 	nop

Disassembly of section .sec146:

1d01c54c <.sec146>:
1d01c54c:	0800e003 	jr	ra
1d01c550:	00000000 	nop
