
FORD_CD4_STEER_RevA_v2.2.0.hex:     file format ihex


Disassembly of section .sec1:

1fc00000 <.sec1>:
1fc00000:	009d1f3c 	lui	ra,0x9d00
1fc00004:	7079ff37 	ori	ra,ra,0x7970
1fc00008:	0800e003 	jr	ra
1fc0000c:	00000000 	nop

Disassembly of section .sec2:

1fc02ff0 <.sec2>:
1fc02ff0:	ffffff3e 	0x3effffff

Disassembly of section .sec3:

1fc02ff4 <.sec3>:
1fc02ff4:	d979f9ff 	sdc3	$25,31193(ra)

Disassembly of section .sec4:

1fc02ff8 <.sec4>:
1fc02ff8:	5b0e66ff 	sdc3	$6,3675(k1)

Disassembly of section .sec5:

1fc02ffc <.sec5>:
1fc02ffc:	ffffff7f 	0x7fffffff

Disassembly of section .sec6:

1d007970 <.sec6>:
1d007970:	5e1e400f 	jal	0x1d007978
1d007974:	00000000 	nop
1d007978:	00601a40 	mfc0	k0,c0_status
1d00797c:	c0045a7f 	ext	k0,k0,0x13,0x1
1d007980:	05004013 	beqz	k0,0x1d007998
1d007984:	00000000 	nop
1d007988:	029d1a3c 	lui	k0,0x9d02
1d00798c:	742c5a27 	addiu	k0,k0,11380
1d007990:	08004003 	jr	k0
1d007994:	00000000 	nop
1d007998:	02a01d3c 	lui	sp,0xa002
1d00799c:	f8ffbd27 	addiu	sp,sp,-8
1d0079a0:	00a01c3c 	lui	gp,0xa000
1d0079a4:	f07f9c27 	addiu	gp,gp,32752
1d0079a8:	02600940 	mfc0	t1,c0_srsctl
1d0079ac:	20582001 	add	t3,t1,zero
1d0079b0:	801e2a7d 	ext	t2,t1,0x1a,0x4
1d0079b4:	8449497d 	ins	t1,t2,0x6,0x4
1d0079b8:	02608940 	mtc0	t1,c0_srsctl
1d0079bc:	c0000000 	ehb
1d0079c0:	00e0dc41 	wrpgpr	gp,gp
1d0079c4:	02608b40 	mtc0	t3,c0_srsctl
1d0079c8:	c0000000 	ehb
1d0079cc:	029d083c 	lui	t0,0x9d02
1d0079d0:	cc2c0825 	addiu	t0,t0,11468
1d0079d4:	09f80001 	jalr	t0
1d0079d8:	00000000 	nop
1d0079dc:	00a0083c 	lui	t0,0xa000
1d0079e0:	3c000825 	addiu	t0,t0,60
1d0079e4:	00a0093c 	lui	t1,0xa000
1d0079e8:	90062925 	addiu	t1,t1,1680
1d0079ec:	06000010 	b	0x1d007a08
1d0079f0:	00000000 	nop
1d0079f4:	000000ad 	sw	zero,0(t0)
1d0079f8:	040000ad 	sw	zero,4(t0)
1d0079fc:	080000ad 	sw	zero,8(t0)
1d007a00:	0c0000ad 	sw	zero,12(t0)
1d007a04:	10000825 	addiu	t0,t0,16
1d007a08:	2b080901 	sltu	at,t0,t1
1d007a0c:	f9ff2014 	bnez	at,0x1d0079f4
1d007a10:	00000000 	nop
1d007a14:	029d083c 	lui	t0,0x9d02
1d007a18:	e4250825 	addiu	t0,t0,9700
1d007a1c:	09f80001 	jalr	t0
1d007a20:	00000000 	nop
1d007a24:	0000093c 	lui	t1,0x0
1d007a28:	00002925 	addiu	t1,t1,0
1d007a2c:	10002011 	beqz	t1,0x1d007a70
1d007a30:	00000000 	nop
1d007a34:	0200093c 	lui	t1,0x2
1d007a38:	00002925 	addiu	t1,t1,0
1d007a3c:	88bf0a3c 	lui	t2,0xbf88
1d007a40:	10204a25 	addiu	t2,t2,8208
1d007a44:	000049ad 	sw	t1,0(t2)
1d007a48:	0200093c 	lui	t1,0x2
1d007a4c:	00002925 	addiu	t1,t1,0
1d007a50:	88bf0a3c 	lui	t2,0xbf88
1d007a54:	20204a25 	addiu	t2,t2,8224
1d007a58:	000049ad 	sw	t1,0(t2)
1d007a5c:	0200093c 	lui	t1,0x2
1d007a60:	00002925 	addiu	t1,t1,0
1d007a64:	88bf0a3c 	lui	t2,0xbf88
1d007a68:	30204a25 	addiu	t2,t2,8240
1d007a6c:	000049ad 	sw	t1,0(t2)
1d007a70:	00488040 	mtc0	zero,c0_count
1d007a74:	ffff0a24 	li	t2,-1
1d007a78:	00588a40 	mtc0	t2,c0_compare
1d007a7c:	4000083c 	lui	t0,0x40
1d007a80:	00600a40 	mfc0	t2,c0_status
1d007a84:	25500a01 	or	t2,t0,t2
1d007a88:	00608a40 	mtc0	t2,c0_status
1d007a8c:	009d093c 	lui	t1,0x9d00
1d007a90:	00602925 	addiu	t1,t1,24576
1d007a94:	c0000000 	ehb
1d007a98:	01788940 	mtc0	t1,c0_ebase
1d007a9c:	0000093c 	lui	t1,0x0
1d007aa0:	01002925 	addiu	t1,t1,1
1d007aa4:	00000a24 	li	t2,0
1d007aa8:	44492a7d 	ins	t2,t1,0x5,0x5
1d007aac:	01608a40 	mtc0	t2,c0_intctl
1d007ab0:	8000093c 	lui	t1,0x80
1d007ab4:	00688940 	mtc0	t1,c0_cause
1d007ab8:	00800840 	mfc0	t0,c0_config
1d007abc:	8005097d 	ext	t1,t0,0x16,0x1
1d007ac0:	404c0900 	sll	t1,t1,0x11
1d007ac4:	00600840 	mfc0	t0,c0_status
1d007ac8:	5800013c 	lui	at,0x58
1d007acc:	24400101 	and	t0,t0,at
1d007ad0:	25402801 	or	t0,t1,t0
1d007ad4:	00608840 	mtc0	t0,c0_status
1d007ad8:	c0000000 	ehb
1d007adc:	029d083c 	lui	t0,0x9d02
1d007ae0:	d42c0825 	addiu	t0,t0,11476
1d007ae4:	09f80001 	jalr	t0
1d007ae8:	00000000 	nop
1d007aec:	00600840 	mfc0	t0,c0_status
1d007af0:	bfff013c 	lui	at,0xffbf
1d007af4:	ffff2134 	ori	at,at,0xffff
1d007af8:	24400101 	and	t0,t0,at
1d007afc:	00608840 	mtc0	t0,c0_status
1d007b00:	00008430 	andi	a0,a0,0x0
1d007b04:	0000a530 	andi	a1,a1,0x0
1d007b08:	029d083c 	lui	t0,0x9d02
1d007b0c:	78280825 	addiu	t0,t0,10360
1d007b10:	08000001 	jr	t0
1d007b14:	00000000 	nop

Disassembly of section .sec7:

1d007cf0 <.sec7>:
1d007cf0:	029d1a3c 	lui	k0,0x9d02
1d007cf4:	14295a27 	addiu	k0,k0,10516
1d007cf8:	08004003 	jr	k0
1d007cfc:	00000000 	nop

Disassembly of section .sec8:

1d006180 <.sec8>:
1d006180:	029d1a3c 	lui	k0,0x9d02
1d006184:	98205a27 	addiu	k0,k0,8344
1d006188:	08004003 	jr	k0
1d00618c:	00000000 	nop

Disassembly of section .sec9:

1d006200 <.sec9>:
1d006200:	578a400b 	j	0x1d02295c
1d006204:	00000000 	nop

Disassembly of section .sec10:

1d006220 <.sec10>:
1d006220:	578a400b 	j	0x1d02295c
1d006224:	00000000 	nop

Disassembly of section .sec11:

1d006240 <.sec11>:
1d006240:	578a400b 	j	0x1d02295c
1d006244:	00000000 	nop

Disassembly of section .sec12:

1d006260 <.sec12>:
1d006260:	578a400b 	j	0x1d02295c
1d006264:	00000000 	nop

Disassembly of section .sec13:

1d006280 <.sec13>:
1d006280:	4987400b 	j	0x1d021d24
1d006284:	00000000 	nop

Disassembly of section .sec14:

1d0062a0 <.sec14>:
1d0062a0:	578a400b 	j	0x1d02295c
1d0062a4:	00000000 	nop

Disassembly of section .sec15:

1d0062c0 <.sec15>:
1d0062c0:	578a400b 	j	0x1d02295c
1d0062c4:	00000000 	nop

Disassembly of section .sec16:

1d0062e0 <.sec16>:
1d0062e0:	578a400b 	j	0x1d02295c
1d0062e4:	00000000 	nop

Disassembly of section .sec17:

1d006300 <.sec17>:
1d006300:	578a400b 	j	0x1d02295c
1d006304:	00000000 	nop

Disassembly of section .sec18:

1d006320 <.sec18>:
1d006320:	578a400b 	j	0x1d02295c
1d006324:	00000000 	nop

Disassembly of section .sec19:

1d006340 <.sec19>:
1d006340:	578a400b 	j	0x1d02295c
1d006344:	00000000 	nop

Disassembly of section .sec20:

1d006360 <.sec20>:
1d006360:	578a400b 	j	0x1d02295c
1d006364:	00000000 	nop

Disassembly of section .sec21:

1d006380 <.sec21>:
1d006380:	578a400b 	j	0x1d02295c
1d006384:	00000000 	nop

Disassembly of section .sec22:

1d0063a0 <.sec22>:
1d0063a0:	578a400b 	j	0x1d02295c
1d0063a4:	00000000 	nop

Disassembly of section .sec23:

1d0063c0 <.sec23>:
1d0063c0:	578a400b 	j	0x1d02295c
1d0063c4:	00000000 	nop

Disassembly of section .sec24:

1d0063e0 <.sec24>:
1d0063e0:	578a400b 	j	0x1d02295c
1d0063e4:	00000000 	nop

Disassembly of section .sec25:

1d006400 <.sec25>:
1d006400:	578a400b 	j	0x1d02295c
1d006404:	00000000 	nop

Disassembly of section .sec26:

1d006420 <.sec26>:
1d006420:	578a400b 	j	0x1d02295c
1d006424:	00000000 	nop

Disassembly of section .sec27:

1d006440 <.sec27>:
1d006440:	578a400b 	j	0x1d02295c
1d006444:	00000000 	nop

Disassembly of section .sec28:

1d006460 <.sec28>:
1d006460:	578a400b 	j	0x1d02295c
1d006464:	00000000 	nop

Disassembly of section .sec29:

1d006480 <.sec29>:
1d006480:	d973400b 	j	0x1d01cf64
1d006484:	00000000 	nop

Disassembly of section .sec30:

1d0064a0 <.sec30>:
1d0064a0:	578a400b 	j	0x1d02295c
1d0064a4:	00000000 	nop

Disassembly of section .sec31:

1d0064c0 <.sec31>:
1d0064c0:	578a400b 	j	0x1d02295c
1d0064c4:	00000000 	nop

Disassembly of section .sec32:

1d0064e0 <.sec32>:
1d0064e0:	578a400b 	j	0x1d02295c
1d0064e4:	00000000 	nop

Disassembly of section .sec33:

1d006500 <.sec33>:
1d006500:	578a400b 	j	0x1d02295c
1d006504:	00000000 	nop

Disassembly of section .sec34:

1d006520 <.sec34>:
1d006520:	578a400b 	j	0x1d02295c
1d006524:	00000000 	nop

Disassembly of section .sec35:

1d006540 <.sec35>:
1d006540:	578a400b 	j	0x1d02295c
1d006544:	00000000 	nop

Disassembly of section .sec36:

1d006560 <.sec36>:
1d006560:	1974400b 	j	0x1d01d064
1d006564:	00000000 	nop

Disassembly of section .sec37:

1d006580 <.sec37>:
1d006580:	578a400b 	j	0x1d02295c
1d006584:	00000000 	nop

Disassembly of section .sec38:

1d0065a0 <.sec38>:
1d0065a0:	578a400b 	j	0x1d02295c
1d0065a4:	00000000 	nop

Disassembly of section .sec39:

1d0065c0 <.sec39>:
1d0065c0:	578a400b 	j	0x1d02295c
1d0065c4:	00000000 	nop

Disassembly of section .sec40:

1d0065e0 <.sec40>:
1d0065e0:	578a400b 	j	0x1d02295c
1d0065e4:	00000000 	nop

Disassembly of section .sec41:

1d006600 <.sec41>:
1d006600:	578a400b 	j	0x1d02295c
1d006604:	00000000 	nop

Disassembly of section .sec42:

1d006620 <.sec42>:
1d006620:	578a400b 	j	0x1d02295c
1d006624:	00000000 	nop

Disassembly of section .sec43:

1d006640 <.sec43>:
1d006640:	578a400b 	j	0x1d02295c
1d006644:	00000000 	nop

Disassembly of section .sec44:

1d006660 <.sec44>:
1d006660:	578a400b 	j	0x1d02295c
1d006664:	00000000 	nop

Disassembly of section .sec45:

1d006680 <.sec45>:
1d006680:	578a400b 	j	0x1d02295c
1d006684:	00000000 	nop

Disassembly of section .sec46:

1d0066a0 <.sec46>:
1d0066a0:	578a400b 	j	0x1d02295c
1d0066a4:	00000000 	nop

Disassembly of section .sec47:

1d0066c0 <.sec47>:
1d0066c0:	578a400b 	j	0x1d02295c
1d0066c4:	00000000 	nop

Disassembly of section .sec48:

1d0066e0 <.sec48>:
1d0066e0:	578a400b 	j	0x1d02295c
1d0066e4:	00000000 	nop

Disassembly of section .sec49:

1d006700 <.sec49>:
1d006700:	578a400b 	j	0x1d02295c
1d006704:	00000000 	nop

Disassembly of section .sec50:

1d006720 <.sec50>:
1d006720:	578a400b 	j	0x1d02295c
1d006724:	00000000 	nop

Disassembly of section .sec51:

1d006740 <.sec51>:
1d006740:	578a400b 	j	0x1d02295c
1d006744:	00000000 	nop

Disassembly of section .sec52:

1d006760 <.sec52>:
1d006760:	578a400b 	j	0x1d02295c
1d006764:	00000000 	nop

Disassembly of section .sec53:

1d006780 <.sec53>:
1d006780:	578a400b 	j	0x1d02295c
1d006784:	00000000 	nop

Disassembly of section .sec54:

1d0067a0 <.sec54>:
1d0067a0:	6a47400b 	j	0x1d011da8
1d0067a4:	00000000 	nop

Disassembly of section .sec55:

1d0067c0 <.sec55>:
1d0067c0:	578a400b 	j	0x1d02295c
1d0067c4:	00000000 	nop

Disassembly of section .sec56:

1d0067e0 <.sec56>:
1d0067e0:	578a400b 	j	0x1d02295c
1d0067e4:	00000000 	nop

Disassembly of section .sec57:

1d006800 <.sec57>:
1d006800:	578a400b 	j	0x1d02295c
1d006804:	00000000 	nop

Disassembly of section .sec58:

1d006820 <.sec58>:
1d006820:	578a400b 	j	0x1d02295c
1d006824:	00000000 	nop

Disassembly of section .sec59:

1d006840 <.sec59>:
1d006840:	578a400b 	j	0x1d02295c
1d006844:	00000000 	nop

Disassembly of section .sec60:

1d006860 <.sec60>:
1d006860:	578a400b 	j	0x1d02295c
1d006864:	00000000 	nop

Disassembly of section .sec61:

1d07dfcc <.sec61>:
1d07dfcc:	456c6563 	0x63656c45
1d07dfd0:	74726963 	0x63697274
1d07dfd4:	20506f77 	jalx	0x1dbd4080
1d07dfd8:	65722d41 	0x412d7265
1d07dfdc:	73736973 	0x73697373
1d07dfe0:	74656420 	addi	a0,v1,25972
1d07dfe4:	53746565 	0x65657453
1d07dfe8:	72696e67 	0x676e6972
1d07dfec:	20284550 	beql	v0,a1,0x1d088070
1d07dff0:	41532920 	addi	t1,at,21313
1d07dff4:	52657641 	0x41766552
	...

Disassembly of section .sec62:

1fc00480 <.sec62>:
1fc00480:	00f89b40 	mtc0	k1,c0_desave
1fc00484:	c0000000 	ehb
1fc00488:	029d1b3c 	lui	k1,0x9d02
1fc0048c:	e8297b27 	addiu	k1,k1,10728
1fc00490:	02006013 	beqz	k1,0x1fc0049c
1fc00494:	00000000 	nop
1fc00498:	00c09b40 	mtc0	k1,c0_depc
1fc0049c:	00f81b40 	mfc0	k1,c0_desave
1fc004a0:	c0000000 	ehb
1fc004a4:	1f000042 	deret
1fc004a8:	00000000 	nop

Disassembly of section .sec63:

1d07dfc8 <.sec63>:
	...

Disassembly of section .sec64:

1d07dfc4 <.sec64>:
1d07dfc4:	Address 0x1d07dfc4 is out of bounds.


Disassembly of section .sec65:

1d07dfc0 <.sec65>:
1d07dfc0:	Address 0x1d07dfc0 is out of bounds.


Disassembly of section .sec66:

1d007e00 <.sec66>:
1d007e00:	0000e0ac 	sw	zero,0(a3)
1d007e04:	0900c22c 	sltiu	v0,a2,9
1d007e08:	05004010 	beqz	v0,0x1d007e20
1d007e0c:	0400e0ac 	sw	zero,4(a3)
1d007e10:	21100000 	move	v0,zero
1d007e14:	0418c27c 	ins	v0,a2,0x0,0x4
1d007e18:	8c1f400b 	j	0x1d007e30
1d007e1c:	0400e2ac 	sw	v0,4(a3)
1d007e20:	0400e28c 	lw	v0,4(a3)
1d007e24:	08000324 	li	v1,8
1d007e28:	0418627c 	ins	v0,v1,0x0,0x4
1d007e2c:	0400e2ac 	sw	v0,4(a3)
1d007e30:	0a00a010 	beqz	a1,0x1d007e5c
1d007e34:	0400e28c 	lw	v0,4(a3)
1d007e38:	01000324 	li	v1,1
1d007e3c:	04e7627c 	ins	v0,v1,0x1c,0x1
1d007e40:	84da827c 	ins	v0,a0,0xa,0x12
1d007e44:	0400e2ac 	sw	v0,4(a3)
1d007e48:	82240400 	srl	a0,a0,0x12
1d007e4c:	0000e28c 	lw	v0,0(a3)
1d007e50:	0450827c 	ins	v0,a0,0x0,0xb
1d007e54:	0800e003 	jr	ra
1d007e58:	0000e2ac 	sw	v0,0(a3)
1d007e5c:	04e7027c 	ins	v0,zero,0x1c,0x1
1d007e60:	0400e2ac 	sw	v0,4(a3)
1d007e64:	0000e28c 	lw	v0,0(a3)
1d007e68:	0450827c 	ins	v0,a0,0x0,0xb
1d007e6c:	0800e003 	jr	ra
1d007e70:	0000e2ac 	sw	v0,0(a3)
1d007e74:	15008010 	beqz	a0,0x1d007ecc
1d007e78:	11000624 	li	a2,17
1d007e7c:	21100000 	move	v0,zero
1d007e80:	21188200 	addu	v1,a0,v0
1d007e84:	00006390 	lbu	v1,0(v1)
1d007e88:	d0ff6524 	addiu	a1,v1,-48
1d007e8c:	ff00a530 	andi	a1,a1,0xff
1d007e90:	0a00a52c 	sltiu	a1,a1,10
1d007e94:	0700a054 	bnezl	a1,0x1d007eb4
1d007e98:	01004224 	addiu	v0,v0,1
1d007e9c:	bfff6324 	addiu	v1,v1,-65
1d007ea0:	ff006330 	andi	v1,v1,0xff
1d007ea4:	1a00632c 	sltiu	v1,v1,26
1d007ea8:	0a006010 	beqz	v1,0x1d007ed4
1d007eac:	00000000 	nop
1d007eb0:	01004224 	addiu	v0,v0,1
1d007eb4:	f3ff4614 	bne	v0,a2,0x1d007e84
1d007eb8:	21188200 	addu	v1,a0,v0
1d007ebc:	21108200 	addu	v0,a0,v0
1d007ec0:	00004290 	lbu	v0,0(v0)
1d007ec4:	0800e003 	jr	ra
1d007ec8:	0100422c 	sltiu	v0,v0,1
1d007ecc:	0800e003 	jr	ra
1d007ed0:	21100000 	move	v0,zero
1d007ed4:	0800e003 	jr	ra
1d007ed8:	21100000 	move	v0,zero
1d007edc:	000080a0 	sb	zero,0(a0)
1d007ee0:	010080a0 	sb	zero,1(a0)
1d007ee4:	020080a0 	sb	zero,2(a0)
1d007ee8:	030080a0 	sb	zero,3(a0)
1d007eec:	040080a0 	sb	zero,4(a0)
1d007ef0:	050080a0 	sb	zero,5(a0)
1d007ef4:	060080a0 	sb	zero,6(a0)
1d007ef8:	070080a0 	sb	zero,7(a0)
1d007efc:	01a0023c 	lui	v0,0xa001
1d007f00:	3c34428c 	lw	v0,13372(v0)
1d007f04:	0300422c 	sltiu	v0,v0,3
1d007f08:	4f004054 	bnezl	v0,0x1d008048
1d007f0c:	02008290 	lbu	v0,2(a0)
1d007f10:	01a0023c 	lui	v0,0xa001
1d007f14:	9c324224 	addiu	v0,v0,12956
1d007f18:	9401458c 	lw	a1,404(v0)
1d007f1c:	0009a57c 	ext	a1,a1,0x4,0x2
1d007f20:	21180000 	move	v1,zero
1d007f24:	0408a37c 	ins	v1,a1,0x0,0x2
1d007f28:	000083a0 	sb	v1,0(a0)
1d007f2c:	9401458c 	lw	a1,404(v0)
1d007f30:	8009a57c 	ext	a1,a1,0x6,0x2
1d007f34:	8418a37c 	ins	v1,a1,0x2,0x2
1d007f38:	000083a0 	sb	v1,0(a0)
1d007f3c:	9401458c 	lw	a1,404(v0)
1d007f40:	0439a37c 	ins	v1,a1,0x4,0x4
1d007f44:	000083a0 	sb	v1,0(a0)
1d007f48:	9401458c 	lw	a1,404(v0)
1d007f4c:	4013a57c 	ext	a1,a1,0xd,0x3
1d007f50:	21180000 	move	v1,zero
1d007f54:	0410a37c 	ins	v1,a1,0x0,0x3
1d007f58:	010083a0 	sb	v1,1(a0)
1d007f5c:	9801458c 	lw	a1,408(v0)
1d007f60:	4001a57c 	ext	a1,a1,0x5,0x1
1d007f64:	c418a37c 	ins	v1,a1,0x3,0x1
1d007f68:	010083a0 	sb	v1,1(a0)
1d007f6c:	9401458c 	lw	a1,404(v0)
1d007f70:	0006a57c 	ext	a1,a1,0x18,0x1
1d007f74:	0421a37c 	ins	v1,a1,0x4,0x1
1d007f78:	010083a0 	sb	v1,1(a0)
1d007f7c:	9401458c 	lw	a1,404(v0)
1d007f80:	4006a57c 	ext	a1,a1,0x19,0x1
1d007f84:	4429a37c 	ins	v1,a1,0x5,0x1
1d007f88:	010083a0 	sb	v1,1(a0)
1d007f8c:	9401458c 	lw	a1,404(v0)
1d007f90:	0002a57c 	ext	a1,a1,0x8,0x1
1d007f94:	8431a37c 	ins	v1,a1,0x6,0x1
1d007f98:	010083a0 	sb	v1,1(a0)
1d007f9c:	9401458c 	lw	a1,404(v0)
1d007fa0:	4007a57c 	ext	a1,a1,0x1d,0x1
1d007fa4:	c439a37c 	ins	v1,a1,0x7,0x1
1d007fa8:	010083a0 	sb	v1,1(a0)
1d007fac:	9401458c 	lw	a1,404(v0)
1d007fb0:	8007a57c 	ext	a1,a1,0x1e,0x1
1d007fb4:	21180000 	move	v1,zero
1d007fb8:	c439a37c 	ins	v1,a1,0x7,0x1
1d007fbc:	040083a0 	sb	v1,4(a0)
1d007fc0:	9801458c 	lw	a1,408(v0)
1d007fc4:	8001a57c 	ext	a1,a1,0x6,0x1
1d007fc8:	21180000 	move	v1,zero
1d007fcc:	0400a37c 	ins	v1,a1,0x0,0x1
1d007fd0:	020083a0 	sb	v1,2(a0)
1d007fd4:	9401458c 	lw	a1,404(v0)
1d007fd8:	4005a57c 	ext	a1,a1,0x15,0x1
1d007fdc:	4408a37c 	ins	v1,a1,0x1,0x1
1d007fe0:	020083a0 	sb	v1,2(a0)
1d007fe4:	9401458c 	lw	a1,404(v0)
1d007fe8:	c006a57c 	ext	a1,a1,0x1b,0x1
1d007fec:	8410a37c 	ins	v1,a1,0x2,0x1
1d007ff0:	020083a0 	sb	v1,2(a0)
1d007ff4:	9401458c 	lw	a1,404(v0)
1d007ff8:	0007a57c 	ext	a1,a1,0x1c,0x1
1d007ffc:	c418a37c 	ins	v1,a1,0x3,0x1
1d008000:	020083a0 	sb	v1,2(a0)
1d008004:	9401458c 	lw	a1,404(v0)
1d008008:	c002a57c 	ext	a1,a1,0xb,0x1
1d00800c:	0421a37c 	ins	v1,a1,0x4,0x1
1d008010:	020083a0 	sb	v1,2(a0)
1d008014:	9401458c 	lw	a1,404(v0)
1d008018:	0003a57c 	ext	a1,a1,0xc,0x1
1d00801c:	4429a37c 	ins	v1,a1,0x5,0x1
1d008020:	020083a0 	sb	v1,2(a0)
1d008024:	9401458c 	lw	a1,404(v0)
1d008028:	c000023c 	lui	v0,0xc0
1d00802c:	2410a200 	and	v0,a1,v0
1d008030:	c0ff053c 	lui	a1,0xffc0
1d008034:	21104500 	addu	v0,v0,a1
1d008038:	0100422c 	sltiu	v0,v0,1
1d00803c:	8431437c 	ins	v1,v0,0x6,0x1
1d008040:	1520400b 	j	0x1d008054
1d008044:	020083a0 	sb	v1,2(a0)
1d008048:	01000324 	li	v1,1
1d00804c:	c439627c 	ins	v0,v1,0x7,0x1
1d008050:	020082a0 	sb	v0,2(a0)
1d008054:	01a0023c 	lui	v0,0xa001
1d008058:	c835428c 	lw	v0,13768(v0)
1d00805c:	0300422c 	sltiu	v0,v0,3
1d008060:	1d004014 	bnez	v0,0x1d0080d8
1d008064:	01a0023c 	lui	v0,0xa001
1d008068:	01a0023c 	lui	v0,0xa001
1d00806c:	9c324224 	addiu	v0,v0,12956
1d008070:	2403458c 	lw	a1,804(v0)
1d008074:	4007a57c 	ext	a1,a1,0x1d,0x1
1d008078:	03008390 	lbu	v1,3(a0)
1d00807c:	0400a37c 	ins	v1,a1,0x0,0x1
1d008080:	030083a0 	sb	v1,3(a0)
1d008084:	2403458c 	lw	a1,804(v0)
1d008088:	0007a57c 	ext	a1,a1,0x1c,0x1
1d00808c:	4408a37c 	ins	v1,a1,0x1,0x1
1d008090:	030083a0 	sb	v1,3(a0)
1d008094:	2403458c 	lw	a1,804(v0)
1d008098:	0004a57c 	ext	a1,a1,0x10,0x1
1d00809c:	8410a37c 	ins	v1,a1,0x2,0x1
1d0080a0:	030083a0 	sb	v1,3(a0)
1d0080a4:	2403458c 	lw	a1,804(v0)
1d0080a8:	4004a57c 	ext	a1,a1,0x11,0x1
1d0080ac:	c418a37c 	ins	v1,a1,0x3,0x1
1d0080b0:	030083a0 	sb	v1,3(a0)
1d0080b4:	2403458c 	lw	a1,804(v0)
1d0080b8:	c006a57c 	ext	a1,a1,0x1b,0x1
1d0080bc:	0421a37c 	ins	v1,a1,0x4,0x1
1d0080c0:	030083a0 	sb	v1,3(a0)
1d0080c4:	2403428c 	lw	v0,804(v0)
1d0080c8:	8006427c 	ext	v0,v0,0x1a,0x1
1d0080cc:	4429437c 	ins	v1,v0,0x5,0x1
1d0080d0:	030083a0 	sb	v1,3(a0)
1d0080d4:	01a0023c 	lui	v0,0xa001
1d0080d8:	0c34428c 	lw	v0,13324(v0)
1d0080dc:	0300422c 	sltiu	v0,v0,3
1d0080e0:	1f004014 	bnez	v0,0x1d008160
1d0080e4:	01a0023c 	lui	v0,0xa001
1d0080e8:	01a0023c 	lui	v0,0xa001
1d0080ec:	9c324224 	addiu	v0,v0,12956
1d0080f0:	6401458c 	lw	a1,356(v0)
1d0080f4:	3000a530 	andi	a1,a1,0x30
1d0080f8:	1000a538 	xori	a1,a1,0x10
1d0080fc:	0100a52c 	sltiu	a1,a1,1
1d008100:	03008390 	lbu	v1,3(a0)
1d008104:	8431a37c 	ins	v1,a1,0x6,0x1
1d008108:	030083a0 	sb	v1,3(a0)
1d00810c:	6401458c 	lw	a1,356(v0)
1d008110:	04e8057c 	ins	a1,zero,0x0,0x1e
1d008114:	00c0063c 	lui	a2,0xc000
1d008118:	2128a600 	addu	a1,a1,a2
1d00811c:	0100a52c 	sltiu	a1,a1,1
1d008120:	c439a37c 	ins	v1,a1,0x7,0x1
1d008124:	030083a0 	sb	v1,3(a0)
1d008128:	6401458c 	lw	a1,356(v0)
1d00812c:	00c0a530 	andi	a1,a1,0xc000
1d008130:	0040a538 	xori	a1,a1,0x4000
1d008134:	0100a52c 	sltiu	a1,a1,1
1d008138:	04008390 	lbu	v1,4(a0)
1d00813c:	0400a37c 	ins	v1,a1,0x0,0x1
1d008140:	040083a0 	sb	v1,4(a0)
1d008144:	6401428c 	lw	v0,356(v0)
1d008148:	00304230 	andi	v0,v0,0x3000
1d00814c:	00104238 	xori	v0,v0,0x1000
1d008150:	0100422c 	sltiu	v0,v0,1
1d008154:	4408437c 	ins	v1,v0,0x1,0x1
1d008158:	040083a0 	sb	v1,4(a0)
1d00815c:	01a0023c 	lui	v0,0xa001
1d008160:	5834428c 	lw	v0,13400(v0)
1d008164:	18004010 	beqz	v0,0x1d0081c8
1d008168:	01a0023c 	lui	v0,0xa001
1d00816c:	01a0023c 	lui	v0,0xa001
1d008170:	9c324224 	addiu	v0,v0,12956
1d008174:	b401458c 	lw	a1,436(v0)
1d008178:	0001a57c 	ext	a1,a1,0x4,0x1
1d00817c:	04008390 	lbu	v1,4(a0)
1d008180:	8410a37c 	ins	v1,a1,0x2,0x1
1d008184:	040083a0 	sb	v1,4(a0)
1d008188:	b401458c 	lw	a1,436(v0)
1d00818c:	c000a57c 	ext	a1,a1,0x3,0x1
1d008190:	c418a37c 	ins	v1,a1,0x3,0x1
1d008194:	040083a0 	sb	v1,4(a0)
1d008198:	b401458c 	lw	a1,436(v0)
1d00819c:	0421a37c 	ins	v1,a1,0x4,0x1
1d0081a0:	040083a0 	sb	v1,4(a0)
1d0081a4:	b401458c 	lw	a1,436(v0)
1d0081a8:	4000a57c 	ext	a1,a1,0x1,0x1
1d0081ac:	4429a37c 	ins	v1,a1,0x5,0x1
1d0081b0:	040083a0 	sb	v1,4(a0)
1d0081b4:	b401428c 	lw	v0,436(v0)
1d0081b8:	8000427c 	ext	v0,v0,0x2,0x1
1d0081bc:	8431437c 	ins	v1,v0,0x6,0x1
1d0081c0:	040083a0 	sb	v1,4(a0)
1d0081c4:	01a0023c 	lui	v0,0xa001
1d0081c8:	5833428c 	lw	v0,13144(v0)
1d0081cc:	05004010 	beqz	v0,0x1d0081e4
1d0081d0:	feff0224 	li	v0,-2
1d0081d4:	01a0023c 	lui	v0,0xa001
1d0081d8:	55334290 	lbu	v0,13141(v0)
1d0081dc:	0800e003 	jr	ra
1d0081e0:	070082a0 	sb	v0,7(a0)
1d0081e4:	0800e003 	jr	ra
1d0081e8:	070082a0 	sb	v0,7(a0)
1d0081ec:	000080a0 	sb	zero,0(a0)
1d0081f0:	010080a0 	sb	zero,1(a0)
1d0081f4:	020080a0 	sb	zero,2(a0)
1d0081f8:	030080a0 	sb	zero,3(a0)
1d0081fc:	040080a0 	sb	zero,4(a0)
1d008200:	050080a0 	sb	zero,5(a0)
1d008204:	060080a0 	sb	zero,6(a0)
1d008208:	070080a0 	sb	zero,7(a0)
1d00820c:	01a0023c 	lui	v0,0xa001
1d008210:	9c324224 	addiu	v0,v0,12956
1d008214:	f401488c 	lw	t0,500(v0)
1d008218:	0030087d 	ext	t0,t0,0x0,0x7
1d00821c:	ff000831 	andi	t0,t0,0xff
1d008220:	00420800 	sll	t0,t0,0x8
1d008224:	f5014390 	lbu	v1,501(v0)
1d008228:	21400301 	addu	t0,t0,v1
1d00822c:	ffff0831 	andi	t0,t0,0xffff
1d008230:	ffff0331 	andi	v1,t0,0xffff
1d008234:	000083a0 	sb	v1,0(a0)
1d008238:	021a0300 	srl	v1,v1,0x8
1d00823c:	010083a0 	sb	v1,1(a0)
1d008240:	f401468c 	lw	a2,500(v0)
1d008244:	0034c67c 	ext	a2,a2,0x10,0x7
1d008248:	00320600 	sll	a2,a2,0x8
1d00824c:	f7014390 	lbu	v1,503(v0)
1d008250:	2130c300 	addu	a2,a2,v1
1d008254:	ffffc630 	andi	a2,a2,0xffff
1d008258:	ffffc330 	andi	v1,a2,0xffff
1d00825c:	020083a0 	sb	v1,2(a0)
1d008260:	021a0300 	srl	v1,v1,0x8
1d008264:	030083a0 	sb	v1,3(a0)
1d008268:	f801478c 	lw	a3,504(v0)
1d00826c:	0030e77c 	ext	a3,a3,0x0,0x7
1d008270:	ff00e730 	andi	a3,a3,0xff
1d008274:	003a0700 	sll	a3,a3,0x8
1d008278:	f9014390 	lbu	v1,505(v0)
1d00827c:	2138e300 	addu	a3,a3,v1
1d008280:	ffffe730 	andi	a3,a3,0xffff
1d008284:	ffffe330 	andi	v1,a3,0xffff
1d008288:	040083a0 	sb	v1,4(a0)
1d00828c:	021a0300 	srl	v1,v1,0x8
1d008290:	050083a0 	sb	v1,5(a0)
1d008294:	f801458c 	lw	a1,504(v0)
1d008298:	0034a57c 	ext	a1,a1,0x10,0x7
1d00829c:	002a0500 	sll	a1,a1,0x8
1d0082a0:	fb014390 	lbu	v1,507(v0)
1d0082a4:	2128a300 	addu	a1,a1,v1
1d0082a8:	ffffa530 	andi	a1,a1,0xffff
1d0082ac:	ffffa330 	andi	v1,a1,0xffff
1d0082b0:	060083a0 	sb	v1,6(a0)
1d0082b4:	021a0300 	srl	v1,v1,0x8
1d0082b8:	070083a0 	sb	v1,7(a0)
1d0082bc:	ec01428c 	lw	v0,492(v0)
1d0082c0:	1e004010 	beqz	v0,0x1d00833c
1d0082c4:	01a0023c 	lui	v0,0xa001
1d0082c8:	8434438c 	lw	v1,13444(v0)
1d0082cc:	c0006330 	andi	v1,v1,0xc0
1d0082d0:	40000224 	li	v0,64
1d0082d4:	0b006214 	bne	v1,v0,0x1d008304
1d0082d8:	01a0023c 	lui	v0,0xa001
1d0082dc:	23400800 	negu	t0,t0
1d0082e0:	ffff0831 	andi	t0,t0,0xffff
1d0082e4:	000088a0 	sb	t0,0(a0)
1d0082e8:	02420800 	srl	t0,t0,0x8
1d0082ec:	010088a0 	sb	t0,1(a0)
1d0082f0:	23380700 	negu	a3,a3
1d0082f4:	ffffe730 	andi	a3,a3,0xffff
1d0082f8:	040087a0 	sb	a3,4(a0)
1d0082fc:	023a0700 	srl	a3,a3,0x8
1d008300:	050087a0 	sb	a3,5(a0)
1d008304:	8434438c 	lw	v1,13444(v0)
1d008308:	03006330 	andi	v1,v1,0x3
1d00830c:	01000224 	li	v0,1
1d008310:	0a006214 	bne	v1,v0,0x1d00833c
1d008314:	23300600 	negu	a2,a2
1d008318:	ffffc630 	andi	a2,a2,0xffff
1d00831c:	020086a0 	sb	a2,2(a0)
1d008320:	02320600 	srl	a2,a2,0x8
1d008324:	030086a0 	sb	a2,3(a0)
1d008328:	23280500 	negu	a1,a1
1d00832c:	ffffa530 	andi	a1,a1,0xffff
1d008330:	060085a0 	sb	a1,6(a0)
1d008334:	022a0500 	srl	a1,a1,0x8
1d008338:	070085a0 	sb	a1,7(a0)
1d00833c:	0800e003 	jr	ra
1d008340:	00000000 	nop
1d008344:	0400828c 	lw	v0,4(a0)
1d008348:	0007427c 	ext	v0,v0,0x1c,0x1
1d00834c:	08004050 	beqzl	v0,0x1d008370
1d008350:	0000828c 	lw	v0,0(a0)
1d008354:	0000838c 	lw	v1,0(a0)
1d008358:	ff076330 	andi	v1,v1,0x7ff
1d00835c:	801c0300 	sll	v1,v1,0x12
1d008360:	0400828c 	lw	v0,4(a0)
1d008364:	808a427c 	ext	v0,v0,0xa,0x12
1d008368:	dd20400b 	j	0x1d008374
1d00836c:	25106200 	or	v0,v1,v0
1d008370:	ff074230 	andi	v0,v0,0x7ff
1d008374:	67000324 	li	v1,103
1d008378:	21004310 	beq	v0,v1,0x1d008400
1d00837c:	6800432c 	sltiu	v1,v0,104
1d008380:	06006010 	beqz	v1,0x1d00839c
1d008384:	6a000324 	li	v1,106
1d008388:	65000324 	li	v1,101
1d00838c:	09004310 	beq	v0,v1,0x1d0083b4
1d008390:	01a0023c 	lui	v0,0xa001
1d008394:	0800e003 	jr	ra
1d008398:	00000000 	nop
1d00839c:	2c004310 	beq	v0,v1,0x1d008450
1d0083a0:	74000324 	li	v1,116
1d0083a4:	3e004310 	beq	v0,v1,0x1d0084a0
1d0083a8:	01a0023c 	lui	v0,0xa001
1d0083ac:	0800e003 	jr	ra
1d0083b0:	00000000 	nop
1d0083b4:	08008424 	addiu	a0,a0,8
1d0083b8:	03008588 	lwl	a1,3(a0)
1d0083bc:	00008598 	lwr	a1,0(a0)
1d0083c0:	07008388 	lwl	v1,7(a0)
1d0083c4:	04008398 	lwr	v1,4(a0)
1d0083c8:	7c3645ac 	sw	a1,13948(v0)
1d0083cc:	7c364224 	addiu	v0,v0,13948
1d0083d0:	040043ac 	sw	v1,4(v0)
1d0083d4:	01a0023c 	lui	v0,0xa001
1d0083d8:	9c324224 	addiu	v0,v0,12956
1d0083dc:	64000324 	li	v1,100
1d0083e0:	e80343ac 	sw	v1,1000(v0)
1d0083e4:	ec03428c 	lw	v0,1004(v0)
1d0083e8:	ffff0324 	li	v1,-1
1d0083ec:	e9ff4310 	beq	v0,v1,0x1d008394
1d0083f0:	01004224 	addiu	v0,v0,1
1d0083f4:	01a0033c 	lui	v1,0xa001
1d0083f8:	0800e003 	jr	ra
1d0083fc:	883662ac 	sw	v0,13960(v1)
1d008400:	01a0023c 	lui	v0,0xa001
1d008404:	08008424 	addiu	a0,a0,8
1d008408:	03008588 	lwl	a1,3(a0)
1d00840c:	00008598 	lwr	a1,0(a0)
1d008410:	07008388 	lwl	v1,7(a0)
1d008414:	04008398 	lwr	v1,4(a0)
1d008418:	8c3645ac 	sw	a1,13964(v0)
1d00841c:	8c364224 	addiu	v0,v0,13964
1d008420:	040043ac 	sw	v1,4(v0)
1d008424:	01a0023c 	lui	v0,0xa001
1d008428:	9c324224 	addiu	v0,v0,12956
1d00842c:	c8000324 	li	v1,200
1d008430:	f80343ac 	sw	v1,1016(v0)
1d008434:	fc03428c 	lw	v0,1020(v0)
1d008438:	ffff0324 	li	v1,-1
1d00843c:	d5ff4310 	beq	v0,v1,0x1d008394
1d008440:	01004224 	addiu	v0,v0,1
1d008444:	01a0033c 	lui	v1,0xa001
1d008448:	0800e003 	jr	ra
1d00844c:	983662ac 	sw	v0,13976(v1)
1d008450:	01a0023c 	lui	v0,0xa001
1d008454:	08008424 	addiu	a0,a0,8
1d008458:	03008588 	lwl	a1,3(a0)
1d00845c:	00008598 	lwr	a1,0(a0)
1d008460:	07008388 	lwl	v1,7(a0)
1d008464:	04008398 	lwr	v1,4(a0)
1d008468:	9c3645ac 	sw	a1,13980(v0)
1d00846c:	9c364224 	addiu	v0,v0,13980
1d008470:	040043ac 	sw	v1,4(v0)
1d008474:	01a0023c 	lui	v0,0xa001
1d008478:	9c324224 	addiu	v0,v0,12956
1d00847c:	64000324 	li	v1,100
1d008480:	080443ac 	sw	v1,1032(v0)
1d008484:	0c04428c 	lw	v0,1036(v0)
1d008488:	ffff0324 	li	v1,-1
1d00848c:	c1ff4310 	beq	v0,v1,0x1d008394
1d008490:	01004224 	addiu	v0,v0,1
1d008494:	01a0033c 	lui	v1,0xa001
1d008498:	0800e003 	jr	ra
1d00849c:	a83662ac 	sw	v0,13992(v1)
1d0084a0:	08008424 	addiu	a0,a0,8
1d0084a4:	03008588 	lwl	a1,3(a0)
1d0084a8:	00008598 	lwr	a1,0(a0)
1d0084ac:	07008388 	lwl	v1,7(a0)
1d0084b0:	04008398 	lwr	v1,4(a0)
1d0084b4:	ac3645ac 	sw	a1,13996(v0)
1d0084b8:	ac364224 	addiu	v0,v0,13996
1d0084bc:	040043ac 	sw	v1,4(v0)
1d0084c0:	01a0023c 	lui	v0,0xa001
1d0084c4:	9c324224 	addiu	v0,v0,12956
1d0084c8:	c8000324 	li	v1,200
1d0084cc:	180443ac 	sw	v1,1048(v0)
1d0084d0:	1c04428c 	lw	v0,1052(v0)
1d0084d4:	ffff0324 	li	v1,-1
1d0084d8:	aeff4310 	beq	v0,v1,0x1d008394
1d0084dc:	01004224 	addiu	v0,v0,1
1d0084e0:	01a0033c 	lui	v1,0xa001
1d0084e4:	b83662ac 	sw	v0,14008(v1)
1d0084e8:	0800e003 	jr	ra
1d0084ec:	00000000 	nop
1d0084f0:	e8ffbd27 	addiu	sp,sp,-24
1d0084f4:	1400bfaf 	sw	ra,20(sp)
1d0084f8:	355f400f 	jal	0x1d017cd4
1d0084fc:	00000000 	nop
1d008500:	1400bf8f 	lw	ra,20(sp)
1d008504:	0800e003 	jr	ra
1d008508:	1800bd27 	addiu	sp,sp,24
1d00850c:	e8ffbd27 	addiu	sp,sp,-24
1d008510:	1400bfaf 	sw	ra,20(sp)
1d008514:	1000b0af 	sw	s0,16(sp)
1d008518:	00008290 	lbu	v0,0(a0)
1d00851c:	0430027c 	ins	v0,zero,0x0,0x7
1d008520:	ff004230 	andi	v0,v0,0xff
1d008524:	03004010 	beqz	v0,0x1d008534
1d008528:	21808000 	move	s0,a0
1d00852c:	00a0023c 	lui	v0,0xa000
1d008530:	6c0140a0 	sb	zero,364(v0)
1d008534:	00a0023c 	lui	v0,0xa000
1d008538:	5c01428c 	lw	v0,348(v0)
1d00853c:	80004014 	bnez	v0,0x1d008740
1d008540:	1400bf8f 	lw	ra,20(sp)
1d008544:	01a0023c 	lui	v0,0xa001
1d008548:	ac33428c 	lw	v0,13228(v0)
1d00854c:	0300422c 	sltiu	v0,v0,3
1d008550:	68004014 	bnez	v0,0x1d0086f4
1d008554:	07000324 	li	v1,7
1d008558:	01a0023c 	lui	v0,0xa001
1d00855c:	bc33428c 	lw	v0,13244(v0)
1d008560:	0300422c 	sltiu	v0,v0,3
1d008564:	64004014 	bnez	v0,0x1d0086f8
1d008568:	00a0023c 	lui	v0,0xa000
1d00856c:	01a0023c 	lui	v0,0xa001
1d008570:	cc33428c 	lw	v0,13260(v0)
1d008574:	0300422c 	sltiu	v0,v0,3
1d008578:	5f004014 	bnez	v0,0x1d0086f8
1d00857c:	00a0023c 	lui	v0,0xa000
1d008580:	01a0023c 	lui	v0,0xa001
1d008584:	6c34428c 	lw	v0,13420(v0)
1d008588:	0300422c 	sltiu	v0,v0,3
1d00858c:	5c004010 	beqz	v0,0x1d008700
1d008590:	00a0023c 	lui	v0,0xa000
1d008594:	be21400b 	j	0x1d0086f8
1d008598:	00000000 	nop
1d00859c:	07004230 	andi	v0,v0,0x7
1d0085a0:	ffff4424 	addiu	a0,v0,-1
1d0085a4:	04000324 	li	v1,4
1d0085a8:	2b186400 	sltu	v1,v1,a0
1d0085ac:	4a006054 	bnezl	v1,0x1d0086d8
1d0085b0:	00000292 	lbu	v0,0(s0)
1d0085b4:	00a0033c 	lui	v1,0xa000
1d0085b8:	6401638c 	lw	v1,356(v1)
1d0085bc:	5f004310 	beq	v0,v1,0x1d00873c
1d0085c0:	01a0033c 	lui	v1,0xa001
1d0085c4:	c033638c 	lw	v1,13248(v1)
1d0085c8:	c005647c 	ext	a0,v1,0x17,0x1
1d0085cc:	3e008010 	beqz	a0,0x1d0086c8
1d0085d0:	4011647c 	ext	a0,v1,0x5,0x3
1d0085d4:	39008210 	beq	a0,v0,0x1d0086bc
1d0085d8:	01a0043c 	lui	a0,0xa001
1d0085dc:	0035848c 	lw	a0,13568(a0)
1d0085e0:	4d008010 	beqz	a0,0x1d008718
1d0085e4:	01a0043c 	lui	a0,0xa001
1d0085e8:	01a0043c 	lui	a0,0xa001
1d0085ec:	fc34848c 	lw	a0,13564(a0)
1d0085f0:	4006847c 	ext	a0,a0,0x19,0x1
1d0085f4:	2e008054 	bnezl	a0,0x1d0086b0
1d0085f8:	02000324 	li	v1,2
1d0085fc:	c621400b 	j	0x1d008718
1d008600:	01a0043c 	lui	a0,0xa001
1d008604:	1c35848c 	lw	a0,13596(a0)
1d008608:	4006847c 	ext	a0,a0,0x19,0x1
1d00860c:	28008054 	bnezl	a0,0x1d0086b0
1d008610:	02000324 	li	v1,2
1d008614:	ca21400b 	j	0x1d008728
1d008618:	00a0043c 	lui	a0,0xa000
1d00861c:	4035858c 	lw	a1,13632(a0)
1d008620:	0600a010 	beqz	a1,0x1d00863c
1d008624:	21200000 	move	a0,zero
1d008628:	01a0043c 	lui	a0,0xa001
1d00862c:	3c35848c 	lw	a0,13628(a0)
1d008630:	8f21400b 	j	0x1d00863c
1d008634:	4006847c 	ext	a0,a0,0x19,0x1
1d008638:	8a018490 	lbu	a0,394(a0)
1d00863c:	1b008014 	bnez	a0,0x1d0086ac
1d008640:	00a0043c 	lui	a0,0xa000
1d008644:	7c01848c 	lw	a0,380(a0)
1d008648:	0200842c 	sltiu	a0,a0,2
1d00864c:	08008014 	bnez	a0,0x1d008670
1d008650:	05000424 	li	a0,5
1d008654:	00000592 	lbu	a1,0(s0)
1d008658:	0700a530 	andi	a1,a1,0x7
1d00865c:	0f00a410 	beq	a1,a0,0x1d00869c
1d008660:	e0006330 	andi	v1,v1,0xe0
1d008664:	20000424 	li	a0,32
1d008668:	09006410 	beq	v1,a0,0x1d008690
1d00866c:	04000324 	li	v1,4
1d008670:	00a0033c 	lui	v1,0xa000
1d008674:	58016324 	addiu	v1,v1,344
1d008678:	0c0062ac 	sw	v0,12(v1)
1d00867c:	d0070224 	li	v0,2000
1d008680:	200062ac 	sw	v0,32(v1)
1d008684:	140060a0 	sb	zero,20(v1)
1d008688:	cf21400b 	j	0x1d00873c
1d00868c:	180060ac 	sw	zero,24(v1)
1d008690:	00a0023c 	lui	v0,0xa000
1d008694:	cf21400b 	j	0x1d00873c
1d008698:	700143ac 	sw	v1,368(v0)
1d00869c:	03000324 	li	v1,3
1d0086a0:	00a0023c 	lui	v0,0xa000
1d0086a4:	cf21400b 	j	0x1d00873c
1d0086a8:	700143ac 	sw	v1,368(v0)
1d0086ac:	02000324 	li	v1,2
1d0086b0:	00a0023c 	lui	v0,0xa000
1d0086b4:	cf21400b 	j	0x1d00873c
1d0086b8:	700143ac 	sw	v1,368(v0)
1d0086bc:	00a0023c 	lui	v0,0xa000
1d0086c0:	cf21400b 	j	0x1d00873c
1d0086c4:	700140ac 	sw	zero,368(v0)
1d0086c8:	01000324 	li	v1,1
1d0086cc:	00a0023c 	lui	v0,0xa000
1d0086d0:	cf21400b 	j	0x1d00873c
1d0086d4:	700143ac 	sw	v1,368(v0)
1d0086d8:	07004230 	andi	v0,v0,0x7
1d0086dc:	18004010 	beqz	v0,0x1d008740
1d0086e0:	1400bf8f 	lw	ra,20(sp)
1d0086e4:	06000324 	li	v1,6
1d0086e8:	00a0023c 	lui	v0,0xa000
1d0086ec:	cf21400b 	j	0x1d00873c
1d0086f0:	700143ac 	sw	v1,368(v0)
1d0086f4:	00a0023c 	lui	v0,0xa000
1d0086f8:	cf21400b 	j	0x1d00873c
1d0086fc:	700143ac 	sw	v1,368(v0)
1d008700:	8f6c400f 	jal	0x1d01b23c
1d008704:	00000000 	nop
1d008708:	a4ff4050 	beqzl	v0,0x1d00859c
1d00870c:	00000292 	lbu	v0,0(s0)
1d008710:	bd21400b 	j	0x1d0086f4
1d008714:	07000324 	li	v1,7
1d008718:	2035848c 	lw	a0,13600(a0)
1d00871c:	b9ff8014 	bnez	a0,0x1d008604
1d008720:	01a0043c 	lui	a0,0xa001
1d008724:	00a0043c 	lui	a0,0xa000
1d008728:	8401848c 	lw	a0,388(a0)
1d00872c:	bbff8054 	bnezl	a0,0x1d00861c
1d008730:	01a0043c 	lui	a0,0xa001
1d008734:	8e21400b 	j	0x1d008638
1d008738:	00a0043c 	lui	a0,0xa000
1d00873c:	1400bf8f 	lw	ra,20(sp)
1d008740:	1000b08f 	lw	s0,16(sp)
1d008744:	0800e003 	jr	ra
1d008748:	1800bd27 	addiu	sp,sp,24
1d00874c:	e8ffbd27 	addiu	sp,sp,-24
1d008750:	1400bfaf 	sw	ra,20(sp)
1d008754:	aa5d400f 	jal	0x1d0176a8
1d008758:	00000000 	nop
1d00875c:	1400bf8f 	lw	ra,20(sp)
1d008760:	0800e003 	jr	ra
1d008764:	1800bd27 	addiu	sp,sp,24
1d008768:	e8ffbd27 	addiu	sp,sp,-24
1d00876c:	1400bfaf 	sw	ra,20(sp)
1d008770:	4e5e400f 	jal	0x1d017938
1d008774:	00000000 	nop
1d008778:	1400bf8f 	lw	ra,20(sp)
1d00877c:	0800e003 	jr	ra
1d008780:	1800bd27 	addiu	sp,sp,24
1d008784:	01a0023c 	lui	v0,0xa001
1d008788:	b835428c 	lw	v0,13752(v0)
1d00878c:	6500422c 	sltiu	v0,v0,101
1d008790:	21004014 	bnez	v0,0x1d008818
1d008794:	08000224 	li	v0,8
1d008798:	d8ffbd27 	addiu	sp,sp,-40
1d00879c:	2400bfaf 	sw	ra,36(sp)
1d0087a0:	1400a2af 	sw	v0,20(sp)
1d0087a4:	aa030224 	li	v0,938
1d0087a8:	1000a2af 	sw	v0,16(sp)
1d0087ac:	01a0023c 	lui	v0,0xa001
1d0087b0:	4836428c 	lw	v0,13896(v0)
1d0087b4:	0300422c 	sltiu	v0,v0,3
1d0087b8:	0a004014 	bnez	v0,0x1d0087e4
1d0087bc:	01a0033c 	lui	v1,0xa001
1d0087c0:	9c326324 	addiu	v1,v1,12956
1d0087c4:	a003628c 	lw	v0,928(v1)
1d0087c8:	a403638c 	lw	v1,932(v1)
1d0087cc:	1c00a3af 	sw	v1,28(sp)
1d0087d0:	0f004234 	ori	v0,v0,0xf
1d0087d4:	0f000324 	li	v1,15
1d0087d8:	0439627c 	ins	v0,v1,0x4,0x4
1d0087dc:	fe21400b 	j	0x1d0087f8
1d0087e0:	1800a2af 	sw	v0,24(sp)
1d0087e4:	1c00a0af 	sw	zero,28(sp)
1d0087e8:	01000224 	li	v0,1
1d0087ec:	02000324 	li	v1,2
1d0087f0:	0439627c 	ins	v0,v1,0x4,0x4
1d0087f4:	1800a2af 	sw	v0,24(sp)
1d0087f8:	1800a28f 	lw	v0,24(sp)
1d0087fc:	01000324 	li	v1,1
1d008800:	c47b627c 	ins	v0,v1,0xf,0x1
1d008804:	1800a2af 	sw	v0,24(sp)
1d008808:	4e5e400f 	jal	0x1d017938
1d00880c:	1000a427 	addiu	a0,sp,16
1d008810:	2400bf8f 	lw	ra,36(sp)
1d008814:	2800bd27 	addiu	sp,sp,40
1d008818:	0800e003 	jr	ra
1d00881c:	00000000 	nop
1d008820:	e8ffbd27 	addiu	sp,sp,-24
1d008824:	1400bfaf 	sw	ra,20(sp)
1d008828:	1000b0af 	sw	s0,16(sp)
1d00882c:	00008290 	lbu	v0,0(a0)
1d008830:	03004230 	andi	v0,v0,0x3
1d008834:	3b004010 	beqz	v0,0x1d008924
1d008838:	21808000 	move	s0,a0
1d00883c:	01a0023c 	lui	v0,0xa001
1d008840:	3c34428c 	lw	v0,13372(v0)
1d008844:	0300422c 	sltiu	v0,v0,3
1d008848:	37004014 	bnez	v0,0x1d008928
1d00884c:	1400bf8f 	lw	ra,20(sp)
1d008850:	855b400f 	jal	0x1d016e14
1d008854:	00000000 	nop
1d008858:	1b004014 	bnez	v0,0x1d0088c8
1d00885c:	01a0023c 	lui	v0,0xa001
1d008860:	0035428c 	lw	v0,13568(v0)
1d008864:	26004010 	beqz	v0,0x1d008900
1d008868:	01a0023c 	lui	v0,0xa001
1d00886c:	01a0023c 	lui	v0,0xa001
1d008870:	fc34428c 	lw	v0,13564(v0)
1d008874:	4006427c 	ext	v0,v0,0x19,0x1
1d008878:	1f004054 	bnezl	v0,0x1d0088f8
1d00887c:	01a0023c 	lui	v0,0xa001
1d008880:	4022400b 	j	0x1d008900
1d008884:	01a0023c 	lui	v0,0xa001
1d008888:	1c35428c 	lw	v0,13596(v0)
1d00888c:	4006427c 	ext	v0,v0,0x19,0x1
1d008890:	19004054 	bnezl	v0,0x1d0088f8
1d008894:	01a0023c 	lui	v0,0xa001
1d008898:	4422400b 	j	0x1d008910
1d00889c:	00a0023c 	lui	v0,0xa000
1d0088a0:	4035438c 	lw	v1,13632(v0)
1d0088a4:	06006010 	beqz	v1,0x1d0088c0
1d0088a8:	21100000 	move	v0,zero
1d0088ac:	01a0023c 	lui	v0,0xa001
1d0088b0:	3c35428c 	lw	v0,13628(v0)
1d0088b4:	3022400b 	j	0x1d0088c0
1d0088b8:	4006427c 	ext	v0,v0,0x19,0x1
1d0088bc:	8a014290 	lbu	v0,394(v0)
1d0088c0:	0d004014 	bnez	v0,0x1d0088f8
1d0088c4:	01a0023c 	lui	v0,0xa001
1d0088c8:	8f6c400f 	jal	0x1d01b23c
1d0088cc:	00000000 	nop
1d0088d0:	09004014 	bnez	v0,0x1d0088f8
1d0088d4:	01a0023c 	lui	v0,0xa001
1d0088d8:	01a0023c 	lui	v0,0xa001
1d0088dc:	00000392 	lbu	v1,0(s0)
1d0088e0:	03006330 	andi	v1,v1,0x3
1d0088e4:	c03043ac 	sw	v1,12480(v0)
1d0088e8:	c0304224 	addiu	v0,v0,12480
1d0088ec:	c8000324 	li	v1,200
1d0088f0:	4922400b 	j	0x1d008924
1d0088f4:	040043ac 	sw	v1,4(v0)
1d0088f8:	4922400b 	j	0x1d008924
1d0088fc:	c43040ac 	sw	zero,12484(v0)
1d008900:	2035428c 	lw	v0,13600(v0)
1d008904:	e0ff4014 	bnez	v0,0x1d008888
1d008908:	01a0023c 	lui	v0,0xa001
1d00890c:	00a0023c 	lui	v0,0xa000
1d008910:	8401428c 	lw	v0,388(v0)
1d008914:	e2ff4054 	bnezl	v0,0x1d0088a0
1d008918:	01a0023c 	lui	v0,0xa001
1d00891c:	2f22400b 	j	0x1d0088bc
1d008920:	00a0023c 	lui	v0,0xa000
1d008924:	1400bf8f 	lw	ra,20(sp)
1d008928:	1000b08f 	lw	s0,16(sp)
1d00892c:	0800e003 	jr	ra
1d008930:	1800bd27 	addiu	sp,sp,24
1d008934:	e8ffbd27 	addiu	sp,sp,-24
1d008938:	1400bfaf 	sw	ra,20(sp)
1d00893c:	f25e400f 	jal	0x1d017bc8
1d008940:	00000000 	nop
1d008944:	1400bf8f 	lw	ra,20(sp)
1d008948:	0800e003 	jr	ra
1d00894c:	1800bd27 	addiu	sp,sp,24
1d008950:	01a0023c 	lui	v0,0xa001
1d008954:	0c34428c 	lw	v0,13324(v0)
1d008958:	0300422c 	sltiu	v0,v0,3
1d00895c:	2a004014 	bnez	v0,0x1d008a08
1d008960:	00000000 	nop
1d008964:	d8ffbd27 	addiu	sp,sp,-40
1d008968:	2400bfaf 	sw	ra,36(sp)
1d00896c:	8f6c400f 	jal	0x1d01b23c
1d008970:	00000000 	nop
1d008974:	22004010 	beqz	v0,0x1d008a00
1d008978:	01a0023c 	lui	v0,0xa001
1d00897c:	9c324224 	addiu	v0,v0,12956
1d008980:	6401438c 	lw	v1,356(v0)
1d008984:	6801428c 	lw	v0,360(v0)
1d008988:	1800a3af 	sw	v1,24(sp)
1d00898c:	1c00a2af 	sw	v0,28(sp)
1d008990:	dc80828f 	lw	v0,-32548(gp)
1d008994:	eb51043c 	lui	a0,0x51eb
1d008998:	1f858434 	ori	a0,a0,0x851f
1d00899c:	19004400 	multu	v0,a0
1d0089a0:	10200000 	mfhi	a0
1d0089a4:	c2210400 	srl	a0,a0,0x7
1d0089a8:	00190400 	sll	v1,a0,0x4
1d0089ac:	80210400 	sll	a0,a0,0x6
1d0089b0:	21186400 	addu	v1,v1,a0
1d0089b4:	80200300 	sll	a0,v1,0x2
1d0089b8:	21186400 	addu	v1,v1,a0
1d0089bc:	23104300 	subu	v0,v0,v1
1d0089c0:	c800422c 	sltiu	v0,v0,200
1d0089c4:	05004010 	beqz	v0,0x1d0089dc
1d0089c8:	1800a28f 	lw	v0,24(sp)
1d0089cc:	01000324 	li	v1,1
1d0089d0:	84ff627c 	ins	v0,v1,0x1e,0x2
1d0089d4:	7a22400b 	j	0x1d0089e8
1d0089d8:	1800a2af 	sw	v0,24(sp)
1d0089dc:	02000324 	li	v1,2
1d0089e0:	84ff627c 	ins	v0,v1,0x1e,0x2
1d0089e4:	1800a2af 	sw	v0,24(sp)
1d0089e8:	08000224 	li	v0,8
1d0089ec:	1400a2af 	sw	v0,20(sp)
1d0089f0:	4c000224 	li	v0,76
1d0089f4:	1000a2af 	sw	v0,16(sp)
1d0089f8:	f25e400f 	jal	0x1d017bc8
1d0089fc:	1000a427 	addiu	a0,sp,16
1d008a00:	2400bf8f 	lw	ra,36(sp)
1d008a04:	2800bd27 	addiu	sp,sp,40
1d008a08:	0800e003 	jr	ra
1d008a0c:	00000000 	nop
1d008a10:	c8ffbd27 	addiu	sp,sp,-56
1d008a14:	3400bfaf 	sw	ra,52(sp)
1d008a18:	22000224 	li	v0,34
1d008a1c:	1000a2af 	sw	v0,16(sp)
1d008a20:	00dee724 	addiu	a3,a3,-8704
1d008a24:	ffffe730 	andi	a3,a3,0xffff
1d008a28:	1400a7af 	sw	a3,20(sp)
1d008a2c:	01000224 	li	v0,1
1d008a30:	1800a2af 	sw	v0,24(sp)
1d008a34:	1c00a0af 	sw	zero,28(sp)
1d008a38:	2000a0af 	sw	zero,32(sp)
1d008a3c:	4800a28f 	lw	v0,72(sp)
1d008a40:	2400a2af 	sw	v0,36(sp)
1d008a44:	4c00a28f 	lw	v0,76(sp)
1d008a48:	2800a2af 	sw	v0,40(sp)
1d008a4c:	236f400f 	jal	0x1d01bc8c
1d008a50:	21380000 	move	a3,zero
1d008a54:	3400bf8f 	lw	ra,52(sp)
1d008a58:	0800e003 	jr	ra
1d008a5c:	3800bd27 	addiu	sp,sp,56
1d008a60:	000080a0 	sb	zero,0(a0)
1d008a64:	010080a0 	sb	zero,1(a0)
1d008a68:	01a0023c 	lui	v0,0xa001
1d008a6c:	ac33428c 	lw	v0,13228(v0)
1d008a70:	0300422c 	sltiu	v0,v0,3
1d008a74:	5c004014 	bnez	v0,0x1d008be8
1d008a78:	01a0023c 	lui	v0,0xa001
1d008a7c:	01a0023c 	lui	v0,0xa001
1d008a80:	bc33428c 	lw	v0,13244(v0)
1d008a84:	0300422c 	sltiu	v0,v0,3
1d008a88:	57004014 	bnez	v0,0x1d008be8
1d008a8c:	01a0023c 	lui	v0,0xa001
1d008a90:	01a0023c 	lui	v0,0xa001
1d008a94:	cc33428c 	lw	v0,13260(v0)
1d008a98:	0300422c 	sltiu	v0,v0,3
1d008a9c:	52004014 	bnez	v0,0x1d008be8
1d008aa0:	01a0023c 	lui	v0,0xa001
1d008aa4:	6c34428c 	lw	v0,13420(v0)
1d008aa8:	0300422c 	sltiu	v0,v0,3
1d008aac:	7e004010 	beqz	v0,0x1d008ca8
1d008ab0:	00a0023c 	lui	v0,0xa000
1d008ab4:	ff22400b 	j	0x1d008bfc
1d008ab8:	00008390 	lbu	v1,0(a0)
1d008abc:	00a0023c 	lui	v0,0xa000
1d008ac0:	58014224 	addiu	v0,v0,344
1d008ac4:	0c00468c 	lw	a2,12(v0)
1d008ac8:	00008390 	lbu	v1,0(a0)
1d008acc:	0431c37c 	ins	v1,a2,0x4,0x3
1d008ad0:	0100a638 	xori	a2,a1,0x1
1d008ad4:	c439c37c 	ins	v1,a2,0x7,0x1
1d008ad8:	000083a0 	sb	v1,0(a0)
1d008adc:	1800438c 	lw	v1,24(v0)
1d008ae0:	01008290 	lbu	v0,1(a0)
1d008ae4:	0410627c 	ins	v0,v1,0x0,0x3
1d008ae8:	010082a0 	sb	v0,1(a0)
1d008aec:	3a00a010 	beqz	a1,0x1d008bd8
1d008af0:	21180000 	move	v1,zero
1d008af4:	ca22400b 	j	0x1d008b28
1d008af8:	01a0023c 	lui	v0,0xa001
1d008afc:	58014224 	addiu	v0,v0,344
1d008b00:	1000458c 	lw	a1,16(v0)
1d008b04:	00008390 	lbu	v1,0(a0)
1d008b08:	0431a37c 	ins	v1,a1,0x4,0x3
1d008b0c:	c439037c 	ins	v1,zero,0x7,0x1
1d008b10:	000083a0 	sb	v1,0(a0)
1d008b14:	1800438c 	lw	v1,24(v0)
1d008b18:	01008290 	lbu	v0,1(a0)
1d008b1c:	0410627c 	ins	v0,v1,0x0,0x3
1d008b20:	010082a0 	sb	v0,1(a0)
1d008b24:	01a0023c 	lui	v0,0xa001
1d008b28:	0035428c 	lw	v0,13568(v0)
1d008b2c:	49004010 	beqz	v0,0x1d008c54
1d008b30:	01a0023c 	lui	v0,0xa001
1d008b34:	01a0023c 	lui	v0,0xa001
1d008b38:	fc34428c 	lw	v0,13564(v0)
1d008b3c:	4006427c 	ext	v0,v0,0x19,0x1
1d008b40:	25004014 	bnez	v0,0x1d008bd8
1d008b44:	21180000 	move	v1,zero
1d008b48:	1523400b 	j	0x1d008c54
1d008b4c:	01a0023c 	lui	v0,0xa001
1d008b50:	1c35428c 	lw	v0,13596(v0)
1d008b54:	4006427c 	ext	v0,v0,0x19,0x1
1d008b58:	1f004014 	bnez	v0,0x1d008bd8
1d008b5c:	21180000 	move	v1,zero
1d008b60:	1923400b 	j	0x1d008c64
1d008b64:	00a0023c 	lui	v0,0xa000
1d008b68:	4035438c 	lw	v1,13632(v0)
1d008b6c:	06006010 	beqz	v1,0x1d008b88
1d008b70:	21100000 	move	v0,zero
1d008b74:	01a0023c 	lui	v0,0xa001
1d008b78:	3c35428c 	lw	v0,13628(v0)
1d008b7c:	e222400b 	j	0x1d008b88
1d008b80:	4006427c 	ext	v0,v0,0x19,0x1
1d008b84:	8a014290 	lbu	v0,394(v0)
1d008b88:	12004014 	bnez	v0,0x1d008bd4
1d008b8c:	00a0023c 	lui	v0,0xa000
1d008b90:	6001458c 	lw	a1,352(v0)
1d008b94:	01000224 	li	v0,1
1d008b98:	0f00a214 	bne	a1,v0,0x1d008bd8
1d008b9c:	01000324 	li	v1,1
1d008ba0:	00a0023c 	lui	v0,0xa000
1d008ba4:	7c01428c 	lw	v0,380(v0)
1d008ba8:	0200422c 	sltiu	v0,v0,2
1d008bac:	0a004010 	beqz	v0,0x1d008bd8
1d008bb0:	21180000 	move	v1,zero
1d008bb4:	01a0023c 	lui	v0,0xa001
1d008bb8:	a033428c 	lw	v0,13216(v0)
1d008bbc:	80004230 	andi	v0,v0,0x80
1d008bc0:	05004010 	beqz	v0,0x1d008bd8
1d008bc4:	01a0023c 	lui	v0,0xa001
1d008bc8:	f032438c 	lw	v1,13040(v0)
1d008bcc:	f622400b 	j	0x1d008bd8
1d008bd0:	c005637c 	ext	v1,v1,0x17,0x1
1d008bd4:	21180000 	move	v1,zero
1d008bd8:	01008290 	lbu	v0,1(a0)
1d008bdc:	c439627c 	ins	v0,v1,0x7,0x1
1d008be0:	0800e003 	jr	ra
1d008be4:	010082a0 	sb	v0,1(a0)
1d008be8:	6c34428c 	lw	v0,13420(v0)
1d008bec:	0300422c 	sltiu	v0,v0,3
1d008bf0:	21004010 	beqz	v0,0x1d008c78
1d008bf4:	00a0023c 	lui	v0,0xa000
1d008bf8:	00008390 	lbu	v1,0(a0)
1d008bfc:	0410037c 	ins	v1,zero,0x0,0x3
1d008c00:	00a0023c 	lui	v0,0xa000
1d008c04:	58014224 	addiu	v0,v0,344
1d008c08:	14004590 	lbu	a1,20(v0)
1d008c0c:	c418a37c 	ins	v1,a1,0x3,0x1
1d008c10:	000083a0 	sb	v1,0(a0)
1d008c14:	2000428c 	lw	v0,32(v0)
1d008c18:	a8ff4014 	bnez	v0,0x1d008abc
1d008c1c:	21280000 	move	a1,zero
1d008c20:	3623400b 	j	0x1d008cd8
1d008c24:	00008290 	lbu	v0,0(a0)
1d008c28:	0431027c 	ins	v0,zero,0x4,0x3
1d008c2c:	01000324 	li	v1,1
1d008c30:	c439627c 	ins	v0,v1,0x7,0x1
1d008c34:	000082a0 	sb	v0,0(a0)
1d008c38:	00a0023c 	lui	v0,0xa000
1d008c3c:	7001438c 	lw	v1,368(v0)
1d008c40:	01008290 	lbu	v0,1(a0)
1d008c44:	0410627c 	ins	v0,v1,0x0,0x3
1d008c48:	010082a0 	sb	v0,1(a0)
1d008c4c:	f622400b 	j	0x1d008bd8
1d008c50:	21180000 	move	v1,zero
1d008c54:	2035428c 	lw	v0,13600(v0)
1d008c58:	bdff4014 	bnez	v0,0x1d008b50
1d008c5c:	01a0023c 	lui	v0,0xa001
1d008c60:	00a0023c 	lui	v0,0xa000
1d008c64:	8401428c 	lw	v0,388(v0)
1d008c68:	bfff4054 	bnezl	v0,0x1d008b68
1d008c6c:	01a0023c 	lui	v0,0xa001
1d008c70:	e122400b 	j	0x1d008b84
1d008c74:	00a0023c 	lui	v0,0xa000
1d008c78:	58014224 	addiu	v0,v0,344
1d008c7c:	0800458c 	lw	a1,8(v0)
1d008c80:	00008390 	lbu	v1,0(a0)
1d008c84:	0410a37c 	ins	v1,a1,0x0,0x3
1d008c88:	14004590 	lbu	a1,20(v0)
1d008c8c:	c418a37c 	ins	v1,a1,0x3,0x1
1d008c90:	000083a0 	sb	v1,0(a0)
1d008c94:	2000428c 	lw	v0,32(v0)
1d008c98:	88ff4014 	bnez	v0,0x1d008abc
1d008c9c:	21280000 	move	a1,zero
1d008ca0:	0a23400b 	j	0x1d008c28
1d008ca4:	00008290 	lbu	v0,0(a0)
1d008ca8:	58014224 	addiu	v0,v0,344
1d008cac:	0800458c 	lw	a1,8(v0)
1d008cb0:	00008390 	lbu	v1,0(a0)
1d008cb4:	0410a37c 	ins	v1,a1,0x0,0x3
1d008cb8:	14004590 	lbu	a1,20(v0)
1d008cbc:	c418a37c 	ins	v1,a1,0x3,0x1
1d008cc0:	000083a0 	sb	v1,0(a0)
1d008cc4:	2000428c 	lw	v0,32(v0)
1d008cc8:	7cff4014 	bnez	v0,0x1d008abc
1d008ccc:	01000524 	li	a1,1
1d008cd0:	bf22400b 	j	0x1d008afc
1d008cd4:	00a0023c 	lui	v0,0xa000
1d008cd8:	0431027c 	ins	v0,zero,0x4,0x3
1d008cdc:	01000324 	li	v1,1
1d008ce0:	c439627c 	ins	v0,v1,0x7,0x1
1d008ce4:	000082a0 	sb	v0,0(a0)
1d008ce8:	00a0023c 	lui	v0,0xa000
1d008cec:	7001438c 	lw	v1,368(v0)
1d008cf0:	01008290 	lbu	v0,1(a0)
1d008cf4:	0410627c 	ins	v0,v1,0x0,0x3
1d008cf8:	010082a0 	sb	v0,1(a0)
1d008cfc:	f622400b 	j	0x1d008bd8
1d008d00:	21180000 	move	v1,zero
1d008d04:	01a0023c 	lui	v0,0xa001
1d008d08:	c034428c 	lw	v0,13504(v0)
1d008d0c:	0400422c 	sltiu	v0,v0,4
1d008d10:	6e004014 	bnez	v0,0x1d008ecc
1d008d14:	00a0023c 	lui	v0,0xa000
1d008d18:	01a0023c 	lui	v0,0xa001
1d008d1c:	e034428c 	lw	v0,13536(v0)
1d008d20:	0400422c 	sltiu	v0,v0,4
1d008d24:	64004050 	beqzl	v0,0x1d008eb8
1d008d28:	01a0023c 	lui	v0,0xa001
1d008d2c:	b323400b 	j	0x1d008ecc
1d008d30:	00a0023c 	lui	v0,0xa000
1d008d34:	9c33428c 	lw	v0,13212(v0)
1d008d38:	0400422c 	sltiu	v0,v0,4
1d008d3c:	65004050 	beqzl	v0,0x1d008ed4
1d008d40:	01a0023c 	lui	v0,0xa001
1d008d44:	b323400b 	j	0x1d008ecc
1d008d48:	00a0023c 	lui	v0,0xa000
1d008d4c:	2835438c 	lw	v1,13608(v0)
1d008d50:	8100023c 	lui	v0,0x81
1d008d54:	24186200 	and	v1,v1,v0
1d008d58:	0100023c 	lui	v0,0x1
1d008d5c:	5b006214 	bne	v1,v0,0x1d008ecc
1d008d60:	00a0023c 	lui	v0,0xa000
1d008d64:	00a0023c 	lui	v0,0xa000
1d008d68:	8a014290 	lbu	v0,394(v0)
1d008d6c:	56004014 	bnez	v0,0x1d008ec8
1d008d70:	00a0023c 	lui	v0,0xa000
1d008d74:	8b014290 	lbu	v0,395(v0)
1d008d78:	54004014 	bnez	v0,0x1d008ecc
1d008d7c:	00a0023c 	lui	v0,0xa000
1d008d80:	e8ffbd27 	addiu	sp,sp,-24
1d008d84:	1400bfaf 	sw	ra,20(sp)
1d008d88:	1000b0af 	sw	s0,16(sp)
1d008d8c:	8f6c400f 	jal	0x1d01b23c
1d008d90:	21808000 	move	s0,a0
1d008d94:	05004010 	beqz	v0,0x1d008dac
1d008d98:	00000000 	nop
1d008d9c:	9a6c400f 	jal	0x1d01b268
1d008da0:	00000000 	nop
1d008da4:	42004010 	beqz	v0,0x1d008eb0
1d008da8:	00a0023c 	lui	v0,0xa000
1d008dac:	c073400f 	jal	0x1d01cf00
1d008db0:	00000000 	nop
1d008db4:	3d004014 	bnez	v0,0x1d008eac
1d008db8:	00a0023c 	lui	v0,0xa000
1d008dbc:	f801428c 	lw	v0,504(v0)
1d008dc0:	0300422c 	sltiu	v0,v0,3
1d008dc4:	3a004014 	bnez	v0,0x1d008eb0
1d008dc8:	00a0023c 	lui	v0,0xa000
1d008dcc:	00a0023c 	lui	v0,0xa000
1d008dd0:	01a0033c 	lui	v1,0xa001
1d008dd4:	b434638c 	lw	v1,13492(v1)
1d008dd8:	800d637c 	ext	v1,v1,0x16,0x2
1d008ddc:	01000424 	li	a0,1
1d008de0:	1a006410 	beq	v1,a0,0x1d008e4c
1d008de4:	f001428c 	lw	v0,496(v0)
1d008de8:	02000424 	li	a0,2
1d008dec:	03006410 	beq	v1,a0,0x1d008dfc
1d008df0:	00a0033c 	lui	v1,0xa000
1d008df4:	9623400b 	j	0x1d008e58
1d008df8:	21200000 	move	a0,zero
1d008dfc:	ec01638c 	lw	v1,492(v1)
1d008e00:	eb51043c 	lui	a0,0x51eb
1d008e04:	1f858434 	ori	a0,a0,0x851f
1d008e08:	18006400 	mult	v1,a0
1d008e0c:	10200000 	mfhi	a0
1d008e10:	43210400 	sra	a0,a0,0x5
1d008e14:	c31f0300 	sra	v1,v1,0x1f
1d008e18:	23188300 	subu	v1,a0,v1
1d008e1c:	23206200 	subu	a0,v1,v0
1d008e20:	47058528 	slti	a1,a0,1351
1d008e24:	0400a054 	bnezl	a1,0x1d008e38
1d008e28:	bafa8428 	slti	a0,a0,-1350
1d008e2c:	46054224 	addiu	v0,v0,1350
1d008e30:	9623400b 	j	0x1d008e58
1d008e34:	01000424 	li	a0,1
1d008e38:	06008050 	beqzl	a0,0x1d008e54
1d008e3c:	21106000 	move	v0,v1
1d008e40:	bafa4224 	addiu	v0,v0,-1350
1d008e44:	9623400b 	j	0x1d008e58
1d008e48:	01000424 	li	a0,1
1d008e4c:	9623400b 	j	0x1d008e58
1d008e50:	01000424 	li	a0,1
1d008e54:	01000424 	li	a0,1
1d008e58:	10274224 	addiu	v0,v0,10000
1d008e5c:	ff7f432c 	sltiu	v1,v0,32767
1d008e60:	0d006050 	beqzl	v1,0x1d008e98
1d008e64:	00a0023c 	lui	v0,0xa000
1d008e68:	00a0033c 	lui	v1,0xa000
1d008e6c:	890164a0 	sb	a0,393(v1)
1d008e70:	010000a2 	sb	zero,1(s0)
1d008e74:	01000324 	li	v1,1
1d008e78:	000003a2 	sb	v1,0(s0)
1d008e7c:	02000392 	lbu	v1,2(s0)
1d008e80:	c439837c 	ins	v1,a0,0x7,0x1
1d008e84:	02220200 	srl	a0,v0,0x8
1d008e88:	0430837c 	ins	v1,a0,0x0,0x7
1d008e8c:	020003a2 	sb	v1,2(s0)
1d008e90:	ba23400b 	j	0x1d008ee8
1d008e94:	030002a2 	sb	v0,3(s0)
1d008e98:	890140a0 	sb	zero,393(v0)
1d008e9c:	02000292 	lbu	v0,2(s0)
1d008ea0:	c439027c 	ins	v0,zero,0x7,0x1
1d008ea4:	ba23400b 	j	0x1d008ee8
1d008ea8:	020002a2 	sb	v0,2(s0)
1d008eac:	00a0023c 	lui	v0,0xa000
1d008eb0:	ba23400b 	j	0x1d008ee8
1d008eb4:	890140a0 	sb	zero,393(v0)
1d008eb8:	fc33428c 	lw	v0,13308(v0)
1d008ebc:	0400422c 	sltiu	v0,v0,4
1d008ec0:	9cff4010 	beqz	v0,0x1d008d34
1d008ec4:	01a0023c 	lui	v0,0xa001
1d008ec8:	00a0023c 	lui	v0,0xa000
1d008ecc:	0800e003 	jr	ra
1d008ed0:	890140a0 	sb	zero,393(v0)
1d008ed4:	3035428c 	lw	v0,13616(v0)
1d008ed8:	9cff4054 	bnezl	v0,0x1d008d4c
1d008edc:	01a0023c 	lui	v0,0xa001
1d008ee0:	b323400b 	j	0x1d008ecc
1d008ee4:	00a0023c 	lui	v0,0xa000
1d008ee8:	1400bf8f 	lw	ra,20(sp)
1d008eec:	1000b08f 	lw	s0,16(sp)
1d008ef0:	0800e003 	jr	ra
1d008ef4:	1800bd27 	addiu	sp,sp,24
1d008ef8:	e8ffbd27 	addiu	sp,sp,-24
1d008efc:	1400bfaf 	sw	ra,20(sp)
1d008f00:	1000b0af 	sw	s0,16(sp)
1d008f04:	8f5b400f 	jal	0x1d016e3c
1d008f08:	21808000 	move	s0,a0
1d008f0c:	21204000 	move	a0,v0
1d008f10:	01a0023c 	lui	v0,0xa001
1d008f14:	698a400f 	jal	0x1d0229a4
1d008f18:	80364594 	lhu	a1,13952(v0)
1d008f1c:	21184000 	move	v1,v0
1d008f20:	5d124228 	slti	v0,v0,4701
1d008f24:	01004050 	beqzl	v0,0x1d008f2c
1d008f28:	5c120324 	li	v1,4700
1d008f2c:	2026037c 	seh	a0,v1
1d008f30:	00000292 	lbu	v0,0(s0)
1d008f34:	01000592 	lbu	a1,1(s0)
1d008f38:	002a0500 	sll	a1,a1,0x8
1d008f3c:	2528a200 	or	a1,a1,v0
1d008f40:	202e057c 	seh	a1,a1
1d008f44:	21106000 	move	v0,v1
1d008f48:	201e037c 	seh	v1,v1
1d008f4c:	2a18a300 	slt	v1,a1,v1
1d008f50:	02006010 	beqz	v1,0x1d008f5c
1d008f54:	23200400 	negu	a0,a0
1d008f58:	2110a000 	move	v0,a1
1d008f5c:	2016027c 	seh	v0,v0
1d008f60:	2a188200 	slt	v1,a0,v0
1d008f64:	0a108300 	movz	v0,a0,v1
1d008f68:	00a0033c 	lui	v1,0xa000
1d008f6c:	80016324 	addiu	v1,v1,384
1d008f70:	680062ac 	sw	v0,104(v1)
1d008f74:	03000392 	lbu	v1,3(s0)
1d008f78:	80180300 	sll	v1,v1,0x2
1d008f7c:	00a0023c 	lui	v0,0xa000
1d008f80:	e40143ac 	sw	v1,484(v0)
1d008f84:	02000292 	lbu	v0,2(s0)
1d008f88:	02004330 	andi	v1,v0,0x2
1d008f8c:	ff006330 	andi	v1,v1,0xff
1d008f90:	0e006054 	bnezl	v1,0x1d008fcc
1d008f94:	00a0023c 	lui	v0,0xa000
1d008f98:	01004230 	andi	v0,v0,0x1
1d008f9c:	0d004010 	beqz	v0,0x1d008fd4
1d008fa0:	01a0023c 	lui	v0,0xa001
1d008fa4:	01a0023c 	lui	v0,0xa001
1d008fa8:	3035428c 	lw	v0,13616(v0)
1d008fac:	09004010 	beqz	v0,0x1d008fd4
1d008fb0:	01a0023c 	lui	v0,0xa001
1d008fb4:	01a0023c 	lui	v0,0xa001
1d008fb8:	2835428c 	lw	v0,13608(v0)
1d008fbc:	0004427c 	ext	v0,v0,0x10,0x1
1d008fc0:	04004014 	bnez	v0,0x1d008fd4
1d008fc4:	01a0023c 	lui	v0,0xa001
1d008fc8:	00a0023c 	lui	v0,0xa000
1d008fcc:	8a0140a0 	sb	zero,394(v0)
1d008fd0:	01a0023c 	lui	v0,0xa001
1d008fd4:	c034428c 	lw	v0,13504(v0)
1d008fd8:	0400422c 	sltiu	v0,v0,4
1d008fdc:	28004014 	bnez	v0,0x1d009080
1d008fe0:	00a0023c 	lui	v0,0xa000
1d008fe4:	01a0023c 	lui	v0,0xa001
1d008fe8:	e034428c 	lw	v0,13536(v0)
1d008fec:	0400422c 	sltiu	v0,v0,4
1d008ff0:	32004050 	beqzl	v0,0x1d0090bc
1d008ff4:	01a0023c 	lui	v0,0xa001
1d008ff8:	2024400b 	j	0x1d009080
1d008ffc:	00a0023c 	lui	v0,0xa000
1d009000:	9c33428c 	lw	v0,13212(v0)
1d009004:	0400422c 	sltiu	v0,v0,4
1d009008:	32004050 	beqzl	v0,0x1d0090d4
1d00900c:	01a0023c 	lui	v0,0xa001
1d009010:	2024400b 	j	0x1d009080
1d009014:	00a0023c 	lui	v0,0xa000
1d009018:	2835438c 	lw	v1,13608(v0)
1d00901c:	8100023c 	lui	v0,0x81
1d009020:	24186200 	and	v1,v1,v0
1d009024:	0100023c 	lui	v0,0x1
1d009028:	15006214 	bne	v1,v0,0x1d009080
1d00902c:	00a0023c 	lui	v0,0xa000
1d009030:	00a0023c 	lui	v0,0xa000
1d009034:	8a014290 	lbu	v0,394(v0)
1d009038:	10004014 	bnez	v0,0x1d00907c
1d00903c:	00a0023c 	lui	v0,0xa000
1d009040:	8b014290 	lbu	v0,395(v0)
1d009044:	0e004014 	bnez	v0,0x1d009080
1d009048:	00a0023c 	lui	v0,0xa000
1d00904c:	8f6c400f 	jal	0x1d01b23c
1d009050:	00000000 	nop
1d009054:	05004010 	beqz	v0,0x1d00906c
1d009058:	00000000 	nop
1d00905c:	9a6c400f 	jal	0x1d01b268
1d009060:	00000000 	nop
1d009064:	06004010 	beqz	v0,0x1d009080
1d009068:	00a0023c 	lui	v0,0xa000
1d00906c:	c073400f 	jal	0x1d01cf00
1d009070:	00000000 	nop
1d009074:	0b004050 	beqzl	v0,0x1d0090a4
1d009078:	02000292 	lbu	v0,2(s0)
1d00907c:	00a0023c 	lui	v0,0xa000
1d009080:	80014224 	addiu	v0,v0,384
1d009084:	7000448c 	lw	a0,112(v0)
1d009088:	80180400 	sll	v1,a0,0x2
1d00908c:	00210400 	sll	a0,a0,0x4
1d009090:	21186400 	addu	v1,v1,a0
1d009094:	80200300 	sll	a0,v1,0x2
1d009098:	21186400 	addu	v1,v1,a0
1d00909c:	6c0043ac 	sw	v1,108(v0)
1d0090a0:	02000292 	lbu	v0,2(s0)
1d0090a4:	0430027c 	ins	v0,zero,0x0,0x7
1d0090a8:	ff004230 	andi	v0,v0,0xff
1d0090ac:	0e004010 	beqz	v0,0x1d0090e8
1d0090b0:	00a0023c 	lui	v0,0xa000
1d0090b4:	3a24400b 	j	0x1d0090e8
1d0090b8:	ec0140ac 	sw	zero,492(v0)
1d0090bc:	fc33428c 	lw	v0,13308(v0)
1d0090c0:	0400422c 	sltiu	v0,v0,4
1d0090c4:	ceff4050 	beqzl	v0,0x1d009000
1d0090c8:	01a0023c 	lui	v0,0xa001
1d0090cc:	2024400b 	j	0x1d009080
1d0090d0:	00a0023c 	lui	v0,0xa000
1d0090d4:	3035428c 	lw	v0,13616(v0)
1d0090d8:	cfff4054 	bnezl	v0,0x1d009018
1d0090dc:	01a0023c 	lui	v0,0xa001
1d0090e0:	2024400b 	j	0x1d009080
1d0090e4:	00a0023c 	lui	v0,0xa000
1d0090e8:	1400bf8f 	lw	ra,20(sp)
1d0090ec:	1000b08f 	lw	s0,16(sp)
1d0090f0:	0800e003 	jr	ra
1d0090f4:	1800bd27 	addiu	sp,sp,24
1d0090f8:	d8ffbd27 	addiu	sp,sp,-40
1d0090fc:	2400bfaf 	sw	ra,36(sp)
1d009100:	2000b4af 	sw	s4,32(sp)
1d009104:	1c00b3af 	sw	s3,28(sp)
1d009108:	1800b2af 	sw	s2,24(sp)
1d00910c:	1400b1af 	sw	s1,20(sp)
1d009110:	1000b0af 	sw	s0,16(sp)
1d009114:	21808000 	move	s0,a0
1d009118:	01a0023c 	lui	v0,0xa001
1d00911c:	e434428c 	lw	v0,13540(v0)
1d009120:	ffff0324 	li	v1,-1
1d009124:	04004310 	beq	v0,v1,0x1d009138
1d009128:	2198a000 	move	s3,a1
1d00912c:	01004224 	addiu	v0,v0,1
1d009130:	01a0033c 	lui	v1,0xa001
1d009134:	e43462ac 	sw	v0,13540(v1)
1d009138:	0400028e 	lw	v0,4(s0)
1d00913c:	0007527c 	ext	s2,v0,0x1c,0x1
1d009140:	08004012 	beqz	s2,0x1d009164
1d009144:	0f005430 	andi	s4,v0,0xf
1d009148:	0000118e 	lw	s1,0(s0)
1d00914c:	ff073132 	andi	s1,s1,0x7ff
1d009150:	808c1100 	sll	s1,s1,0x12
1d009154:	0400028e 	lw	v0,4(s0)
1d009158:	808a427c 	ext	v0,v0,0xa,0x12
1d00915c:	5b24400b 	j	0x1d00916c
1d009160:	25882202 	or	s1,s1,v0
1d009164:	0000118e 	lw	s1,0(s0)
1d009168:	ff073132 	andi	s1,s1,0x7ff
1d00916c:	cf54400f 	jal	0x1d01533c
1d009170:	00000000 	nop
1d009174:	07004014 	bnez	v0,0x1d009194
1d009178:	7e000224 	li	v0,126
1d00917c:	3d022212 	beq	s1,v0,0x1d009a74
1d009180:	7f000224 	li	v0,127
1d009184:	4f022216 	bne	s1,v0,0x1d009ac4
1d009188:	2400bf8f 	lw	ra,36(sp)
1d00918c:	a126400b 	j	0x1d009a84
1d009190:	00000000 	nop
1d009194:	4a024016 	bnez	s2,0x1d009ac0
1d009198:	a0ff2226 	addiu	v0,s1,-96
1d00919c:	2000432c 	sltiu	v1,v0,32
1d0091a0:	12026010 	beqz	v1,0x1d0099ec
1d0091a4:	80100200 	sll	v0,v0,0x2
1d0091a8:	019d033c 	lui	v1,0x9d01
1d0091ac:	c0916324 	addiu	v1,v1,-28224
1d0091b0:	21106200 	addu	v0,v1,v0
1d0091b4:	0000428c 	lw	v0,0(v0)
1d0091b8:	08004000 	jr	v0
1d0091bc:	00000000 	nop
1d0091c0:	4092009d 	0x9d009240
1d0091c4:	a092009d 	0x9d0092a0
1d0091c8:	7493009d 	0x9d009374
1d0091cc:	d493009d 	0x9d0093d4
1d0091d0:	a894009d 	0x9d0094a8
1d0091d4:	1495009d 	0x9d009514
1d0091d8:	f495009d 	0x9d0095f4
1d0091dc:	4c96009d 	0x9d00964c
1d0091e0:	0098009d 	0x9d009800
1d0091e4:	ec99009d 	0x9d0099ec
1d0091e8:	ec99009d 	0x9d0099ec
1d0091ec:	ec99009d 	0x9d0099ec
1d0091f0:	ec99009d 	0x9d0099ec
1d0091f4:	ec99009d 	0x9d0099ec
1d0091f8:	ec99009d 	0x9d0099ec
1d0091fc:	ec99009d 	0x9d0099ec
1d009200:	ec99009d 	0x9d0099ec
1d009204:	ec99009d 	0x9d0099ec
1d009208:	ec99009d 	0x9d0099ec
1d00920c:	ec99009d 	0x9d0099ec
1d009210:	ec99009d 	0x9d0099ec
1d009214:	ec99009d 	0x9d0099ec
1d009218:	5c98009d 	0x9d00985c
1d00921c:	c898009d 	0x9d0098c8
1d009220:	ec99009d 	0x9d0099ec
1d009224:	ec99009d 	0x9d0099ec
1d009228:	ec99009d 	0x9d0099ec
1d00922c:	ec99009d 	0x9d0099ec
1d009230:	ec99009d 	0x9d0099ec
1d009234:	ec99009d 	0x9d0099ec
1d009238:	3499009d 	0x9d009934
1d00923c:	9099009d 	0x9d009990
1d009240:	0800942e 	sltiu	s4,s4,8
1d009244:	05028016 	bnez	s4,0x1d009a5c
1d009248:	08001026 	addiu	s0,s0,8
1d00924c:	816a400f 	jal	0x1d01aa04
1d009250:	21200002 	move	a0,s0
1d009254:	01a0023c 	lui	v0,0xa001
1d009258:	0300048a 	lwl	a0,3(s0)
1d00925c:	0000049a 	lwr	a0,0(s0)
1d009260:	0700038a 	lwl	v1,7(s0)
1d009264:	0400039a 	lwr	v1,4(s0)
1d009268:	e83444ac 	sw	a0,13544(v0)
1d00926c:	e8344224 	addiu	v0,v0,13544
1d009270:	040043ac 	sw	v1,4(v0)
1d009274:	01a0023c 	lui	v0,0xa001
1d009278:	9c324224 	addiu	v0,v0,12956
1d00927c:	64000324 	li	v1,100
1d009280:	540243ac 	sw	v1,596(v0)
1d009284:	5802428c 	lw	v0,600(v0)
1d009288:	ffff0324 	li	v1,-1
1d00928c:	f3014310 	beq	v0,v1,0x1d009a5c
1d009290:	01004224 	addiu	v0,v0,1
1d009294:	01a0033c 	lui	v1,0xa001
1d009298:	9726400b 	j	0x1d009a5c
1d00929c:	f43462ac 	sw	v0,13556(v1)
1d0092a0:	0800942e 	sltiu	s4,s4,8
1d0092a4:	ed018016 	bnez	s4,0x1d009a5c
1d0092a8:	08001226 	addiu	s2,s0,8
1d0092ac:	306b400f 	jal	0x1d01acc0
1d0092b0:	21204002 	move	a0,s2
1d0092b4:	0f000292 	lbu	v0,15(s0)
1d0092b8:	01004330 	andi	v1,v0,0x1
1d0092bc:	1a006014 	bnez	v1,0x1d009328
1d0092c0:	01a0033c 	lui	v1,0xa001
1d0092c4:	0035638c 	lw	v1,13568(v1)
1d0092c8:	17006010 	beqz	v1,0x1d009328
1d0092cc:	01a0033c 	lui	v1,0xa001
1d0092d0:	fc34638c 	lw	v1,13564(v1)
1d0092d4:	0006647c 	ext	a0,v1,0x18,0x1
1d0092d8:	13008010 	beqz	a0,0x1d009328
1d0092dc:	01a0043c 	lui	a0,0xa001
1d0092e0:	e834848c 	lw	a0,13544(a0)
1d0092e4:	0006847c 	ext	a0,a0,0x18,0x1
1d0092e8:	0e008054 	bnezl	a0,0x1d009324
1d0092ec:	e8030224 	li	v0,1000
1d0092f0:	02004430 	andi	a0,v0,0x2
1d0092f4:	ff008430 	andi	a0,a0,0xff
1d0092f8:	0a008054 	bnezl	a0,0x1d009324
1d0092fc:	e8030224 	li	v0,1000
1d009300:	80004430 	andi	a0,v0,0x80
1d009304:	ff008430 	andi	a0,a0,0xff
1d009308:	04008050 	beqzl	a0,0x1d00931c
1d00930c:	30004230 	andi	v0,v0,0x30
1d009310:	04006304 	bgezl	v1,0x1d009324
1d009314:	e8030224 	li	v0,1000
1d009318:	30004230 	andi	v0,v0,0x30
1d00931c:	02004010 	beqz	v0,0x1d009328
1d009320:	e8030224 	li	v0,1000
1d009324:	d08082af 	sw	v0,-32560(gp)
1d009328:	01a0023c 	lui	v0,0xa001
1d00932c:	0300448a 	lwl	a0,3(s2)
1d009330:	0000449a 	lwr	a0,0(s2)
1d009334:	0700438a 	lwl	v1,7(s2)
1d009338:	0400439a 	lwr	v1,4(s2)
1d00933c:	f83444ac 	sw	a0,13560(v0)
1d009340:	f8344224 	addiu	v0,v0,13560
1d009344:	040043ac 	sw	v1,4(v0)
1d009348:	01a0023c 	lui	v0,0xa001
1d00934c:	9c324224 	addiu	v0,v0,12956
1d009350:	64000324 	li	v1,100
1d009354:	640243ac 	sw	v1,612(v0)
1d009358:	6802428c 	lw	v0,616(v0)
1d00935c:	ffff0324 	li	v1,-1
1d009360:	be014310 	beq	v0,v1,0x1d009a5c
1d009364:	01004224 	addiu	v0,v0,1
1d009368:	01a0033c 	lui	v1,0xa001
1d00936c:	9726400b 	j	0x1d009a5c
1d009370:	043562ac 	sw	v0,13572(v1)
1d009374:	0800942e 	sltiu	s4,s4,8
1d009378:	b8018016 	bnez	s4,0x1d009a5c
1d00937c:	08001026 	addiu	s0,s0,8
1d009380:	bb6a400f 	jal	0x1d01aaec
1d009384:	21200002 	move	a0,s0
1d009388:	01a0023c 	lui	v0,0xa001
1d00938c:	0300048a 	lwl	a0,3(s0)
1d009390:	0000049a 	lwr	a0,0(s0)
1d009394:	0700038a 	lwl	v1,7(s0)
1d009398:	0400039a 	lwr	v1,4(s0)
1d00939c:	083544ac 	sw	a0,13576(v0)
1d0093a0:	08354224 	addiu	v0,v0,13576
1d0093a4:	040043ac 	sw	v1,4(v0)
1d0093a8:	01a0023c 	lui	v0,0xa001
1d0093ac:	9c324224 	addiu	v0,v0,12956
1d0093b0:	64000324 	li	v1,100
1d0093b4:	740243ac 	sw	v1,628(v0)
1d0093b8:	7802428c 	lw	v0,632(v0)
1d0093bc:	ffff0324 	li	v1,-1
1d0093c0:	a6014310 	beq	v0,v1,0x1d009a5c
1d0093c4:	01004224 	addiu	v0,v0,1
1d0093c8:	01a0033c 	lui	v1,0xa001
1d0093cc:	9726400b 	j	0x1d009a5c
1d0093d0:	143562ac 	sw	v0,13588(v1)
1d0093d4:	0800942e 	sltiu	s4,s4,8
1d0093d8:	a0018016 	bnez	s4,0x1d009a5c
1d0093dc:	08001226 	addiu	s2,s0,8
1d0093e0:	9b6b400f 	jal	0x1d01ae6c
1d0093e4:	21204002 	move	a0,s2
1d0093e8:	0f000292 	lbu	v0,15(s0)
1d0093ec:	01004330 	andi	v1,v0,0x1
1d0093f0:	1a006014 	bnez	v1,0x1d00945c
1d0093f4:	01a0033c 	lui	v1,0xa001
1d0093f8:	2035638c 	lw	v1,13600(v1)
1d0093fc:	17006010 	beqz	v1,0x1d00945c
1d009400:	01a0033c 	lui	v1,0xa001
1d009404:	1c35638c 	lw	v1,13596(v1)
1d009408:	0006647c 	ext	a0,v1,0x18,0x1
1d00940c:	13008010 	beqz	a0,0x1d00945c
1d009410:	01a0043c 	lui	a0,0xa001
1d009414:	0835848c 	lw	a0,13576(a0)
1d009418:	0006847c 	ext	a0,a0,0x18,0x1
1d00941c:	0e008054 	bnezl	a0,0x1d009458
1d009420:	e8030224 	li	v0,1000
1d009424:	02004430 	andi	a0,v0,0x2
1d009428:	ff008430 	andi	a0,a0,0xff
1d00942c:	0a008054 	bnezl	a0,0x1d009458
1d009430:	e8030224 	li	v0,1000
1d009434:	80004430 	andi	a0,v0,0x80
1d009438:	ff008430 	andi	a0,a0,0xff
1d00943c:	04008050 	beqzl	a0,0x1d009450
1d009440:	30004230 	andi	v0,v0,0x30
1d009444:	04006304 	bgezl	v1,0x1d009458
1d009448:	e8030224 	li	v0,1000
1d00944c:	30004230 	andi	v0,v0,0x30
1d009450:	02004010 	beqz	v0,0x1d00945c
1d009454:	e8030224 	li	v0,1000
1d009458:	d08082af 	sw	v0,-32560(gp)
1d00945c:	01a0023c 	lui	v0,0xa001
1d009460:	0300448a 	lwl	a0,3(s2)
1d009464:	0000449a 	lwr	a0,0(s2)
1d009468:	0700438a 	lwl	v1,7(s2)
1d00946c:	0400439a 	lwr	v1,4(s2)
1d009470:	183544ac 	sw	a0,13592(v0)
1d009474:	18354224 	addiu	v0,v0,13592
1d009478:	040043ac 	sw	v1,4(v0)
1d00947c:	01a0023c 	lui	v0,0xa001
1d009480:	9c324224 	addiu	v0,v0,12956
1d009484:	64000324 	li	v1,100
1d009488:	840243ac 	sw	v1,644(v0)
1d00948c:	8802428c 	lw	v0,648(v0)
1d009490:	ffff0324 	li	v1,-1
1d009494:	71014310 	beq	v0,v1,0x1d009a5c
1d009498:	01004224 	addiu	v0,v0,1
1d00949c:	01a0033c 	lui	v1,0xa001
1d0094a0:	9726400b 	j	0x1d009a5c
1d0094a4:	243562ac 	sw	v0,13604(v1)
1d0094a8:	0800822e 	sltiu	v0,s4,8
1d0094ac:	53014054 	bnezl	v0,0x1d0099fc
1d0094b0:	fcff9426 	addiu	s4,s4,-4
1d0094b4:	08001226 	addiu	s2,s0,8
1d0094b8:	f56a400f 	jal	0x1d01abd4
1d0094bc:	21204002 	move	a0,s2
1d0094c0:	be23400f 	jal	0x1d008ef8
1d0094c4:	21204002 	move	a0,s2
1d0094c8:	01a0023c 	lui	v0,0xa001
1d0094cc:	0300448a 	lwl	a0,3(s2)
1d0094d0:	0000449a 	lwr	a0,0(s2)
1d0094d4:	0700438a 	lwl	v1,7(s2)
1d0094d8:	0400439a 	lwr	v1,4(s2)
1d0094dc:	283544ac 	sw	a0,13608(v0)
1d0094e0:	28354224 	addiu	v0,v0,13608
1d0094e4:	040043ac 	sw	v1,4(v0)
1d0094e8:	01a0023c 	lui	v0,0xa001
1d0094ec:	9c324224 	addiu	v0,v0,12956
1d0094f0:	64000324 	li	v1,100
1d0094f4:	940243ac 	sw	v1,660(v0)
1d0094f8:	9802428c 	lw	v0,664(v0)
1d0094fc:	ffff0324 	li	v1,-1
1d009500:	3d014310 	beq	v0,v1,0x1d0099f8
1d009504:	01004224 	addiu	v0,v0,1
1d009508:	01a0033c 	lui	v1,0xa001
1d00950c:	7e26400b 	j	0x1d0099f8
1d009510:	343562ac 	sw	v0,13620(v1)
1d009514:	0800942e 	sltiu	s4,s4,8
1d009518:	50018016 	bnez	s4,0x1d009a5c
1d00951c:	08001226 	addiu	s2,s0,8
1d009520:	076c400f 	jal	0x1d01b01c
1d009524:	21204002 	move	a0,s2
1d009528:	0f000292 	lbu	v0,15(s0)
1d00952c:	01004330 	andi	v1,v0,0x1
1d009530:	1a006014 	bnez	v1,0x1d00959c
1d009534:	01a0033c 	lui	v1,0xa001
1d009538:	4035638c 	lw	v1,13632(v1)
1d00953c:	17006010 	beqz	v1,0x1d00959c
1d009540:	01a0033c 	lui	v1,0xa001
1d009544:	3c35638c 	lw	v1,13628(v1)
1d009548:	0006647c 	ext	a0,v1,0x18,0x1
1d00954c:	13008010 	beqz	a0,0x1d00959c
1d009550:	01a0043c 	lui	a0,0xa001
1d009554:	2835848c 	lw	a0,13608(a0)
1d009558:	0004847c 	ext	a0,a0,0x10,0x1
1d00955c:	0e008054 	bnezl	a0,0x1d009598
1d009560:	e8030224 	li	v0,1000
1d009564:	02004430 	andi	a0,v0,0x2
1d009568:	ff008430 	andi	a0,a0,0xff
1d00956c:	0a008054 	bnezl	a0,0x1d009598
1d009570:	e8030224 	li	v0,1000
1d009574:	80004430 	andi	a0,v0,0x80
1d009578:	ff008430 	andi	a0,a0,0xff
1d00957c:	04008050 	beqzl	a0,0x1d009590
1d009580:	30004230 	andi	v0,v0,0x30
1d009584:	04006304 	bgezl	v1,0x1d009598
1d009588:	e8030224 	li	v0,1000
1d00958c:	30004230 	andi	v0,v0,0x30
1d009590:	02004010 	beqz	v0,0x1d00959c
1d009594:	e8030224 	li	v0,1000
1d009598:	d08082af 	sw	v0,-32560(gp)
1d00959c:	f4010324 	li	v1,500
1d0095a0:	00a0023c 	lui	v0,0xa000
1d0095a4:	840143ac 	sw	v1,388(v0)
1d0095a8:	01a0023c 	lui	v0,0xa001
1d0095ac:	0300448a 	lwl	a0,3(s2)
1d0095b0:	0000449a 	lwr	a0,0(s2)
1d0095b4:	0700438a 	lwl	v1,7(s2)
1d0095b8:	0400439a 	lwr	v1,4(s2)
1d0095bc:	383544ac 	sw	a0,13624(v0)
1d0095c0:	38354224 	addiu	v0,v0,13624
1d0095c4:	040043ac 	sw	v1,4(v0)
1d0095c8:	01a0023c 	lui	v0,0xa001
1d0095cc:	9c324224 	addiu	v0,v0,12956
1d0095d0:	64000324 	li	v1,100
1d0095d4:	a40243ac 	sw	v1,676(v0)
1d0095d8:	a802428c 	lw	v0,680(v0)
1d0095dc:	ffff0324 	li	v1,-1
1d0095e0:	1e014310 	beq	v0,v1,0x1d009a5c
1d0095e4:	01004224 	addiu	v0,v0,1
1d0095e8:	01a0033c 	lui	v1,0xa001
1d0095ec:	9726400b 	j	0x1d009a5c
1d0095f0:	443562ac 	sw	v0,13636(v1)
1d0095f4:	19018012 	beqz	s4,0x1d009a5c
1d0095f8:	08001026 	addiu	s0,s0,8
1d0095fc:	4321400f 	jal	0x1d00850c
1d009600:	21200002 	move	a0,s0
1d009604:	01a0023c 	lui	v0,0xa001
1d009608:	0300048a 	lwl	a0,3(s0)
1d00960c:	0000049a 	lwr	a0,0(s0)
1d009610:	0700038a 	lwl	v1,7(s0)
1d009614:	0400039a 	lwr	v1,4(s0)
1d009618:	483544ac 	sw	a0,13640(v0)
1d00961c:	48354224 	addiu	v0,v0,13640
1d009620:	040043ac 	sw	v1,4(v0)
1d009624:	01a0023c 	lui	v0,0xa001
1d009628:	9c324224 	addiu	v0,v0,12956
1d00962c:	b40240ac 	sw	zero,692(v0)
1d009630:	b802428c 	lw	v0,696(v0)
1d009634:	ffff0324 	li	v1,-1
1d009638:	08014310 	beq	v0,v1,0x1d009a5c
1d00963c:	01004224 	addiu	v0,v0,1
1d009640:	01a0033c 	lui	v1,0xa001
1d009644:	9726400b 	j	0x1d009a5c
1d009648:	543562ac 	sw	v0,13652(v1)
1d00964c:	0200942e 	sltiu	s4,s4,2
1d009650:	02018016 	bnez	s4,0x1d009a5c
1d009654:	00a0023c 	lui	v0,0xa000
1d009658:	58014224 	addiu	v0,v0,344
1d00965c:	f4010324 	li	v1,500
1d009660:	040043ac 	sw	v1,4(v0)
1d009664:	0c0040ac 	sw	zero,12(v0)
1d009668:	01a0023c 	lui	v0,0xa001
1d00966c:	6035428c 	lw	v0,13664(v0)
1d009670:	50004010 	beqz	v0,0x1d0097b4
1d009674:	08001226 	addiu	s2,s0,8
1d009678:	01a0023c 	lui	v0,0xa001
1d00967c:	5835428c 	lw	v0,13656(v0)
1d009680:	08004230 	andi	v0,v0,0x8
1d009684:	4c004014 	bnez	v0,0x1d0097b8
1d009688:	01a0023c 	lui	v0,0xa001
1d00968c:	08000292 	lbu	v0,8(s0)
1d009690:	08004230 	andi	v0,v0,0x8
1d009694:	ff004230 	andi	v0,v0,0xff
1d009698:	46004010 	beqz	v0,0x1d0097b4
1d00969c:	01a0023c 	lui	v0,0xa001
1d0096a0:	0035428c 	lw	v0,13568(v0)
1d0096a4:	07004010 	beqz	v0,0x1d0096c4
1d0096a8:	01a0023c 	lui	v0,0xa001
1d0096ac:	01a0023c 	lui	v0,0xa001
1d0096b0:	fc34428c 	lw	v0,13564(v0)
1d0096b4:	0006427c 	ext	v0,v0,0x18,0x1
1d0096b8:	3d004014 	bnez	v0,0x1d0097b0
1d0096bc:	e8030224 	li	v0,1000
1d0096c0:	01a0023c 	lui	v0,0xa001
1d0096c4:	2035428c 	lw	v0,13600(v0)
1d0096c8:	07004010 	beqz	v0,0x1d0096e8
1d0096cc:	01a0023c 	lui	v0,0xa001
1d0096d0:	01a0023c 	lui	v0,0xa001
1d0096d4:	1c35428c 	lw	v0,13596(v0)
1d0096d8:	0006427c 	ext	v0,v0,0x18,0x1
1d0096dc:	34004014 	bnez	v0,0x1d0097b0
1d0096e0:	e8030224 	li	v0,1000
1d0096e4:	01a0023c 	lui	v0,0xa001
1d0096e8:	4035428c 	lw	v0,13632(v0)
1d0096ec:	05004010 	beqz	v0,0x1d009704
1d0096f0:	01a0023c 	lui	v0,0xa001
1d0096f4:	3c35428c 	lw	v0,13628(v0)
1d0096f8:	0006427c 	ext	v0,v0,0x18,0x1
1d0096fc:	2c004014 	bnez	v0,0x1d0097b0
1d009700:	e8030224 	li	v0,1000
1d009704:	01a0023c 	lui	v0,0xa001
1d009708:	c034428c 	lw	v0,13504(v0)
1d00970c:	0400422c 	sltiu	v0,v0,4
1d009710:	29004014 	bnez	v0,0x1d0097b8
1d009714:	01a0023c 	lui	v0,0xa001
1d009718:	01a0023c 	lui	v0,0xa001
1d00971c:	e034428c 	lw	v0,13536(v0)
1d009720:	0400422c 	sltiu	v0,v0,4
1d009724:	db004050 	beqzl	v0,0x1d009a94
1d009728:	01a0023c 	lui	v0,0xa001
1d00972c:	ee25400b 	j	0x1d0097b8
1d009730:	01a0023c 	lui	v0,0xa001
1d009734:	9c33428c 	lw	v0,13212(v0)
1d009738:	0400422c 	sltiu	v0,v0,4
1d00973c:	db004050 	beqzl	v0,0x1d009aac
1d009740:	01a0023c 	lui	v0,0xa001
1d009744:	ee25400b 	j	0x1d0097b8
1d009748:	01a0023c 	lui	v0,0xa001
1d00974c:	2835428c 	lw	v0,13608(v0)
1d009750:	8100033c 	lui	v1,0x81
1d009754:	24186200 	and	v1,v1,v0
1d009758:	0100023c 	lui	v0,0x1
1d00975c:	16006214 	bne	v1,v0,0x1d0097b8
1d009760:	01a0023c 	lui	v0,0xa001
1d009764:	00a0023c 	lui	v0,0xa000
1d009768:	8a014290 	lbu	v0,394(v0)
1d00976c:	11004014 	bnez	v0,0x1d0097b4
1d009770:	00a0023c 	lui	v0,0xa000
1d009774:	8b014290 	lbu	v0,395(v0)
1d009778:	0f004014 	bnez	v0,0x1d0097b8
1d00977c:	01a0023c 	lui	v0,0xa001
1d009780:	8f6c400f 	jal	0x1d01b23c
1d009784:	00000000 	nop
1d009788:	05004010 	beqz	v0,0x1d0097a0
1d00978c:	00000000 	nop
1d009790:	9a6c400f 	jal	0x1d01b268
1d009794:	00000000 	nop
1d009798:	07004010 	beqz	v0,0x1d0097b8
1d00979c:	01a0023c 	lui	v0,0xa001
1d0097a0:	c073400f 	jal	0x1d01cf00
1d0097a4:	00000000 	nop
1d0097a8:	02004014 	bnez	v0,0x1d0097b4
1d0097ac:	e8030224 	li	v0,1000
1d0097b0:	d08082af 	sw	v0,-32560(gp)
1d0097b4:	01a0023c 	lui	v0,0xa001
1d0097b8:	0300448a 	lwl	a0,3(s2)
1d0097bc:	0000449a 	lwr	a0,0(s2)
1d0097c0:	0700438a 	lwl	v1,7(s2)
1d0097c4:	0400439a 	lwr	v1,4(s2)
1d0097c8:	583544ac 	sw	a0,13656(v0)
1d0097cc:	58354224 	addiu	v0,v0,13656
1d0097d0:	040043ac 	sw	v1,4(v0)
1d0097d4:	01a0023c 	lui	v0,0xa001
1d0097d8:	9c324224 	addiu	v0,v0,12956
1d0097dc:	c8000324 	li	v1,200
1d0097e0:	c40243ac 	sw	v1,708(v0)
1d0097e4:	c802428c 	lw	v0,712(v0)
1d0097e8:	ffff0324 	li	v1,-1
1d0097ec:	9b004310 	beq	v0,v1,0x1d009a5c
1d0097f0:	01004224 	addiu	v0,v0,1
1d0097f4:	01a0033c 	lui	v1,0xa001
1d0097f8:	9726400b 	j	0x1d009a5c
1d0097fc:	643562ac 	sw	v0,13668(v1)
1d009800:	96008012 	beqz	s4,0x1d009a5c
1d009804:	08001026 	addiu	s0,s0,8
1d009808:	0822400f 	jal	0x1d008820
1d00980c:	21200002 	move	a0,s0
1d009810:	01a0023c 	lui	v0,0xa001
1d009814:	0300048a 	lwl	a0,3(s0)
1d009818:	0000049a 	lwr	a0,0(s0)
1d00981c:	0700038a 	lwl	v1,7(s0)
1d009820:	0400039a 	lwr	v1,4(s0)
1d009824:	683544ac 	sw	a0,13672(v0)
1d009828:	68354224 	addiu	v0,v0,13672
1d00982c:	040043ac 	sw	v1,4(v0)
1d009830:	01a0023c 	lui	v0,0xa001
1d009834:	9c324224 	addiu	v0,v0,12956
1d009838:	c8000324 	li	v1,200
1d00983c:	d40243ac 	sw	v1,724(v0)
1d009840:	d802428c 	lw	v0,728(v0)
1d009844:	ffff0324 	li	v1,-1
1d009848:	84004310 	beq	v0,v1,0x1d009a5c
1d00984c:	01004224 	addiu	v0,v0,1
1d009850:	01a0033c 	lui	v1,0xa001
1d009854:	9726400b 	j	0x1d009a5c
1d009858:	743562ac 	sw	v0,13684(v1)
1d00985c:	0800942e 	sltiu	s4,s4,8
1d009860:	7e008016 	bnez	s4,0x1d009a5c
1d009864:	00000000 	nop
1d009868:	cf54400f 	jal	0x1d01533c
1d00986c:	08001026 	addiu	s0,s0,8
1d009870:	21200002 	move	a0,s0
1d009874:	0869400f 	jal	0x1d01a420
1d009878:	21284000 	move	a1,v0
1d00987c:	01a0023c 	lui	v0,0xa001
1d009880:	0300048a 	lwl	a0,3(s0)
1d009884:	0000049a 	lwr	a0,0(s0)
1d009888:	0700038a 	lwl	v1,7(s0)
1d00988c:	0400039a 	lwr	v1,4(s0)
1d009890:	783544ac 	sw	a0,13688(v0)
1d009894:	78354224 	addiu	v0,v0,13688
1d009898:	040043ac 	sw	v1,4(v0)
1d00989c:	01a0023c 	lui	v0,0xa001
1d0098a0:	9c324224 	addiu	v0,v0,12956
1d0098a4:	64000324 	li	v1,100
1d0098a8:	e40243ac 	sw	v1,740(v0)
1d0098ac:	e802428c 	lw	v0,744(v0)
1d0098b0:	ffff0324 	li	v1,-1
1d0098b4:	69004310 	beq	v0,v1,0x1d009a5c
1d0098b8:	01004224 	addiu	v0,v0,1
1d0098bc:	01a0033c 	lui	v1,0xa001
1d0098c0:	9726400b 	j	0x1d009a5c
1d0098c4:	843562ac 	sw	v0,13700(v1)
1d0098c8:	0800942e 	sltiu	s4,s4,8
1d0098cc:	63008016 	bnez	s4,0x1d009a5c
1d0098d0:	00000000 	nop
1d0098d4:	cf54400f 	jal	0x1d01533c
1d0098d8:	08001026 	addiu	s0,s0,8
1d0098dc:	21200002 	move	a0,s0
1d0098e0:	1969400f 	jal	0x1d01a464
1d0098e4:	21284000 	move	a1,v0
1d0098e8:	01a0023c 	lui	v0,0xa001
1d0098ec:	0300048a 	lwl	a0,3(s0)
1d0098f0:	0000049a 	lwr	a0,0(s0)
1d0098f4:	0700038a 	lwl	v1,7(s0)
1d0098f8:	0400039a 	lwr	v1,4(s0)
1d0098fc:	883544ac 	sw	a0,13704(v0)
1d009900:	88354224 	addiu	v0,v0,13704
1d009904:	040043ac 	sw	v1,4(v0)
1d009908:	01a0023c 	lui	v0,0xa001
1d00990c:	9c324224 	addiu	v0,v0,12956
1d009910:	e8030324 	li	v1,1000
1d009914:	f40243ac 	sw	v1,756(v0)
1d009918:	f802428c 	lw	v0,760(v0)
1d00991c:	ffff0324 	li	v1,-1
1d009920:	4e004310 	beq	v0,v1,0x1d009a5c
1d009924:	01004224 	addiu	v0,v0,1
1d009928:	01a0033c 	lui	v1,0xa001
1d00992c:	9726400b 	j	0x1d009a5c
1d009930:	943562ac 	sw	v0,13716(v1)
1d009934:	0800942e 	sltiu	s4,s4,8
1d009938:	48008016 	bnez	s4,0x1d009a5c
1d00993c:	08001026 	addiu	s0,s0,8
1d009940:	cd7a400f 	jal	0x1d01eb34
1d009944:	21200002 	move	a0,s0
1d009948:	01a0023c 	lui	v0,0xa001
1d00994c:	0300048a 	lwl	a0,3(s0)
1d009950:	0000049a 	lwr	a0,0(s0)
1d009954:	0700038a 	lwl	v1,7(s0)
1d009958:	0400039a 	lwr	v1,4(s0)
1d00995c:	983544ac 	sw	a0,13720(v0)
1d009960:	98354224 	addiu	v0,v0,13720
1d009964:	040043ac 	sw	v1,4(v0)
1d009968:	01a0023c 	lui	v0,0xa001
1d00996c:	9c324224 	addiu	v0,v0,12956
1d009970:	040340ac 	sw	zero,772(v0)
1d009974:	0803428c 	lw	v0,776(v0)
1d009978:	ffff0324 	li	v1,-1
1d00997c:	37004310 	beq	v0,v1,0x1d009a5c
1d009980:	01004224 	addiu	v0,v0,1
1d009984:	01a0033c 	lui	v1,0xa001
1d009988:	9726400b 	j	0x1d009a5c
1d00998c:	a43562ac 	sw	v0,13732(v1)
1d009990:	0800942e 	sltiu	s4,s4,8
1d009994:	31008016 	bnez	s4,0x1d009a5c
1d009998:	08001026 	addiu	s0,s0,8
1d00999c:	6989400f 	jal	0x1d0225a4
1d0099a0:	21200002 	move	a0,s0
1d0099a4:	01a0023c 	lui	v0,0xa001
1d0099a8:	0300048a 	lwl	a0,3(s0)
1d0099ac:	0000049a 	lwr	a0,0(s0)
1d0099b0:	0700038a 	lwl	v1,7(s0)
1d0099b4:	0400039a 	lwr	v1,4(s0)
1d0099b8:	a83544ac 	sw	a0,13736(v0)
1d0099bc:	a8354224 	addiu	v0,v0,13736
1d0099c0:	040043ac 	sw	v1,4(v0)
1d0099c4:	01a0023c 	lui	v0,0xa001
1d0099c8:	9c324224 	addiu	v0,v0,12956
1d0099cc:	140340ac 	sw	zero,788(v0)
1d0099d0:	1803428c 	lw	v0,792(v0)
1d0099d4:	ffff0324 	li	v1,-1
1d0099d8:	20004310 	beq	v0,v1,0x1d009a5c
1d0099dc:	01004224 	addiu	v0,v0,1
1d0099e0:	01a0033c 	lui	v1,0xa001
1d0099e4:	9726400b 	j	0x1d009a5c
1d0099e8:	b43562ac 	sw	v0,13748(v1)
1d0099ec:	64000224 	li	v0,100
1d0099f0:	1a002216 	bne	s1,v0,0x1d009a5c
1d0099f4:	00000000 	nop
1d0099f8:	fcff9426 	addiu	s4,s4,-4
1d0099fc:	ff009432 	andi	s4,s4,0xff
1d009a00:	0400942e 	sltiu	s4,s4,4
1d009a04:	15008012 	beqz	s4,0x1d009a5c
1d009a08:	08001026 	addiu	s0,s0,8
1d009a0c:	be23400f 	jal	0x1d008ef8
1d009a10:	21200002 	move	a0,s0
1d009a14:	01a0023c 	lui	v0,0xa001
1d009a18:	0300048a 	lwl	a0,3(s0)
1d009a1c:	0000049a 	lwr	a0,0(s0)
1d009a20:	0700038a 	lwl	v1,7(s0)
1d009a24:	0400039a 	lwr	v1,4(s0)
1d009a28:	283544ac 	sw	a0,13608(v0)
1d009a2c:	28354224 	addiu	v0,v0,13608
1d009a30:	040043ac 	sw	v1,4(v0)
1d009a34:	01a0023c 	lui	v0,0xa001
1d009a38:	9c324224 	addiu	v0,v0,12956
1d009a3c:	64000324 	li	v1,100
1d009a40:	940243ac 	sw	v1,660(v0)
1d009a44:	9802428c 	lw	v0,664(v0)
1d009a48:	ffff0324 	li	v1,-1
1d009a4c:	03004310 	beq	v0,v1,0x1d009a5c
1d009a50:	01004224 	addiu	v0,v0,1
1d009a54:	01a0033c 	lui	v1,0xa001
1d009a58:	343562ac 	sw	v0,13620(v1)
1d009a5c:	19006056 	bnezl	s3,0x1d009ac4
1d009a60:	2400bf8f 	lw	ra,36(sp)
1d009a64:	5369400f 	jal	0x1d01a54c
1d009a68:	21202002 	move	a0,s1
1d009a6c:	b126400b 	j	0x1d009ac4
1d009a70:	2400bf8f 	lw	ra,36(sp)
1d009a74:	b0ff4012 	beqz	s2,0x1d009938
1d009a78:	0800942e 	sltiu	s4,s4,8
1d009a7c:	b126400b 	j	0x1d009ac4
1d009a80:	2400bf8f 	lw	ra,36(sp)
1d009a84:	c3ff4012 	beqz	s2,0x1d009994
1d009a88:	0800942e 	sltiu	s4,s4,8
1d009a8c:	b126400b 	j	0x1d009ac4
1d009a90:	2400bf8f 	lw	ra,36(sp)
1d009a94:	fc33428c 	lw	v0,13308(v0)
1d009a98:	0400422c 	sltiu	v0,v0,4
1d009a9c:	25ff4050 	beqzl	v0,0x1d009734
1d009aa0:	01a0023c 	lui	v0,0xa001
1d009aa4:	ee25400b 	j	0x1d0097b8
1d009aa8:	01a0023c 	lui	v0,0xa001
1d009aac:	3035428c 	lw	v0,13616(v0)
1d009ab0:	26ff4054 	bnezl	v0,0x1d00974c
1d009ab4:	01a0023c 	lui	v0,0xa001
1d009ab8:	ee25400b 	j	0x1d0097b8
1d009abc:	01a0023c 	lui	v0,0xa001
1d009ac0:	2400bf8f 	lw	ra,36(sp)
1d009ac4:	2000b48f 	lw	s4,32(sp)
1d009ac8:	1c00b38f 	lw	s3,28(sp)
1d009acc:	1800b28f 	lw	s2,24(sp)
1d009ad0:	1400b18f 	lw	s1,20(sp)
1d009ad4:	1000b08f 	lw	s0,16(sp)
1d009ad8:	0800e003 	jr	ra
1d009adc:	2800bd27 	addiu	sp,sp,40
1d009ae0:	e8ffbd27 	addiu	sp,sp,-24
1d009ae4:	1400bfaf 	sw	ra,20(sp)
1d009ae8:	1000b0af 	sw	s0,16(sp)
1d009aec:	21808000 	move	s0,a0
1d009af0:	000080a0 	sb	zero,0(a0)
1d009af4:	010080a0 	sb	zero,1(a0)
1d009af8:	020080a0 	sb	zero,2(a0)
1d009afc:	030080a0 	sb	zero,3(a0)
1d009b00:	040080a0 	sb	zero,4(a0)
1d009b04:	050080a0 	sb	zero,5(a0)
1d009b08:	060080a0 	sb	zero,6(a0)
1d009b0c:	070080a0 	sb	zero,7(a0)
1d009b10:	00a0023c 	lui	v0,0xa000
1d009b14:	80014224 	addiu	v0,v0,384
1d009b18:	70004394 	lhu	v1,112(v0)
1d009b1c:	000083a0 	sb	v1,0(a0)
1d009b20:	021a0300 	srl	v1,v1,0x8
1d009b24:	010083a0 	sb	v1,1(a0)
1d009b28:	6c00428c 	lw	v0,108(v0)
1d009b2c:	eb51033c 	lui	v1,0x51eb
1d009b30:	1f856334 	ori	v1,v1,0x851f
1d009b34:	18004300 	mult	v0,v1
1d009b38:	10180000 	mfhi	v1
1d009b3c:	43190300 	sra	v1,v1,0x5
1d009b40:	c3170200 	sra	v0,v0,0x1f
1d009b44:	23186200 	subu	v1,v1,v0
1d009b48:	ffff6330 	andi	v1,v1,0xffff
1d009b4c:	020083a0 	sb	v1,2(a0)
1d009b50:	0032637c 	ext	v1,v1,0x8,0x7
1d009b54:	030083a0 	sb	v1,3(a0)
1d009b58:	01a0023c 	lui	v0,0xa001
1d009b5c:	9c324224 	addiu	v0,v0,12956
1d009b60:	8c02448c 	lw	a0,652(v0)
1d009b64:	c005847c 	ext	a0,a0,0x17,0x1
1d009b68:	c439837c 	ins	v1,a0,0x7,0x1
1d009b6c:	030003a2 	sb	v1,3(s0)
1d009b70:	2402428c 	lw	v0,548(v0)
1d009b74:	0400422c 	sltiu	v0,v0,4
1d009b78:	3b004054 	bnezl	v0,0x1d009c68
1d009b7c:	21180000 	move	v1,zero
1d009b80:	01a0023c 	lui	v0,0xa001
1d009b84:	e034428c 	lw	v0,13536(v0)
1d009b88:	0400422c 	sltiu	v0,v0,4
1d009b8c:	6a004050 	beqzl	v0,0x1d009d38
1d009b90:	01a0023c 	lui	v0,0xa001
1d009b94:	ec26400b 	j	0x1d009bb0
1d009b98:	01a0023c 	lui	v0,0xa001
1d009b9c:	9c33428c 	lw	v0,13212(v0)
1d009ba0:	0400422c 	sltiu	v0,v0,4
1d009ba4:	6a004010 	beqz	v0,0x1d009d50
1d009ba8:	01a0023c 	lui	v0,0xa001
1d009bac:	01a0023c 	lui	v0,0xa001
1d009bb0:	e034428c 	lw	v0,13536(v0)
1d009bb4:	0400422c 	sltiu	v0,v0,4
1d009bb8:	77004050 	beqzl	v0,0x1d009d98
1d009bbc:	01a0023c 	lui	v0,0xa001
1d009bc0:	1a27400b 	j	0x1d009c68
1d009bc4:	21180000 	move	v1,zero
1d009bc8:	9c33428c 	lw	v0,13212(v0)
1d009bcc:	0400422c 	sltiu	v0,v0,4
1d009bd0:	77004050 	beqzl	v0,0x1d009db0
1d009bd4:	01a0023c 	lui	v0,0xa001
1d009bd8:	1a27400b 	j	0x1d009c68
1d009bdc:	21180000 	move	v1,zero
1d009be0:	2835438c 	lw	v1,13608(v0)
1d009be4:	8100023c 	lui	v0,0x81
1d009be8:	24186200 	and	v1,v1,v0
1d009bec:	0100023c 	lui	v0,0x1
1d009bf0:	1d006214 	bne	v1,v0,0x1d009c68
1d009bf4:	21180000 	move	v1,zero
1d009bf8:	00a0023c 	lui	v0,0xa000
1d009bfc:	8a014290 	lbu	v0,394(v0)
1d009c00:	19004014 	bnez	v0,0x1d009c68
1d009c04:	00000000 	nop
1d009c08:	00a0023c 	lui	v0,0xa000
1d009c0c:	8b014290 	lbu	v0,395(v0)
1d009c10:	16004054 	bnezl	v0,0x1d009c6c
1d009c14:	07000292 	lbu	v0,7(s0)
1d009c18:	8f6c400f 	jal	0x1d01b23c
1d009c1c:	00000000 	nop
1d009c20:	05004010 	beqz	v0,0x1d009c38
1d009c24:	00000000 	nop
1d009c28:	9a6c400f 	jal	0x1d01b268
1d009c2c:	00000000 	nop
1d009c30:	0d004010 	beqz	v0,0x1d009c68
1d009c34:	21180000 	move	v1,zero
1d009c38:	c073400f 	jal	0x1d01cf00
1d009c3c:	00000000 	nop
1d009c40:	09004014 	bnez	v0,0x1d009c68
1d009c44:	21180000 	move	v1,zero
1d009c48:	01a0023c 	lui	v0,0xa001
1d009c4c:	b434438c 	lw	v1,13492(v0)
1d009c50:	c000023c 	lui	v0,0xc0
1d009c54:	24186200 	and	v1,v1,v0
1d009c58:	8000023c 	lui	v0,0x80
1d009c5c:	02006214 	bne	v1,v0,0x1d009c68
1d009c60:	21180000 	move	v1,zero
1d009c64:	01000324 	li	v1,1
1d009c68:	07000292 	lbu	v0,7(s0)
1d009c6c:	0400627c 	ins	v0,v1,0x0,0x1
1d009c70:	070002a2 	sb	v0,7(s0)
1d009c74:	00a0033c 	lui	v1,0xa000
1d009c78:	8a016390 	lbu	v1,394(v1)
1d009c7c:	4408627c 	ins	v0,v1,0x1,0x1
1d009c80:	c073400f 	jal	0x1d01cf00
1d009c84:	070002a2 	sb	v0,7(s0)
1d009c88:	07000392 	lbu	v1,7(s0)
1d009c8c:	8410437c 	ins	v1,v0,0x2,0x1
1d009c90:	8f6c400f 	jal	0x1d01b23c
1d009c94:	070003a2 	sb	v1,7(s0)
1d009c98:	2b100200 	sltu	v0,zero,v0
1d009c9c:	07000392 	lbu	v1,7(s0)
1d009ca0:	c418437c 	ins	v1,v0,0x3,0x1
1d009ca4:	070003a2 	sb	v1,7(s0)
1d009ca8:	01a0023c 	lui	v0,0xa001
1d009cac:	fc33438c 	lw	v1,13308(v0)
1d009cb0:	0400632c 	sltiu	v1,v1,4
1d009cb4:	05006014 	bnez	v1,0x1d009ccc
1d009cb8:	21100000 	move	v0,zero
1d009cbc:	01a0023c 	lui	v0,0xa001
1d009cc0:	9c33428c 	lw	v0,13212(v0)
1d009cc4:	0400422c 	sltiu	v0,v0,4
1d009cc8:	01004238 	xori	v0,v0,0x1
1d009ccc:	01004338 	xori	v1,v0,0x1
1d009cd0:	07000292 	lbu	v0,7(s0)
1d009cd4:	0421627c 	ins	v0,v1,0x4,0x1
1d009cd8:	070002a2 	sb	v0,7(s0)
1d009cdc:	01a0023c 	lui	v0,0xa001
1d009ce0:	c034438c 	lw	v1,13504(v0)
1d009ce4:	0400632c 	sltiu	v1,v1,4
1d009ce8:	05006014 	bnez	v1,0x1d009d00
1d009cec:	21100000 	move	v0,zero
1d009cf0:	01a0023c 	lui	v0,0xa001
1d009cf4:	e034428c 	lw	v0,13536(v0)
1d009cf8:	0400422c 	sltiu	v0,v0,4
1d009cfc:	01004238 	xori	v0,v0,0x1
1d009d00:	01004338 	xori	v1,v0,0x1
1d009d04:	07000292 	lbu	v0,7(s0)
1d009d08:	4429627c 	ins	v0,v1,0x5,0x1
1d009d0c:	070002a2 	sb	v0,7(s0)
1d009d10:	00a0033c 	lui	v1,0xa000
1d009d14:	8b016390 	lbu	v1,395(v1)
1d009d18:	8431627c 	ins	v0,v1,0x6,0x1
1d009d1c:	070002a2 	sb	v0,7(s0)
1d009d20:	01a0033c 	lui	v1,0xa001
1d009d24:	3035638c 	lw	v1,13616(v1)
1d009d28:	0100632c 	sltiu	v1,v1,1
1d009d2c:	c439627c 	ins	v0,v1,0x7,0x1
1d009d30:	7127400b 	j	0x1d009dc4
1d009d34:	070002a2 	sb	v0,7(s0)
1d009d38:	fc33428c 	lw	v0,13308(v0)
1d009d3c:	0400422c 	sltiu	v0,v0,4
1d009d40:	96ff4050 	beqzl	v0,0x1d009b9c
1d009d44:	01a0023c 	lui	v0,0xa001
1d009d48:	ec26400b 	j	0x1d009bb0
1d009d4c:	01a0023c 	lui	v0,0xa001
1d009d50:	9c324224 	addiu	v0,v0,12956
1d009d54:	fa004390 	lbu	v1,250(v0)
1d009d58:	001a0300 	sll	v1,v1,0x8
1d009d5c:	fb004490 	lbu	a0,251(v0)
1d009d60:	21186400 	addu	v1,v1,a0
1d009d64:	ffff6330 	andi	v1,v1,0xffff
1d009d68:	040003a2 	sb	v1,4(s0)
1d009d6c:	021a0300 	srl	v1,v1,0x8
1d009d70:	050003a2 	sb	v1,5(s0)
1d009d74:	18024390 	lbu	v1,536(v0)
1d009d78:	80ff6324 	addiu	v1,v1,-128
1d009d7c:	060003a2 	sb	v1,6(s0)
1d009d80:	2402428c 	lw	v0,548(v0)
1d009d84:	0400422c 	sltiu	v0,v0,4
1d009d88:	89ff4050 	beqzl	v0,0x1d009bb0
1d009d8c:	01a0023c 	lui	v0,0xa001
1d009d90:	1a27400b 	j	0x1d009c68
1d009d94:	21180000 	move	v1,zero
1d009d98:	fc33428c 	lw	v0,13308(v0)
1d009d9c:	0400422c 	sltiu	v0,v0,4
1d009da0:	89ff4050 	beqzl	v0,0x1d009bc8
1d009da4:	01a0023c 	lui	v0,0xa001
1d009da8:	1a27400b 	j	0x1d009c68
1d009dac:	21180000 	move	v1,zero
1d009db0:	3035428c 	lw	v0,13616(v0)
1d009db4:	8aff4054 	bnezl	v0,0x1d009be0
1d009db8:	01a0023c 	lui	v0,0xa001
1d009dbc:	1a27400b 	j	0x1d009c68
1d009dc0:	21180000 	move	v1,zero
1d009dc4:	1400bf8f 	lw	ra,20(sp)
1d009dc8:	1000b08f 	lw	s0,16(sp)
1d009dcc:	0800e003 	jr	ra
1d009dd0:	1800bd27 	addiu	sp,sp,24
1d009dd4:	d8ffbd27 	addiu	sp,sp,-40
1d009dd8:	2400bfaf 	sw	ra,36(sp)
1d009ddc:	00a0023c 	lui	v0,0xa000
1d009de0:	89014290 	lbu	v0,393(v0)
1d009de4:	20004010 	beqz	v0,0x1d009e68
1d009de8:	01a0023c 	lui	v0,0xa001
1d009dec:	f833428c 	lw	v0,13304(v0)
1d009df0:	08004010 	beqz	v0,0x1d009e14
1d009df4:	01a0033c 	lui	v1,0xa001
1d009df8:	9c326324 	addiu	v1,v1,12956
1d009dfc:	5401628c 	lw	v0,340(v1)
1d009e00:	5801638c 	lw	v1,344(v1)
1d009e04:	1c00a3af 	sw	v1,28(sp)
1d009e08:	c4bd027c 	ins	v0,zero,0x17,0x1
1d009e0c:	8727400b 	j	0x1d009e1c
1d009e10:	1800a2af 	sw	v0,24(sp)
1d009e14:	1800a0af 	sw	zero,24(sp)
1d009e18:	1c00a0af 	sw	zero,28(sp)
1d009e1c:	08000224 	li	v0,8
1d009e20:	1400a2af 	sw	v0,20(sp)
1d009e24:	a8030224 	li	v0,936
1d009e28:	08008010 	beqz	a0,0x1d009e4c
1d009e2c:	1000a2af 	sw	v0,16(sp)
1d009e30:	20000324 	li	v1,32
1d009e34:	88bf023c 	lui	v0,0xbf88
1d009e38:	e86043ac 	sw	v1,24808(v0)
1d009e3c:	ca63400f 	jal	0x1d018f28
1d009e40:	1000a427 	addiu	a0,sp,16
1d009e44:	c827400b 	j	0x1d009f20
1d009e48:	2400bf8f 	lw	ra,36(sp)
1d009e4c:	355f400f 	jal	0x1d017cd4
1d009e50:	1000a427 	addiu	a0,sp,16
1d009e54:	20000324 	li	v1,32
1d009e58:	88bf023c 	lui	v0,0xbf88
1d009e5c:	e46043ac 	sw	v1,24804(v0)
1d009e60:	9c27400b 	j	0x1d009e70
1d009e64:	00000000 	nop
1d009e68:	2d008014 	bnez	a0,0x1d009f20
1d009e6c:	2400bf8f 	lw	ra,36(sp)
1d009e70:	cf54400f 	jal	0x1d01533c
1d009e74:	00000000 	nop
1d009e78:	28004010 	beqz	v0,0x1d009f1c
1d009e7c:	00a0023c 	lui	v0,0xa000
1d009e80:	8001428c 	lw	v0,384(v0)
1d009e84:	10004014 	bnez	v0,0x1d009ec8
1d009e88:	01a0023c 	lui	v0,0xa001
1d009e8c:	00a0023c 	lui	v0,0xa000
1d009e90:	8401428c 	lw	v0,388(v0)
1d009e94:	0c004014 	bnez	v0,0x1d009ec8
1d009e98:	01a0023c 	lui	v0,0xa001
1d009e9c:	08000224 	li	v0,8
1d009ea0:	1400a2af 	sw	v0,20(sp)
1d009ea4:	65000224 	li	v0,101
1d009ea8:	1000a2af 	sw	v0,16(sp)
1d009eac:	b826400f 	jal	0x1d009ae0
1d009eb0:	1800a427 	addiu	a0,sp,24
1d009eb4:	076c400f 	jal	0x1d01b01c
1d009eb8:	1800a427 	addiu	a0,sp,24
1d009ebc:	aa5d400f 	jal	0x1d0176a8
1d009ec0:	1000a427 	addiu	a0,sp,16
1d009ec4:	01a0023c 	lui	v0,0xa001
1d009ec8:	0035428c 	lw	v0,13568(v0)
1d009ecc:	06004010 	beqz	v0,0x1d009ee8
1d009ed0:	01a0023c 	lui	v0,0xa001
1d009ed4:	01a0023c 	lui	v0,0xa001
1d009ed8:	fc34428c 	lw	v0,13564(v0)
1d009edc:	0006427c 	ext	v0,v0,0x18,0x1
1d009ee0:	0c004014 	bnez	v0,0x1d009f14
1d009ee4:	01a0023c 	lui	v0,0xa001
1d009ee8:	2035428c 	lw	v0,13600(v0)
1d009eec:	06004010 	beqz	v0,0x1d009f08
1d009ef0:	00a0023c 	lui	v0,0xa000
1d009ef4:	01a0023c 	lui	v0,0xa001
1d009ef8:	1c35428c 	lw	v0,13596(v0)
1d009efc:	0006427c 	ext	v0,v0,0x18,0x1
1d009f00:	04004014 	bnez	v0,0x1d009f14
1d009f04:	00a0023c 	lui	v0,0xa000
1d009f08:	89014290 	lbu	v0,393(v0)
1d009f0c:	04004010 	beqz	v0,0x1d009f20
1d009f10:	2400bf8f 	lw	ra,36(sp)
1d009f14:	e121400f 	jal	0x1d008784
1d009f18:	00000000 	nop
1d009f1c:	2400bf8f 	lw	ra,36(sp)
1d009f20:	0800e003 	jr	ra
1d009f24:	2800bd27 	addiu	sp,sp,40
1d009f28:	e8ffbd27 	addiu	sp,sp,-24
1d009f2c:	1400bfaf 	sw	ra,20(sp)
1d009f30:	000085ac 	sw	a1,0(a0)
1d009f34:	040086ac 	sw	a2,4(a0)
1d009f38:	080087ac 	sw	a3,8(a0)
1d009f3c:	2800a293 	lbu	v0,40(sp)
1d009f40:	0c0082a0 	sb	v0,12(a0)
1d009f44:	10008424 	addiu	a0,a0,16
1d009f48:	21280000 	move	a1,zero
1d009f4c:	9288400f 	jal	0x1d022248
1d009f50:	1c000624 	li	a2,28
1d009f54:	1400bf8f 	lw	ra,20(sp)
1d009f58:	0800e003 	jr	ra
1d009f5c:	1800bd27 	addiu	sp,sp,24
1d009f60:	0800e003 	jr	ra
1d009f64:	10008290 	lbu	v0,16(a0)
1d009f68:	e0ffbd27 	addiu	sp,sp,-32
1d009f6c:	1c00bfaf 	sw	ra,28(sp)
1d009f70:	1800b2af 	sw	s2,24(sp)
1d009f74:	1400b1af 	sw	s1,20(sp)
1d009f78:	1000b0af 	sw	s0,16(sp)
1d009f7c:	21808000 	move	s0,a0
1d009f80:	2190a000 	move	s2,a1
1d009f84:	2600c010 	beqz	a2,0x1d00a020
1d009f88:	2188c000 	move	s1,a2
1d009f8c:	180005ae 	sw	a1,24(s0)
1d009f90:	10008290 	lbu	v0,16(a0)
1d009f94:	0b004010 	beqz	v0,0x1d009fc4
1d009f98:	1c000326 	addiu	v1,s0,28
1d009f9c:	0c008290 	lbu	v0,12(a0)
1d009fa0:	09004050 	beqzl	v0,0x1d009fc8
1d009fa4:	0300268a 	lwl	a2,3(s1)
1d009fa8:	1c008424 	addiu	a0,a0,28
1d009fac:	2128c000 	move	a1,a2
1d009fb0:	0e89400f 	jal	0x1d022438
1d009fb4:	10000624 	li	a2,16
1d009fb8:	1d004050 	beqzl	v0,0x1d00a030
1d009fbc:	0800028e 	lw	v0,8(s0)
1d009fc0:	1c000326 	addiu	v1,s0,28
1d009fc4:	0300268a 	lwl	a2,3(s1)
1d009fc8:	0000269a 	lwr	a2,0(s1)
1d009fcc:	0700258a 	lwl	a1,7(s1)
1d009fd0:	0400259a 	lwr	a1,4(s1)
1d009fd4:	0b00248a 	lwl	a0,11(s1)
1d009fd8:	0800249a 	lwr	a0,8(s1)
1d009fdc:	0f00228a 	lwl	v0,15(s1)
1d009fe0:	0c00229a 	lwr	v0,12(s1)
1d009fe4:	030066a8 	swl	a2,3(v1)
1d009fe8:	000066b8 	swr	a2,0(v1)
1d009fec:	070065a8 	swl	a1,7(v1)
1d009ff0:	040065b8 	swr	a1,4(v1)
1d009ff4:	0b0064a8 	swl	a0,11(v1)
1d009ff8:	080064b8 	swr	a0,8(v1)
1d009ffc:	0f0062a8 	swl	v0,15(v1)
1d00a000:	0c0062b8 	swr	v0,12(v1)
1d00a004:	110000a2 	sb	zero,17(s0)
1d00a008:	10000292 	lbu	v0,16(s0)
1d00a00c:	07004014 	bnez	v0,0x1d00a02c
1d00a010:	01000224 	li	v0,1
1d00a014:	100002a2 	sb	v0,16(s0)
1d00a018:	01004226 	addiu	v0,s2,1
1d00a01c:	140002ae 	sw	v0,20(s0)
1d00a020:	10000292 	lbu	v0,16(s0)
1d00a024:	23004010 	beqz	v0,0x1d00a0b4
1d00a028:	21100000 	move	v0,zero
1d00a02c:	0800028e 	lw	v0,8(s0)
1d00a030:	07004050 	beqzl	v0,0x1d00a050
1d00a034:	11000292 	lbu	v0,17(s0)
1d00a038:	1800038e 	lw	v1,24(s0)
1d00a03c:	23184302 	subu	v1,s2,v1
1d00a040:	2b106200 	sltu	v0,v1,v0
1d00a044:	18004050 	beqzl	v0,0x1d00a0a8
1d00a048:	100000a2 	sb	zero,16(s0)
1d00a04c:	11000292 	lbu	v0,17(s0)
1d00a050:	0c004054 	bnezl	v0,0x1d00a084
1d00a054:	0400028e 	lw	v0,4(s0)
1d00a058:	1400028e 	lw	v0,20(s0)
1d00a05c:	23104202 	subu	v0,s2,v0
1d00a060:	0000038e 	lw	v1,0(s0)
1d00a064:	2b104300 	sltu	v0,v0,v1
1d00a068:	12004054 	bnezl	v0,0x1d00a0b4
1d00a06c:	21100000 	move	v0,zero
1d00a070:	01000224 	li	v0,1
1d00a074:	110002a2 	sb	v0,17(s0)
1d00a078:	140012ae 	sw	s2,20(s0)
1d00a07c:	2d28400b 	j	0x1d00a0b4
1d00a080:	1c000226 	addiu	v0,s0,28
1d00a084:	0b004050 	beqzl	v0,0x1d00a0b4
1d00a088:	21100000 	move	v0,zero
1d00a08c:	1400038e 	lw	v1,20(s0)
1d00a090:	23184302 	subu	v1,s2,v1
1d00a094:	2b106200 	sltu	v0,v1,v0
1d00a098:	05004014 	bnez	v0,0x1d00a0b0
1d00a09c:	1c000226 	addiu	v0,s0,28
1d00a0a0:	2d28400b 	j	0x1d00a0b4
1d00a0a4:	140012ae 	sw	s2,20(s0)
1d00a0a8:	2d28400b 	j	0x1d00a0b4
1d00a0ac:	21100000 	move	v0,zero
1d00a0b0:	21100000 	move	v0,zero
1d00a0b4:	1c00bf8f 	lw	ra,28(sp)
1d00a0b8:	1800b28f 	lw	s2,24(sp)
1d00a0bc:	1400b18f 	lw	s1,20(sp)
1d00a0c0:	1000b08f 	lw	s0,16(sp)
1d00a0c4:	0800e003 	jr	ra
1d00a0c8:	2000bd27 	addiu	sp,sp,32
1d00a0cc:	00a0023c 	lui	v0,0xa000
1d00a0d0:	8001428c 	lw	v0,384(v0)
1d00a0d4:	1c004014 	bnez	v0,0x1d00a148
1d00a0d8:	00a0023c 	lui	v0,0xa000
1d00a0dc:	8401428c 	lw	v0,388(v0)
1d00a0e0:	19004014 	bnez	v0,0x1d00a148
1d00a0e4:	08000224 	li	v0,8
1d00a0e8:	d8ffbd27 	addiu	sp,sp,-40
1d00a0ec:	2400bfaf 	sw	ra,36(sp)
1d00a0f0:	2000b0af 	sw	s0,32(sp)
1d00a0f4:	1400a2af 	sw	v0,20(sp)
1d00a0f8:	65000224 	li	v0,101
1d00a0fc:	1000a2af 	sw	v0,16(sp)
1d00a100:	b826400f 	jal	0x1d009ae0
1d00a104:	1800a427 	addiu	a0,sp,24
1d00a108:	00a0043c 	lui	a0,0xa000
1d00a10c:	8c018424 	addiu	a0,a0,396
1d00a110:	dc80858f 	lw	a1,-32548(gp)
1d00a114:	da27400f 	jal	0x1d009f68
1d00a118:	1000a627 	addiu	a2,sp,16
1d00a11c:	07004010 	beqz	v0,0x1d00a13c
1d00a120:	21804000 	move	s0,v0
1d00a124:	076c400f 	jal	0x1d01b01c
1d00a128:	08004424 	addiu	a0,v0,8
1d00a12c:	aa5d400f 	jal	0x1d0176a8
1d00a130:	21200002 	move	a0,s0
1d00a134:	d120400f 	jal	0x1d008344
1d00a138:	21200002 	move	a0,s0
1d00a13c:	2400bf8f 	lw	ra,36(sp)
1d00a140:	2000b08f 	lw	s0,32(sp)
1d00a144:	2800bd27 	addiu	sp,sp,40
1d00a148:	0800e003 	jr	ra
1d00a14c:	00000000 	nop
1d00a150:	01a0023c 	lui	v0,0xa001
1d00a154:	bc32428c 	lw	v0,12988(v0)
1d00a158:	0300422c 	sltiu	v0,v0,3
1d00a15c:	03004014 	bnez	v0,0x1d00a16c
1d00a160:	21180000 	move	v1,zero
1d00a164:	01a0033c 	lui	v1,0xa001
1d00a168:	b0326324 	addiu	v1,v1,12976
1d00a16c:	01a0023c 	lui	v0,0xa001
1d00a170:	cc32448c 	lw	a0,13004(v0)
1d00a174:	0300842c 	sltiu	a0,a0,3
1d00a178:	03008014 	bnez	a0,0x1d00a188
1d00a17c:	21100000 	move	v0,zero
1d00a180:	01a0023c 	lui	v0,0xa001
1d00a184:	c0324224 	addiu	v0,v0,12992
1d00a188:	01a0043c 	lui	a0,0xa001
1d00a18c:	d832858c 	lw	a1,13016(a0)
1d00a190:	0300a010 	beqz	a1,0x1d00a1a0
1d00a194:	21200000 	move	a0,zero
1d00a198:	01a0043c 	lui	a0,0xa001
1d00a19c:	d0328424 	addiu	a0,a0,13008
1d00a1a0:	01a0053c 	lui	a1,0xa001
1d00a1a4:	7833a68c 	lw	a2,13176(a1)
1d00a1a8:	0300c010 	beqz	a2,0x1d00a1b8
1d00a1ac:	21280000 	move	a1,zero
1d00a1b0:	01a0053c 	lui	a1,0xa001
1d00a1b4:	7033a524 	addiu	a1,a1,13168
1d00a1b8:	01a0063c 	lui	a2,0xa001
1d00a1bc:	6833c78c 	lw	a3,13160(a2)
1d00a1c0:	0300e010 	beqz	a3,0x1d00a1d0
1d00a1c4:	21300000 	move	a2,zero
1d00a1c8:	01a0063c 	lui	a2,0xa001
1d00a1cc:	6033c624 	addiu	a2,a2,13152
1d00a1d0:	8d006010 	beqz	v1,0x1d00a408
1d00a1d4:	00000000 	nop
1d00a1d8:	8b004010 	beqz	v0,0x1d00a408
1d00a1dc:	00000000 	nop
1d00a1e0:	89008010 	beqz	a0,0x1d00a408
1d00a1e4:	00000000 	nop
1d00a1e8:	8700a010 	beqz	a1,0x1d00a408
1d00a1ec:	00000000 	nop
1d00a1f0:	8500c010 	beqz	a2,0x1d00a408
1d00a1f4:	00000000 	nop
1d00a1f8:	d8ffbd27 	addiu	sp,sp,-40
1d00a1fc:	2400bfaf 	sw	ra,36(sp)
1d00a200:	1000a0af 	sw	zero,16(sp)
1d00a204:	1400a0af 	sw	zero,20(sp)
1d00a208:	1800a0af 	sw	zero,24(sp)
1d00a20c:	1c00a0af 	sw	zero,28(sp)
1d00a210:	02008890 	lbu	t0,2(a0)
1d00a214:	18000831 	andi	t0,t0,0x18
1d00a218:	04000011 	beqz	t0,0x1d00a22c
1d00a21c:	21380000 	move	a3,zero
1d00a220:	01008790 	lbu	a3,1(a0)
1d00a224:	0400e738 	xori	a3,a3,0x4
1d00a228:	8000e77c 	ext	a3,a3,0x2,0x1
1d00a22c:	1800a497 	lhu	a0,24(sp)
1d00a230:	c45ae47c 	ins	a0,a3,0xb,0x1
1d00a234:	1800a4a7 	sh	a0,24(sp)
1d00a238:	06004790 	lbu	a3,6(v0)
1d00a23c:	0c00e430 	andi	a0,a3,0xc
1d00a240:	08008014 	bnez	a0,0x1d00a264
1d00a244:	01000824 	li	t0,1
1d00a248:	04004490 	lbu	a0,4(v0)
1d00a24c:	20008430 	andi	a0,a0,0x20
1d00a250:	ff008430 	andi	a0,a0,0xff
1d00a254:	04008014 	bnez	a0,0x1d00a268
1d00a258:	1800a497 	lhu	a0,24(sp)
1d00a25c:	3000e830 	andi	t0,a3,0x30
1d00a260:	2b400800 	sltu	t0,zero,t0
1d00a264:	1800a497 	lhu	a0,24(sp)
1d00a268:	0463047d 	ins	a0,t0,0xc,0x1
1d00a26c:	1800a4a7 	sh	a0,24(sp)
1d00a270:	06006490 	lbu	a0,6(v1)
1d00a274:	04008430 	andi	a0,a0,0x4
1d00a278:	ff008430 	andi	a0,a0,0xff
1d00a27c:	09008010 	beqz	a0,0x1d00a2a4
1d00a280:	21400000 	move	t0,zero
1d00a284:	04006490 	lbu	a0,4(v1)
1d00a288:	20008430 	andi	a0,a0,0x20
1d00a28c:	ff008430 	andi	a0,a0,0xff
1d00a290:	05008014 	bnez	a0,0x1d00a2a8
1d00a294:	1800a497 	lhu	a0,24(sp)
1d00a298:	0700c890 	lbu	t0,7(a2)
1d00a29c:	10000839 	xori	t0,t0,0x10
1d00a2a0:	0001087d 	ext	t0,t0,0x4,0x1
1d00a2a4:	1800a497 	lhu	a0,24(sp)
1d00a2a8:	446b047d 	ins	a0,t0,0xd,0x1
1d00a2ac:	c000e730 	andi	a3,a3,0xc0
1d00a2b0:	2b380700 	sltu	a3,zero,a3
1d00a2b4:	8473e47c 	ins	a0,a3,0xe,0x1
1d00a2b8:	1800a4a7 	sh	a0,24(sp)
1d00a2bc:	0000468c 	lw	a2,0(v0)
1d00a2c0:	c003c67c 	ext	a2,a2,0xf,0x1
1d00a2c4:	c47bc47c 	ins	a0,a2,0xf,0x1
1d00a2c8:	1800a4a7 	sh	a0,24(sp)
1d00a2cc:	0100a590 	lbu	a1,1(a1)
1d00a2d0:	0700a530 	andi	a1,a1,0x7
1d00a2d4:	0500a538 	xori	a1,a1,0x5
1d00a2d8:	0100a52c 	sltiu	a1,a1,1
1d00a2dc:	1a00a493 	lbu	a0,26(sp)
1d00a2e0:	4408a47c 	ins	a0,a1,0x1,0x1
1d00a2e4:	1a00a4a3 	sb	a0,26(sp)
1d00a2e8:	0400658c 	lw	a1,4(v1)
1d00a2ec:	c005a57c 	ext	a1,a1,0x17,0x1
1d00a2f0:	8410a47c 	ins	a0,a1,0x2,0x1
1d00a2f4:	1a00a4a3 	sb	a0,26(sp)
1d00a2f8:	1900a493 	lbu	a0,25(sp)
1d00a2fc:	0430047c 	ins	a0,zero,0x0,0x7
1d00a300:	ff008430 	andi	a0,a0,0xff
1d00a304:	15008050 	beqzl	a0,0x1d00a35c
1d00a308:	1a00a293 	lbu	v0,26(sp)
1d00a30c:	0000448c 	lw	a0,0(v0)
1d00a310:	001f8430 	andi	a0,a0,0x1f00
1d00a314:	02004390 	lbu	v1,2(v0)
1d00a318:	21108300 	addu	v0,a0,v1
1d00a31c:	08140324 	li	v1,5128
1d00a320:	23106200 	subu	v0,v1,v0
1d00a324:	03110200 	sra	v0,v0,0x4
1d00a328:	05004004 	bltz	v0,0x1d00a340
1d00a32c:	00014428 	slti	a0,v0,256
1d00a330:	ff000324 	li	v1,255
1d00a334:	0a106400 	movz	v0,v1,a0
1d00a338:	d128400b 	j	0x1d00a344
1d00a33c:	ff004230 	andi	v0,v0,0xff
1d00a340:	21100000 	move	v0,zero
1d00a344:	1800a2a3 	sb	v0,24(sp)
1d00a348:	1800a297 	lhu	v0,24(sp)
1d00a34c:	01000324 	li	v1,1
1d00a350:	044a627c 	ins	v0,v1,0x8,0x2
1d00a354:	ef28400b 	j	0x1d00a3bc
1d00a358:	1800a2a7 	sh	v0,24(sp)
1d00a35c:	04004230 	andi	v0,v0,0x4
1d00a360:	ff004230 	andi	v0,v0,0xff
1d00a364:	16004010 	beqz	v0,0x1d00a3c0
1d00a368:	1400a28f 	lw	v0,20(sp)
1d00a36c:	0000628c 	lw	v0,0(v1)
1d00a370:	1f004230 	andi	v0,v0,0x1f
1d00a374:	00120200 	sll	v0,v0,0x8
1d00a378:	01006390 	lbu	v1,1(v1)
1d00a37c:	21104300 	addu	v0,v0,v1
1d00a380:	08140324 	li	v1,5128
1d00a384:	23106200 	subu	v0,v1,v0
1d00a388:	03110200 	sra	v0,v0,0x4
1d00a38c:	05004004 	bltz	v0,0x1d00a3a4
1d00a390:	00014428 	slti	a0,v0,256
1d00a394:	ff000324 	li	v1,255
1d00a398:	0a106400 	movz	v0,v1,a0
1d00a39c:	ea28400b 	j	0x1d00a3a8
1d00a3a0:	ff004230 	andi	v0,v0,0xff
1d00a3a4:	21100000 	move	v0,zero
1d00a3a8:	1800a2a3 	sb	v0,24(sp)
1d00a3ac:	1800a297 	lhu	v0,24(sp)
1d00a3b0:	02000324 	li	v1,2
1d00a3b4:	044a627c 	ins	v0,v1,0x8,0x2
1d00a3b8:	1800a2a7 	sh	v0,24(sp)
1d00a3bc:	1400a28f 	lw	v0,20(sp)
1d00a3c0:	03000324 	li	v1,3
1d00a3c4:	0418627c 	ins	v0,v1,0x0,0x4
1d00a3c8:	1400a2af 	sw	v0,20(sp)
1d00a3cc:	1000a28f 	lw	v0,16(sp)
1d00a3d0:	79000324 	li	v1,121
1d00a3d4:	0450627c 	ins	v0,v1,0x0,0xb
1d00a3d8:	1000a2af 	sw	v0,16(sp)
1d00a3dc:	01a0043c 	lui	a0,0xa001
1d00a3e0:	68308424 	addiu	a0,a0,12392
1d00a3e4:	dc80858f 	lw	a1,-32548(gp)
1d00a3e8:	da27400f 	jal	0x1d009f68
1d00a3ec:	1000a627 	addiu	a2,sp,16
1d00a3f0:	04004010 	beqz	v0,0x1d00a404
1d00a3f4:	2400bf8f 	lw	ra,36(sp)
1d00a3f8:	aa5d400f 	jal	0x1d0176a8
1d00a3fc:	21204000 	move	a0,v0
1d00a400:	2400bf8f 	lw	ra,36(sp)
1d00a404:	2800bd27 	addiu	sp,sp,40
1d00a408:	0800e003 	jr	ra
1d00a40c:	00000000 	nop
1d00a410:	d8ffbd27 	addiu	sp,sp,-40
1d00a414:	2400bfaf 	sw	ra,36(sp)
1d00a418:	01a0023c 	lui	v0,0xa001
1d00a41c:	1c34428c 	lw	v0,13340(v0)
1d00a420:	0300422c 	sltiu	v0,v0,3
1d00a424:	03004014 	bnez	v0,0x1d00a434
1d00a428:	21180000 	move	v1,zero
1d00a42c:	01a0033c 	lui	v1,0xa001
1d00a430:	10346324 	addiu	v1,v1,13328
1d00a434:	01a0023c 	lui	v0,0xa001
1d00a438:	2c34448c 	lw	a0,13356(v0)
1d00a43c:	0300842c 	sltiu	a0,a0,3
1d00a440:	03008014 	bnez	a0,0x1d00a450
1d00a444:	21100000 	move	v0,zero
1d00a448:	01a0023c 	lui	v0,0xa001
1d00a44c:	20344224 	addiu	v0,v0,13344
1d00a450:	01a0043c 	lui	a0,0xa001
1d00a454:	4836848c 	lw	a0,13896(a0)
1d00a458:	0300842c 	sltiu	a0,a0,3
1d00a45c:	03008014 	bnez	a0,0x1d00a46c
1d00a460:	21300000 	move	a2,zero
1d00a464:	01a0063c 	lui	a2,0xa001
1d00a468:	3c36c624 	addiu	a2,a2,13884
1d00a46c:	01a0043c 	lui	a0,0xa001
1d00a470:	5836858c 	lw	a1,13912(a0)
1d00a474:	0300a52c 	sltiu	a1,a1,3
1d00a478:	0300a014 	bnez	a1,0x1d00a488
1d00a47c:	21200000 	move	a0,zero
1d00a480:	01a0043c 	lui	a0,0xa001
1d00a484:	4c368424 	addiu	a0,a0,13900
1d00a488:	b3006054 	bnezl	v1,0x1d00a758
1d00a48c:	1000a0af 	sw	zero,16(sp)
1d00a490:	ba004054 	bnezl	v0,0x1d00a77c
1d00a494:	1000a0af 	sw	zero,16(sp)
1d00a498:	bc00c010 	beqz	a2,0x1d00a78c
1d00a49c:	2400bf8f 	lw	ra,36(sp)
1d00a4a0:	b6008054 	bnezl	a0,0x1d00a77c
1d00a4a4:	1000a0af 	sw	zero,16(sp)
1d00a4a8:	e329400b 	j	0x1d00a78c
1d00a4ac:	00000000 	nop
1d00a4b0:	01000724 	li	a3,1
1d00a4b4:	0400e57c 	ins	a1,a3,0x0,0x1
1d00a4b8:	1800a5af 	sw	a1,24(sp)
1d00a4bc:	02006590 	lbu	a1,2(v1)
1d00a4c0:	0700a830 	andi	t0,a1,0x7
1d00a4c4:	02000724 	li	a3,2
1d00a4c8:	0a000715 	bne	t0,a3,0x1d00a4f4
1d00a4cc:	e000a730 	andi	a3,a1,0xe0
1d00a4d0:	03006390 	lbu	v1,3(v1)
1d00a4d4:	03006330 	andi	v1,v1,0x3
1d00a4d8:	07006014 	bnez	v1,0x1d00a4f8
1d00a4dc:	20000324 	li	v1,32
1d00a4e0:	1800a38f 	lw	v1,24(sp)
1d00a4e4:	01000724 	li	a3,1
1d00a4e8:	4408e37c 	ins	v1,a3,0x1,0x1
1d00a4ec:	1800a3af 	sw	v1,24(sp)
1d00a4f0:	e000a730 	andi	a3,a1,0xe0
1d00a4f4:	20000324 	li	v1,32
1d00a4f8:	0500e314 	bne	a3,v1,0x1d00a510
1d00a4fc:	1800a530 	andi	a1,a1,0x18
1d00a500:	1800a38f 	lw	v1,24(sp)
1d00a504:	01000724 	li	a3,1
1d00a508:	8410e37c 	ins	v1,a3,0x2,0x1
1d00a50c:	1800a3af 	sw	v1,24(sp)
1d00a510:	18000324 	li	v1,24
1d00a514:	0700a314 	bne	a1,v1,0x1d00a534
1d00a518:	f8002931 	andi	t1,t1,0xf8
1d00a51c:	40000324 	li	v1,64
1d00a520:	04002315 	bne	t1,v1,0x1d00a534
1d00a524:	1800a38f 	lw	v1,24(sp)
1d00a528:	01000524 	li	a1,1
1d00a52c:	c418a37c 	ins	v1,a1,0x3,0x1
1d00a530:	1800a3af 	sw	v1,24(sp)
1d00a534:	27004010 	beqz	v0,0x1d00a5d4
1d00a538:	00000000 	nop
1d00a53c:	01004590 	lbu	a1,1(v0)
1d00a540:	0100a330 	andi	v1,a1,0x1
1d00a544:	06006050 	beqzl	v1,0x1d00a560
1d00a548:	02004390 	lbu	v1,2(v0)
1d00a54c:	1800a38f 	lw	v1,24(sp)
1d00a550:	01000724 	li	a3,1
1d00a554:	0421e37c 	ins	v1,a3,0x4,0x1
1d00a558:	1800a3af 	sw	v1,24(sp)
1d00a55c:	02004390 	lbu	v1,2(v0)
1d00a560:	07006830 	andi	t0,v1,0x7
1d00a564:	02000724 	li	a3,2
1d00a568:	0a000715 	bne	t0,a3,0x1d00a594
1d00a56c:	e0006730 	andi	a3,v1,0xe0
1d00a570:	03004290 	lbu	v0,3(v0)
1d00a574:	03004230 	andi	v0,v0,0x3
1d00a578:	07004014 	bnez	v0,0x1d00a598
1d00a57c:	20000224 	li	v0,32
1d00a580:	1800a28f 	lw	v0,24(sp)
1d00a584:	01000724 	li	a3,1
1d00a588:	4429e27c 	ins	v0,a3,0x5,0x1
1d00a58c:	1800a2af 	sw	v0,24(sp)
1d00a590:	e0006730 	andi	a3,v1,0xe0
1d00a594:	20000224 	li	v0,32
1d00a598:	0500e214 	bne	a3,v0,0x1d00a5b0
1d00a59c:	18006330 	andi	v1,v1,0x18
1d00a5a0:	1800a28f 	lw	v0,24(sp)
1d00a5a4:	01000724 	li	a3,1
1d00a5a8:	8431e27c 	ins	v0,a3,0x6,0x1
1d00a5ac:	1800a2af 	sw	v0,24(sp)
1d00a5b0:	18000224 	li	v0,24
1d00a5b4:	07006214 	bne	v1,v0,0x1d00a5d4
1d00a5b8:	f800a530 	andi	a1,a1,0xf8
1d00a5bc:	40000224 	li	v0,64
1d00a5c0:	0400a214 	bne	a1,v0,0x1d00a5d4
1d00a5c4:	1800a28f 	lw	v0,24(sp)
1d00a5c8:	01000324 	li	v1,1
1d00a5cc:	c439627c 	ins	v0,v1,0x7,0x1
1d00a5d0:	1800a2af 	sw	v0,24(sp)
1d00a5d4:	4e00c010 	beqz	a2,0x1d00a710
1d00a5d8:	1400a28f 	lw	v0,20(sp)
1d00a5dc:	4d008010 	beqz	a0,0x1d00a714
1d00a5e0:	08000324 	li	v1,8
1d00a5e4:	00008290 	lbu	v0,0(a0)
1d00a5e8:	e0004330 	andi	v1,v0,0xe0
1d00a5ec:	44006054 	bnezl	v1,0x1d00a700
1d00a5f0:	1c00a28f 	lw	v0,28(sp)
1d00a5f4:	06004230 	andi	v0,v0,0x6
1d00a5f8:	06000324 	li	v1,6
1d00a5fc:	3f004310 	beq	v0,v1,0x1d00a6fc
1d00a600:	c0000524 	li	a1,192
1d00a604:	04008390 	lbu	v1,4(a0)
1d00a608:	c0006330 	andi	v1,v1,0xc0
1d00a60c:	3b006510 	beq	v1,a1,0x1d00a6fc
1d00a610:	02000524 	li	a1,2
1d00a614:	3e004514 	bne	v0,a1,0x1d00a710
1d00a618:	1400a28f 	lw	v0,20(sp)
1d00a61c:	40000224 	li	v0,64
1d00a620:	3b006214 	bne	v1,v0,0x1d00a710
1d00a624:	1400a28f 	lw	v0,20(sp)
1d00a628:	1c00a28f 	lw	v0,28(sp)
1d00a62c:	01000324 	li	v1,1
1d00a630:	84f7627c 	ins	v0,v1,0x1e,0x1
1d00a634:	1c00a2af 	sw	v0,28(sp)
1d00a638:	0400c58c 	lw	a1,4(a2)
1d00a63c:	0019a57c 	ext	a1,a1,0x4,0x4
1d00a640:	1800a38f 	lw	v1,24(sp)
1d00a644:	045aa37c 	ins	v1,a1,0x8,0x4
1d00a648:	1800a3af 	sw	v1,24(sp)
1d00a64c:	0000c58c 	lw	a1,0(a2)
1d00a650:	001ea57c 	ext	a1,a1,0x18,0x4
1d00a654:	047ba37c 	ins	v1,a1,0xc,0x4
1d00a658:	1800a3af 	sw	v1,24(sp)
1d00a65c:	0000c58c 	lw	a1,0(a2)
1d00a660:	001fa57c 	ext	a1,a1,0x1c,0x4
1d00a664:	049ca37c 	ins	v1,a1,0x10,0x4
1d00a668:	1800a3af 	sw	v1,24(sp)
1d00a66c:	0400c58c 	lw	a1,4(a2)
1d00a670:	04bda37c 	ins	v1,a1,0x14,0x4
1d00a674:	1800a3af 	sw	v1,24(sp)
1d00a678:	0400c58c 	lw	a1,4(a2)
1d00a67c:	001ba57c 	ext	a1,a1,0xc,0x4
1d00a680:	04dea37c 	ins	v1,a1,0x18,0x4
1d00a684:	1800a3af 	sw	v1,24(sp)
1d00a688:	0400c58c 	lw	a1,4(a2)
1d00a68c:	001aa57c 	ext	a1,a1,0x8,0x4
1d00a690:	04ffa37c 	ins	v1,a1,0x1c,0x4
1d00a694:	1800a3af 	sw	v1,24(sp)
1d00a698:	0000838c 	lw	v1,0(a0)
1d00a69c:	001d637c 	ext	v1,v1,0x14,0x4
1d00a6a0:	0418627c 	ins	v0,v1,0x0,0x4
1d00a6a4:	1c00a2af 	sw	v0,28(sp)
1d00a6a8:	0000838c 	lw	v1,0(a0)
1d00a6ac:	001a637c 	ext	v1,v1,0x8,0x4
1d00a6b0:	0439627c 	ins	v0,v1,0x4,0x4
1d00a6b4:	1c00a2af 	sw	v0,28(sp)
1d00a6b8:	0000838c 	lw	v1,0(a0)
1d00a6bc:	001b637c 	ext	v1,v1,0xc,0x4
1d00a6c0:	045a627c 	ins	v0,v1,0x8,0x4
1d00a6c4:	1c00a2af 	sw	v0,28(sp)
1d00a6c8:	0000838c 	lw	v1,0(a0)
1d00a6cc:	001c637c 	ext	v1,v1,0x10,0x4
1d00a6d0:	047b627c 	ins	v0,v1,0xc,0x4
1d00a6d4:	1c00a2af 	sw	v0,28(sp)
1d00a6d8:	0000838c 	lw	v1,0(a0)
1d00a6dc:	001f637c 	ext	v1,v1,0x1c,0x4
1d00a6e0:	049c627c 	ins	v0,v1,0x10,0x4
1d00a6e4:	1c00a2af 	sw	v0,28(sp)
1d00a6e8:	0000838c 	lw	v1,0(a0)
1d00a6ec:	001e637c 	ext	v1,v1,0x18,0x4
1d00a6f0:	04bd627c 	ins	v0,v1,0x14,0x4
1d00a6f4:	c329400b 	j	0x1d00a70c
1d00a6f8:	1c00a2af 	sw	v0,28(sp)
1d00a6fc:	1c00a28f 	lw	v0,28(sp)
1d00a700:	01000324 	li	v1,1
1d00a704:	c4ff627c 	ins	v0,v1,0x1f,0x1
1d00a708:	1c00a2af 	sw	v0,28(sp)
1d00a70c:	1400a28f 	lw	v0,20(sp)
1d00a710:	08000324 	li	v1,8
1d00a714:	0418627c 	ins	v0,v1,0x0,0x4
1d00a718:	1400a2af 	sw	v0,20(sp)
1d00a71c:	1000a28f 	lw	v0,16(sp)
1d00a720:	73000324 	li	v1,115
1d00a724:	0450627c 	ins	v0,v1,0x0,0xb
1d00a728:	1000a2af 	sw	v0,16(sp)
1d00a72c:	01a0043c 	lui	a0,0xa001
1d00a730:	94308424 	addiu	a0,a0,12436
1d00a734:	dc80858f 	lw	a1,-32548(gp)
1d00a738:	da27400f 	jal	0x1d009f68
1d00a73c:	1000a627 	addiu	a2,sp,16
1d00a740:	12004050 	beqzl	v0,0x1d00a78c
1d00a744:	2400bf8f 	lw	ra,36(sp)
1d00a748:	aa5d400f 	jal	0x1d0176a8
1d00a74c:	21204000 	move	a0,v0
1d00a750:	e329400b 	j	0x1d00a78c
1d00a754:	2400bf8f 	lw	ra,36(sp)
1d00a758:	1400a0af 	sw	zero,20(sp)
1d00a75c:	1800a0af 	sw	zero,24(sp)
1d00a760:	1c00a0af 	sw	zero,28(sp)
1d00a764:	01006990 	lbu	t1,1(v1)
1d00a768:	01002531 	andi	a1,t1,0x1
1d00a76c:	50ffa054 	bnezl	a1,0x1d00a4b0
1d00a770:	1800a58f 	lw	a1,24(sp)
1d00a774:	3029400b 	j	0x1d00a4c0
1d00a778:	02006590 	lbu	a1,2(v1)
1d00a77c:	1400a0af 	sw	zero,20(sp)
1d00a780:	1800a0af 	sw	zero,24(sp)
1d00a784:	4d29400b 	j	0x1d00a534
1d00a788:	1c00a0af 	sw	zero,28(sp)
1d00a78c:	0800e003 	jr	ra
1d00a790:	2800bd27 	addiu	sp,sp,40
1d00a794:	e8ffbd27 	addiu	sp,sp,-24
1d00a798:	1400bfaf 	sw	ra,20(sp)
1d00a79c:	7527400f 	jal	0x1d009dd4
1d00a7a0:	01000424 	li	a0,1
1d00a7a4:	1400bf8f 	lw	ra,20(sp)
1d00a7a8:	0800e003 	jr	ra
1d00a7ac:	1800bd27 	addiu	sp,sp,24
1d00a7b0:	e8ffbd27 	addiu	sp,sp,-24
1d00a7b4:	1400bfaf 	sw	ra,20(sp)
1d00a7b8:	7527400f 	jal	0x1d009dd4
1d00a7bc:	21200000 	move	a0,zero
1d00a7c0:	1400bf8f 	lw	ra,20(sp)
1d00a7c4:	0800e003 	jr	ra
1d00a7c8:	1800bd27 	addiu	sp,sp,24
1d00a7cc:	e8ffbd27 	addiu	sp,sp,-24
1d00a7d0:	1400bfaf 	sw	ra,20(sp)
1d00a7d4:	0c56400f 	jal	0x1d015830
1d00a7d8:	1000b0af 	sw	s0,16(sp)
1d00a7dc:	615c400f 	jal	0x1d017184
1d00a7e0:	0700103c 	lui	s0,0x7
1d00a7e4:	5f73400f 	jal	0x1d01cd7c
1d00a7e8:	00000000 	nop
1d00a7ec:	f461400f 	jal	0x1d0187d0
1d00a7f0:	20a10436 	ori	a0,s0,0xa120
1d00a7f4:	2863400f 	jal	0x1d018ca0
1d00a7f8:	20a10436 	ori	a0,s0,0xa120
1d00a7fc:	5c64400f 	jal	0x1d019170
1d00a800:	20a10436 	ori	a0,s0,0xa120
1d00a804:	2065400f 	jal	0x1d019480
1d00a808:	20a10436 	ori	a0,s0,0xa120
1d00a80c:	00a0023c 	lui	v0,0xa000
1d00a810:	80014224 	addiu	v0,v0,384
1d00a814:	05000424 	li	a0,5
1d00a818:	0c0044ac 	sw	a0,12(v0)
1d00a81c:	100040ac 	sw	zero,16(v0)
1d00a820:	1e000324 	li	v1,30
1d00a824:	140043ac 	sw	v1,20(v0)
1d00a828:	180040a0 	sb	zero,24(v0)
1d00a82c:	00a0033c 	lui	v1,0xa000
1d00a830:	9c0160ac 	sw	zero,412(v1)
1d00a834:	9c016324 	addiu	v1,v1,412
1d00a838:	040060ac 	sw	zero,4(v1)
1d00a83c:	080060ac 	sw	zero,8(v1)
1d00a840:	0c0060ac 	sw	zero,12(v1)
1d00a844:	100060ac 	sw	zero,16(v1)
1d00a848:	140060ac 	sw	zero,20(v1)
1d00a84c:	180060ac 	sw	zero,24(v1)
1d00a850:	380044ac 	sw	a0,56(v0)
1d00a854:	32000324 	li	v1,50
1d00a858:	3c0043ac 	sw	v1,60(v0)
1d00a85c:	400040ac 	sw	zero,64(v0)
1d00a860:	440040a0 	sb	zero,68(v0)
1d00a864:	00a0023c 	lui	v0,0xa000
1d00a868:	c80140ac 	sw	zero,456(v0)
1d00a86c:	c8014224 	addiu	v0,v0,456
1d00a870:	040040ac 	sw	zero,4(v0)
1d00a874:	080040ac 	sw	zero,8(v0)
1d00a878:	0c0040ac 	sw	zero,12(v0)
1d00a87c:	100040ac 	sw	zero,16(v0)
1d00a880:	140040ac 	sw	zero,20(v0)
1d00a884:	180040ac 	sw	zero,24(v0)
1d00a888:	01a0023c 	lui	v0,0xa001
1d00a88c:	943044ac 	sw	a0,12436(v0)
1d00a890:	94304224 	addiu	v0,v0,12436
1d00a894:	c8000524 	li	a1,200
1d00a898:	040045ac 	sw	a1,4(v0)
1d00a89c:	080040ac 	sw	zero,8(v0)
1d00a8a0:	01000324 	li	v1,1
1d00a8a4:	0c0043a0 	sb	v1,12(v0)
1d00a8a8:	01a0023c 	lui	v0,0xa001
1d00a8ac:	a43040ac 	sw	zero,12452(v0)
1d00a8b0:	a4304224 	addiu	v0,v0,12452
1d00a8b4:	040040ac 	sw	zero,4(v0)
1d00a8b8:	080040ac 	sw	zero,8(v0)
1d00a8bc:	0c0040ac 	sw	zero,12(v0)
1d00a8c0:	100040ac 	sw	zero,16(v0)
1d00a8c4:	140040ac 	sw	zero,20(v0)
1d00a8c8:	180040ac 	sw	zero,24(v0)
1d00a8cc:	01a0023c 	lui	v0,0xa001
1d00a8d0:	683044ac 	sw	a0,12392(v0)
1d00a8d4:	68304224 	addiu	v0,v0,12392
1d00a8d8:	040045ac 	sw	a1,4(v0)
1d00a8dc:	080040ac 	sw	zero,8(v0)
1d00a8e0:	0c0043a0 	sb	v1,12(v0)
1d00a8e4:	01a0023c 	lui	v0,0xa001
1d00a8e8:	783040ac 	sw	zero,12408(v0)
1d00a8ec:	78304224 	addiu	v0,v0,12408
1d00a8f0:	040040ac 	sw	zero,4(v0)
1d00a8f4:	080040ac 	sw	zero,8(v0)
1d00a8f8:	0c0040ac 	sw	zero,12(v0)
1d00a8fc:	100040ac 	sw	zero,16(v0)
1d00a900:	140040ac 	sw	zero,20(v0)
1d00a904:	180040ac 	sw	zero,24(v0)
1d00a908:	1400bf8f 	lw	ra,20(sp)
1d00a90c:	1000b08f 	lw	s0,16(sp)
1d00a910:	0800e003 	jr	ra
1d00a914:	1800bd27 	addiu	sp,sp,24
1d00a918:	70ffbd27 	addiu	sp,sp,-144
1d00a91c:	8c00bfaf 	sw	ra,140(sp)
1d00a920:	8800b7af 	sw	s7,136(sp)
1d00a924:	8400b6af 	sw	s6,132(sp)
1d00a928:	8000b5af 	sw	s5,128(sp)
1d00a92c:	7c00b4af 	sw	s4,124(sp)
1d00a930:	7800b3af 	sw	s3,120(sp)
1d00a934:	7400b2af 	sw	s2,116(sp)
1d00a938:	7000b1af 	sw	s1,112(sp)
1d00a93c:	6c00b0af 	sw	s0,108(sp)
1d00a940:	01a0023c 	lui	v0,0xa001
1d00a944:	98324290 	lbu	v0,12952(v0)
1d00a948:	0a004010 	beqz	v0,0x1d00a974
1d00a94c:	01000324 	li	v1,1
1d00a950:	01a0033c 	lui	v1,0xa001
1d00a954:	90326224 	addiu	v0,v1,12944
1d00a958:	0400458c 	lw	a1,4(v0)
1d00a95c:	ffffa524 	addiu	a1,a1,-1
1d00a960:	9032638c 	lw	v1,12944(v1)
1d00a964:	23188300 	subu	v1,a0,v1
1d00a968:	2118a300 	addu	v1,a1,v1
1d00a96c:	5f2a400b 	j	0x1d00a97c
1d00a970:	040043ac 	sw	v1,4(v0)
1d00a974:	01a0023c 	lui	v0,0xa001
1d00a978:	983243a0 	sb	v1,12952(v0)
1d00a97c:	01a0023c 	lui	v0,0xa001
1d00a980:	bb60400f 	jal	0x1d0182ec
1d00a984:	903244ac 	sw	a0,12944(v0)
1d00a988:	dc80828f 	lw	v0,-32548(gp)
1d00a98c:	01004224 	addiu	v0,v0,1
1d00a990:	dc8082af 	sw	v0,-32548(gp)
1d00a994:	cc80828f 	lw	v0,-32564(gp)
1d00a998:	01004224 	addiu	v0,v0,1
1d00a99c:	cccc033c 	lui	v1,0xcccc
1d00a9a0:	cdcc6334 	ori	v1,v1,0xcccd
1d00a9a4:	19004300 	multu	v0,v1
1d00a9a8:	10180000 	mfhi	v1
1d00a9ac:	02190300 	srl	v1,v1,0x4
1d00a9b0:	80200300 	sll	a0,v1,0x2
1d00a9b4:	00190300 	sll	v1,v1,0x4
1d00a9b8:	21188300 	addu	v1,a0,v1
1d00a9bc:	23104300 	subu	v0,v0,v1
1d00a9c0:	cc8082af 	sw	v0,-32564(gp)
1d00a9c4:	2880828f 	lw	v0,-32728(gp)
1d00a9c8:	01004224 	addiu	v0,v0,1
1d00a9cc:	eb51043c 	lui	a0,0x51eb
1d00a9d0:	1f858434 	ori	a0,a0,0x851f
1d00a9d4:	19004400 	multu	v0,a0
1d00a9d8:	10200000 	mfhi	a0
1d00a9dc:	02210400 	srl	a0,a0,0x4
1d00a9e0:	40180400 	sll	v1,a0,0x1
1d00a9e4:	c0200400 	sll	a0,a0,0x3
1d00a9e8:	21186400 	addu	v1,v1,a0
1d00a9ec:	80200300 	sll	a0,v1,0x2
1d00a9f0:	21186400 	addu	v1,v1,a0
1d00a9f4:	23104300 	subu	v0,v0,v1
1d00a9f8:	288082af 	sw	v0,-32728(gp)
1d00a9fc:	2480838f 	lw	v1,-32732(gp)
1d00aa00:	01006324 	addiu	v1,v1,1
1d00aa04:	6210023c 	lui	v0,0x1062
1d00aa08:	d34d4224 	addiu	v0,v0,19923
1d00aa0c:	19006200 	multu	v1,v0
1d00aa10:	10100000 	mfhi	v0
1d00aa14:	02110200 	srl	v0,v0,0x4
1d00aa18:	80200200 	sll	a0,v0,0x2
1d00aa1c:	c0290200 	sll	a1,v0,0x7
1d00aa20:	2320a400 	subu	a0,a1,a0
1d00aa24:	21108200 	addu	v0,a0,v0
1d00aa28:	40100200 	sll	v0,v0,0x1
1d00aa2c:	23186200 	subu	v1,v1,v0
1d00aa30:	8e69400f 	jal	0x1d01a638
1d00aa34:	248083af 	sw	v1,-32732(gp)
1d00aa38:	936c400f 	jal	0x1d01b24c
1d00aa3c:	00000000 	nop
1d00aa40:	04004010 	beqz	v0,0x1d00aa54
1d00aa44:	01a0023c 	lui	v0,0xa001
1d00aa48:	e8030224 	li	v0,1000
1d00aa4c:	d08082af 	sw	v0,-32560(gp)
1d00aa50:	01a0023c 	lui	v0,0xa001
1d00aa54:	3035438c 	lw	v1,13616(v0)
1d00aa58:	01000224 	li	v0,1
1d00aa5c:	2c006214 	bne	v1,v0,0x1d00ab10
1d00aa60:	01a0023c 	lui	v0,0xa001
1d00aa64:	01a0023c 	lui	v0,0xa001
1d00aa68:	c034428c 	lw	v0,13504(v0)
1d00aa6c:	0400422c 	sltiu	v0,v0,4
1d00aa70:	27004014 	bnez	v0,0x1d00ab10
1d00aa74:	01a0023c 	lui	v0,0xa001
1d00aa78:	01a0023c 	lui	v0,0xa001
1d00aa7c:	e034428c 	lw	v0,13536(v0)
1d00aa80:	0400422c 	sltiu	v0,v0,4
1d00aa84:	96074050 	beqzl	v0,0x1d00c8e0
1d00aa88:	01a0023c 	lui	v0,0xa001
1d00aa8c:	c42a400b 	j	0x1d00ab10
1d00aa90:	01a0023c 	lui	v0,0xa001
1d00aa94:	9c33428c 	lw	v0,13212(v0)
1d00aa98:	0400422c 	sltiu	v0,v0,4
1d00aa9c:	96074050 	beqzl	v0,0x1d00c8f8
1d00aaa0:	01a0023c 	lui	v0,0xa001
1d00aaa4:	c42a400b 	j	0x1d00ab10
1d00aaa8:	01a0023c 	lui	v0,0xa001
1d00aaac:	8a014290 	lbu	v0,394(v0)
1d00aab0:	16004014 	bnez	v0,0x1d00ab0c
1d00aab4:	00a0023c 	lui	v0,0xa000
1d00aab8:	8b014290 	lbu	v0,395(v0)
1d00aabc:	14004014 	bnez	v0,0x1d00ab10
1d00aac0:	01a0023c 	lui	v0,0xa001
1d00aac4:	8f6c400f 	jal	0x1d01b23c
1d00aac8:	00000000 	nop
1d00aacc:	05004010 	beqz	v0,0x1d00aae4
1d00aad0:	00000000 	nop
1d00aad4:	9a6c400f 	jal	0x1d01b268
1d00aad8:	00000000 	nop
1d00aadc:	0c004010 	beqz	v0,0x1d00ab10
1d00aae0:	01a0023c 	lui	v0,0xa001
1d00aae4:	c073400f 	jal	0x1d01cf00
1d00aae8:	00000000 	nop
1d00aaec:	07004014 	bnez	v0,0x1d00ab0c
1d00aaf0:	01a0023c 	lui	v0,0xa001
1d00aaf4:	b434438c 	lw	v1,13492(v0)
1d00aaf8:	c000023c 	lui	v0,0xc0
1d00aafc:	24186200 	and	v1,v1,v0
1d00ab00:	8000023c 	lui	v0,0x80
1d00ab04:	84076210 	beq	v1,v0,0x1d00c918
1d00ab08:	e8030224 	li	v0,1000
1d00ab0c:	01a0023c 	lui	v0,0xa001
1d00ab10:	a832428c 	lw	v0,12968(v0)
1d00ab14:	05004050 	beqzl	v0,0x1d00ab2c
1d00ab18:	01a0023c 	lui	v0,0xa001
1d00ab1c:	ffff4224 	addiu	v0,v0,-1
1d00ab20:	01a0033c 	lui	v1,0xa001
1d00ab24:	cc2a400b 	j	0x1d00ab30
1d00ab28:	a83262ac 	sw	v0,12968(v1)
1d00ab2c:	ac3240ac 	sw	zero,12972(v0)
1d00ab30:	01a0023c 	lui	v0,0xa001
1d00ab34:	b832428c 	lw	v0,12984(v0)
1d00ab38:	05004050 	beqzl	v0,0x1d00ab50
1d00ab3c:	01a0023c 	lui	v0,0xa001
1d00ab40:	ffff4224 	addiu	v0,v0,-1
1d00ab44:	01a0033c 	lui	v1,0xa001
1d00ab48:	d52a400b 	j	0x1d00ab54
1d00ab4c:	b83262ac 	sw	v0,12984(v1)
1d00ab50:	bc3240ac 	sw	zero,12988(v0)
1d00ab54:	01a0023c 	lui	v0,0xa001
1d00ab58:	c832428c 	lw	v0,13000(v0)
1d00ab5c:	05004050 	beqzl	v0,0x1d00ab74
1d00ab60:	01a0023c 	lui	v0,0xa001
1d00ab64:	ffff4224 	addiu	v0,v0,-1
1d00ab68:	01a0033c 	lui	v1,0xa001
1d00ab6c:	de2a400b 	j	0x1d00ab78
1d00ab70:	c83262ac 	sw	v0,13000(v1)
1d00ab74:	cc3240ac 	sw	zero,13004(v0)
1d00ab78:	01a0023c 	lui	v0,0xa001
1d00ab7c:	d832428c 	lw	v0,13016(v0)
1d00ab80:	05004050 	beqzl	v0,0x1d00ab98
1d00ab84:	01a0023c 	lui	v0,0xa001
1d00ab88:	ffff4224 	addiu	v0,v0,-1
1d00ab8c:	01a0033c 	lui	v1,0xa001
1d00ab90:	e72a400b 	j	0x1d00ab9c
1d00ab94:	d83262ac 	sw	v0,13016(v1)
1d00ab98:	dc3240ac 	sw	zero,13020(v0)
1d00ab9c:	01a0023c 	lui	v0,0xa001
1d00aba0:	e832428c 	lw	v0,13032(v0)
1d00aba4:	05004050 	beqzl	v0,0x1d00abbc
1d00aba8:	01a0023c 	lui	v0,0xa001
1d00abac:	ffff4224 	addiu	v0,v0,-1
1d00abb0:	01a0033c 	lui	v1,0xa001
1d00abb4:	f02a400b 	j	0x1d00abc0
1d00abb8:	e83262ac 	sw	v0,13032(v1)
1d00abbc:	ec3240ac 	sw	zero,13036(v0)
1d00abc0:	01a0023c 	lui	v0,0xa001
1d00abc4:	f832428c 	lw	v0,13048(v0)
1d00abc8:	05004050 	beqzl	v0,0x1d00abe0
1d00abcc:	01a0023c 	lui	v0,0xa001
1d00abd0:	ffff4224 	addiu	v0,v0,-1
1d00abd4:	01a0033c 	lui	v1,0xa001
1d00abd8:	f92a400b 	j	0x1d00abe4
1d00abdc:	f83262ac 	sw	v0,13048(v1)
1d00abe0:	fc3240ac 	sw	zero,13052(v0)
1d00abe4:	01a0023c 	lui	v0,0xa001
1d00abe8:	0833428c 	lw	v0,13064(v0)
1d00abec:	05004050 	beqzl	v0,0x1d00ac04
1d00abf0:	01a0023c 	lui	v0,0xa001
1d00abf4:	ffff4224 	addiu	v0,v0,-1
1d00abf8:	01a0033c 	lui	v1,0xa001
1d00abfc:	022b400b 	j	0x1d00ac08
1d00ac00:	083362ac 	sw	v0,13064(v1)
1d00ac04:	0c3340ac 	sw	zero,13068(v0)
1d00ac08:	01a0023c 	lui	v0,0xa001
1d00ac0c:	1833428c 	lw	v0,13080(v0)
1d00ac10:	05004050 	beqzl	v0,0x1d00ac28
1d00ac14:	01a0023c 	lui	v0,0xa001
1d00ac18:	ffff4224 	addiu	v0,v0,-1
1d00ac1c:	01a0033c 	lui	v1,0xa001
1d00ac20:	0b2b400b 	j	0x1d00ac2c
1d00ac24:	183362ac 	sw	v0,13080(v1)
1d00ac28:	1c3340ac 	sw	zero,13084(v0)
1d00ac2c:	01a0023c 	lui	v0,0xa001
1d00ac30:	2833428c 	lw	v0,13096(v0)
1d00ac34:	05004050 	beqzl	v0,0x1d00ac4c
1d00ac38:	01a0023c 	lui	v0,0xa001
1d00ac3c:	ffff4224 	addiu	v0,v0,-1
1d00ac40:	01a0033c 	lui	v1,0xa001
1d00ac44:	142b400b 	j	0x1d00ac50
1d00ac48:	283362ac 	sw	v0,13096(v1)
1d00ac4c:	2c3340ac 	sw	zero,13100(v0)
1d00ac50:	01a0023c 	lui	v0,0xa001
1d00ac54:	3833428c 	lw	v0,13112(v0)
1d00ac58:	05004050 	beqzl	v0,0x1d00ac70
1d00ac5c:	01a0023c 	lui	v0,0xa001
1d00ac60:	ffff4224 	addiu	v0,v0,-1
1d00ac64:	01a0033c 	lui	v1,0xa001
1d00ac68:	1d2b400b 	j	0x1d00ac74
1d00ac6c:	383362ac 	sw	v0,13112(v1)
1d00ac70:	3c3340ac 	sw	zero,13116(v0)
1d00ac74:	01a0023c 	lui	v0,0xa001
1d00ac78:	4833428c 	lw	v0,13128(v0)
1d00ac7c:	05004050 	beqzl	v0,0x1d00ac94
1d00ac80:	01a0023c 	lui	v0,0xa001
1d00ac84:	ffff4224 	addiu	v0,v0,-1
1d00ac88:	01a0033c 	lui	v1,0xa001
1d00ac8c:	262b400b 	j	0x1d00ac98
1d00ac90:	483362ac 	sw	v0,13128(v1)
1d00ac94:	4c3340ac 	sw	zero,13132(v0)
1d00ac98:	01a0023c 	lui	v0,0xa001
1d00ac9c:	5833428c 	lw	v0,13144(v0)
1d00aca0:	05004050 	beqzl	v0,0x1d00acb8
1d00aca4:	01a0023c 	lui	v0,0xa001
1d00aca8:	ffff4224 	addiu	v0,v0,-1
1d00acac:	01a0033c 	lui	v1,0xa001
1d00acb0:	2f2b400b 	j	0x1d00acbc
1d00acb4:	583362ac 	sw	v0,13144(v1)
1d00acb8:	5c3340ac 	sw	zero,13148(v0)
1d00acbc:	01a0023c 	lui	v0,0xa001
1d00acc0:	6833428c 	lw	v0,13160(v0)
1d00acc4:	05004050 	beqzl	v0,0x1d00acdc
1d00acc8:	01a0023c 	lui	v0,0xa001
1d00accc:	ffff4224 	addiu	v0,v0,-1
1d00acd0:	01a0033c 	lui	v1,0xa001
1d00acd4:	382b400b 	j	0x1d00ace0
1d00acd8:	683362ac 	sw	v0,13160(v1)
1d00acdc:	6c3340ac 	sw	zero,13164(v0)
1d00ace0:	01a0023c 	lui	v0,0xa001
1d00ace4:	7833428c 	lw	v0,13176(v0)
1d00ace8:	05004050 	beqzl	v0,0x1d00ad00
1d00acec:	01a0023c 	lui	v0,0xa001
1d00acf0:	ffff4224 	addiu	v0,v0,-1
1d00acf4:	01a0033c 	lui	v1,0xa001
1d00acf8:	412b400b 	j	0x1d00ad04
1d00acfc:	783362ac 	sw	v0,13176(v1)
1d00ad00:	7c3340ac 	sw	zero,13180(v0)
1d00ad04:	01a0023c 	lui	v0,0xa001
1d00ad08:	8833428c 	lw	v0,13192(v0)
1d00ad0c:	05004050 	beqzl	v0,0x1d00ad24
1d00ad10:	01a0023c 	lui	v0,0xa001
1d00ad14:	ffff4224 	addiu	v0,v0,-1
1d00ad18:	01a0033c 	lui	v1,0xa001
1d00ad1c:	4a2b400b 	j	0x1d00ad28
1d00ad20:	883362ac 	sw	v0,13192(v1)
1d00ad24:	8c3340ac 	sw	zero,13196(v0)
1d00ad28:	01a0023c 	lui	v0,0xa001
1d00ad2c:	9833428c 	lw	v0,13208(v0)
1d00ad30:	05004050 	beqzl	v0,0x1d00ad48
1d00ad34:	01a0023c 	lui	v0,0xa001
1d00ad38:	ffff4224 	addiu	v0,v0,-1
1d00ad3c:	01a0033c 	lui	v1,0xa001
1d00ad40:	532b400b 	j	0x1d00ad4c
1d00ad44:	983362ac 	sw	v0,13208(v1)
1d00ad48:	9c3340ac 	sw	zero,13212(v0)
1d00ad4c:	01a0023c 	lui	v0,0xa001
1d00ad50:	a833428c 	lw	v0,13224(v0)
1d00ad54:	05004050 	beqzl	v0,0x1d00ad6c
1d00ad58:	01a0023c 	lui	v0,0xa001
1d00ad5c:	ffff4224 	addiu	v0,v0,-1
1d00ad60:	01a0033c 	lui	v1,0xa001
1d00ad64:	5c2b400b 	j	0x1d00ad70
1d00ad68:	a83362ac 	sw	v0,13224(v1)
1d00ad6c:	ac3340ac 	sw	zero,13228(v0)
1d00ad70:	01a0023c 	lui	v0,0xa001
1d00ad74:	b833428c 	lw	v0,13240(v0)
1d00ad78:	05004050 	beqzl	v0,0x1d00ad90
1d00ad7c:	01a0023c 	lui	v0,0xa001
1d00ad80:	ffff4224 	addiu	v0,v0,-1
1d00ad84:	01a0033c 	lui	v1,0xa001
1d00ad88:	652b400b 	j	0x1d00ad94
1d00ad8c:	b83362ac 	sw	v0,13240(v1)
1d00ad90:	bc3340ac 	sw	zero,13244(v0)
1d00ad94:	01a0023c 	lui	v0,0xa001
1d00ad98:	c833428c 	lw	v0,13256(v0)
1d00ad9c:	05004050 	beqzl	v0,0x1d00adb4
1d00ada0:	01a0023c 	lui	v0,0xa001
1d00ada4:	ffff4224 	addiu	v0,v0,-1
1d00ada8:	01a0033c 	lui	v1,0xa001
1d00adac:	6e2b400b 	j	0x1d00adb8
1d00adb0:	c83362ac 	sw	v0,13256(v1)
1d00adb4:	cc3340ac 	sw	zero,13260(v0)
1d00adb8:	01a0023c 	lui	v0,0xa001
1d00adbc:	d833428c 	lw	v0,13272(v0)
1d00adc0:	05004050 	beqzl	v0,0x1d00add8
1d00adc4:	01a0023c 	lui	v0,0xa001
1d00adc8:	ffff4224 	addiu	v0,v0,-1
1d00adcc:	01a0033c 	lui	v1,0xa001
1d00add0:	772b400b 	j	0x1d00addc
1d00add4:	d83362ac 	sw	v0,13272(v1)
1d00add8:	dc3340ac 	sw	zero,13276(v0)
1d00addc:	01a0023c 	lui	v0,0xa001
1d00ade0:	e833428c 	lw	v0,13288(v0)
1d00ade4:	05004050 	beqzl	v0,0x1d00adfc
1d00ade8:	01a0023c 	lui	v0,0xa001
1d00adec:	ffff4224 	addiu	v0,v0,-1
1d00adf0:	01a0033c 	lui	v1,0xa001
1d00adf4:	802b400b 	j	0x1d00ae00
1d00adf8:	e83362ac 	sw	v0,13288(v1)
1d00adfc:	ec3340ac 	sw	zero,13292(v0)
1d00ae00:	01a0023c 	lui	v0,0xa001
1d00ae04:	f833428c 	lw	v0,13304(v0)
1d00ae08:	05004050 	beqzl	v0,0x1d00ae20
1d00ae0c:	01a0023c 	lui	v0,0xa001
1d00ae10:	ffff4224 	addiu	v0,v0,-1
1d00ae14:	01a0033c 	lui	v1,0xa001
1d00ae18:	892b400b 	j	0x1d00ae24
1d00ae1c:	f83362ac 	sw	v0,13304(v1)
1d00ae20:	fc3340ac 	sw	zero,13308(v0)
1d00ae24:	01a0023c 	lui	v0,0xa001
1d00ae28:	0834428c 	lw	v0,13320(v0)
1d00ae2c:	05004050 	beqzl	v0,0x1d00ae44
1d00ae30:	01a0023c 	lui	v0,0xa001
1d00ae34:	ffff4224 	addiu	v0,v0,-1
1d00ae38:	01a0033c 	lui	v1,0xa001
1d00ae3c:	922b400b 	j	0x1d00ae48
1d00ae40:	083462ac 	sw	v0,13320(v1)
1d00ae44:	0c3440ac 	sw	zero,13324(v0)
1d00ae48:	01a0023c 	lui	v0,0xa001
1d00ae4c:	1834428c 	lw	v0,13336(v0)
1d00ae50:	05004050 	beqzl	v0,0x1d00ae68
1d00ae54:	01a0023c 	lui	v0,0xa001
1d00ae58:	ffff4224 	addiu	v0,v0,-1
1d00ae5c:	01a0033c 	lui	v1,0xa001
1d00ae60:	9b2b400b 	j	0x1d00ae6c
1d00ae64:	183462ac 	sw	v0,13336(v1)
1d00ae68:	1c3440ac 	sw	zero,13340(v0)
1d00ae6c:	01a0023c 	lui	v0,0xa001
1d00ae70:	2834428c 	lw	v0,13352(v0)
1d00ae74:	05004050 	beqzl	v0,0x1d00ae8c
1d00ae78:	01a0023c 	lui	v0,0xa001
1d00ae7c:	ffff4224 	addiu	v0,v0,-1
1d00ae80:	01a0033c 	lui	v1,0xa001
1d00ae84:	a42b400b 	j	0x1d00ae90
1d00ae88:	283462ac 	sw	v0,13352(v1)
1d00ae8c:	2c3440ac 	sw	zero,13356(v0)
1d00ae90:	01a0023c 	lui	v0,0xa001
1d00ae94:	3834428c 	lw	v0,13368(v0)
1d00ae98:	05004050 	beqzl	v0,0x1d00aeb0
1d00ae9c:	01a0023c 	lui	v0,0xa001
1d00aea0:	ffff4224 	addiu	v0,v0,-1
1d00aea4:	01a0033c 	lui	v1,0xa001
1d00aea8:	ad2b400b 	j	0x1d00aeb4
1d00aeac:	383462ac 	sw	v0,13368(v1)
1d00aeb0:	3c3440ac 	sw	zero,13372(v0)
1d00aeb4:	01a0023c 	lui	v0,0xa001
1d00aeb8:	4834428c 	lw	v0,13384(v0)
1d00aebc:	05004050 	beqzl	v0,0x1d00aed4
1d00aec0:	01a0023c 	lui	v0,0xa001
1d00aec4:	ffff4224 	addiu	v0,v0,-1
1d00aec8:	01a0033c 	lui	v1,0xa001
1d00aecc:	b62b400b 	j	0x1d00aed8
1d00aed0:	483462ac 	sw	v0,13384(v1)
1d00aed4:	4c3440ac 	sw	zero,13388(v0)
1d00aed8:	01a0023c 	lui	v0,0xa001
1d00aedc:	5834428c 	lw	v0,13400(v0)
1d00aee0:	05004050 	beqzl	v0,0x1d00aef8
1d00aee4:	01a0023c 	lui	v0,0xa001
1d00aee8:	ffff4224 	addiu	v0,v0,-1
1d00aeec:	01a0033c 	lui	v1,0xa001
1d00aef0:	bf2b400b 	j	0x1d00aefc
1d00aef4:	583462ac 	sw	v0,13400(v1)
1d00aef8:	5c3440ac 	sw	zero,13404(v0)
1d00aefc:	01a0023c 	lui	v0,0xa001
1d00af00:	6834428c 	lw	v0,13416(v0)
1d00af04:	05004050 	beqzl	v0,0x1d00af1c
1d00af08:	01a0023c 	lui	v0,0xa001
1d00af0c:	ffff4224 	addiu	v0,v0,-1
1d00af10:	01a0033c 	lui	v1,0xa001
1d00af14:	c82b400b 	j	0x1d00af20
1d00af18:	683462ac 	sw	v0,13416(v1)
1d00af1c:	6c3440ac 	sw	zero,13420(v0)
1d00af20:	01a0023c 	lui	v0,0xa001
1d00af24:	7834428c 	lw	v0,13432(v0)
1d00af28:	05004050 	beqzl	v0,0x1d00af40
1d00af2c:	01a0023c 	lui	v0,0xa001
1d00af30:	ffff4224 	addiu	v0,v0,-1
1d00af34:	01a0033c 	lui	v1,0xa001
1d00af38:	d12b400b 	j	0x1d00af44
1d00af3c:	783462ac 	sw	v0,13432(v1)
1d00af40:	7c3440ac 	sw	zero,13436(v0)
1d00af44:	01a0023c 	lui	v0,0xa001
1d00af48:	8834428c 	lw	v0,13448(v0)
1d00af4c:	05004050 	beqzl	v0,0x1d00af64
1d00af50:	01a0023c 	lui	v0,0xa001
1d00af54:	ffff4224 	addiu	v0,v0,-1
1d00af58:	01a0033c 	lui	v1,0xa001
1d00af5c:	da2b400b 	j	0x1d00af68
1d00af60:	883462ac 	sw	v0,13448(v1)
1d00af64:	8c3440ac 	sw	zero,13452(v0)
1d00af68:	01a0023c 	lui	v0,0xa001
1d00af6c:	9834428c 	lw	v0,13464(v0)
1d00af70:	05004050 	beqzl	v0,0x1d00af88
1d00af74:	01a0023c 	lui	v0,0xa001
1d00af78:	ffff4224 	addiu	v0,v0,-1
1d00af7c:	01a0033c 	lui	v1,0xa001
1d00af80:	e32b400b 	j	0x1d00af8c
1d00af84:	983462ac 	sw	v0,13464(v1)
1d00af88:	9c3440ac 	sw	zero,13468(v0)
1d00af8c:	01a0023c 	lui	v0,0xa001
1d00af90:	a834428c 	lw	v0,13480(v0)
1d00af94:	05004050 	beqzl	v0,0x1d00afac
1d00af98:	01a0023c 	lui	v0,0xa001
1d00af9c:	ffff4224 	addiu	v0,v0,-1
1d00afa0:	01a0033c 	lui	v1,0xa001
1d00afa4:	ec2b400b 	j	0x1d00afb0
1d00afa8:	a83462ac 	sw	v0,13480(v1)
1d00afac:	ac3440ac 	sw	zero,13484(v0)
1d00afb0:	01a0023c 	lui	v0,0xa001
1d00afb4:	bc34428c 	lw	v0,13500(v0)
1d00afb8:	05004050 	beqzl	v0,0x1d00afd0
1d00afbc:	01a0023c 	lui	v0,0xa001
1d00afc0:	ffff4224 	addiu	v0,v0,-1
1d00afc4:	01a0033c 	lui	v1,0xa001
1d00afc8:	f52b400b 	j	0x1d00afd4
1d00afcc:	bc3462ac 	sw	v0,13500(v1)
1d00afd0:	c03440ac 	sw	zero,13504(v0)
1d00afd4:	01a0023c 	lui	v0,0xa001
1d00afd8:	cc34428c 	lw	v0,13516(v0)
1d00afdc:	05004050 	beqzl	v0,0x1d00aff4
1d00afe0:	01a0023c 	lui	v0,0xa001
1d00afe4:	ffff4224 	addiu	v0,v0,-1
1d00afe8:	01a0033c 	lui	v1,0xa001
1d00afec:	fe2b400b 	j	0x1d00aff8
1d00aff0:	cc3462ac 	sw	v0,13516(v1)
1d00aff4:	d03440ac 	sw	zero,13520(v0)
1d00aff8:	01a0023c 	lui	v0,0xa001
1d00affc:	dc34428c 	lw	v0,13532(v0)
1d00b000:	05004050 	beqzl	v0,0x1d00b018
1d00b004:	01a0023c 	lui	v0,0xa001
1d00b008:	ffff4224 	addiu	v0,v0,-1
1d00b00c:	01a0033c 	lui	v1,0xa001
1d00b010:	072c400b 	j	0x1d00b01c
1d00b014:	dc3462ac 	sw	v0,13532(v1)
1d00b018:	e03440ac 	sw	zero,13536(v0)
1d00b01c:	01a0023c 	lui	v0,0xa001
1d00b020:	f034428c 	lw	v0,13552(v0)
1d00b024:	05004050 	beqzl	v0,0x1d00b03c
1d00b028:	01a0023c 	lui	v0,0xa001
1d00b02c:	ffff4224 	addiu	v0,v0,-1
1d00b030:	01a0033c 	lui	v1,0xa001
1d00b034:	102c400b 	j	0x1d00b040
1d00b038:	f03462ac 	sw	v0,13552(v1)
1d00b03c:	f43440ac 	sw	zero,13556(v0)
1d00b040:	01a0023c 	lui	v0,0xa001
1d00b044:	0035428c 	lw	v0,13568(v0)
1d00b048:	05004050 	beqzl	v0,0x1d00b060
1d00b04c:	01a0023c 	lui	v0,0xa001
1d00b050:	ffff4224 	addiu	v0,v0,-1
1d00b054:	01a0033c 	lui	v1,0xa001
1d00b058:	192c400b 	j	0x1d00b064
1d00b05c:	003562ac 	sw	v0,13568(v1)
1d00b060:	043540ac 	sw	zero,13572(v0)
1d00b064:	01a0023c 	lui	v0,0xa001
1d00b068:	1035428c 	lw	v0,13584(v0)
1d00b06c:	05004050 	beqzl	v0,0x1d00b084
1d00b070:	01a0023c 	lui	v0,0xa001
1d00b074:	ffff4224 	addiu	v0,v0,-1
1d00b078:	01a0033c 	lui	v1,0xa001
1d00b07c:	222c400b 	j	0x1d00b088
1d00b080:	103562ac 	sw	v0,13584(v1)
1d00b084:	143540ac 	sw	zero,13588(v0)
1d00b088:	01a0023c 	lui	v0,0xa001
1d00b08c:	2035428c 	lw	v0,13600(v0)
1d00b090:	05004050 	beqzl	v0,0x1d00b0a8
1d00b094:	01a0023c 	lui	v0,0xa001
1d00b098:	ffff4224 	addiu	v0,v0,-1
1d00b09c:	01a0033c 	lui	v1,0xa001
1d00b0a0:	2b2c400b 	j	0x1d00b0ac
1d00b0a4:	203562ac 	sw	v0,13600(v1)
1d00b0a8:	243540ac 	sw	zero,13604(v0)
1d00b0ac:	01a0023c 	lui	v0,0xa001
1d00b0b0:	3035428c 	lw	v0,13616(v0)
1d00b0b4:	05004050 	beqzl	v0,0x1d00b0cc
1d00b0b8:	01a0023c 	lui	v0,0xa001
1d00b0bc:	ffff4224 	addiu	v0,v0,-1
1d00b0c0:	01a0033c 	lui	v1,0xa001
1d00b0c4:	342c400b 	j	0x1d00b0d0
1d00b0c8:	303562ac 	sw	v0,13616(v1)
1d00b0cc:	343540ac 	sw	zero,13620(v0)
1d00b0d0:	01a0023c 	lui	v0,0xa001
1d00b0d4:	4035428c 	lw	v0,13632(v0)
1d00b0d8:	05004050 	beqzl	v0,0x1d00b0f0
1d00b0dc:	01a0023c 	lui	v0,0xa001
1d00b0e0:	ffff4224 	addiu	v0,v0,-1
1d00b0e4:	01a0033c 	lui	v1,0xa001
1d00b0e8:	3d2c400b 	j	0x1d00b0f4
1d00b0ec:	403562ac 	sw	v0,13632(v1)
1d00b0f0:	443540ac 	sw	zero,13636(v0)
1d00b0f4:	01a0023c 	lui	v0,0xa001
1d00b0f8:	5035428c 	lw	v0,13648(v0)
1d00b0fc:	05004050 	beqzl	v0,0x1d00b114
1d00b100:	01a0023c 	lui	v0,0xa001
1d00b104:	ffff4224 	addiu	v0,v0,-1
1d00b108:	01a0033c 	lui	v1,0xa001
1d00b10c:	462c400b 	j	0x1d00b118
1d00b110:	503562ac 	sw	v0,13648(v1)
1d00b114:	543540ac 	sw	zero,13652(v0)
1d00b118:	01a0023c 	lui	v0,0xa001
1d00b11c:	6035428c 	lw	v0,13664(v0)
1d00b120:	05004050 	beqzl	v0,0x1d00b138
1d00b124:	01a0023c 	lui	v0,0xa001
1d00b128:	ffff4224 	addiu	v0,v0,-1
1d00b12c:	01a0033c 	lui	v1,0xa001
1d00b130:	4f2c400b 	j	0x1d00b13c
1d00b134:	603562ac 	sw	v0,13664(v1)
1d00b138:	643540ac 	sw	zero,13668(v0)
1d00b13c:	01a0023c 	lui	v0,0xa001
1d00b140:	7035428c 	lw	v0,13680(v0)
1d00b144:	05004050 	beqzl	v0,0x1d00b15c
1d00b148:	01a0023c 	lui	v0,0xa001
1d00b14c:	ffff4224 	addiu	v0,v0,-1
1d00b150:	01a0033c 	lui	v1,0xa001
1d00b154:	582c400b 	j	0x1d00b160
1d00b158:	703562ac 	sw	v0,13680(v1)
1d00b15c:	743540ac 	sw	zero,13684(v0)
1d00b160:	01a0023c 	lui	v0,0xa001
1d00b164:	8035428c 	lw	v0,13696(v0)
1d00b168:	05004050 	beqzl	v0,0x1d00b180
1d00b16c:	01a0023c 	lui	v0,0xa001
1d00b170:	ffff4224 	addiu	v0,v0,-1
1d00b174:	01a0033c 	lui	v1,0xa001
1d00b178:	612c400b 	j	0x1d00b184
1d00b17c:	803562ac 	sw	v0,13696(v1)
1d00b180:	843540ac 	sw	zero,13700(v0)
1d00b184:	01a0023c 	lui	v0,0xa001
1d00b188:	9035428c 	lw	v0,13712(v0)
1d00b18c:	05004050 	beqzl	v0,0x1d00b1a4
1d00b190:	01a0023c 	lui	v0,0xa001
1d00b194:	ffff4224 	addiu	v0,v0,-1
1d00b198:	01a0033c 	lui	v1,0xa001
1d00b19c:	6a2c400b 	j	0x1d00b1a8
1d00b1a0:	903562ac 	sw	v0,13712(v1)
1d00b1a4:	943540ac 	sw	zero,13716(v0)
1d00b1a8:	01a0023c 	lui	v0,0xa001
1d00b1ac:	a035428c 	lw	v0,13728(v0)
1d00b1b0:	05004050 	beqzl	v0,0x1d00b1c8
1d00b1b4:	01a0023c 	lui	v0,0xa001
1d00b1b8:	ffff4224 	addiu	v0,v0,-1
1d00b1bc:	01a0033c 	lui	v1,0xa001
1d00b1c0:	732c400b 	j	0x1d00b1cc
1d00b1c4:	a03562ac 	sw	v0,13728(v1)
1d00b1c8:	a43540ac 	sw	zero,13732(v0)
1d00b1cc:	01a0023c 	lui	v0,0xa001
1d00b1d0:	b035428c 	lw	v0,13744(v0)
1d00b1d4:	05004050 	beqzl	v0,0x1d00b1ec
1d00b1d8:	01a0023c 	lui	v0,0xa001
1d00b1dc:	ffff4224 	addiu	v0,v0,-1
1d00b1e0:	01a0033c 	lui	v1,0xa001
1d00b1e4:	7c2c400b 	j	0x1d00b1f0
1d00b1e8:	b03562ac 	sw	v0,13744(v1)
1d00b1ec:	b43540ac 	sw	zero,13748(v0)
1d00b1f0:	01a0023c 	lui	v0,0xa001
1d00b1f4:	c435428c 	lw	v0,13764(v0)
1d00b1f8:	05004050 	beqzl	v0,0x1d00b210
1d00b1fc:	01a0023c 	lui	v0,0xa001
1d00b200:	ffff4224 	addiu	v0,v0,-1
1d00b204:	01a0033c 	lui	v1,0xa001
1d00b208:	852c400b 	j	0x1d00b214
1d00b20c:	c43562ac 	sw	v0,13764(v1)
1d00b210:	c83540ac 	sw	zero,13768(v0)
1d00b214:	01a0023c 	lui	v0,0xa001
1d00b218:	d435428c 	lw	v0,13780(v0)
1d00b21c:	05004050 	beqzl	v0,0x1d00b234
1d00b220:	01a0023c 	lui	v0,0xa001
1d00b224:	ffff4224 	addiu	v0,v0,-1
1d00b228:	01a0033c 	lui	v1,0xa001
1d00b22c:	8e2c400b 	j	0x1d00b238
1d00b230:	d43562ac 	sw	v0,13780(v1)
1d00b234:	d83540ac 	sw	zero,13784(v0)
1d00b238:	01a0023c 	lui	v0,0xa001
1d00b23c:	e435428c 	lw	v0,13796(v0)
1d00b240:	05004050 	beqzl	v0,0x1d00b258
1d00b244:	01a0023c 	lui	v0,0xa001
1d00b248:	ffff4224 	addiu	v0,v0,-1
1d00b24c:	01a0033c 	lui	v1,0xa001
1d00b250:	972c400b 	j	0x1d00b25c
1d00b254:	e43562ac 	sw	v0,13796(v1)
1d00b258:	e83540ac 	sw	zero,13800(v0)
1d00b25c:	01a0023c 	lui	v0,0xa001
1d00b260:	f435428c 	lw	v0,13812(v0)
1d00b264:	05004050 	beqzl	v0,0x1d00b27c
1d00b268:	01a0023c 	lui	v0,0xa001
1d00b26c:	ffff4224 	addiu	v0,v0,-1
1d00b270:	01a0033c 	lui	v1,0xa001
1d00b274:	a02c400b 	j	0x1d00b280
1d00b278:	f43562ac 	sw	v0,13812(v1)
1d00b27c:	f83540ac 	sw	zero,13816(v0)
1d00b280:	01a0023c 	lui	v0,0xa001
1d00b284:	0436428c 	lw	v0,13828(v0)
1d00b288:	05004050 	beqzl	v0,0x1d00b2a0
1d00b28c:	01a0023c 	lui	v0,0xa001
1d00b290:	ffff4224 	addiu	v0,v0,-1
1d00b294:	01a0033c 	lui	v1,0xa001
1d00b298:	a92c400b 	j	0x1d00b2a4
1d00b29c:	043662ac 	sw	v0,13828(v1)
1d00b2a0:	083640ac 	sw	zero,13832(v0)
1d00b2a4:	01a0023c 	lui	v0,0xa001
1d00b2a8:	1436428c 	lw	v0,13844(v0)
1d00b2ac:	05004050 	beqzl	v0,0x1d00b2c4
1d00b2b0:	01a0023c 	lui	v0,0xa001
1d00b2b4:	ffff4224 	addiu	v0,v0,-1
1d00b2b8:	01a0033c 	lui	v1,0xa001
1d00b2bc:	b22c400b 	j	0x1d00b2c8
1d00b2c0:	143662ac 	sw	v0,13844(v1)
1d00b2c4:	183640ac 	sw	zero,13848(v0)
1d00b2c8:	01a0023c 	lui	v0,0xa001
1d00b2cc:	2436428c 	lw	v0,13860(v0)
1d00b2d0:	05004050 	beqzl	v0,0x1d00b2e8
1d00b2d4:	01a0023c 	lui	v0,0xa001
1d00b2d8:	ffff4224 	addiu	v0,v0,-1
1d00b2dc:	01a0033c 	lui	v1,0xa001
1d00b2e0:	bb2c400b 	j	0x1d00b2ec
1d00b2e4:	243662ac 	sw	v0,13860(v1)
1d00b2e8:	283640ac 	sw	zero,13864(v0)
1d00b2ec:	01a0023c 	lui	v0,0xa001
1d00b2f0:	3436428c 	lw	v0,13876(v0)
1d00b2f4:	05004050 	beqzl	v0,0x1d00b30c
1d00b2f8:	01a0023c 	lui	v0,0xa001
1d00b2fc:	ffff4224 	addiu	v0,v0,-1
1d00b300:	01a0033c 	lui	v1,0xa001
1d00b304:	c42c400b 	j	0x1d00b310
1d00b308:	343662ac 	sw	v0,13876(v1)
1d00b30c:	383640ac 	sw	zero,13880(v0)
1d00b310:	01a0023c 	lui	v0,0xa001
1d00b314:	4436428c 	lw	v0,13892(v0)
1d00b318:	05004050 	beqzl	v0,0x1d00b330
1d00b31c:	01a0023c 	lui	v0,0xa001
1d00b320:	ffff4224 	addiu	v0,v0,-1
1d00b324:	01a0033c 	lui	v1,0xa001
1d00b328:	cd2c400b 	j	0x1d00b334
1d00b32c:	443662ac 	sw	v0,13892(v1)
1d00b330:	483640ac 	sw	zero,13896(v0)
1d00b334:	01a0023c 	lui	v0,0xa001
1d00b338:	5436428c 	lw	v0,13908(v0)
1d00b33c:	05004050 	beqzl	v0,0x1d00b354
1d00b340:	01a0023c 	lui	v0,0xa001
1d00b344:	ffff4224 	addiu	v0,v0,-1
1d00b348:	01a0033c 	lui	v1,0xa001
1d00b34c:	d62c400b 	j	0x1d00b358
1d00b350:	543662ac 	sw	v0,13908(v1)
1d00b354:	583640ac 	sw	zero,13912(v0)
1d00b358:	01a0023c 	lui	v0,0xa001
1d00b35c:	6436428c 	lw	v0,13924(v0)
1d00b360:	05004050 	beqzl	v0,0x1d00b378
1d00b364:	01a0023c 	lui	v0,0xa001
1d00b368:	ffff4224 	addiu	v0,v0,-1
1d00b36c:	01a0033c 	lui	v1,0xa001
1d00b370:	df2c400b 	j	0x1d00b37c
1d00b374:	643662ac 	sw	v0,13924(v1)
1d00b378:	683640ac 	sw	zero,13928(v0)
1d00b37c:	01a0023c 	lui	v0,0xa001
1d00b380:	7436428c 	lw	v0,13940(v0)
1d00b384:	05004050 	beqzl	v0,0x1d00b39c
1d00b388:	01a0023c 	lui	v0,0xa001
1d00b38c:	ffff4224 	addiu	v0,v0,-1
1d00b390:	01a0033c 	lui	v1,0xa001
1d00b394:	e82c400b 	j	0x1d00b3a0
1d00b398:	743662ac 	sw	v0,13940(v1)
1d00b39c:	783640ac 	sw	zero,13944(v0)
1d00b3a0:	01a0023c 	lui	v0,0xa001
1d00b3a4:	8436428c 	lw	v0,13956(v0)
1d00b3a8:	05004050 	beqzl	v0,0x1d00b3c0
1d00b3ac:	01a0023c 	lui	v0,0xa001
1d00b3b0:	ffff4224 	addiu	v0,v0,-1
1d00b3b4:	01a0033c 	lui	v1,0xa001
1d00b3b8:	f12c400b 	j	0x1d00b3c4
1d00b3bc:	843662ac 	sw	v0,13956(v1)
1d00b3c0:	883640ac 	sw	zero,13960(v0)
1d00b3c4:	01a0023c 	lui	v0,0xa001
1d00b3c8:	9436428c 	lw	v0,13972(v0)
1d00b3cc:	05004050 	beqzl	v0,0x1d00b3e4
1d00b3d0:	01a0023c 	lui	v0,0xa001
1d00b3d4:	ffff4224 	addiu	v0,v0,-1
1d00b3d8:	01a0033c 	lui	v1,0xa001
1d00b3dc:	fa2c400b 	j	0x1d00b3e8
1d00b3e0:	943662ac 	sw	v0,13972(v1)
1d00b3e4:	983640ac 	sw	zero,13976(v0)
1d00b3e8:	01a0023c 	lui	v0,0xa001
1d00b3ec:	a436428c 	lw	v0,13988(v0)
1d00b3f0:	05004050 	beqzl	v0,0x1d00b408
1d00b3f4:	01a0023c 	lui	v0,0xa001
1d00b3f8:	ffff4224 	addiu	v0,v0,-1
1d00b3fc:	01a0033c 	lui	v1,0xa001
1d00b400:	032d400b 	j	0x1d00b40c
1d00b404:	a43662ac 	sw	v0,13988(v1)
1d00b408:	a83640ac 	sw	zero,13992(v0)
1d00b40c:	01a0023c 	lui	v0,0xa001
1d00b410:	b436428c 	lw	v0,14004(v0)
1d00b414:	05004050 	beqzl	v0,0x1d00b42c
1d00b418:	01a0023c 	lui	v0,0xa001
1d00b41c:	ffff4224 	addiu	v0,v0,-1
1d00b420:	01a0033c 	lui	v1,0xa001
1d00b424:	0c2d400b 	j	0x1d00b430
1d00b428:	b43662ac 	sw	v0,14004(v1)
1d00b42c:	b83640ac 	sw	zero,14008(v0)
1d00b430:	01a0023c 	lui	v0,0xa001
1d00b434:	b835428c 	lw	v0,13752(v0)
1d00b438:	6500422c 	sltiu	v0,v0,101
1d00b43c:	32004014 	bnez	v0,0x1d00b508
1d00b440:	01a0023c 	lui	v0,0xa001
1d00b444:	01a0023c 	lui	v0,0xa001
1d00b448:	5a314290 	lbu	v0,12634(v0)
1d00b44c:	2e004014 	bnez	v0,0x1d00b508
1d00b450:	01a0023c 	lui	v0,0xa001
1d00b454:	4800a0af 	sw	zero,72(sp)
1d00b458:	01a0043c 	lui	a0,0xa001
1d00b45c:	cc308424 	addiu	a0,a0,12492
1d00b460:	21280000 	move	a1,zero
1d00b464:	4800a627 	addiu	a2,sp,72
1d00b468:	d370400f 	jal	0x1d01c34c
1d00b46c:	c4090724 	li	a3,2500
1d00b470:	25004010 	beqz	v0,0x1d00b508
1d00b474:	01a0023c 	lui	v0,0xa001
1d00b478:	11000224 	li	v0,17
1d00b47c:	4800a38f 	lw	v1,72(sp)
1d00b480:	0a006214 	bne	v1,v0,0x1d00b4ac
1d00b484:	01a0023c 	lui	v0,0xa001
1d00b488:	01a0043c 	lui	a0,0xa001
1d00b48c:	9d1f400f 	jal	0x1d007e74
1d00b490:	48318424 	addiu	a0,a0,12616
1d00b494:	05004010 	beqz	v0,0x1d00b4ac
1d00b498:	01a0023c 	lui	v0,0xa001
1d00b49c:	01000324 	li	v1,1
1d00b4a0:	01a0023c 	lui	v0,0xa001
1d00b4a4:	412d400b 	j	0x1d00b504
1d00b4a8:	5a3143a0 	sb	v1,12634(v0)
1d00b4ac:	8e324290 	lbu	v0,12942(v0)
1d00b4b0:	15004014 	bnez	v0,0x1d00b508
1d00b4b4:	01a0023c 	lui	v0,0xa001
1d00b4b8:	09000224 	li	v0,9
1d00b4bc:	1000a2af 	sw	v0,16(sp)
1d00b4c0:	02000224 	li	v0,2
1d00b4c4:	1400a2af 	sw	v0,20(sp)
1d00b4c8:	1800a0af 	sw	zero,24(sp)
1d00b4cc:	1c00a0af 	sw	zero,28(sp)
1d00b4d0:	2000a0af 	sw	zero,32(sp)
1d00b4d4:	01a0023c 	lui	v0,0xa001
1d00b4d8:	48314224 	addiu	v0,v0,12616
1d00b4dc:	2400a2af 	sw	v0,36(sp)
1d00b4e0:	11000224 	li	v0,17
1d00b4e4:	2800a2af 	sw	v0,40(sp)
1d00b4e8:	01a0043c 	lui	a0,0xa001
1d00b4ec:	cc308424 	addiu	a0,a0,12492
1d00b4f0:	019d053c 	lui	a1,0x9d01
1d00b4f4:	6887a524 	addiu	a1,a1,-30872
1d00b4f8:	e0070624 	li	a2,2016
1d00b4fc:	236f400f 	jal	0x1d01bc8c
1d00b500:	21380000 	move	a3,zero
1d00b504:	01a0023c 	lui	v0,0xa001
1d00b508:	9c32428c 	lw	v0,12956(v0)
1d00b50c:	6500422c 	sltiu	v0,v0,101
1d00b510:	54004014 	bnez	v0,0x1d00b664
1d00b514:	01a0023c 	lui	v0,0xa001
1d00b518:	01a0023c 	lui	v0,0xa001
1d00b51c:	ea314290 	lbu	v0,12778(v0)
1d00b520:	27004014 	bnez	v0,0x1d00b5c0
1d00b524:	01a0023c 	lui	v0,0xa001
1d00b528:	4800a0af 	sw	zero,72(sp)
1d00b52c:	01a0043c 	lui	a0,0xa001
1d00b530:	5c318424 	addiu	a0,a0,12636
1d00b534:	21280000 	move	a1,zero
1d00b538:	4800a627 	addiu	a2,sp,72
1d00b53c:	d370400f 	jal	0x1d01c34c
1d00b540:	c4090724 	li	a3,2500
1d00b544:	1e004010 	beqz	v0,0x1d00b5c0
1d00b548:	01a0023c 	lui	v0,0xa001
1d00b54c:	11000224 	li	v0,17
1d00b550:	4800a38f 	lw	v1,72(sp)
1d00b554:	0a006214 	bne	v1,v0,0x1d00b580
1d00b558:	01a0023c 	lui	v0,0xa001
1d00b55c:	01a0043c 	lui	a0,0xa001
1d00b560:	9d1f400f 	jal	0x1d007e74
1d00b564:	d8318424 	addiu	a0,a0,12760
1d00b568:	05004010 	beqz	v0,0x1d00b580
1d00b56c:	01a0023c 	lui	v0,0xa001
1d00b570:	01000324 	li	v1,1
1d00b574:	01a0023c 	lui	v0,0xa001
1d00b578:	6f2d400b 	j	0x1d00b5bc
1d00b57c:	ea3143a0 	sb	v1,12778(v0)
1d00b580:	8e324290 	lbu	v0,12942(v0)
1d00b584:	0e004014 	bnez	v0,0x1d00b5c0
1d00b588:	01a0023c 	lui	v0,0xa001
1d00b58c:	01a0023c 	lui	v0,0xa001
1d00b590:	d8314224 	addiu	v0,v0,12760
1d00b594:	1000a2af 	sw	v0,16(sp)
1d00b598:	11000224 	li	v0,17
1d00b59c:	1400a2af 	sw	v0,20(sp)
1d00b5a0:	01a0043c 	lui	a0,0xa001
1d00b5a4:	5c318424 	addiu	a0,a0,12636
1d00b5a8:	019d053c 	lui	a1,0x9d01
1d00b5ac:	3489a524 	addiu	a1,a1,-30412
1d00b5b0:	37070624 	li	a2,1847
1d00b5b4:	8422400f 	jal	0x1d008a10
1d00b5b8:	21380000 	move	a3,zero
1d00b5bc:	01a0023c 	lui	v0,0xa001
1d00b5c0:	7a324290 	lbu	v0,12922(v0)
1d00b5c4:	27004014 	bnez	v0,0x1d00b664
1d00b5c8:	01a0023c 	lui	v0,0xa001
1d00b5cc:	4800a0af 	sw	zero,72(sp)
1d00b5d0:	01a0043c 	lui	a0,0xa001
1d00b5d4:	ec318424 	addiu	a0,a0,12780
1d00b5d8:	21280000 	move	a1,zero
1d00b5dc:	4800a627 	addiu	a2,sp,72
1d00b5e0:	d370400f 	jal	0x1d01c34c
1d00b5e4:	c4090724 	li	a3,2500
1d00b5e8:	1e004010 	beqz	v0,0x1d00b664
1d00b5ec:	01a0023c 	lui	v0,0xa001
1d00b5f0:	11000224 	li	v0,17
1d00b5f4:	4800a38f 	lw	v1,72(sp)
1d00b5f8:	0a006214 	bne	v1,v0,0x1d00b624
1d00b5fc:	01a0023c 	lui	v0,0xa001
1d00b600:	01a0043c 	lui	a0,0xa001
1d00b604:	9d1f400f 	jal	0x1d007e74
1d00b608:	68328424 	addiu	a0,a0,12904
1d00b60c:	05004010 	beqz	v0,0x1d00b624
1d00b610:	01a0023c 	lui	v0,0xa001
1d00b614:	01000324 	li	v1,1
1d00b618:	01a0023c 	lui	v0,0xa001
1d00b61c:	982d400b 	j	0x1d00b660
1d00b620:	7a3243a0 	sb	v1,12922(v0)
1d00b624:	8e324290 	lbu	v0,12942(v0)
1d00b628:	0e004014 	bnez	v0,0x1d00b664
1d00b62c:	01a0023c 	lui	v0,0xa001
1d00b630:	01a0023c 	lui	v0,0xa001
1d00b634:	68324224 	addiu	v0,v0,12904
1d00b638:	1000a2af 	sw	v0,16(sp)
1d00b63c:	11000224 	li	v0,17
1d00b640:	1400a2af 	sw	v0,20(sp)
1d00b644:	01a0043c 	lui	a0,0xa001
1d00b648:	ec318424 	addiu	a0,a0,12780
1d00b64c:	019d053c 	lui	a1,0x9d01
1d00b650:	3489a524 	addiu	a1,a1,-30412
1d00b654:	60070624 	li	a2,1888
1d00b658:	8422400f 	jal	0x1d008a10
1d00b65c:	21380000 	move	a3,zero
1d00b660:	01a0023c 	lui	v0,0xa001
1d00b664:	8e324290 	lbu	v0,12942(v0)
1d00b668:	4a004014 	bnez	v0,0x1d00b794
1d00b66c:	01a0023c 	lui	v0,0xa001
1d00b670:	cc304224 	addiu	v0,v0,12492
1d00b674:	8e004490 	lbu	a0,142(v0)
1d00b678:	1e014390 	lbu	v1,286(v0)
1d00b67c:	21208300 	addu	a0,a0,v1
1d00b680:	ae014390 	lbu	v1,430(v0)
1d00b684:	21108300 	addu	v0,a0,v1
1d00b688:	0200422c 	sltiu	v0,v0,2
1d00b68c:	41004014 	bnez	v0,0x1d00b794
1d00b690:	01a0023c 	lui	v0,0xa001
1d00b694:	48314224 	addiu	v0,v0,12616
1d00b698:	4800a2af 	sw	v0,72(sp)
1d00b69c:	01a0023c 	lui	v0,0xa001
1d00b6a0:	d8314224 	addiu	v0,v0,12760
1d00b6a4:	4c00a2af 	sw	v0,76(sp)
1d00b6a8:	01a0023c 	lui	v0,0xa001
1d00b6ac:	68324224 	addiu	v0,v0,12904
1d00b6b0:	5000a2af 	sw	v0,80(sp)
1d00b6b4:	4800b227 	addiu	s2,sp,72
1d00b6b8:	21880000 	move	s1,zero
1d00b6bc:	aaaa143c 	lui	s4,0xaaaa
1d00b6c0:	abaa9436 	ori	s4,s4,0xaaab
1d00b6c4:	01a0153c 	lui	s5,0xa001
1d00b6c8:	7c32b326 	addiu	s3,s5,12924
1d00b6cc:	01a0163c 	lui	s6,0xa001
1d00b6d0:	0000508e 	lw	s0,0(s2)
1d00b6d4:	01003126 	addiu	s1,s1,1
1d00b6d8:	19003402 	multu	s1,s4
1d00b6dc:	10100000 	mfhi	v0
1d00b6e0:	42100200 	srl	v0,v0,0x1
1d00b6e4:	40180200 	sll	v1,v0,0x1
1d00b6e8:	21106200 	addu	v0,v1,v0
1d00b6ec:	23102202 	subu	v0,s1,v0
1d00b6f0:	80100200 	sll	v0,v0,0x2
1d00b6f4:	3800a327 	addiu	v1,sp,56
1d00b6f8:	21106200 	addu	v0,v1,v0
1d00b6fc:	1000578c 	lw	s7,16(v0)
1d00b700:	9d1f400f 	jal	0x1d007e74
1d00b704:	21200002 	move	a0,s0
1d00b708:	20004010 	beqz	v0,0x1d00b78c
1d00b70c:	03000224 	li	v0,3
1d00b710:	9d1f400f 	jal	0x1d007e74
1d00b714:	2120e002 	move	a0,s7
1d00b718:	1b004010 	beqz	v0,0x1d00b788
1d00b71c:	21200002 	move	a0,s0
1d00b720:	2128e002 	move	a1,s7
1d00b724:	d789400f 	jal	0x1d02275c
1d00b728:	11000624 	li	a2,17
1d00b72c:	17004014 	bnez	v0,0x1d00b78c
1d00b730:	03000224 	li	v0,3
1d00b734:	0300058a 	lwl	a1,3(s0)
1d00b738:	0000059a 	lwr	a1,0(s0)
1d00b73c:	0700048a 	lwl	a0,7(s0)
1d00b740:	0400049a 	lwr	a0,4(s0)
1d00b744:	0b00038a 	lwl	v1,11(s0)
1d00b748:	0800039a 	lwr	v1,8(s0)
1d00b74c:	0f00028a 	lwl	v0,15(s0)
1d00b750:	0c00029a 	lwr	v0,12(s0)
1d00b754:	7c32a5ae 	sw	a1,12924(s5)
1d00b758:	040064ae 	sw	a0,4(s3)
1d00b75c:	080063ae 	sw	v1,8(s3)
1d00b760:	0c0062ae 	sw	v0,12(s3)
1d00b764:	10000292 	lbu	v0,16(s0)
1d00b768:	100062a2 	sb	v0,16(s3)
1d00b76c:	01000324 	li	v1,1
1d00b770:	cc30c226 	addiu	v0,s6,12492
1d00b774:	c20143a0 	sb	v1,450(v0)
1d00b778:	7155400f 	jal	0x1d0155c4
1d00b77c:	21206002 	move	a0,s3
1d00b780:	0c56400f 	jal	0x1d015830
1d00b784:	00000000 	nop
1d00b788:	03000224 	li	v0,3
1d00b78c:	d0ff2216 	bne	s1,v0,0x1d00b6d0
1d00b790:	04005226 	addiu	s2,s2,4
1d00b794:	00a0023c 	lui	v0,0xa000
1d00b798:	8001428c 	lw	v0,384(v0)
1d00b79c:	1d004010 	beqz	v0,0x1d00b814
1d00b7a0:	00a0023c 	lui	v0,0xa000
1d00b7a4:	cf54400f 	jal	0x1d01533c
1d00b7a8:	00000000 	nop
1d00b7ac:	19004010 	beqz	v0,0x1d00b814
1d00b7b0:	00a0023c 	lui	v0,0xa000
1d00b7b4:	00a0023c 	lui	v0,0xa000
1d00b7b8:	8001438c 	lw	v1,384(v0)
1d00b7bc:	ffff6324 	addiu	v1,v1,-1
1d00b7c0:	800143ac 	sw	v1,384(v0)
1d00b7c4:	01a0023c 	lui	v0,0xa001
1d00b7c8:	fc33428c 	lw	v0,13308(v0)
1d00b7cc:	0400422c 	sltiu	v0,v0,4
1d00b7d0:	10004014 	bnez	v0,0x1d00b814
1d00b7d4:	00a0023c 	lui	v0,0xa000
1d00b7d8:	01a0023c 	lui	v0,0xa001
1d00b7dc:	9c33428c 	lw	v0,13212(v0)
1d00b7e0:	0400422c 	sltiu	v0,v0,4
1d00b7e4:	4e044050 	beqzl	v0,0x1d00c920
1d00b7e8:	01a0023c 	lui	v0,0xa001
1d00b7ec:	052e400b 	j	0x1d00b814
1d00b7f0:	00a0023c 	lui	v0,0xa000
1d00b7f4:	e034428c 	lw	v0,13536(v0)
1d00b7f8:	0400422c 	sltiu	v0,v0,4
1d00b7fc:	4e044050 	beqzl	v0,0x1d00c938
1d00b800:	00a0023c 	lui	v0,0xa000
1d00b804:	052e400b 	j	0x1d00b814
1d00b808:	00a0023c 	lui	v0,0xa000
1d00b80c:	800140ac 	sw	zero,384(v0)
1d00b810:	00a0023c 	lui	v0,0xa000
1d00b814:	8401428c 	lw	v0,388(v0)
1d00b818:	04004010 	beqz	v0,0x1d00b82c
1d00b81c:	00a0043c 	lui	a0,0xa000
1d00b820:	ffff4224 	addiu	v0,v0,-1
1d00b824:	00a0033c 	lui	v1,0xa000
1d00b828:	840162ac 	sw	v0,388(v1)
1d00b82c:	8c018424 	addiu	a0,a0,396
1d00b830:	dc80858f 	lw	a1,-32548(gp)
1d00b834:	da27400f 	jal	0x1d009f68
1d00b838:	21300000 	move	a2,zero
1d00b83c:	09004010 	beqz	v0,0x1d00b864
1d00b840:	21804000 	move	s0,v0
1d00b844:	076c400f 	jal	0x1d01b01c
1d00b848:	08004424 	addiu	a0,v0,8
1d00b84c:	aa5d400f 	jal	0x1d0176a8
1d00b850:	21200002 	move	a0,s0
1d00b854:	d120400f 	jal	0x1d008344
1d00b858:	21200002 	move	a0,s0
1d00b85c:	202e400b 	j	0x1d00b880
1d00b860:	01a0023c 	lui	v0,0xa001
1d00b864:	00a0023c 	lui	v0,0xa000
1d00b868:	9c014290 	lbu	v0,412(v0)
1d00b86c:	04004014 	bnez	v0,0x1d00b880
1d00b870:	01a0023c 	lui	v0,0xa001
1d00b874:	3328400f 	jal	0x1d00a0cc
1d00b878:	00000000 	nop
1d00b87c:	01a0023c 	lui	v0,0xa001
1d00b880:	c034428c 	lw	v0,13504(v0)
1d00b884:	0400422c 	sltiu	v0,v0,4
1d00b888:	51004014 	bnez	v0,0x1d00b9d0
1d00b88c:	00a0023c 	lui	v0,0xa000
1d00b890:	01a0023c 	lui	v0,0xa001
1d00b894:	e034428c 	lw	v0,13536(v0)
1d00b898:	0400422c 	sltiu	v0,v0,4
1d00b89c:	2b044050 	beqzl	v0,0x1d00c94c
1d00b8a0:	01a0023c 	lui	v0,0xa001
1d00b8a4:	742e400b 	j	0x1d00b9d0
1d00b8a8:	00a0023c 	lui	v0,0xa000
1d00b8ac:	9c33428c 	lw	v0,13212(v0)
1d00b8b0:	0400422c 	sltiu	v0,v0,4
1d00b8b4:	2b044050 	beqzl	v0,0x1d00c964
1d00b8b8:	01a0023c 	lui	v0,0xa001
1d00b8bc:	742e400b 	j	0x1d00b9d0
1d00b8c0:	00a0023c 	lui	v0,0xa000
1d00b8c4:	2835438c 	lw	v1,13608(v0)
1d00b8c8:	8100023c 	lui	v0,0x81
1d00b8cc:	24186200 	and	v1,v1,v0
1d00b8d0:	0100023c 	lui	v0,0x1
1d00b8d4:	3e006214 	bne	v1,v0,0x1d00b9d0
1d00b8d8:	00a0023c 	lui	v0,0xa000
1d00b8dc:	00a0023c 	lui	v0,0xa000
1d00b8e0:	8a014290 	lbu	v0,394(v0)
1d00b8e4:	39004014 	bnez	v0,0x1d00b9cc
1d00b8e8:	00a0023c 	lui	v0,0xa000
1d00b8ec:	8b014290 	lbu	v0,395(v0)
1d00b8f0:	37004014 	bnez	v0,0x1d00b9d0
1d00b8f4:	00a0023c 	lui	v0,0xa000
1d00b8f8:	8f6c400f 	jal	0x1d01b23c
1d00b8fc:	00000000 	nop
1d00b900:	05004010 	beqz	v0,0x1d00b918
1d00b904:	00000000 	nop
1d00b908:	9a6c400f 	jal	0x1d01b268
1d00b90c:	00000000 	nop
1d00b910:	2f004010 	beqz	v0,0x1d00b9d0
1d00b914:	00a0023c 	lui	v0,0xa000
1d00b918:	c073400f 	jal	0x1d01cf00
1d00b91c:	00000000 	nop
1d00b920:	2a004014 	bnez	v0,0x1d00b9cc
1d00b924:	01a0023c 	lui	v0,0xa001
1d00b928:	b434438c 	lw	v1,13492(v0)
1d00b92c:	c000023c 	lui	v0,0xc0
1d00b930:	24186200 	and	v1,v1,v0
1d00b934:	8000023c 	lui	v0,0x80
1d00b938:	25006254 	bnel	v1,v0,0x1d00b9d0
1d00b93c:	00a0023c 	lui	v0,0xa000
1d00b940:	5e32400b 	j	0x1d00c978
1d00b944:	00a0023c 	lui	v0,0xa000
1d00b948:	e801438c 	lw	v1,488(v0)
1d00b94c:	80100300 	sll	v0,v1,0x2
1d00b950:	00190300 	sll	v1,v1,0x4
1d00b954:	21104300 	addu	v0,v0,v1
1d00b958:	80200200 	sll	a0,v0,0x2
1d00b95c:	7b5b400f 	jal	0x1d016dec
1d00b960:	21804400 	addu	s0,v0,a0
1d00b964:	07004010 	beqz	v0,0x1d00b984
1d00b968:	00a0023c 	lui	v0,0xa000
1d00b96c:	00a0023c 	lui	v0,0xa000
1d00b970:	e401438c 	lw	v1,484(v0)
1d00b974:	06046014 	bnez	v1,0x1d00c990
1d00b978:	00a0023c 	lui	v0,0xa000
1d00b97c:	732e400b 	j	0x1d00b9cc
1d00b980:	ec0150ac 	sw	s0,492(v0)
1d00b984:	80014224 	addiu	v0,v0,384
1d00b988:	6c00458c 	lw	a1,108(v0)
1d00b98c:	23200502 	subu	a0,s0,a1
1d00b990:	6400438c 	lw	v1,100(v0)
1d00b994:	04006010 	beqz	v1,0x1d00b9a8
1d00b998:	f4010224 	li	v0,500
1d00b99c:	e9036628 	slti	a2,v1,1001
1d00b9a0:	e8030224 	li	v0,1000
1d00b9a4:	0b106600 	movn	v0,v1,a2
1d00b9a8:	2a184400 	slt	v1,v0,a0
1d00b9ac:	05006054 	bnezl	v1,0x1d00b9c4
1d00b9b0:	2110a200 	addu	v0,a1,v0
1d00b9b4:	23100200 	negu	v0,v0
1d00b9b8:	2a184400 	slt	v1,v0,a0
1d00b9bc:	0b108300 	movn	v0,a0,v1
1d00b9c0:	2110a200 	addu	v0,a1,v0
1d00b9c4:	00a0033c 	lui	v1,0xa000
1d00b9c8:	ec0162ac 	sw	v0,492(v1)
1d00b9cc:	00a0023c 	lui	v0,0xa000
1d00b9d0:	5801428c 	lw	v0,344(v0)
1d00b9d4:	1e004010 	beqz	v0,0x1d00ba50
1d00b9d8:	00a0023c 	lui	v0,0xa000
1d00b9dc:	cf54400f 	jal	0x1d01533c
1d00b9e0:	00000000 	nop
1d00b9e4:	1a004010 	beqz	v0,0x1d00ba50
1d00b9e8:	00a0023c 	lui	v0,0xa000
1d00b9ec:	00a0023c 	lui	v0,0xa000
1d00b9f0:	5801438c 	lw	v1,344(v0)
1d00b9f4:	ffff6324 	addiu	v1,v1,-1
1d00b9f8:	580143ac 	sw	v1,344(v0)
1d00b9fc:	01a0023c 	lui	v0,0xa001
1d00ba00:	ac33428c 	lw	v0,13228(v0)
1d00ba04:	0300422c 	sltiu	v0,v0,3
1d00ba08:	11004014 	bnez	v0,0x1d00ba50
1d00ba0c:	00a0023c 	lui	v0,0xa000
1d00ba10:	01a0023c 	lui	v0,0xa001
1d00ba14:	bc33428c 	lw	v0,13244(v0)
1d00ba18:	0300422c 	sltiu	v0,v0,3
1d00ba1c:	0c004014 	bnez	v0,0x1d00ba50
1d00ba20:	00a0023c 	lui	v0,0xa000
1d00ba24:	01a0023c 	lui	v0,0xa001
1d00ba28:	cc33428c 	lw	v0,13260(v0)
1d00ba2c:	0300422c 	sltiu	v0,v0,3
1d00ba30:	07004014 	bnez	v0,0x1d00ba50
1d00ba34:	00a0023c 	lui	v0,0xa000
1d00ba38:	01a0023c 	lui	v0,0xa001
1d00ba3c:	6c34428c 	lw	v0,13420(v0)
1d00ba40:	0300422c 	sltiu	v0,v0,3
1d00ba44:	d5034010 	beqz	v0,0x1d00c99c
1d00ba48:	00a0023c 	lui	v0,0xa000
1d00ba4c:	00a0023c 	lui	v0,0xa000
1d00ba50:	5c01428c 	lw	v0,348(v0)
1d00ba54:	05004050 	beqzl	v0,0x1d00ba6c
1d00ba58:	00a0023c 	lui	v0,0xa000
1d00ba5c:	ffff4224 	addiu	v0,v0,-1
1d00ba60:	00a0033c 	lui	v1,0xa000
1d00ba64:	5c0162ac 	sw	v0,348(v1)
1d00ba68:	00a0023c 	lui	v0,0xa000
1d00ba6c:	6401428c 	lw	v0,356(v0)
1d00ba70:	04004014 	bnez	v0,0x1d00ba84
1d00ba74:	00a0033c 	lui	v1,0xa000
1d00ba78:	00a0033c 	lui	v1,0xa000
1d00ba7c:	780160ac 	sw	zero,376(v1)
1d00ba80:	00a0033c 	lui	v1,0xa000
1d00ba84:	7c01638c 	lw	v1,380(v1)
1d00ba88:	0200632c 	sltiu	v1,v1,2
1d00ba8c:	cb036014 	bnez	v1,0x1d00c9bc
1d00ba90:	00a0033c 	lui	v1,0xa000
1d00ba94:	6001648c 	lw	a0,352(v1)
1d00ba98:	01000324 	li	v1,1
1d00ba9c:	c2038354 	bnel	a0,v1,0x1d00c9a8
1d00baa0:	00a0023c 	lui	v0,0xa000
1d00baa4:	00a0033c 	lui	v1,0xa000
1d00baa8:	0200422c 	sltiu	v0,v0,2
1d00baac:	94004014 	bnez	v0,0x1d00bd00
1d00bab0:	780160ac 	sw	zero,376(v1)
1d00bab4:	00a0023c 	lui	v0,0xa000
1d00bab8:	58014224 	addiu	v0,v0,344
1d00babc:	0c0040ac 	sw	zero,12(v0)
1d00bac0:	04000324 	li	v1,4
1d00bac4:	6932400b 	j	0x1d00c9a4
1d00bac8:	180043ac 	sw	v1,24(v0)
1d00bacc:	00a0023c 	lui	v0,0xa000
1d00bad0:	780143ac 	sw	v1,376(v0)
1d00bad4:	00a0023c 	lui	v0,0xa000
1d00bad8:	7401428c 	lw	v0,372(v0)
1d00badc:	05004050 	beqzl	v0,0x1d00baf4
1d00bae0:	00a0023c 	lui	v0,0xa000
1d00bae4:	ffff4224 	addiu	v0,v0,-1
1d00bae8:	00a0033c 	lui	v1,0xa000
1d00baec:	442f400b 	j	0x1d00bd10
1d00baf0:	740162ac 	sw	v0,372(v1)
1d00baf4:	6401448c 	lw	a0,356(v0)
1d00baf8:	85008010 	beqz	a0,0x1d00bd10
1d00bafc:	31000324 	li	v1,49
1d00bb00:	00a0023c 	lui	v0,0xa000
1d00bb04:	740143ac 	sw	v1,372(v0)
1d00bb08:	01a0023c 	lui	v0,0xa001
1d00bb0c:	ac33428c 	lw	v0,13228(v0)
1d00bb10:	0300422c 	sltiu	v0,v0,3
1d00bb14:	7f004014 	bnez	v0,0x1d00bd14
1d00bb18:	01a0023c 	lui	v0,0xa001
1d00bb1c:	01a0023c 	lui	v0,0xa001
1d00bb20:	bc33428c 	lw	v0,13244(v0)
1d00bb24:	0300422c 	sltiu	v0,v0,3
1d00bb28:	7a004014 	bnez	v0,0x1d00bd14
1d00bb2c:	01a0023c 	lui	v0,0xa001
1d00bb30:	01a0023c 	lui	v0,0xa001
1d00bb34:	cc33428c 	lw	v0,13260(v0)
1d00bb38:	0300422c 	sltiu	v0,v0,3
1d00bb3c:	75004014 	bnez	v0,0x1d00bd14
1d00bb40:	01a0023c 	lui	v0,0xa001
1d00bb44:	01a0023c 	lui	v0,0xa001
1d00bb48:	6c34428c 	lw	v0,13420(v0)
1d00bb4c:	0300422c 	sltiu	v0,v0,3
1d00bb50:	a0034010 	beqz	v0,0x1d00c9d4
1d00bb54:	01a0053c 	lui	a1,0xa001
1d00bb58:	452f400b 	j	0x1d00bd14
1d00bb5c:	01a0023c 	lui	v0,0xa001
1d00bb60:	5800a48f 	lw	a0,88(sp)
1d00bb64:	01000524 	li	a1,1
1d00bb68:	c4fea47c 	ins	a0,a1,0x1b,0x5
1d00bb6c:	fd2e400b 	j	0x1d00bbf4
1d00bb70:	5800a4af 	sw	a0,88(sp)
1d00bb74:	5800a48f 	lw	a0,88(sp)
1d00bb78:	02000524 	li	a1,2
1d00bb7c:	c4fea47c 	ins	a0,a1,0x1b,0x5
1d00bb80:	fd2e400b 	j	0x1d00bbf4
1d00bb84:	5800a4af 	sw	a0,88(sp)
1d00bb88:	5800a48f 	lw	a0,88(sp)
1d00bb8c:	04000524 	li	a1,4
1d00bb90:	c4fea47c 	ins	a0,a1,0x1b,0x5
1d00bb94:	fd2e400b 	j	0x1d00bbf4
1d00bb98:	5800a4af 	sw	a0,88(sp)
1d00bb9c:	5800a48f 	lw	a0,88(sp)
1d00bba0:	08000524 	li	a1,8
1d00bba4:	c4fea47c 	ins	a0,a1,0x1b,0x5
1d00bba8:	5800a4af 	sw	a0,88(sp)
1d00bbac:	00a0043c 	lui	a0,0xa000
1d00bbb0:	6001858c 	lw	a1,352(a0)
1d00bbb4:	05000424 	li	a0,5
1d00bbb8:	0f00a414 	bne	a1,a0,0x1d00bbf8
1d00bbbc:	5b00a593 	lbu	a1,91(sp)
1d00bbc0:	5800a58f 	lw	a1,88(sp)
1d00bbc4:	0004043c 	lui	a0,0x400
1d00bbc8:	2620a400 	xor	a0,a1,a0
1d00bbcc:	fd2e400b 	j	0x1d00bbf4
1d00bbd0:	5800a4af 	sw	a0,88(sp)
1d00bbd4:	5800a48f 	lw	a0,88(sp)
1d00bbd8:	10000524 	li	a1,16
1d00bbdc:	c4fea47c 	ins	a0,a1,0x1b,0x5
1d00bbe0:	fd2e400b 	j	0x1d00bbf4
1d00bbe4:	5800a4af 	sw	a0,88(sp)
1d00bbe8:	5800a48f 	lw	a0,88(sp)
1d00bbec:	c4fe047c 	ins	a0,zero,0x1b,0x5
1d00bbf0:	5800a4af 	sw	a0,88(sp)
1d00bbf4:	5b00a593 	lbu	a1,91(sp)
1d00bbf8:	5d00a493 	lbu	a0,93(sp)
1d00bbfc:	c2400500 	srl	t0,a1,0x3
1d00bc00:	02390400 	srl	a3,a0,0x4
1d00bc04:	21400701 	addu	t0,t0,a3
1d00bc08:	ff000839 	xori	t0,t0,0xff
1d00bc0c:	82390600 	srl	a3,a2,0x6
1d00bc10:	23400701 	subu	t0,t0,a3
1d00bc14:	0300a730 	andi	a3,a1,0x3
1d00bc18:	23400701 	subu	t0,t0,a3
1d00bc1c:	01004730 	andi	a3,v0,0x1
1d00bc20:	23400701 	subu	t0,t0,a3
1d00bc24:	07008730 	andi	a3,a0,0x7
1d00bc28:	23400701 	subu	t0,t0,a3
1d00bc2c:	01006730 	andi	a3,v1,0x1
1d00bc30:	23400701 	subu	t0,t0,a3
1d00bc34:	c000477c 	ext	a3,v0,0x3,0x1
1d00bc38:	23400701 	subu	t0,t0,a3
1d00bc3c:	203c037c 	seb	a3,v1
1d00bc40:	c3390700 	sra	a3,a3,0x7
1d00bc44:	21400701 	addu	t0,t0,a3
1d00bc48:	4001677c 	ext	a3,v1,0x5,0x1
1d00bc4c:	23400701 	subu	t0,t0,a3
1d00bc50:	203c027c 	seb	a3,v0
1d00bc54:	c3390700 	sra	a3,a3,0x7
1d00bc58:	21380701 	addu	a3,t0,a3
1d00bc5c:	8000a57c 	ext	a1,a1,0x2,0x1
1d00bc60:	2328e500 	subu	a1,a3,a1
1d00bc64:	8000477c 	ext	a3,v0,0x2,0x1
1d00bc68:	2338a700 	subu	a3,a1,a3
1d00bc6c:	4000457c 	ext	a1,v0,0x1,0x1
1d00bc70:	2338e500 	subu	a3,a3,a1
1d00bc74:	8001657c 	ext	a1,v1,0x6,0x1
1d00bc78:	2338e500 	subu	a3,a3,a1
1d00bc7c:	0001657c 	ext	a1,v1,0x4,0x1
1d00bc80:	2338e500 	subu	a3,a3,a1
1d00bc84:	c000657c 	ext	a1,v1,0x3,0x1
1d00bc88:	2338e500 	subu	a3,a3,a1
1d00bc8c:	8000657c 	ext	a1,v1,0x2,0x1
1d00bc90:	2338e500 	subu	a3,a3,a1
1d00bc94:	4000657c 	ext	a1,v1,0x1,0x1
1d00bc98:	2338e500 	subu	a3,a3,a1
1d00bc9c:	8001457c 	ext	a1,v0,0x6,0x1
1d00bca0:	2328e500 	subu	a1,a3,a1
1d00bca4:	c000847c 	ext	a0,a0,0x3,0x1
1d00bca8:	2320a400 	subu	a0,a1,a0
1d00bcac:	ff008430 	andi	a0,a0,0xff
1d00bcb0:	08000524 	li	a1,8
1d00bcb4:	4c00a5af 	sw	a1,76(sp)
1d00bcb8:	5a000524 	li	a1,90
1d00bcbc:	4800a5af 	sw	a1,72(sp)
1d00bcc0:	5800a3a3 	sb	v1,88(sp)
1d00bcc4:	5900a2a3 	sb	v0,89(sp)
1d00bcc8:	4001437c 	ext	v1,v0,0x5,0x1
1d00bccc:	23188300 	subu	v1,a0,v1
1d00bcd0:	0001427c 	ext	v0,v0,0x4,0x1
1d00bcd4:	23106200 	subu	v0,v1,v0
1d00bcd8:	5c00a2a3 	sb	v0,92(sp)
1d00bcdc:	5e00a6a3 	sb	a2,94(sp)
1d00bce0:	5800a28f 	lw	v0,88(sp)
1d00bce4:	5000a2af 	sw	v0,80(sp)
1d00bce8:	5c00a28f 	lw	v0,92(sp)
1d00bcec:	5400a2af 	sw	v0,84(sp)
1d00bcf0:	f25e400f 	jal	0x1d017bc8
1d00bcf4:	4800a427 	addiu	a0,sp,72
1d00bcf8:	452f400b 	j	0x1d00bd14
1d00bcfc:	01a0023c 	lui	v0,0xa001
1d00bd00:	00a0023c 	lui	v0,0xa000
1d00bd04:	58014224 	addiu	v0,v0,344
1d00bd08:	0c0040ac 	sw	zero,12(v0)
1d00bd0c:	1c0040ac 	sw	zero,28(v0)
1d00bd10:	01a0023c 	lui	v0,0xa001
1d00bd14:	c430428c 	lw	v0,12484(v0)
1d00bd18:	28004010 	beqz	v0,0x1d00bdbc
1d00bd1c:	01a0033c 	lui	v1,0xa001
1d00bd20:	c0306324 	addiu	v1,v1,12480
1d00bd24:	ffff4224 	addiu	v0,v0,-1
1d00bd28:	040062ac 	sw	v0,4(v1)
1d00bd2c:	0800628c 	lw	v0,8(v1)
1d00bd30:	05004050 	beqzl	v0,0x1d00bd48
1d00bd34:	01a0023c 	lui	v0,0xa001
1d00bd38:	ffff4224 	addiu	v0,v0,-1
1d00bd3c:	01a0033c 	lui	v1,0xa001
1d00bd40:	6f2f400b 	j	0x1d00bdbc
1d00bd44:	c83062ac 	sw	v0,12488(v1)
1d00bd48:	3c34428c 	lw	v0,13372(v0)
1d00bd4c:	0300422c 	sltiu	v0,v0,3
1d00bd50:	1a004014 	bnez	v0,0x1d00bdbc
1d00bd54:	01a0023c 	lui	v0,0xa001
1d00bd58:	3034428c 	lw	v0,13360(v0)
1d00bd5c:	30004230 	andi	v0,v0,0x30
1d00bd60:	16004014 	bnez	v0,0x1d00bdbc
1d00bd64:	01a0023c 	lui	v0,0xa001
1d00bd68:	c030428c 	lw	v0,12480(v0)
1d00bd6c:	14004050 	beqzl	v0,0x1d00bdc0
1d00bd70:	01a0023c 	lui	v0,0xa001
1d00bd74:	33000424 	li	a0,51
1d00bd78:	01a0033c 	lui	v1,0xa001
1d00bd7c:	c83064ac 	sw	a0,12488(v1)
1d00bd80:	01a0043c 	lui	a0,0xa001
1d00bd84:	9c328424 	addiu	a0,a0,12956
1d00bd88:	9401838c 	lw	v1,404(a0)
1d00bd8c:	9801848c 	lw	a0,408(a0)
1d00bd90:	5c00a4af 	sw	a0,92(sp)
1d00bd94:	08000524 	li	a1,8
1d00bd98:	4c00a5af 	sw	a1,76(sp)
1d00bd9c:	83000524 	li	a1,131
1d00bda0:	4800a5af 	sw	a1,72(sp)
1d00bda4:	0429437c 	ins	v1,v0,0x4,0x2
1d00bda8:	5800a3af 	sw	v1,88(sp)
1d00bdac:	5000a3af 	sw	v1,80(sp)
1d00bdb0:	5400a4af 	sw	a0,84(sp)
1d00bdb4:	f25e400f 	jal	0x1d017bc8
1d00bdb8:	4800a427 	addiu	a0,sp,72
1d00bdbc:	01a0023c 	lui	v0,0xa001
1d00bdc0:	3035428c 	lw	v0,13616(v0)
1d00bdc4:	08004010 	beqz	v0,0x1d00bde8
1d00bdc8:	d080828f 	lw	v0,-32560(gp)
1d00bdcc:	01a0023c 	lui	v0,0xa001
1d00bdd0:	2835428c 	lw	v0,13608(v0)
1d00bdd4:	0005427c 	ext	v0,v0,0x14,0x1
1d00bdd8:	03004010 	beqz	v0,0x1d00bde8
1d00bddc:	d080828f 	lw	v0,-32560(gp)
1d00bde0:	9e2f400b 	j	0x1d00be78
1d00bde4:	d08080af 	sw	zero,-32560(gp)
1d00bde8:	23004010 	beqz	v0,0x1d00be78
1d00bdec:	ffff4224 	addiu	v0,v0,-1
1d00bdf0:	14004014 	bnez	v0,0x1d00be44
1d00bdf4:	d08082af 	sw	v0,-32560(gp)
1d00bdf8:	01a0023c 	lui	v0,0xa001
1d00bdfc:	4836428c 	lw	v0,13896(v0)
1d00be00:	0300422c 	sltiu	v0,v0,3
1d00be04:	10004010 	beqz	v0,0x1d00be48
1d00be08:	d480828f 	lw	v0,-32556(gp)
1d00be0c:	01a0023c 	lui	v0,0xa001
1d00be10:	b835428c 	lw	v0,13752(v0)
1d00be14:	6500422c 	sltiu	v0,v0,101
1d00be18:	08004014 	bnez	v0,0x1d00be3c
1d00be1c:	08000224 	li	v0,8
1d00be20:	4c00a2af 	sw	v0,76(sp)
1d00be24:	aa030224 	li	v0,938
1d00be28:	4800a2af 	sw	v0,72(sp)
1d00be2c:	5400a0af 	sw	zero,84(sp)
1d00be30:	5000a0af 	sw	zero,80(sp)
1d00be34:	4e5e400f 	jal	0x1d017938
1d00be38:	4800a427 	addiu	a0,sp,72
1d00be3c:	9e2f400b 	j	0x1d00be78
1d00be40:	d48080af 	sw	zero,-32556(gp)
1d00be44:	d480828f 	lw	v0,-32556(gp)
1d00be48:	04004050 	beqzl	v0,0x1d00be5c
1d00be4c:	01a0023c 	lui	v0,0xa001
1d00be50:	ffff4224 	addiu	v0,v0,-1
1d00be54:	9e2f400b 	j	0x1d00be78
1d00be58:	d48082af 	sw	v0,-32556(gp)
1d00be5c:	4836428c 	lw	v0,13896(v0)
1d00be60:	0300422c 	sltiu	v0,v0,3
1d00be64:	12000324 	li	v1,18
1d00be68:	c7000424 	li	a0,199
1d00be6c:	0b188200 	movn	v1,a0,v0
1d00be70:	e121400f 	jal	0x1d008784
1d00be74:	d48083af 	sw	v1,-32556(gp)
1d00be78:	d880828f 	lw	v0,-32552(gp)
1d00be7c:	03004010 	beqz	v0,0x1d00be8c
1d00be80:	ffff4224 	addiu	v0,v0,-1
1d00be84:	a62f400b 	j	0x1d00be98
1d00be88:	d88082af 	sw	v0,-32552(gp)
1d00be8c:	33000224 	li	v0,51
1d00be90:	5422400f 	jal	0x1d008950
1d00be94:	d88082af 	sw	v0,-32552(gp)
1d00be98:	01a0023c 	lui	v0,0xa001
1d00be9c:	342f428c 	lw	v0,12084(v0)
1d00bea0:	1000432c 	sltiu	v1,v0,16
1d00bea4:	08026010 	beqz	v1,0x1d00c6c8
1d00bea8:	01a0033c 	lui	v1,0xa001
1d00beac:	8e326b90 	lbu	t3,12942(v1)
1d00beb0:	01a0033c 	lui	v1,0xa001
1d00beb4:	bc34638c 	lw	v1,13500(v1)
1d00beb8:	06006010 	beqz	v1,0x1d00bed4
1d00bebc:	21500000 	move	t2,zero
1d00bec0:	01a0043c 	lui	a0,0xa001
1d00bec4:	b4348a8c 	lw	t2,13492(a0)
1d00bec8:	c000043c 	lui	a0,0xc0
1d00becc:	24504401 	and	t2,t2,a0
1d00bed0:	01004a2d 	sltiu	t2,t2,1
1d00bed4:	01a0043c 	lui	a0,0xa001
1d00bed8:	6834848c 	lw	a0,13416(a0)
1d00bedc:	05008010 	beqz	a0,0x1d00bef4
1d00bee0:	21480000 	move	t1,zero
1d00bee4:	01a0043c 	lui	a0,0xa001
1d00bee8:	6034898c 	lw	t1,13408(a0)
1d00beec:	001e2931 	andi	t1,t1,0x1e00
1d00bef0:	0100292d 	sltiu	t1,t1,1
1d00bef4:	01a0043c 	lui	a0,0xa001
1d00bef8:	3833848c 	lw	a0,13112(a0)
1d00befc:	08008010 	beqz	a0,0x1d00bf20
1d00bf00:	21400000 	move	t0,zero
1d00bf04:	01a0043c 	lui	a0,0xa001
1d00bf08:	3033888c 	lw	t0,13104(a0)
1d00bf0c:	c000043c 	lui	a0,0xc0
1d00bf10:	ffff8534 	ori	a1,a0,0xffff
1d00bf14:	24400501 	and	t0,t0,a1
1d00bf18:	23400401 	subu	t0,t0,a0
1d00bf1c:	0100082d 	sltiu	t0,t0,1
1d00bf20:	01a0043c 	lui	a0,0xa001
1d00bf24:	a832848c 	lw	a0,12968(a0)
1d00bf28:	07008010 	beqz	a0,0x1d00bf48
1d00bf2c:	21380000 	move	a3,zero
1d00bf30:	01a0043c 	lui	a0,0xa001
1d00bf34:	a432848c 	lw	a0,12964(a0)
1d00bf38:	f800073c 	lui	a3,0xf8
1d00bf3c:	00ffe734 	ori	a3,a3,0xff00
1d00bf40:	24388700 	and	a3,a0,a3
1d00bf44:	0100e72c 	sltiu	a3,a3,1
1d00bf48:	01a0043c 	lui	a0,0xa001
1d00bf4c:	8833848c 	lw	a0,13192(a0)
1d00bf50:	06008010 	beqz	a0,0x1d00bf6c
1d00bf54:	21300000 	move	a2,zero
1d00bf58:	01a0043c 	lui	a0,0xa001
1d00bf5c:	8033868c 	lw	a2,13184(a0)
1d00bf60:	c3ffc630 	andi	a2,a2,0xffc3
1d00bf64:	c000c638 	xori	a2,a2,0xc0
1d00bf68:	0100c62c 	sltiu	a2,a2,1
1d00bf6c:	01a0043c 	lui	a0,0xa001
1d00bf70:	dc34848c 	lw	a0,13532(a0)
1d00bf74:	08008010 	beqz	a0,0x1d00bf98
1d00bf78:	21280000 	move	a1,zero
1d00bf7c:	00a0043c 	lui	a0,0xa000
1d00bf80:	f001858c 	lw	a1,496(a0)
1d00bf84:	01a0043c 	lui	a0,0xa001
1d00bf88:	bc2f848c 	lw	a0,12220(a0)
1d00bf8c:	2328a400 	subu	a1,a1,a0
1d00bf90:	0200a524 	addiu	a1,a1,2
1d00bf94:	0500a52c 	sltiu	a1,a1,5
1d00bf98:	ab026010 	beqz	v1,0x1d00ca48
1d00bf9c:	00a0033c 	lui	v1,0xa000
1d00bfa0:	01a0033c 	lui	v1,0xa001
1d00bfa4:	b4346390 	lbu	v1,13492(v1)
1d00bfa8:	8fff6324 	addiu	v1,v1,-113
1d00bfac:	1f00632c 	sltiu	v1,v1,31
1d00bfb0:	a5026010 	beqz	v1,0x1d00ca48
1d00bfb4:	00a0033c 	lui	v1,0xa000
1d00bfb8:	f001648c 	lw	a0,496(v1)
1d00bfbc:	01a0033c 	lui	v1,0xa001
1d00bfc0:	24504b01 	and	t2,t2,t3
1d00bfc4:	24482a01 	and	t1,t1,t2
1d00bfc8:	24400901 	and	t0,t0,t1
1d00bfcc:	2438e800 	and	a3,a3,t0
1d00bfd0:	2430c700 	and	a2,a2,a3
1d00bfd4:	2428a600 	and	a1,a1,a2
1d00bfd8:	0b00a010 	beqz	a1,0x1d00c008
1d00bfdc:	bc2f64ac 	sw	a0,12220(v1)
1d00bfe0:	01a0033c 	lui	v1,0xa001
1d00bfe4:	b42f638c 	lw	v1,12212(v1)
1d00bfe8:	1027652c 	sltiu	a1,v1,10000
1d00bfec:	0900a010 	beqz	a1,0x1d00c014
1d00bff0:	01000424 	li	a0,1
1d00bff4:	01006324 	addiu	v1,v1,1
1d00bff8:	01a0043c 	lui	a0,0xa001
1d00bffc:	b42f83ac 	sw	v1,12212(a0)
1d00c000:	0530400b 	j	0x1d00c014
1d00c004:	21200000 	move	a0,zero
1d00c008:	01a0033c 	lui	v1,0xa001
1d00c00c:	b42f60ac 	sw	zero,12212(v1)
1d00c010:	21200000 	move	a0,zero
1d00c014:	01a0033c 	lui	v1,0xa001
1d00c018:	b82f638c 	lw	v1,12216(v1)
1d00c01c:	05006050 	beqzl	v1,0x1d00c034
1d00c020:	6000a0a3 	sb	zero,96(sp)
1d00c024:	ffff6324 	addiu	v1,v1,-1
1d00c028:	01a0023c 	lui	v0,0xa001
1d00c02c:	b231400b 	j	0x1d00c6c8
1d00c030:	b82f43ac 	sw	v1,12216(v0)
1d00c034:	04008014 	bnez	a0,0x1d00c048
1d00c038:	5800a0af 	sw	zero,88(sp)
1d00c03c:	0500432c 	sltiu	v1,v0,5
1d00c040:	a0016054 	bnezl	v1,0x1d00c6c4
1d00c044:	01a0023c 	lui	v0,0xa001
1d00c048:	1000432c 	sltiu	v1,v0,16
1d00c04c:	99016010 	beqz	v1,0x1d00c6b4
1d00c050:	80100200 	sll	v0,v0,0x2
1d00c054:	019d033c 	lui	v1,0x9d01
1d00c058:	6cc06324 	addiu	v1,v1,-16276
1d00c05c:	21106200 	addu	v0,v1,v0
1d00c060:	0000428c 	lw	v0,0(v0)
1d00c064:	08004000 	jr	v0
1d00c068:	00000000 	nop
1d00c06c:	acc0009d 	0x9d00c0ac
1d00c070:	bcc0009d 	0x9d00c0bc
1d00c074:	18c1009d 	0x9d00c118
1d00c078:	70c1009d 	0x9d00c170
1d00c07c:	ccc1009d 	0x9d00c1cc
1d00c080:	24c2009d 	0x9d00c224
1d00c084:	90c2009d 	0x9d00c290
1d00c088:	04c3009d 	0x9d00c304
1d00c08c:	64c3009d 	0x9d00c364
1d00c090:	ecc3009d 	0x9d00c3ec
1d00c094:	44c4009d 	0x9d00c444
1d00c098:	ccc4009d 	0x9d00c4cc
1d00c09c:	24c5009d 	0x9d00c524
1d00c0a0:	98c5009d 	0x9d00c598
1d00c0a4:	04c6009d 	0x9d00c604
1d00c0a8:	6cc6009d 	0x9d00c66c
1d00c0ac:	01000324 	li	v1,1
1d00c0b0:	01a0023c 	lui	v0,0xa001
1d00c0b4:	b231400b 	j	0x1d00c6c8
1d00c0b8:	342f43ac 	sw	v1,12084(v0)
1d00c0bc:	01a0023c 	lui	v0,0xa001
1d00c0c0:	c02f4224 	addiu	v0,v0,12224
1d00c0c4:	1000a2af 	sw	v0,16(sp)
1d00c0c8:	42000224 	li	v0,66
1d00c0cc:	1400a2af 	sw	v0,20(sp)
1d00c0d0:	01a0043c 	lui	a0,0xa001
1d00c0d4:	382f8424 	addiu	a0,a0,12088
1d00c0d8:	019d053c 	lui	a1,0x9d01
1d00c0dc:	f084a524 	addiu	a1,a1,-31504
1d00c0e0:	30070624 	li	a2,1840
1d00c0e4:	8422400f 	jal	0x1d008a10
1d00c0e8:	21380000 	move	a3,zero
1d00c0ec:	05004010 	beqz	v0,0x1d00c104
1d00c0f0:	01a0023c 	lui	v0,0xa001
1d00c0f4:	342f438c 	lw	v1,12084(v0)
1d00c0f8:	01006324 	addiu	v1,v1,1
1d00c0fc:	b231400b 	j	0x1d00c6c8
1d00c100:	342f43ac 	sw	v1,12084(v0)
1d00c104:	342f4324 	addiu	v1,v0,12084
1d00c108:	e8030424 	li	a0,1000
1d00c10c:	840064ac 	sw	a0,132(v1)
1d00c110:	b231400b 	j	0x1d00c6c8
1d00c114:	342f40ac 	sw	zero,12084(v0)
1d00c118:	01a0043c 	lui	a0,0xa001
1d00c11c:	382f8424 	addiu	a0,a0,12088
1d00c120:	6000a527 	addiu	a1,sp,96
1d00c124:	5800a627 	addiu	a2,sp,88
1d00c128:	d370400f 	jal	0x1d01c34c
1d00c12c:	d0070724 	li	a3,2000
1d00c130:	65014010 	beqz	v0,0x1d00c6c8
1d00c134:	6000a293 	lbu	v0,96(sp)
1d00c138:	08004010 	beqz	v0,0x1d00c15c
1d00c13c:	01a0023c 	lui	v0,0xa001
1d00c140:	342f4324 	addiu	v1,v0,12084
1d00c144:	5800a48f 	lw	a0,88(sp)
1d00c148:	d00064ac 	sw	a0,208(v1)
1d00c14c:	342f438c 	lw	v1,12084(v0)
1d00c150:	01006324 	addiu	v1,v1,1
1d00c154:	b231400b 	j	0x1d00c6c8
1d00c158:	342f43ac 	sw	v1,12084(v0)
1d00c15c:	342f4324 	addiu	v1,v0,12084
1d00c160:	e8030424 	li	a0,1000
1d00c164:	840064ac 	sw	a0,132(v1)
1d00c168:	b231400b 	j	0x1d00c6c8
1d00c16c:	342f40ac 	sw	zero,12084(v0)
1d00c170:	01a0023c 	lui	v0,0xa001
1d00c174:	08304224 	addiu	v0,v0,12296
1d00c178:	1000a2af 	sw	v0,16(sp)
1d00c17c:	42000224 	li	v0,66
1d00c180:	1400a2af 	sw	v0,20(sp)
1d00c184:	01a0043c 	lui	a0,0xa001
1d00c188:	382f8424 	addiu	a0,a0,12088
1d00c18c:	019d053c 	lui	a1,0x9d01
1d00c190:	f084a524 	addiu	a1,a1,-31504
1d00c194:	30070624 	li	a2,1840
1d00c198:	8422400f 	jal	0x1d008a10
1d00c19c:	01000724 	li	a3,1
1d00c1a0:	05004010 	beqz	v0,0x1d00c1b8
1d00c1a4:	01a0023c 	lui	v0,0xa001
1d00c1a8:	342f438c 	lw	v1,12084(v0)
1d00c1ac:	01006324 	addiu	v1,v1,1
1d00c1b0:	b231400b 	j	0x1d00c6c8
1d00c1b4:	342f43ac 	sw	v1,12084(v0)
1d00c1b8:	342f4324 	addiu	v1,v0,12084
1d00c1bc:	e8030424 	li	a0,1000
1d00c1c0:	840064ac 	sw	a0,132(v1)
1d00c1c4:	b231400b 	j	0x1d00c6c8
1d00c1c8:	342f40ac 	sw	zero,12084(v0)
1d00c1cc:	01a0043c 	lui	a0,0xa001
1d00c1d0:	382f8424 	addiu	a0,a0,12088
1d00c1d4:	6000a527 	addiu	a1,sp,96
1d00c1d8:	5800a627 	addiu	a2,sp,88
1d00c1dc:	d370400f 	jal	0x1d01c34c
1d00c1e0:	d0070724 	li	a3,2000
1d00c1e4:	38014010 	beqz	v0,0x1d00c6c8
1d00c1e8:	6000a293 	lbu	v0,96(sp)
1d00c1ec:	08004010 	beqz	v0,0x1d00c210
1d00c1f0:	01a0023c 	lui	v0,0xa001
1d00c1f4:	342f4324 	addiu	v1,v0,12084
1d00c1f8:	5800a48f 	lw	a0,88(sp)
1d00c1fc:	180164ac 	sw	a0,280(v1)
1d00c200:	342f438c 	lw	v1,12084(v0)
1d00c204:	01006324 	addiu	v1,v1,1
1d00c208:	b231400b 	j	0x1d00c6c8
1d00c20c:	342f43ac 	sw	v1,12084(v0)
1d00c210:	342f4324 	addiu	v1,v0,12084
1d00c214:	e8030424 	li	a0,1000
1d00c218:	840064ac 	sw	a0,132(v1)
1d00c21c:	b231400b 	j	0x1d00c6c8
1d00c220:	342f40ac 	sw	zero,12084(v0)
1d00c224:	01a0023c 	lui	v0,0xa001
1d00c228:	0430438c 	lw	v1,12292(v0)
1d00c22c:	0e000224 	li	v0,14
1d00c230:	14006214 	bne	v1,v0,0x1d00c284
1d00c234:	10000324 	li	v1,16
1d00c238:	01a0023c 	lui	v0,0xa001
1d00c23c:	4c30438c 	lw	v1,12364(v0)
1d00c240:	0a000224 	li	v0,10
1d00c244:	0f006214 	bne	v1,v0,0x1d00c284
1d00c248:	10000324 	li	v1,16
1d00c24c:	01a0023c 	lui	v0,0xa001
1d00c250:	c22f4390 	lbu	v1,12226(v0)
1d00c254:	01000224 	li	v0,1
1d00c258:	07006210 	beq	v1,v0,0x1d00c278
1d00c25c:	01a0023c 	lui	v0,0xa001
1d00c260:	342f4324 	addiu	v1,v0,12084
1d00c264:	01000424 	li	a0,1
1d00c268:	8e0064a0 	sb	a0,142(v1)
1d00c26c:	06000324 	li	v1,6
1d00c270:	b231400b 	j	0x1d00c6c8
1d00c274:	342f43ac 	sw	v1,12084(v0)
1d00c278:	10000324 	li	v1,16
1d00c27c:	b231400b 	j	0x1d00c6c8
1d00c280:	342f43ac 	sw	v1,12084(v0)
1d00c284:	01a0023c 	lui	v0,0xa001
1d00c288:	b231400b 	j	0x1d00c6c8
1d00c28c:	342f43ac 	sw	v1,12084(v0)
1d00c290:	10000224 	li	v0,16
1d00c294:	1000a2af 	sw	v0,16(sp)
1d00c298:	03000224 	li	v0,3
1d00c29c:	1400a2af 	sw	v0,20(sp)
1d00c2a0:	1800a0af 	sw	zero,24(sp)
1d00c2a4:	1c00a0af 	sw	zero,28(sp)
1d00c2a8:	2000a0af 	sw	zero,32(sp)
1d00c2ac:	01a0023c 	lui	v0,0xa001
1d00c2b0:	722f4224 	addiu	v0,v0,12146
1d00c2b4:	2400a2af 	sw	v0,36(sp)
1d00c2b8:	42000224 	li	v0,66
1d00c2bc:	2800a2af 	sw	v0,40(sp)
1d00c2c0:	01a0043c 	lui	a0,0xa001
1d00c2c4:	382f8424 	addiu	a0,a0,12088
1d00c2c8:	019d053c 	lui	a1,0x9d01
1d00c2cc:	f084a524 	addiu	a1,a1,-31504
1d00c2d0:	30070624 	li	a2,1840
1d00c2d4:	236f400f 	jal	0x1d01bc8c
1d00c2d8:	21380000 	move	a3,zero
1d00c2dc:	06004010 	beqz	v0,0x1d00c2f8
1d00c2e0:	10000324 	li	v1,16
1d00c2e4:	01a0023c 	lui	v0,0xa001
1d00c2e8:	342f438c 	lw	v1,12084(v0)
1d00c2ec:	01006324 	addiu	v1,v1,1
1d00c2f0:	b231400b 	j	0x1d00c6c8
1d00c2f4:	342f43ac 	sw	v1,12084(v0)
1d00c2f8:	01a0023c 	lui	v0,0xa001
1d00c2fc:	b231400b 	j	0x1d00c6c8
1d00c300:	342f43ac 	sw	v1,12084(v0)
1d00c304:	4800a0af 	sw	zero,72(sp)
1d00c308:	01a0043c 	lui	a0,0xa001
1d00c30c:	382f8424 	addiu	a0,a0,12088
1d00c310:	6000a527 	addiu	a1,sp,96
1d00c314:	4800a627 	addiu	a2,sp,72
1d00c318:	d370400f 	jal	0x1d01c34c
1d00c31c:	d0070724 	li	a3,2000
1d00c320:	e9004010 	beqz	v0,0x1d00c6c8
1d00c324:	4800a38f 	lw	v1,72(sp)
1d00c328:	04006338 	xori	v1,v1,0x4
1d00c32c:	0100632c 	sltiu	v1,v1,1
1d00c330:	6000a293 	lbu	v0,96(sp)
1d00c334:	24106200 	and	v0,v1,v0
1d00c338:	06004010 	beqz	v0,0x1d00c354
1d00c33c:	6000a2a3 	sb	v0,96(sp)
1d00c340:	01a0023c 	lui	v0,0xa001
1d00c344:	342f438c 	lw	v1,12084(v0)
1d00c348:	01006324 	addiu	v1,v1,1
1d00c34c:	b231400b 	j	0x1d00c6c8
1d00c350:	342f43ac 	sw	v1,12084(v0)
1d00c354:	10000324 	li	v1,16
1d00c358:	01a0023c 	lui	v0,0xa001
1d00c35c:	b231400b 	j	0x1d00c6c8
1d00c360:	342f43ac 	sw	v1,12084(v0)
1d00c364:	2e000224 	li	v0,46
1d00c368:	1000a2af 	sw	v0,16(sp)
1d00c36c:	00de0234 	li	v0,0xde00
1d00c370:	1400a2af 	sw	v0,20(sp)
1d00c374:	01000224 	li	v0,1
1d00c378:	1800a2af 	sw	v0,24(sp)
1d00c37c:	01a0023c 	lui	v0,0xa001
1d00c380:	c02f4224 	addiu	v0,v0,12224
1d00c384:	1c00a2af 	sw	v0,28(sp)
1d00c388:	01a0023c 	lui	v0,0xa001
1d00c38c:	0430428c 	lw	v0,12292(v0)
1d00c390:	2000a2af 	sw	v0,32(sp)
1d00c394:	01a0023c 	lui	v0,0xa001
1d00c398:	722f4224 	addiu	v0,v0,12146
1d00c39c:	2400a2af 	sw	v0,36(sp)
1d00c3a0:	42000224 	li	v0,66
1d00c3a4:	2800a2af 	sw	v0,40(sp)
1d00c3a8:	01a0043c 	lui	a0,0xa001
1d00c3ac:	382f8424 	addiu	a0,a0,12088
1d00c3b0:	019d053c 	lui	a1,0x9d01
1d00c3b4:	f084a524 	addiu	a1,a1,-31504
1d00c3b8:	30070624 	li	a2,1840
1d00c3bc:	236f400f 	jal	0x1d01bc8c
1d00c3c0:	21380000 	move	a3,zero
1d00c3c4:	06004010 	beqz	v0,0x1d00c3e0
1d00c3c8:	10000324 	li	v1,16
1d00c3cc:	01a0023c 	lui	v0,0xa001
1d00c3d0:	342f438c 	lw	v1,12084(v0)
1d00c3d4:	01006324 	addiu	v1,v1,1
1d00c3d8:	b231400b 	j	0x1d00c6c8
1d00c3dc:	342f43ac 	sw	v1,12084(v0)
1d00c3e0:	01a0023c 	lui	v0,0xa001
1d00c3e4:	b231400b 	j	0x1d00c6c8
1d00c3e8:	342f43ac 	sw	v1,12084(v0)
1d00c3ec:	4800a0af 	sw	zero,72(sp)
1d00c3f0:	01a0043c 	lui	a0,0xa001
1d00c3f4:	382f8424 	addiu	a0,a0,12088
1d00c3f8:	6000a527 	addiu	a1,sp,96
1d00c3fc:	4800a627 	addiu	a2,sp,72
1d00c400:	d370400f 	jal	0x1d01c34c
1d00c404:	d0070724 	li	a3,2000
1d00c408:	af004010 	beqz	v0,0x1d00c6c8
1d00c40c:	6000a293 	lbu	v0,96(sp)
1d00c410:	09004010 	beqz	v0,0x1d00c438
1d00c414:	10000324 	li	v1,16
1d00c418:	01a0023c 	lui	v0,0xa001
1d00c41c:	342f4324 	addiu	v1,v0,12084
1d00c420:	f4010424 	li	a0,500
1d00c424:	840064ac 	sw	a0,132(v1)
1d00c428:	342f438c 	lw	v1,12084(v0)
1d00c42c:	01006324 	addiu	v1,v1,1
1d00c430:	b231400b 	j	0x1d00c6c8
1d00c434:	342f43ac 	sw	v1,12084(v0)
1d00c438:	01a0023c 	lui	v0,0xa001
1d00c43c:	b231400b 	j	0x1d00c6c8
1d00c440:	342f43ac 	sw	v1,12084(v0)
1d00c444:	2e000224 	li	v0,46
1d00c448:	1000a2af 	sw	v0,16(sp)
1d00c44c:	01de0234 	li	v0,0xde01
1d00c450:	1400a2af 	sw	v0,20(sp)
1d00c454:	01000224 	li	v0,1
1d00c458:	1800a2af 	sw	v0,24(sp)
1d00c45c:	01a0023c 	lui	v0,0xa001
1d00c460:	08304224 	addiu	v0,v0,12296
1d00c464:	1c00a2af 	sw	v0,28(sp)
1d00c468:	01a0023c 	lui	v0,0xa001
1d00c46c:	4c30428c 	lw	v0,12364(v0)
1d00c470:	2000a2af 	sw	v0,32(sp)
1d00c474:	01a0023c 	lui	v0,0xa001
1d00c478:	722f4224 	addiu	v0,v0,12146
1d00c47c:	2400a2af 	sw	v0,36(sp)
1d00c480:	42000224 	li	v0,66
1d00c484:	2800a2af 	sw	v0,40(sp)
1d00c488:	01a0043c 	lui	a0,0xa001
1d00c48c:	382f8424 	addiu	a0,a0,12088
1d00c490:	019d053c 	lui	a1,0x9d01
1d00c494:	f084a524 	addiu	a1,a1,-31504
1d00c498:	30070624 	li	a2,1840
1d00c49c:	236f400f 	jal	0x1d01bc8c
1d00c4a0:	21380000 	move	a3,zero
1d00c4a4:	06004010 	beqz	v0,0x1d00c4c0
1d00c4a8:	10000324 	li	v1,16
1d00c4ac:	01a0023c 	lui	v0,0xa001
1d00c4b0:	342f438c 	lw	v1,12084(v0)
1d00c4b4:	01006324 	addiu	v1,v1,1
1d00c4b8:	b231400b 	j	0x1d00c6c8
1d00c4bc:	342f43ac 	sw	v1,12084(v0)
1d00c4c0:	01a0023c 	lui	v0,0xa001
1d00c4c4:	b231400b 	j	0x1d00c6c8
1d00c4c8:	342f43ac 	sw	v1,12084(v0)
1d00c4cc:	4800a0af 	sw	zero,72(sp)
1d00c4d0:	01a0043c 	lui	a0,0xa001
1d00c4d4:	382f8424 	addiu	a0,a0,12088
1d00c4d8:	6000a527 	addiu	a1,sp,96
1d00c4dc:	4800a627 	addiu	a2,sp,72
1d00c4e0:	d370400f 	jal	0x1d01c34c
1d00c4e4:	d0070724 	li	a3,2000
1d00c4e8:	77004010 	beqz	v0,0x1d00c6c8
1d00c4ec:	6000a293 	lbu	v0,96(sp)
1d00c4f0:	09004010 	beqz	v0,0x1d00c518
1d00c4f4:	10000324 	li	v1,16
1d00c4f8:	01a0023c 	lui	v0,0xa001
1d00c4fc:	342f4324 	addiu	v1,v0,12084
1d00c500:	f4010424 	li	a0,500
1d00c504:	840064ac 	sw	a0,132(v1)
1d00c508:	342f438c 	lw	v1,12084(v0)
1d00c50c:	01006324 	addiu	v1,v1,1
1d00c510:	b231400b 	j	0x1d00c6c8
1d00c514:	342f43ac 	sw	v1,12084(v0)
1d00c518:	01a0023c 	lui	v0,0xa001
1d00c51c:	b231400b 	j	0x1d00c6c8
1d00c520:	342f43ac 	sw	v1,12084(v0)
1d00c524:	10000224 	li	v0,16
1d00c528:	1000a2af 	sw	v0,16(sp)
1d00c52c:	01000224 	li	v0,1
1d00c530:	1400a2af 	sw	v0,20(sp)
1d00c534:	1800a0af 	sw	zero,24(sp)
1d00c538:	1c00a0af 	sw	zero,28(sp)
1d00c53c:	2000a0af 	sw	zero,32(sp)
1d00c540:	01a0023c 	lui	v0,0xa001
1d00c544:	722f4224 	addiu	v0,v0,12146
1d00c548:	2400a2af 	sw	v0,36(sp)
1d00c54c:	42000224 	li	v0,66
1d00c550:	2800a2af 	sw	v0,40(sp)
1d00c554:	01a0043c 	lui	a0,0xa001
1d00c558:	382f8424 	addiu	a0,a0,12088
1d00c55c:	019d053c 	lui	a1,0x9d01
1d00c560:	f084a524 	addiu	a1,a1,-31504
1d00c564:	30070624 	li	a2,1840
1d00c568:	236f400f 	jal	0x1d01bc8c
1d00c56c:	21380000 	move	a3,zero
1d00c570:	06004010 	beqz	v0,0x1d00c58c
1d00c574:	10000324 	li	v1,16
1d00c578:	01a0023c 	lui	v0,0xa001
1d00c57c:	342f438c 	lw	v1,12084(v0)
1d00c580:	01006324 	addiu	v1,v1,1
1d00c584:	b231400b 	j	0x1d00c6c8
1d00c588:	342f43ac 	sw	v1,12084(v0)
1d00c58c:	01a0023c 	lui	v0,0xa001
1d00c590:	b231400b 	j	0x1d00c6c8
1d00c594:	342f43ac 	sw	v1,12084(v0)
1d00c598:	4800a0af 	sw	zero,72(sp)
1d00c59c:	01a0043c 	lui	a0,0xa001
1d00c5a0:	382f8424 	addiu	a0,a0,12088
1d00c5a4:	6000a527 	addiu	a1,sp,96
1d00c5a8:	4800a627 	addiu	a2,sp,72
1d00c5ac:	d370400f 	jal	0x1d01c34c
1d00c5b0:	d0070724 	li	a3,2000
1d00c5b4:	44004010 	beqz	v0,0x1d00c6c8
1d00c5b8:	4800a38f 	lw	v1,72(sp)
1d00c5bc:	04006338 	xori	v1,v1,0x4
1d00c5c0:	0100632c 	sltiu	v1,v1,1
1d00c5c4:	6000a293 	lbu	v0,96(sp)
1d00c5c8:	24106200 	and	v0,v1,v0
1d00c5cc:	09004010 	beqz	v0,0x1d00c5f4
1d00c5d0:	6000a2a3 	sb	v0,96(sp)
1d00c5d4:	01a0023c 	lui	v0,0xa001
1d00c5d8:	342f4324 	addiu	v1,v0,12084
1d00c5dc:	f4010424 	li	a0,500
1d00c5e0:	840064ac 	sw	a0,132(v1)
1d00c5e4:	342f438c 	lw	v1,12084(v0)
1d00c5e8:	01006324 	addiu	v1,v1,1
1d00c5ec:	b231400b 	j	0x1d00c6c8
1d00c5f0:	342f43ac 	sw	v1,12084(v0)
1d00c5f4:	10000324 	li	v1,16
1d00c5f8:	01a0023c 	lui	v0,0xa001
1d00c5fc:	b231400b 	j	0x1d00c6c8
1d00c600:	342f43ac 	sw	v1,12084(v0)
1d00c604:	11000224 	li	v0,17
1d00c608:	1000a2af 	sw	v0,16(sp)
1d00c60c:	01000224 	li	v0,1
1d00c610:	1400a2af 	sw	v0,20(sp)
1d00c614:	1800a0af 	sw	zero,24(sp)
1d00c618:	1c00a0af 	sw	zero,28(sp)
1d00c61c:	2000a0af 	sw	zero,32(sp)
1d00c620:	2400a0af 	sw	zero,36(sp)
1d00c624:	2800a0af 	sw	zero,40(sp)
1d00c628:	01a0043c 	lui	a0,0xa001
1d00c62c:	382f8424 	addiu	a0,a0,12088
1d00c630:	019d053c 	lui	a1,0x9d01
1d00c634:	f084a524 	addiu	a1,a1,-31504
1d00c638:	30070624 	li	a2,1840
1d00c63c:	236f400f 	jal	0x1d01bc8c
1d00c640:	21380000 	move	a3,zero
1d00c644:	06004010 	beqz	v0,0x1d00c660
1d00c648:	10000324 	li	v1,16
1d00c64c:	01a0023c 	lui	v0,0xa001
1d00c650:	342f438c 	lw	v1,12084(v0)
1d00c654:	01006324 	addiu	v1,v1,1
1d00c658:	b231400b 	j	0x1d00c6c8
1d00c65c:	342f43ac 	sw	v1,12084(v0)
1d00c660:	01a0023c 	lui	v0,0xa001
1d00c664:	b231400b 	j	0x1d00c6c8
1d00c668:	342f43ac 	sw	v1,12084(v0)
1d00c66c:	01a0043c 	lui	a0,0xa001
1d00c670:	382f8424 	addiu	a0,a0,12088
1d00c674:	6000a527 	addiu	a1,sp,96
1d00c678:	21300000 	move	a2,zero
1d00c67c:	d370400f 	jal	0x1d01c34c
1d00c680:	d0070724 	li	a3,2000
1d00c684:	10004010 	beqz	v0,0x1d00c6c8
1d00c688:	6000a293 	lbu	v0,96(sp)
1d00c68c:	06004010 	beqz	v0,0x1d00c6a8
1d00c690:	10000324 	li	v1,16
1d00c694:	01a0023c 	lui	v0,0xa001
1d00c698:	342f438c 	lw	v1,12084(v0)
1d00c69c:	01006324 	addiu	v1,v1,1
1d00c6a0:	b231400b 	j	0x1d00c6c8
1d00c6a4:	342f43ac 	sw	v1,12084(v0)
1d00c6a8:	01a0023c 	lui	v0,0xa001
1d00c6ac:	b231400b 	j	0x1d00c6c8
1d00c6b0:	342f43ac 	sw	v1,12084(v0)
1d00c6b4:	10000324 	li	v1,16
1d00c6b8:	01a0023c 	lui	v0,0xa001
1d00c6bc:	b231400b 	j	0x1d00c6c8
1d00c6c0:	342f43ac 	sw	v1,12084(v0)
1d00c6c4:	342f40ac 	sw	zero,12084(v0)
1d00c6c8:	cf54400f 	jal	0x1d01533c
1d00c6cc:	00000000 	nop
1d00c6d0:	01a0033c 	lui	v1,0xa001
1d00c6d4:	58356324 	addiu	v1,v1,13656
1d00c6d8:	1000a3af 	sw	v1,16(sp)
1d00c6dc:	01a0033c 	lui	v1,0xa001
1d00c6e0:	8c366324 	addiu	v1,v1,13964
1d00c6e4:	1400a3af 	sw	v1,20(sp)
1d00c6e8:	01a0033c 	lui	v1,0xa001
1d00c6ec:	78356324 	addiu	v1,v1,13688
1d00c6f0:	1800a3af 	sw	v1,24(sp)
1d00c6f4:	01a0033c 	lui	v1,0xa001
1d00c6f8:	88356324 	addiu	v1,v1,13704
1d00c6fc:	1c00a3af 	sw	v1,28(sp)
1d00c700:	01a0033c 	lui	v1,0xa001
1d00c704:	9c366324 	addiu	v1,v1,13980
1d00c708:	2000a3af 	sw	v1,32(sp)
1d00c70c:	01a0033c 	lui	v1,0xa001
1d00c710:	18356324 	addiu	v1,v1,13592
1d00c714:	2400a3af 	sw	v1,36(sp)
1d00c718:	01a0033c 	lui	v1,0xa001
1d00c71c:	f8346324 	addiu	v1,v1,13560
1d00c720:	2800a3af 	sw	v1,40(sp)
1d00c724:	01a0033c 	lui	v1,0xa001
1d00c728:	ac366324 	addiu	v1,v1,13996
1d00c72c:	2c00a3af 	sw	v1,44(sp)
1d00c730:	01a0033c 	lui	v1,0xa001
1d00c734:	7c366324 	addiu	v1,v1,13948
1d00c738:	3000a3af 	sw	v1,48(sp)
1d00c73c:	019d043c 	lui	a0,0x9d01
1d00c740:	4c878424 	addiu	a0,a0,-30900
1d00c744:	019d053c 	lui	a1,0x9d01
1d00c748:	f890a524 	addiu	a1,a1,-28424
1d00c74c:	009d063c 	lui	a2,0x9d00
1d00c750:	007ec624 	addiu	a2,a2,32256
1d00c754:	e465400f 	jal	0x1d019790
1d00c758:	21384000 	move	a3,v0
1d00c75c:	cf54400f 	jal	0x1d01533c
1d00c760:	00000000 	nop
1d00c764:	45004010 	beqz	v0,0x1d00c87c
1d00c768:	cc80828f 	lw	v0,-32564(gp)
1d00c76c:	20004014 	bnez	v0,0x1d00c7f0
1d00c770:	2880828f 	lw	v0,-32728(gp)
1d00c774:	00a0023c 	lui	v0,0xa000
1d00c778:	88014290 	lbu	v0,392(v0)
1d00c77c:	1c004014 	bnez	v0,0x1d00c7f0
1d00c780:	2880828f 	lw	v0,-32728(gp)
1d00c784:	01a0023c 	lui	v0,0xa001
1d00c788:	9c33428c 	lw	v0,13212(v0)
1d00c78c:	0200422c 	sltiu	v0,v0,2
1d00c790:	16004014 	bnez	v0,0x1d00c7ec
1d00c794:	08000224 	li	v0,8
1d00c798:	4000a0af 	sw	zero,64(sp)
1d00c79c:	4400a0af 	sw	zero,68(sp)
1d00c7a0:	3c00a2af 	sw	v0,60(sp)
1d00c7a4:	a8030224 	li	v0,936
1d00c7a8:	3800a2af 	sw	v0,56(sp)
1d00c7ac:	01a0023c 	lui	v0,0xa001
1d00c7b0:	9c324224 	addiu	v0,v0,12956
1d00c7b4:	540140ac 	sw	zero,340(v0)
1d00c7b8:	580140ac 	sw	zero,344(v0)
1d00c7bc:	c8000324 	li	v1,200
1d00c7c0:	5c0143ac 	sw	v1,348(v0)
1d00c7c4:	6001428c 	lw	v0,352(v0)
1d00c7c8:	ffff0324 	li	v1,-1
1d00c7cc:	03004310 	beq	v0,v1,0x1d00c7dc
1d00c7d0:	01004224 	addiu	v0,v0,1
1d00c7d4:	01a0033c 	lui	v1,0xa001
1d00c7d8:	fc3362ac 	sw	v0,13308(v1)
1d00c7dc:	4123400f 	jal	0x1d008d04
1d00c7e0:	4000a427 	addiu	a0,sp,64
1d00c7e4:	355f400f 	jal	0x1d017cd4
1d00c7e8:	3800a427 	addiu	a0,sp,56
1d00c7ec:	2880828f 	lw	v0,-32728(gp)
1d00c7f0:	05004010 	beqz	v0,0x1d00c808
1d00c7f4:	0a000324 	li	v1,10
1d00c7f8:	17004310 	beq	v0,v1,0x1d00c858
1d00c7fc:	08000224 	li	v0,8
1d00c800:	1f32400b 	j	0x1d00c87c
1d00c804:	00000000 	nop
1d00c808:	00a0023c 	lui	v0,0xa000
1d00c80c:	5801428c 	lw	v0,344(v0)
1d00c810:	1a004014 	bnez	v0,0x1d00c87c
1d00c814:	00a0023c 	lui	v0,0xa000
1d00c818:	5c01428c 	lw	v0,348(v0)
1d00c81c:	17004014 	bnez	v0,0x1d00c87c
1d00c820:	02000224 	li	v0,2
1d00c824:	3c00a2af 	sw	v0,60(sp)
1d00c828:	67000224 	li	v0,103
1d00c82c:	3800a2af 	sw	v0,56(sp)
1d00c830:	9822400f 	jal	0x1d008a60
1d00c834:	4000a427 	addiu	a0,sp,64
1d00c838:	796c400f 	jal	0x1d01b1e4
1d00c83c:	4000a427 	addiu	a0,sp,64
1d00c840:	aa5d400f 	jal	0x1d0176a8
1d00c844:	3800a427 	addiu	a0,sp,56
1d00c848:	d120400f 	jal	0x1d008344
1d00c84c:	3800a427 	addiu	a0,sp,56
1d00c850:	1f32400b 	j	0x1d00c87c
1d00c854:	00000000 	nop
1d00c858:	3c00a2af 	sw	v0,60(sp)
1d00c85c:	69000224 	li	v0,105
1d00c860:	3800a2af 	sw	v0,56(sp)
1d00c864:	b71f400f 	jal	0x1d007edc
1d00c868:	4000a427 	addiu	a0,sp,64
1d00c86c:	7f6c400f 	jal	0x1d01b1fc
1d00c870:	4000a427 	addiu	a0,sp,64
1d00c874:	aa5d400f 	jal	0x1d0176a8
1d00c878:	3800a427 	addiu	a0,sp,56
1d00c87c:	5889400f 	jal	0x1d022560
1d00c880:	00000000 	nop
1d00c884:	08004010 	beqz	v0,0x1d00c8a8
1d00c888:	08000224 	li	v0,8
1d00c88c:	3c00a2af 	sw	v0,60(sp)
1d00c890:	7f000224 	li	v0,127
1d00c894:	3800a2af 	sw	v0,56(sp)
1d00c898:	7189400f 	jal	0x1d0225c4
1d00c89c:	4000a427 	addiu	a0,sp,64
1d00c8a0:	aa5d400f 	jal	0x1d0176a8
1d00c8a4:	3800a427 	addiu	a0,sp,56
1d00c8a8:	bc7a400f 	jal	0x1d01eaf0
1d00c8ac:	00000000 	nop
1d00c8b0:	69004050 	beqzl	v0,0x1d00ca58
1d00c8b4:	8c00bf8f 	lw	ra,140(sp)
1d00c8b8:	08000224 	li	v0,8
1d00c8bc:	3c00a2af 	sw	v0,60(sp)
1d00c8c0:	7e000224 	li	v0,126
1d00c8c4:	3800a2af 	sw	v0,56(sp)
1d00c8c8:	db7a400f 	jal	0x1d01eb6c
1d00c8cc:	4000a427 	addiu	a0,sp,64
1d00c8d0:	aa5d400f 	jal	0x1d0176a8
1d00c8d4:	3800a427 	addiu	a0,sp,56
1d00c8d8:	9632400b 	j	0x1d00ca58
1d00c8dc:	8c00bf8f 	lw	ra,140(sp)
1d00c8e0:	fc33428c 	lw	v0,13308(v0)
1d00c8e4:	0400422c 	sltiu	v0,v0,4
1d00c8e8:	6af84050 	beqzl	v0,0x1d00aa94
1d00c8ec:	01a0023c 	lui	v0,0xa001
1d00c8f0:	c42a400b 	j	0x1d00ab10
1d00c8f4:	01a0023c 	lui	v0,0xa001
1d00c8f8:	2835438c 	lw	v1,13608(v0)
1d00c8fc:	8100023c 	lui	v0,0x81
1d00c900:	24186200 	and	v1,v1,v0
1d00c904:	0100023c 	lui	v0,0x1
1d00c908:	81f86254 	bnel	v1,v0,0x1d00ab10
1d00c90c:	01a0023c 	lui	v0,0xa001
1d00c910:	ab2a400b 	j	0x1d00aaac
1d00c914:	00a0023c 	lui	v0,0xa000
1d00c918:	c32a400b 	j	0x1d00ab0c
1d00c91c:	d08082af 	sw	v0,-32560(gp)
1d00c920:	c034428c 	lw	v0,13504(v0)
1d00c924:	0400422c 	sltiu	v0,v0,4
1d00c928:	b2fb4050 	beqzl	v0,0x1d00b7f4
1d00c92c:	01a0023c 	lui	v0,0xa001
1d00c930:	052e400b 	j	0x1d00b814
1d00c934:	00a0023c 	lui	v0,0xa000
1d00c938:	8b014290 	lbu	v0,395(v0)
1d00c93c:	b5fb4054 	bnezl	v0,0x1d00b814
1d00c940:	00a0023c 	lui	v0,0xa000
1d00c944:	032e400b 	j	0x1d00b80c
1d00c948:	00a0023c 	lui	v0,0xa000
1d00c94c:	fc33428c 	lw	v0,13308(v0)
1d00c950:	0400422c 	sltiu	v0,v0,4
1d00c954:	d5fb4050 	beqzl	v0,0x1d00b8ac
1d00c958:	01a0023c 	lui	v0,0xa001
1d00c95c:	742e400b 	j	0x1d00b9d0
1d00c960:	00a0023c 	lui	v0,0xa000
1d00c964:	3035428c 	lw	v0,13616(v0)
1d00c968:	d6fb4054 	bnezl	v0,0x1d00b8c4
1d00c96c:	01a0023c 	lui	v0,0xa001
1d00c970:	742e400b 	j	0x1d00b9d0
1d00c974:	00a0023c 	lui	v0,0xa000
1d00c978:	f801428c 	lw	v0,504(v0)
1d00c97c:	0300422c 	sltiu	v0,v0,3
1d00c980:	13fc4054 	bnezl	v0,0x1d00b9d0
1d00c984:	00a0023c 	lui	v0,0xa000
1d00c988:	522e400b 	j	0x1d00b948
1d00c98c:	00a0023c 	lui	v0,0xa000
1d00c990:	ec01458c 	lw	a1,492(v0)
1d00c994:	672e400b 	j	0x1d00b99c
1d00c998:	23200502 	subu	a0,s0,a1
1d00c99c:	932e400b 	j	0x1d00ba4c
1d00c9a0:	580140ac 	sw	zero,344(v0)
1d00c9a4:	00a0023c 	lui	v0,0xa000
1d00c9a8:	7801428c 	lw	v0,376(v0)
1d00c9ac:	4afc4054 	bnezl	v0,0x1d00bad8
1d00c9b0:	00a0023c 	lui	v0,0xa000
1d00c9b4:	412f400b 	j	0x1d00bd04
1d00c9b8:	00a0023c 	lui	v0,0xa000
1d00c9bc:	00a0023c 	lui	v0,0xa000
1d00c9c0:	7801438c 	lw	v1,376(v0)
1d00c9c4:	41fc6054 	bnezl	v1,0x1d00bacc
1d00c9c8:	ffff6324 	addiu	v1,v1,-1
1d00c9cc:	412f400b 	j	0x1d00bd04
1d00c9d0:	00a0023c 	lui	v0,0xa000
1d00c9d4:	9c32a524 	addiu	a1,a1,12956
1d00c9d8:	0801a78c 	lw	a3,264(a1)
1d00c9dc:	0401a390 	lbu	v1,260(a1)
1d00c9e0:	0501a290 	lbu	v0,261(a1)
1d00c9e4:	0a01a690 	lbu	a2,266(a1)
1d00c9e8:	0401a58c 	lw	a1,260(a1)
1d00c9ec:	03000824 	li	t0,3
1d00c9f0:	04ce057d 	ins	a1,t0,0x18,0x2
1d00c9f4:	5800a5af 	sw	a1,88(sp)
1d00c9f8:	001be87c 	ext	t0,a3,0xc,0x4
1d00c9fc:	01000825 	addiu	t0,t0,1
1d00ca00:	2128e000 	move	a1,a3
1d00ca04:	047b057d 	ins	a1,t0,0xc,0x4
1d00ca08:	5c00a5af 	sw	a1,92(sp)
1d00ca0c:	0600852c 	sltiu	a1,a0,6
1d00ca10:	75fca010 	beqz	a1,0x1d00bbe8
1d00ca14:	019d053c 	lui	a1,0x9d01
1d00ca18:	80200400 	sll	a0,a0,0x2
1d00ca1c:	30caa524 	addiu	a1,a1,-13776
1d00ca20:	2120a400 	addu	a0,a1,a0
1d00ca24:	0000848c 	lw	a0,0(a0)
1d00ca28:	08008000 	jr	a0
1d00ca2c:	00000000 	nop
1d00ca30:	e8bb009d 	0x9d00bbe8
1d00ca34:	60bb009d 	0x9d00bb60
1d00ca38:	74bb009d 	0x9d00bb74
1d00ca3c:	88bb009d 	0x9d00bb88
1d00ca40:	9cbb009d 	0x9d00bb9c
1d00ca44:	d4bb009d 	0x9d00bbd4
1d00ca48:	f001648c 	lw	a0,496(v1)
1d00ca4c:	01a0033c 	lui	v1,0xa001
1d00ca50:	0230400b 	j	0x1d00c008
1d00ca54:	bc2f64ac 	sw	a0,12220(v1)
1d00ca58:	8800b78f 	lw	s7,136(sp)
1d00ca5c:	8400b68f 	lw	s6,132(sp)
1d00ca60:	8000b58f 	lw	s5,128(sp)
1d00ca64:	7c00b48f 	lw	s4,124(sp)
1d00ca68:	7800b38f 	lw	s3,120(sp)
1d00ca6c:	7400b28f 	lw	s2,116(sp)
1d00ca70:	7000b18f 	lw	s1,112(sp)
1d00ca74:	6c00b08f 	lw	s0,108(sp)
1d00ca78:	0800e003 	jr	ra
1d00ca7c:	9000bd27 	addiu	sp,sp,144
1d00ca80:	a8ffbd27 	addiu	sp,sp,-88
1d00ca84:	5400bfaf 	sw	ra,84(sp)
1d00ca88:	5000b4af 	sw	s4,80(sp)
1d00ca8c:	4c00b3af 	sw	s3,76(sp)
1d00ca90:	4800b2af 	sw	s2,72(sp)
1d00ca94:	4400b1af 	sw	s1,68(sp)
1d00ca98:	a973400f 	jal	0x1d01cea4
1d00ca9c:	4000b0af 	sw	s0,64(sp)
1d00caa0:	01a0123c 	lui	s2,0xa001
1d00caa4:	5c315226 	addiu	s2,s2,12636
1d00caa8:	01a0113c 	lui	s1,0xa001
1d00caac:	ec313126 	addiu	s1,s1,12780
1d00cab0:	01a0103c 	lui	s0,0xa001
1d00cab4:	00a0133c 	lui	s3,0xa000
1d00cab8:	019d143c 	lui	s4,0x9d01
1d00cabc:	7e38400b 	j	0x1d00e1f8
1d00cac0:	48de9426 	addiu	s4,s4,-8632
1d00cac4:	2000a2af 	sw	v0,32(sp)
1d00cac8:	1400a28f 	lw	v0,20(sp)
1d00cacc:	2400a2af 	sw	v0,36(sp)
1d00cad0:	1800a28f 	lw	v0,24(sp)
1d00cad4:	2800a2af 	sw	v0,40(sp)
1d00cad8:	1c00a28f 	lw	v0,28(sp)
1d00cadc:	2c00a2af 	sw	v0,44(sp)
1d00cae0:	21204002 	move	a0,s2
1d00cae4:	a56f400f 	jal	0x1d01be94
1d00cae8:	1000a527 	addiu	a1,sp,16
1d00caec:	21202002 	move	a0,s1
1d00caf0:	a56f400f 	jal	0x1d01be94
1d00caf4:	1000a527 	addiu	a1,sp,16
1d00caf8:	9c32028e 	lw	v0,12956(s0)
1d00cafc:	ffff0324 	li	v1,-1
1d00cb00:	02004310 	beq	v0,v1,0x1d00cb0c
1d00cb04:	01004224 	addiu	v0,v0,1
1d00cb08:	9c3202ae 	sw	v0,12956(s0)
1d00cb0c:	cf54400f 	jal	0x1d01533c
1d00cb10:	00000000 	nop
1d00cb14:	b6054010 	beqz	v0,0x1d00e1f0
1d00cb18:	1400a28f 	lw	v0,20(sp)
1d00cb1c:	0007437c 	ext	v1,v0,0x1c,0x1
1d00cb20:	08006010 	beqz	v1,0x1d00cb44
1d00cb24:	0f004430 	andi	a0,v0,0xf
1d00cb28:	1000a58f 	lw	a1,16(sp)
1d00cb2c:	ff07a530 	andi	a1,a1,0x7ff
1d00cb30:	802c0500 	sll	a1,a1,0x12
1d00cb34:	1400a28f 	lw	v0,20(sp)
1d00cb38:	808a427c 	ext	v0,v0,0xa,0x12
1d00cb3c:	d332400b 	j	0x1d00cb4c
1d00cb40:	2510a200 	or	v0,a1,v0
1d00cb44:	1000a28f 	lw	v0,16(sp)
1d00cb48:	ff074230 	andi	v0,v0,0x7ff
1d00cb4c:	a8056014 	bnez	v1,0x1d00e1f0
1d00cb50:	8a010324 	li	v1,394
1d00cb54:	a2004310 	beq	v0,v1,0x1d00cde0
1d00cb58:	8b01432c 	sltiu	v1,v0,395
1d00cb5c:	38006010 	beqz	v1,0x1d00cc40
1d00cb60:	5c020324 	li	v1,604
1d00cb64:	81000324 	li	v1,129
1d00cb68:	8d044310 	beq	v0,v1,0x1d00dda0
1d00cb6c:	8200432c 	sltiu	v1,v0,130
1d00cb70:	17006010 	beqz	v1,0x1d00cbd0
1d00cb74:	92000324 	li	v1,146
1d00cb78:	5d000324 	li	v1,93
1d00cb7c:	79034310 	beq	v0,v1,0x1d00d964
1d00cb80:	5e00432c 	sltiu	v1,v0,94
1d00cb84:	09006010 	beqz	v1,0x1d00cbac
1d00cb88:	5a000324 	li	v1,90
1d00cb8c:	9e024310 	beq	v0,v1,0x1d00d608
1d00cb90:	5c000324 	li	v1,92
1d00cb94:	57034310 	beq	v0,v1,0x1d00d8f4
1d00cb98:	4c000324 	li	v1,76
1d00cb9c:	94054314 	bne	v0,v1,0x1d00e1f0
1d00cba0:	0800842c 	sltiu	a0,a0,8
1d00cba4:	0f37400b 	j	0x1d00dc3c
1d00cba8:	00000000 	nop
1d00cbac:	77000324 	li	v1,119
1d00cbb0:	06014310 	beq	v0,v1,0x1d00cfcc
1d00cbb4:	7d000324 	li	v1,125
1d00cbb8:	14014310 	beq	v0,v1,0x1d00d00c
1d00cbbc:	76000324 	li	v1,118
1d00cbc0:	8b054314 	bne	v0,v1,0x1d00e1f0
1d00cbc4:	0800842c 	sltiu	a0,a0,8
1d00cbc8:	dc33400b 	j	0x1d00cf70
1d00cbcc:	00000000 	nop
1d00cbd0:	93004310 	beq	v0,v1,0x1d00ce20
1d00cbd4:	9300432c 	sltiu	v1,v0,147
1d00cbd8:	0a006010 	beqz	v1,0x1d00cc04
1d00cbdc:	67010324 	li	v1,359
1d00cbe0:	85000324 	li	v1,133
1d00cbe4:	5e044310 	beq	v0,v1,0x1d00dd60
1d00cbe8:	91000324 	li	v1,145
1d00cbec:	4f054310 	beq	v0,v1,0x1d00e12c
1d00cbf0:	83000324 	li	v1,131
1d00cbf4:	7e054314 	bne	v0,v1,0x1d00e1f0
1d00cbf8:	0800842c 	sltiu	a0,a0,8
1d00cbfc:	4737400b 	j	0x1d00dd1c
1d00cc00:	00000000 	nop
1d00cc04:	ad044310 	beq	v0,v1,0x1d00debc
1d00cc08:	6801432c 	sltiu	v1,v0,360
1d00cc0c:	06006010 	beqz	v1,0x1d00cc28
1d00cc10:	86010324 	li	v1,390
1d00cc14:	65010324 	li	v1,357
1d00cc18:	30024310 	beq	v0,v1,0x1d00d4dc
1d00cc1c:	0800842c 	sltiu	a0,a0,8
1d00cc20:	7c38400b 	j	0x1d00e1f0
1d00cc24:	00000000 	nop
1d00cc28:	48004310 	beq	v0,v1,0x1d00cd4c
1d00cc2c:	87010324 	li	v1,391
1d00cc30:	59004310 	beq	v0,v1,0x1d00cd98
1d00cc34:	0800842c 	sltiu	a0,a0,8
1d00cc38:	7c38400b 	j	0x1d00e1f0
1d00cc3c:	00000000 	nop
1d00cc40:	9d034310 	beq	v0,v1,0x1d00dab8
1d00cc44:	5d02432c 	sltiu	v1,v0,605
1d00cc48:	17006010 	beqz	v1,0x1d00cca8
1d00cc4c:	ca030324 	li	v1,970
1d00cc50:	16020324 	li	v1,534
1d00cc54:	a9044310 	beq	v0,v1,0x1d00defc
1d00cc58:	1702432c 	sltiu	v1,v0,535
1d00cc5c:	09006010 	beqz	v1,0x1d00cc84
1d00cc60:	04020324 	li	v1,516
1d00cc64:	2c024310 	beq	v0,v1,0x1d00d518
1d00cc68:	13020324 	li	v1,531
1d00cc6c:	0b024310 	beq	v0,v1,0x1d00d49c
1d00cc70:	02020324 	li	v1,514
1d00cc74:	5e054314 	bne	v0,v1,0x1d00e1f0
1d00cc78:	0800842c 	sltiu	a0,a0,8
1d00cc7c:	5635400b 	j	0x1d00d558
1d00cc80:	00000000 	nop
1d00cc84:	30020324 	li	v1,560
1d00cc88:	55044310 	beq	v0,v1,0x1d00dde0
1d00cc8c:	42020324 	li	v1,578
1d00cc90:	a7004310 	beq	v0,v1,0x1d00cf30
1d00cc94:	17020324 	li	v1,535
1d00cc98:	55054314 	bne	v0,v1,0x1d00e1f0
1d00cc9c:	0800842c 	sltiu	a0,a0,8
1d00cca0:	2d38400b 	j	0x1d00e0b4
1d00cca4:	00000000 	nop
1d00cca8:	93034310 	beq	v0,v1,0x1d00daf8
1d00ccac:	cb03432c 	sltiu	v1,v0,971
1d00ccb0:	0a006010 	beqz	v1,0x1d00ccdc
1d00ccb4:	16040324 	li	v1,1046
1d00ccb8:	a7030324 	li	v1,935
1d00ccbc:	04044310 	beq	v0,v1,0x1d00dcd0
1d00ccc0:	a8030324 	li	v1,936
1d00ccc4:	c7034310 	beq	v0,v1,0x1d00dbe4
1d00ccc8:	a6030324 	li	v1,934
1d00cccc:	48054314 	bne	v0,v1,0x1d00e1f0
1d00ccd0:	0800842c 	sltiu	a0,a0,8
1d00ccd4:	2237400b 	j	0x1d00dc88
1d00ccd8:	00000000 	nop
1d00ccdc:	c1014310 	beq	v0,v1,0x1d00d3e4
1d00cce0:	1704432c 	sltiu	v1,v0,1047
1d00cce4:	06006010 	beqz	v1,0x1d00cd00
1d00cce8:	30040324 	li	v1,1072
1d00ccec:	15040324 	li	v1,1045
1d00ccf0:	99014310 	beq	v0,v1,0x1d00d358
1d00ccf4:	0800842c 	sltiu	a0,a0,8
1d00ccf8:	7c38400b 	j	0x1d00e1f0
1d00ccfc:	00000000 	nop
1d00cd00:	c8014310 	beq	v0,v1,0x1d00d424
1d00cd04:	b0040324 	li	v1,1200
1d00cd08:	39054314 	bne	v0,v1,0x1d00e1f0
1d00cd0c:	0800842c 	sltiu	a0,a0,8
1d00cd10:	39058014 	bnez	a0,0x1d00e1f8
1d00cd14:	9c320226 	addiu	v0,s0,12956
1d00cd18:	1800a38f 	lw	v1,24(sp)
1d00cd1c:	040043ac 	sw	v1,4(v0)
1d00cd20:	1c00a38f 	lw	v1,28(sp)
1d00cd24:	080043ac 	sw	v1,8(v0)
1d00cd28:	c8000324 	li	v1,200
1d00cd2c:	0c0043ac 	sw	v1,12(v0)
1d00cd30:	1000428c 	lw	v0,16(v0)
1d00cd34:	ffff0324 	li	v1,-1
1d00cd38:	2d054310 	beq	v0,v1,0x1d00e1f0
1d00cd3c:	9c320326 	addiu	v1,s0,12956
1d00cd40:	01004224 	addiu	v0,v0,1
1d00cd44:	7c38400b 	j	0x1d00e1f0
1d00cd48:	100062ac 	sw	v0,16(v1)
1d00cd4c:	0800842c 	sltiu	a0,a0,8
1d00cd50:	29058014 	bnez	a0,0x1d00e1f8
1d00cd54:	9c320226 	addiu	v0,s0,12956
1d00cd58:	1800a38f 	lw	v1,24(sp)
1d00cd5c:	140043ac 	sw	v1,20(v0)
1d00cd60:	1c00a38f 	lw	v1,28(sp)
1d00cd64:	180043ac 	sw	v1,24(v0)
1d00cd68:	c8000324 	li	v1,200
1d00cd6c:	1c0043ac 	sw	v1,28(v0)
1d00cd70:	2000428c 	lw	v0,32(v0)
1d00cd74:	ffff0324 	li	v1,-1
1d00cd78:	03004310 	beq	v0,v1,0x1d00cd88
1d00cd7c:	9c320326 	addiu	v1,s0,12956
1d00cd80:	01004224 	addiu	v0,v0,1
1d00cd84:	200062ac 	sw	v0,32(v1)
1d00cd88:	5428400f 	jal	0x1d00a150
1d00cd8c:	00000000 	nop
1d00cd90:	7c38400b 	j	0x1d00e1f0
1d00cd94:	00000000 	nop
1d00cd98:	17058014 	bnez	a0,0x1d00e1f8
1d00cd9c:	9c320226 	addiu	v0,s0,12956
1d00cda0:	1800a38f 	lw	v1,24(sp)
1d00cda4:	240043ac 	sw	v1,36(v0)
1d00cda8:	1c00a38f 	lw	v1,28(sp)
1d00cdac:	280043ac 	sw	v1,40(v0)
1d00cdb0:	c8000324 	li	v1,200
1d00cdb4:	2c0043ac 	sw	v1,44(v0)
1d00cdb8:	3000428c 	lw	v0,48(v0)
1d00cdbc:	ffff0324 	li	v1,-1
1d00cdc0:	03004310 	beq	v0,v1,0x1d00cdd0
1d00cdc4:	9c320326 	addiu	v1,s0,12956
1d00cdc8:	01004224 	addiu	v0,v0,1
1d00cdcc:	300062ac 	sw	v0,48(v1)
1d00cdd0:	5428400f 	jal	0x1d00a150
1d00cdd4:	00000000 	nop
1d00cdd8:	7c38400b 	j	0x1d00e1f0
1d00cddc:	00000000 	nop
1d00cde0:	0800842c 	sltiu	a0,a0,8
1d00cde4:	04058014 	bnez	a0,0x1d00e1f8
1d00cde8:	9c320226 	addiu	v0,s0,12956
1d00cdec:	1800a38f 	lw	v1,24(sp)
1d00cdf0:	340043ac 	sw	v1,52(v0)
1d00cdf4:	1c00a38f 	lw	v1,28(sp)
1d00cdf8:	380043ac 	sw	v1,56(v0)
1d00cdfc:	fa000324 	li	v1,250
1d00ce00:	3c0043ac 	sw	v1,60(v0)
1d00ce04:	4000428c 	lw	v0,64(v0)
1d00ce08:	ffff0324 	li	v1,-1
1d00ce0c:	f8044310 	beq	v0,v1,0x1d00e1f0
1d00ce10:	9c320326 	addiu	v1,s0,12956
1d00ce14:	01004224 	addiu	v0,v0,1
1d00ce18:	7c38400b 	j	0x1d00e1f0
1d00ce1c:	400062ac 	sw	v0,64(v1)
1d00ce20:	0800842c 	sltiu	a0,a0,8
1d00ce24:	f4048014 	bnez	a0,0x1d00e1f8
1d00ce28:	9c320226 	addiu	v0,s0,12956
1d00ce2c:	1800a38f 	lw	v1,24(sp)
1d00ce30:	440043ac 	sw	v1,68(v0)
1d00ce34:	1c00a38f 	lw	v1,28(sp)
1d00ce38:	480043ac 	sw	v1,72(v0)
1d00ce3c:	06010324 	li	v1,262
1d00ce40:	4c0043ac 	sw	v1,76(v0)
1d00ce44:	5000428c 	lw	v0,80(v0)
1d00ce48:	ffff0324 	li	v1,-1
1d00ce4c:	03004310 	beq	v0,v1,0x1d00ce5c
1d00ce50:	9c320326 	addiu	v1,s0,12956
1d00ce54:	01004224 	addiu	v0,v0,1
1d00ce58:	500062ac 	sw	v0,80(v1)
1d00ce5c:	9c320226 	addiu	v0,s0,12956
1d00ce60:	5000428c 	lw	v0,80(v0)
1d00ce64:	0300422c 	sltiu	v0,v0,3
1d00ce68:	e1044014 	bnez	v0,0x1d00e1f0
1d00ce6c:	06000224 	li	v0,6
1d00ce70:	3400a2af 	sw	v0,52(sp)
1d00ce74:	6b000224 	li	v0,107
1d00ce78:	3000a2af 	sw	v0,48(sp)
1d00ce7c:	3800a0af 	sw	zero,56(sp)
1d00ce80:	3c00a0a7 	sh	zero,60(sp)
1d00ce84:	9c320226 	addiu	v0,s0,12956
1d00ce88:	4400438c 	lw	v1,68(v0)
1d00ce8c:	60006430 	andi	a0,v1,0x60
1d00ce90:	60000224 	li	v0,96
1d00ce94:	0a008214 	bne	a0,v0,0x1d00cec0
1d00ce98:	6000023c 	lui	v0,0x60
1d00ce9c:	9c320226 	addiu	v0,s0,12956
1d00cea0:	45004490 	lbu	a0,69(v0)
1d00cea4:	60f08424 	addiu	a0,a0,-4000
1d00cea8:	0020627c 	ext	v0,v1,0x0,0x5
1d00ceac:	ff004230 	andi	v0,v0,0xff
1d00ceb0:	00120200 	sll	v0,v0,0x8
1d00ceb4:	21108200 	addu	v0,a0,v0
1d00ceb8:	3800a2a7 	sh	v0,56(sp)
1d00cebc:	6000023c 	lui	v0,0x60
1d00cec0:	24186200 	and	v1,v1,v0
1d00cec4:	09006214 	bne	v1,v0,0x1d00ceec
1d00cec8:	9c320226 	addiu	v0,s0,12956
1d00cecc:	47004390 	lbu	v1,71(v0)
1d00ced0:	60f06324 	addiu	v1,v1,-4000
1d00ced4:	4400428c 	lw	v0,68(v0)
1d00ced8:	0024427c 	ext	v0,v0,0x10,0x5
1d00cedc:	00120200 	sll	v0,v0,0x8
1d00cee0:	21106200 	addu	v0,v1,v0
1d00cee4:	3a00a2a7 	sh	v0,58(sp)
1d00cee8:	9c320226 	addiu	v0,s0,12956
1d00ceec:	4800438c 	lw	v1,72(v0)
1d00cef0:	60006330 	andi	v1,v1,0x60
1d00cef4:	60000224 	li	v0,96
1d00cef8:	09006214 	bne	v1,v0,0x1d00cf20
1d00cefc:	9c320226 	addiu	v0,s0,12956
1d00cf00:	49004390 	lbu	v1,73(v0)
1d00cf04:	60f06324 	addiu	v1,v1,-4000
1d00cf08:	4800428c 	lw	v0,72(v0)
1d00cf0c:	0020427c 	ext	v0,v0,0x0,0x5
1d00cf10:	ff004230 	andi	v0,v0,0xff
1d00cf14:	00120200 	sll	v0,v0,0x8
1d00cf18:	21106200 	addu	v0,v1,v0
1d00cf1c:	3c00a2a7 	sh	v0,60(sp)
1d00cf20:	aa5d400f 	jal	0x1d0176a8
1d00cf24:	3000a427 	addiu	a0,sp,48
1d00cf28:	7c38400b 	j	0x1d00e1f0
1d00cf2c:	00000000 	nop
1d00cf30:	0800842c 	sltiu	a0,a0,8
1d00cf34:	b0048014 	bnez	a0,0x1d00e1f8
1d00cf38:	9c320226 	addiu	v0,s0,12956
1d00cf3c:	1800a38f 	lw	v1,24(sp)
1d00cf40:	540043ac 	sw	v1,84(v0)
1d00cf44:	1c00a38f 	lw	v1,28(sp)
1d00cf48:	580043ac 	sw	v1,88(v0)
1d00cf4c:	fa000324 	li	v1,250
1d00cf50:	5c0043ac 	sw	v1,92(v0)
1d00cf54:	6000428c 	lw	v0,96(v0)
1d00cf58:	ffff0324 	li	v1,-1
1d00cf5c:	a4044310 	beq	v0,v1,0x1d00e1f0
1d00cf60:	9c320326 	addiu	v1,s0,12956
1d00cf64:	01004224 	addiu	v0,v0,1
1d00cf68:	7c38400b 	j	0x1d00e1f0
1d00cf6c:	600062ac 	sw	v0,96(v1)
1d00cf70:	a1048014 	bnez	a0,0x1d00e1f8
1d00cf74:	9c320226 	addiu	v0,s0,12956
1d00cf78:	1800a38f 	lw	v1,24(sp)
1d00cf7c:	640043ac 	sw	v1,100(v0)
1d00cf80:	1c00a38f 	lw	v1,28(sp)
1d00cf84:	680043ac 	sw	v1,104(v0)
1d00cf88:	c8000324 	li	v1,200
1d00cf8c:	6c0043ac 	sw	v1,108(v0)
1d00cf90:	7000428c 	lw	v0,112(v0)
1d00cf94:	ffff0324 	li	v1,-1
1d00cf98:	03004310 	beq	v0,v1,0x1d00cfa8
1d00cf9c:	9c320326 	addiu	v1,s0,12956
1d00cfa0:	01004224 	addiu	v0,v0,1
1d00cfa4:	700062ac 	sw	v0,112(v1)
1d00cfa8:	2a00a393 	lbu	v1,42(sp)
1d00cfac:	c0006330 	andi	v1,v1,0xc0
1d00cfb0:	c0000224 	li	v0,192
1d00cfb4:	8e046210 	beq	v1,v0,0x1d00e1f0
1d00cfb8:	2800a28f 	lw	v0,40(sp)
1d00cfbc:	03000324 	li	v1,3
1d00cfc0:	84bd627c 	ins	v0,v1,0x16,0x2
1d00cfc4:	7c38400b 	j	0x1d00e1f0
1d00cfc8:	2800a2af 	sw	v0,40(sp)
1d00cfcc:	0800842c 	sltiu	a0,a0,8
1d00cfd0:	89048014 	bnez	a0,0x1d00e1f8
1d00cfd4:	9c320226 	addiu	v0,s0,12956
1d00cfd8:	1800a38f 	lw	v1,24(sp)
1d00cfdc:	740043ac 	sw	v1,116(v0)
1d00cfe0:	1c00a38f 	lw	v1,28(sp)
1d00cfe4:	780043ac 	sw	v1,120(v0)
1d00cfe8:	c8000324 	li	v1,200
1d00cfec:	7c0043ac 	sw	v1,124(v0)
1d00cff0:	8000428c 	lw	v0,128(v0)
1d00cff4:	ffff0324 	li	v1,-1
1d00cff8:	7d044310 	beq	v0,v1,0x1d00e1f0
1d00cffc:	9c320326 	addiu	v1,s0,12956
1d00d000:	01004224 	addiu	v0,v0,1
1d00d004:	7c38400b 	j	0x1d00e1f0
1d00d008:	800062ac 	sw	v0,128(v1)
1d00d00c:	0800842c 	sltiu	a0,a0,8
1d00d010:	79048014 	bnez	a0,0x1d00e1f8
1d00d014:	9c320226 	addiu	v0,s0,12956
1d00d018:	1800a38f 	lw	v1,24(sp)
1d00d01c:	840043ac 	sw	v1,132(v0)
1d00d020:	1c00a38f 	lw	v1,28(sp)
1d00d024:	880043ac 	sw	v1,136(v0)
1d00d028:	c8000324 	li	v1,200
1d00d02c:	8c0043ac 	sw	v1,140(v0)
1d00d030:	9000428c 	lw	v0,144(v0)
1d00d034:	ffff0324 	li	v1,-1
1d00d038:	03004310 	beq	v0,v1,0x1d00d048
1d00d03c:	9c320326 	addiu	v1,s0,12956
1d00d040:	01004224 	addiu	v0,v0,1
1d00d044:	900062ac 	sw	v0,144(v1)
1d00d048:	9c320226 	addiu	v0,s0,12956
1d00d04c:	9000428c 	lw	v0,144(v0)
1d00d050:	0b00422c 	sltiu	v0,v0,11
1d00d054:	66044014 	bnez	v0,0x1d00e1f0
1d00d058:	9c320226 	addiu	v0,s0,12956
1d00d05c:	3800a0af 	sw	zero,56(sp)
1d00d060:	3c00a0af 	sw	zero,60(sp)
1d00d064:	8400448c 	lw	a0,132(v0)
1d00d068:	0020857c 	ext	a1,a0,0x0,0x5
1d00d06c:	ff00a530 	andi	a1,a1,0xff
1d00d070:	002a0500 	sll	a1,a1,0x8
1d00d074:	85004390 	lbu	v1,133(v0)
1d00d078:	2118a300 	addu	v1,a1,v1
1d00d07c:	ffff6330 	andi	v1,v1,0xffff
1d00d080:	001e847c 	ext	a0,a0,0x18,0x4
1d00d084:	402a0400 	sll	a1,a0,0x9
1d00d088:	88004490 	lbu	a0,136(v0)
1d00d08c:	40200400 	sll	a0,a0,0x1
1d00d090:	2120a400 	addu	a0,a1,a0
1d00d094:	8800428c 	lw	v0,136(v0)
1d00d098:	c003427c 	ext	v0,v0,0xf,0x1
1d00d09c:	21108200 	addu	v0,a0,v0
1d00d0a0:	ffff4230 	andi	v0,v0,0xffff
1d00d0a4:	0010642c 	sltiu	a0,v1,4096
1d00d0a8:	02008014 	bnez	a0,0x1d00d0b4
1d00d0ac:	21286000 	move	a1,v1
1d00d0b0:	ff0f0524 	li	a1,4095
1d00d0b4:	3800a48f 	lw	a0,56(sp)
1d00d0b8:	0458a47c 	ins	a0,a1,0x0,0xc
1d00d0bc:	9c320526 	addiu	a1,s0,12956
1d00d0c0:	8400a58c 	lw	a1,132(a1)
1d00d0c4:	4011a57c 	ext	a1,a1,0x5,0x3
1d00d0c8:	0473a47c 	ins	a0,a1,0xc,0x3
1d00d0cc:	3800a4af 	sw	a0,56(sp)
1d00d0d0:	21204000 	move	a0,v0
1d00d0d4:	0010422c 	sltiu	v0,v0,4096
1d00d0d8:	01004050 	beqzl	v0,0x1d00d0e0
1d00d0dc:	ff0f0424 	li	a0,4095
1d00d0e0:	3800a28f 	lw	v0,56(sp)
1d00d0e4:	04dc827c 	ins	v0,a0,0x10,0xc
1d00d0e8:	3800a2af 	sw	v0,56(sp)
1d00d0ec:	ff1f6338 	xori	v1,v1,0x1fff
1d00d0f0:	0100632c 	sltiu	v1,v1,1
1d00d0f4:	23180300 	negu	v1,v1
1d00d0f8:	3c00a28f 	lw	v0,60(sp)
1d00d0fc:	847b627c 	ins	v0,v1,0xe,0x2
1d00d100:	3c00a2af 	sw	v0,60(sp)
1d00d104:	9c320226 	addiu	v0,s0,12956
1d00d108:	b000428c 	lw	v0,176(v0)
1d00d10c:	0300422c 	sltiu	v0,v0,3
1d00d110:	15004014 	bnez	v0,0x1d00d168
1d00d114:	3800a28f 	lw	v0,56(sp)
1d00d118:	9c320226 	addiu	v0,s0,12956
1d00d11c:	a800438c 	lw	v1,168(v0)
1d00d120:	3800a48f 	lw	a0,56(sp)
1d00d124:	04ef647c 	ins	a0,v1,0x1c,0x2
1d00d128:	3800a4af 	sw	a0,56(sp)
1d00d12c:	a400428c 	lw	v0,164(v0)
1d00d130:	20004538 	xori	a1,v0,0x20
1d00d134:	4001a57c 	ext	a1,a1,0x5,0x1
1d00d138:	3c00a48f 	lw	a0,60(sp)
1d00d13c:	c4dea47c 	ins	a0,a1,0x1b,0x1
1d00d140:	0001457c 	ext	a1,v0,0x4,0x1
1d00d144:	44efa47c 	ins	a0,a1,0x1d,0x1
1d00d148:	0007457c 	ext	a1,v0,0x1c,0x1
1d00d14c:	21108000 	move	v0,a0
1d00d150:	84f7a27c 	ins	v0,a1,0x1e,0x1
1d00d154:	00186330 	andi	v1,v1,0x1800
1d00d158:	0100632c 	sltiu	v1,v1,1
1d00d15c:	c4ff627c 	ins	v0,v1,0x1f,0x1
1d00d160:	5d34400b 	j	0x1d00d174
1d00d164:	3c00a2af 	sw	v0,60(sp)
1d00d168:	03000324 	li	v1,3
1d00d16c:	04ef627c 	ins	v0,v1,0x1c,0x2
1d00d170:	3800a2af 	sw	v0,56(sp)
1d00d174:	9c320226 	addiu	v0,s0,12956
1d00d178:	d000428c 	lw	v0,208(v0)
1d00d17c:	0300422c 	sltiu	v0,v0,3
1d00d180:	39004014 	bnez	v0,0x1d00d268
1d00d184:	3800a28f 	lw	v0,56(sp)
1d00d188:	9c320226 	addiu	v0,s0,12956
1d00d18c:	ca004390 	lbu	v1,202(v0)
1d00d190:	01fe6324 	addiu	v1,v1,-511
1d00d194:	c800428c 	lw	v0,200(v0)
1d00d198:	00034230 	andi	v0,v0,0x300
1d00d19c:	21106200 	addu	v0,v1,v0
1d00d1a0:	2016027c 	seh	v0,v0
1d00d1a4:	ff014328 	slti	v1,v0,511
1d00d1a8:	07006010 	beqz	v1,0x1d00d1c8
1d00d1ac:	ff010424 	li	a0,511
1d00d1b0:	21184000 	move	v1,v0
1d00d1b4:	00fe4228 	slti	v0,v0,-512
1d00d1b8:	01004054 	bnezl	v0,0x1d00d1c0
1d00d1bc:	00fe0324 	li	v1,-512
1d00d1c0:	801d0300 	sll	v1,v1,0x16
1d00d1c4:	83250300 	sra	a0,v1,0x16
1d00d1c8:	3c00a38f 	lw	v1,60(sp)
1d00d1cc:	04cc837c 	ins	v1,a0,0x10,0xa
1d00d1d0:	9c320226 	addiu	v0,s0,12956
1d00d1d4:	c800448c 	lw	a0,200(v0)
1d00d1d8:	c001867c 	ext	a2,a0,0x7,0x1
1d00d1dc:	3800a58f 	lw	a1,56(sp)
1d00d1e0:	c47bc57c 	ins	a1,a2,0xf,0x1
1d00d1e4:	3800a5af 	sw	a1,56(sp)
1d00d1e8:	4003847c 	ext	a0,a0,0xd,0x1
1d00d1ec:	84d6837c 	ins	v1,a0,0x1a,0x1
1d00d1f0:	c400428c 	lw	v0,196(v0)
1d00d1f4:	c005447c 	ext	a0,v0,0x17,0x1
1d00d1f8:	04e7837c 	ins	v1,a0,0x1c,0x1
1d00d1fc:	3c00a3af 	sw	v1,60(sp)
1d00d200:	0016427c 	ext	v0,v0,0x18,0x3
1d00d204:	02000324 	li	v1,2
1d00d208:	0b004310 	beq	v0,v1,0x1d00d238
1d00d20c:	04000324 	li	v1,4
1d00d210:	05004310 	beq	v0,v1,0x1d00d228
1d00d214:	01000324 	li	v1,1
1d00d218:	0f004314 	bne	v0,v1,0x1d00d258
1d00d21c:	3800a28f 	lw	v0,56(sp)
1d00d220:	9334400b 	j	0x1d00d24c
1d00d224:	02000324 	li	v1,2
1d00d228:	3800a28f 	lw	v0,56(sp)
1d00d22c:	84ff027c 	ins	v0,zero,0x1e,0x2
1d00d230:	9d34400b 	j	0x1d00d274
1d00d234:	3800a2af 	sw	v0,56(sp)
1d00d238:	3800a28f 	lw	v0,56(sp)
1d00d23c:	01000324 	li	v1,1
1d00d240:	84ff627c 	ins	v0,v1,0x1e,0x2
1d00d244:	9d34400b 	j	0x1d00d274
1d00d248:	3800a2af 	sw	v0,56(sp)
1d00d24c:	84ff627c 	ins	v0,v1,0x1e,0x2
1d00d250:	9d34400b 	j	0x1d00d274
1d00d254:	3800a2af 	sw	v0,56(sp)
1d00d258:	03000324 	li	v1,3
1d00d25c:	84ff627c 	ins	v0,v1,0x1e,0x2
1d00d260:	9d34400b 	j	0x1d00d274
1d00d264:	3800a2af 	sw	v0,56(sp)
1d00d268:	03000324 	li	v1,3
1d00d26c:	84ff627c 	ins	v0,v1,0x1e,0x2
1d00d270:	3800a2af 	sw	v0,56(sp)
1d00d274:	9c320226 	addiu	v0,s0,12956
1d00d278:	dc03428c 	lw	v0,988(v0)
1d00d27c:	0300422c 	sltiu	v0,v0,3
1d00d280:	14004014 	bnez	v0,0x1d00d2d4
1d00d284:	9c320226 	addiu	v0,s0,12956
1d00d288:	d2034390 	lbu	v1,978(v0)
1d00d28c:	00806324 	addiu	v1,v1,-32768
1d00d290:	d1034290 	lbu	v0,977(v0)
1d00d294:	00120200 	sll	v0,v0,0x8
1d00d298:	21106200 	addu	v0,v1,v0
1d00d29c:	2016027c 	seh	v0,v0
1d00d2a0:	ff1f4428 	slti	a0,v0,8191
1d00d2a4:	07008010 	beqz	a0,0x1d00d2c4
1d00d2a8:	ff1f0324 	li	v1,8191
1d00d2ac:	21184000 	move	v1,v0
1d00d2b0:	00e04228 	slti	v0,v0,-8192
1d00d2b4:	01004054 	bnezl	v0,0x1d00d2bc
1d00d2b8:	00e00324 	li	v1,-8192
1d00d2bc:	801c0300 	sll	v1,v1,0x12
1d00d2c0:	831c0300 	sra	v1,v1,0x12
1d00d2c4:	3c00a28f 	lw	v0,60(sp)
1d00d2c8:	0468627c 	ins	v0,v1,0x0,0xe
1d00d2cc:	cc34400b 	j	0x1d00d330
1d00d2d0:	3c00a2af 	sw	v0,60(sp)
1d00d2d4:	e001428c 	lw	v0,480(v0)
1d00d2d8:	0300422c 	sltiu	v0,v0,3
1d00d2dc:	15004014 	bnez	v0,0x1d00d334
1d00d2e0:	08000224 	li	v0,8
1d00d2e4:	9c320226 	addiu	v0,s0,12956
1d00d2e8:	d6014390 	lbu	v1,470(v0)
1d00d2ec:	00806324 	addiu	v1,v1,-32768
1d00d2f0:	d5014290 	lbu	v0,469(v0)
1d00d2f4:	00120200 	sll	v0,v0,0x8
1d00d2f8:	21106200 	addu	v0,v1,v0
1d00d2fc:	2016027c 	seh	v0,v0
1d00d300:	ff1f4428 	slti	a0,v0,8191
1d00d304:	07008010 	beqz	a0,0x1d00d324
1d00d308:	ff1f0324 	li	v1,8191
1d00d30c:	21184000 	move	v1,v0
1d00d310:	00e04228 	slti	v0,v0,-8192
1d00d314:	01004054 	bnezl	v0,0x1d00d31c
1d00d318:	00e00324 	li	v1,-8192
1d00d31c:	801c0300 	sll	v1,v1,0x12
1d00d320:	831c0300 	sra	v1,v1,0x12
1d00d324:	3c00a28f 	lw	v0,60(sp)
1d00d328:	0468627c 	ins	v0,v1,0x0,0xe
1d00d32c:	3c00a2af 	sw	v0,60(sp)
1d00d330:	08000224 	li	v0,8
1d00d334:	3400a2af 	sw	v0,52(sp)
1d00d338:	74000224 	li	v0,116
1d00d33c:	3000a2af 	sw	v0,48(sp)
1d00d340:	aa5d400f 	jal	0x1d0176a8
1d00d344:	3000a427 	addiu	a0,sp,48
1d00d348:	d120400f 	jal	0x1d008344
1d00d34c:	3000a427 	addiu	a0,sp,48
1d00d350:	7c38400b 	j	0x1d00e1f0
1d00d354:	00000000 	nop
1d00d358:	a7038014 	bnez	a0,0x1d00e1f8
1d00d35c:	9c320226 	addiu	v0,s0,12956
1d00d360:	1800a38f 	lw	v1,24(sp)
1d00d364:	940043ac 	sw	v1,148(v0)
1d00d368:	1c00a38f 	lw	v1,28(sp)
1d00d36c:	980043ac 	sw	v1,152(v0)
1d00d370:	c8000324 	li	v1,200
1d00d374:	9c0043ac 	sw	v1,156(v0)
1d00d378:	a000428c 	lw	v0,160(v0)
1d00d37c:	ffff0324 	li	v1,-1
1d00d380:	03004310 	beq	v0,v1,0x1d00d390
1d00d384:	9c320326 	addiu	v1,s0,12956
1d00d388:	01004224 	addiu	v0,v0,1
1d00d38c:	a00062ac 	sw	v0,160(v1)
1d00d390:	80016226 	addiu	v0,s3,384
1d00d394:	0b004290 	lbu	v0,11(v0)
1d00d398:	06004050 	beqzl	v0,0x1d00d3b4
1d00d39c:	2800a0a3 	sb	zero,40(sp)
1d00d3a0:	80016226 	addiu	v0,s3,384
1d00d3a4:	09004290 	lbu	v0,9(v0)
1d00d3a8:	91034010 	beqz	v0,0x1d00e1f0
1d00d3ac:	00000000 	nop
1d00d3b0:	2800a0a3 	sb	zero,40(sp)
1d00d3b4:	2900a0a3 	sb	zero,41(sp)
1d00d3b8:	2800a28f 	lw	v0,40(sp)
1d00d3bc:	03000324 	li	v1,3
1d00d3c0:	84bd627c 	ins	v0,v1,0x16,0x2
1d00d3c4:	2800a2af 	sw	v0,40(sp)
1d00d3c8:	003c427c 	ext	v0,v0,0x10,0x8
1d00d3cc:	8018437c 	ext	v1,v0,0x2,0x4
1d00d3d0:	ff006338 	xori	v1,v1,0xff
1d00d3d4:	82110200 	srl	v0,v0,0x6
1d00d3d8:	23106200 	subu	v0,v1,v0
1d00d3dc:	7c38400b 	j	0x1d00e1f0
1d00d3e0:	2b00a2a3 	sb	v0,43(sp)
1d00d3e4:	0800842c 	sltiu	a0,a0,8
1d00d3e8:	83038014 	bnez	a0,0x1d00e1f8
1d00d3ec:	9c320226 	addiu	v0,s0,12956
1d00d3f0:	1800a38f 	lw	v1,24(sp)
1d00d3f4:	a40043ac 	sw	v1,164(v0)
1d00d3f8:	1c00a38f 	lw	v1,28(sp)
1d00d3fc:	a80043ac 	sw	v1,168(v0)
1d00d400:	fa000324 	li	v1,250
1d00d404:	ac0043ac 	sw	v1,172(v0)
1d00d408:	b000428c 	lw	v0,176(v0)
1d00d40c:	ffff0324 	li	v1,-1
1d00d410:	77034310 	beq	v0,v1,0x1d00e1f0
1d00d414:	9c320326 	addiu	v1,s0,12956
1d00d418:	01004224 	addiu	v0,v0,1
1d00d41c:	7c38400b 	j	0x1d00e1f0
1d00d420:	b00062ac 	sw	v0,176(v1)
1d00d424:	0800842c 	sltiu	a0,a0,8
1d00d428:	73038014 	bnez	a0,0x1d00e1f8
1d00d42c:	9c320226 	addiu	v0,s0,12956
1d00d430:	1800a38f 	lw	v1,24(sp)
1d00d434:	b40043ac 	sw	v1,180(v0)
1d00d438:	1c00a38f 	lw	v1,28(sp)
1d00d43c:	b80043ac 	sw	v1,184(v0)
1d00d440:	fa000324 	li	v1,250
1d00d444:	bc0043ac 	sw	v1,188(v0)
1d00d448:	c000428c 	lw	v0,192(v0)
1d00d44c:	ffff0324 	li	v1,-1
1d00d450:	03004310 	beq	v0,v1,0x1d00d460
1d00d454:	9c320326 	addiu	v1,s0,12956
1d00d458:	01004224 	addiu	v0,v0,1
1d00d45c:	c00062ac 	sw	v0,192(v1)
1d00d460:	2900a393 	lbu	v1,41(sp)
1d00d464:	001c0300 	sll	v1,v1,0x10
1d00d468:	2a00a293 	lbu	v0,42(sp)
1d00d46c:	00120200 	sll	v0,v0,0x8
1d00d470:	21186200 	addu	v1,v1,v0
1d00d474:	2b00a293 	lbu	v0,43(sp)
1d00d478:	21106200 	addu	v0,v1,v0
1d00d47c:	01a0033c 	lui	v1,0xa001
1d00d480:	bc36638c 	lw	v1,14012(v1)
1d00d484:	02004310 	beq	v0,v1,0x1d00d490
1d00d488:	01a0033c 	lui	v1,0xa001
1d00d48c:	c03660ac 	sw	zero,14016(v1)
1d00d490:	01a0033c 	lui	v1,0xa001
1d00d494:	7c38400b 	j	0x1d00e1f0
1d00d498:	bc3662ac 	sw	v0,14012(v1)
1d00d49c:	0800842c 	sltiu	a0,a0,8
1d00d4a0:	55038014 	bnez	a0,0x1d00e1f8
1d00d4a4:	9c320226 	addiu	v0,s0,12956
1d00d4a8:	1800a38f 	lw	v1,24(sp)
1d00d4ac:	c40043ac 	sw	v1,196(v0)
1d00d4b0:	1c00a38f 	lw	v1,28(sp)
1d00d4b4:	c80043ac 	sw	v1,200(v0)
1d00d4b8:	c8000324 	li	v1,200
1d00d4bc:	cc0043ac 	sw	v1,204(v0)
1d00d4c0:	d000428c 	lw	v0,208(v0)
1d00d4c4:	ffff0324 	li	v1,-1
1d00d4c8:	49034310 	beq	v0,v1,0x1d00e1f0
1d00d4cc:	9c320326 	addiu	v1,s0,12956
1d00d4d0:	01004224 	addiu	v0,v0,1
1d00d4d4:	7c38400b 	j	0x1d00e1f0
1d00d4d8:	d00062ac 	sw	v0,208(v1)
1d00d4dc:	46038014 	bnez	a0,0x1d00e1f8
1d00d4e0:	9c320226 	addiu	v0,s0,12956
1d00d4e4:	1800a38f 	lw	v1,24(sp)
1d00d4e8:	d40043ac 	sw	v1,212(v0)
1d00d4ec:	1c00a38f 	lw	v1,28(sp)
1d00d4f0:	d80043ac 	sw	v1,216(v0)
1d00d4f4:	c8000324 	li	v1,200
1d00d4f8:	dc0043ac 	sw	v1,220(v0)
1d00d4fc:	e000428c 	lw	v0,224(v0)
1d00d500:	ffff0324 	li	v1,-1
1d00d504:	3a034310 	beq	v0,v1,0x1d00e1f0
1d00d508:	9c320326 	addiu	v1,s0,12956
1d00d50c:	01004224 	addiu	v0,v0,1
1d00d510:	7c38400b 	j	0x1d00e1f0
1d00d514:	e00062ac 	sw	v0,224(v1)
1d00d518:	0800842c 	sltiu	a0,a0,8
1d00d51c:	36038014 	bnez	a0,0x1d00e1f8
1d00d520:	9c320226 	addiu	v0,s0,12956
1d00d524:	1800a38f 	lw	v1,24(sp)
1d00d528:	e40043ac 	sw	v1,228(v0)
1d00d52c:	1c00a38f 	lw	v1,28(sp)
1d00d530:	e80043ac 	sw	v1,232(v0)
1d00d534:	c8000324 	li	v1,200
1d00d538:	ec0043ac 	sw	v1,236(v0)
1d00d53c:	f000428c 	lw	v0,240(v0)
1d00d540:	ffff0324 	li	v1,-1
1d00d544:	2a034310 	beq	v0,v1,0x1d00e1f0
1d00d548:	9c320326 	addiu	v1,s0,12956
1d00d54c:	01004224 	addiu	v0,v0,1
1d00d550:	7c38400b 	j	0x1d00e1f0
1d00d554:	f00062ac 	sw	v0,240(v1)
1d00d558:	27038014 	bnez	a0,0x1d00e1f8
1d00d55c:	9c320226 	addiu	v0,s0,12956
1d00d560:	1800a38f 	lw	v1,24(sp)
1d00d564:	f40043ac 	sw	v1,244(v0)
1d00d568:	1c00a38f 	lw	v1,28(sp)
1d00d56c:	f80043ac 	sw	v1,248(v0)
1d00d570:	c8000324 	li	v1,200
1d00d574:	fc0043ac 	sw	v1,252(v0)
1d00d578:	0001428c 	lw	v0,256(v0)
1d00d57c:	ffff0324 	li	v1,-1
1d00d580:	03004310 	beq	v0,v1,0x1d00d590
1d00d584:	9c320326 	addiu	v1,s0,12956
1d00d588:	01004224 	addiu	v0,v0,1
1d00d58c:	000162ac 	sw	v0,256(v1)
1d00d590:	80016226 	addiu	v0,s3,384
1d00d594:	0b004290 	lbu	v0,11(v0)
1d00d598:	06004050 	beqzl	v0,0x1d00d5b4
1d00d59c:	2e00a0a3 	sb	zero,46(sp)
1d00d5a0:	80016226 	addiu	v0,s3,384
1d00d5a4:	09004290 	lbu	v0,9(v0)
1d00d5a8:	15004010 	beqz	v0,0x1d00d600
1d00d5ac:	80016226 	addiu	v0,s3,384
1d00d5b0:	2e00a0a3 	sb	zero,46(sp)
1d00d5b4:	2f00a0a3 	sb	zero,47(sp)
1d00d5b8:	2c00a28f 	lw	v0,44(sp)
1d00d5bc:	03000324 	li	v1,3
1d00d5c0:	4431627c 	ins	v0,v1,0x5,0x2
1d00d5c4:	2c00a2af 	sw	v0,44(sp)
1d00d5c8:	2a00a393 	lbu	v1,42(sp)
1d00d5cc:	c018637c 	ext	v1,v1,0x3,0x4
1d00d5d0:	ff006338 	xori	v1,v1,0xff
1d00d5d4:	4009427c 	ext	v0,v0,0x5,0x2
1d00d5d8:	23106200 	subu	v0,v1,v0
1d00d5dc:	2900a2a3 	sb	v0,41(sp)
1d00d5e0:	80016226 	addiu	v0,s3,384
1d00d5e4:	7800428c 	lw	v0,120(v0)
1d00d5e8:	ffff0324 	li	v1,-1
1d00d5ec:	00034310 	beq	v0,v1,0x1d00e1f0
1d00d5f0:	80016326 	addiu	v1,s3,384
1d00d5f4:	01004224 	addiu	v0,v0,1
1d00d5f8:	7c38400b 	j	0x1d00e1f0
1d00d5fc:	780062ac 	sw	v0,120(v1)
1d00d600:	7c38400b 	j	0x1d00e1f0
1d00d604:	780040ac 	sw	zero,120(v0)
1d00d608:	0800842c 	sltiu	a0,a0,8
1d00d60c:	fa028014 	bnez	a0,0x1d00e1f8
1d00d610:	9c320226 	addiu	v0,s0,12956
1d00d614:	1800a38f 	lw	v1,24(sp)
1d00d618:	040143ac 	sw	v1,260(v0)
1d00d61c:	1c00a38f 	lw	v1,28(sp)
1d00d620:	080143ac 	sw	v1,264(v0)
1d00d624:	fa000324 	li	v1,250
1d00d628:	0c0143ac 	sw	v1,268(v0)
1d00d62c:	1001428c 	lw	v0,272(v0)
1d00d630:	ffff0324 	li	v1,-1
1d00d634:	03004310 	beq	v0,v1,0x1d00d644
1d00d638:	9c320326 	addiu	v1,s0,12956
1d00d63c:	01004224 	addiu	v0,v0,1
1d00d640:	100162ac 	sw	v0,272(v1)
1d00d644:	2b00a293 	lbu	v0,43(sp)
1d00d648:	03004430 	andi	a0,v0,0x3
1d00d64c:	03000324 	li	v1,3
1d00d650:	93008354 	bnel	a0,v1,0x1d00d8a0
1d00d654:	00a0023c 	lui	v0,0xa000
1d00d658:	f8004230 	andi	v0,v0,0xf8
1d00d65c:	90004010 	beqz	v0,0x1d00d8a0
1d00d660:	00a0023c 	lui	v0,0xa000
1d00d664:	2800a28f 	lw	v0,40(sp)
1d00d668:	c026427c 	ext	v0,v0,0x1b,0x5
1d00d66c:	ff004330 	andi	v1,v0,0xff
1d00d670:	1100632c 	sltiu	v1,v1,17
1d00d674:	2d006010 	beqz	v1,0x1d00d72c
1d00d678:	ff004230 	andi	v0,v0,0xff
1d00d67c:	80100200 	sll	v0,v0,0x2
1d00d680:	019d033c 	lui	v1,0x9d01
1d00d684:	98d66324 	addiu	v1,v1,-10600
1d00d688:	21106200 	addu	v0,v1,v0
1d00d68c:	0000428c 	lw	v0,0(v0)
1d00d690:	08004000 	jr	v0
1d00d694:	00000000 	nop
1d00d698:	2cd7009d 	0x9d00d72c
1d00d69c:	dcd6009d 	0x9d00d6dc
1d00d6a0:	ecd6009d 	0x9d00d6ec
1d00d6a4:	2cd7009d 	0x9d00d72c
1d00d6a8:	fcd6009d 	0x9d00d6fc
1d00d6ac:	2cd7009d 	0x9d00d72c
1d00d6b0:	2cd7009d 	0x9d00d72c
1d00d6b4:	2cd7009d 	0x9d00d72c
1d00d6b8:	0cd7009d 	0x9d00d70c
1d00d6bc:	2cd7009d 	0x9d00d72c
1d00d6c0:	2cd7009d 	0x9d00d72c
1d00d6c4:	2cd7009d 	0x9d00d72c
1d00d6c8:	2cd7009d 	0x9d00d72c
1d00d6cc:	2cd7009d 	0x9d00d72c
1d00d6d0:	2cd7009d 	0x9d00d72c
1d00d6d4:	2cd7009d 	0x9d00d72c
1d00d6d8:	1cd7009d 	0x9d00d71c
1d00d6dc:	01000324 	li	v1,1
1d00d6e0:	00a0023c 	lui	v0,0xa000
1d00d6e4:	cd35400b 	j	0x1d00d734
1d00d6e8:	680143ac 	sw	v1,360(v0)
1d00d6ec:	02000324 	li	v1,2
1d00d6f0:	00a0023c 	lui	v0,0xa000
1d00d6f4:	cd35400b 	j	0x1d00d734
1d00d6f8:	680143ac 	sw	v1,360(v0)
1d00d6fc:	03000324 	li	v1,3
1d00d700:	00a0023c 	lui	v0,0xa000
1d00d704:	cd35400b 	j	0x1d00d734
1d00d708:	680143ac 	sw	v1,360(v0)
1d00d70c:	04000324 	li	v1,4
1d00d710:	00a0023c 	lui	v0,0xa000
1d00d714:	cd35400b 	j	0x1d00d734
1d00d718:	680143ac 	sw	v1,360(v0)
1d00d71c:	05000324 	li	v1,5
1d00d720:	00a0023c 	lui	v0,0xa000
1d00d724:	cd35400b 	j	0x1d00d734
1d00d728:	680143ac 	sw	v1,360(v0)
1d00d72c:	00a0023c 	lui	v0,0xa000
1d00d730:	680140ac 	sw	zero,360(v0)
1d00d734:	00a0023c 	lui	v0,0xa000
1d00d738:	5c01428c 	lw	v0,348(v0)
1d00d73c:	56004014 	bnez	v0,0x1d00d898
1d00d740:	00a0023c 	lui	v0,0xa000
1d00d744:	00a0023c 	lui	v0,0xa000
1d00d748:	7c01428c 	lw	v0,380(v0)
1d00d74c:	0200422c 	sltiu	v0,v0,2
1d00d750:	11004014 	bnez	v0,0x1d00d798
1d00d754:	00a0023c 	lui	v0,0xa000
1d00d758:	6801438c 	lw	v1,360(v0)
1d00d75c:	01000224 	li	v0,1
1d00d760:	0e006214 	bne	v1,v0,0x1d00d79c
1d00d764:	01000324 	li	v1,1
1d00d768:	00a0023c 	lui	v0,0xa000
1d00d76c:	6401428c 	lw	v0,356(v0)
1d00d770:	01000324 	li	v1,1
1d00d774:	48004350 	beql	v0,v1,0x1d00d898
1d00d778:	00a0023c 	lui	v0,0xa000
1d00d77c:	07004014 	bnez	v0,0x1d00d79c
1d00d780:	01000324 	li	v1,1
1d00d784:	00a0023c 	lui	v0,0xa000
1d00d788:	6001438c 	lw	v1,352(v0)
1d00d78c:	01000224 	li	v0,1
1d00d790:	41006210 	beq	v1,v0,0x1d00d898
1d00d794:	00a0023c 	lui	v0,0xa000
1d00d798:	01000324 	li	v1,1
1d00d79c:	00a0023c 	lui	v0,0xa000
1d00d7a0:	6c0143a0 	sb	v1,364(v0)
1d00d7a4:	9c320226 	addiu	v0,s0,12956
1d00d7a8:	6402428c 	lw	v0,612(v0)
1d00d7ac:	06004010 	beqz	v0,0x1d00d7c8
1d00d7b0:	9c320226 	addiu	v0,s0,12956
1d00d7b4:	6002428c 	lw	v0,608(v0)
1d00d7b8:	0006427c 	ext	v0,v0,0x18,0x1
1d00d7bc:	34004014 	bnez	v0,0x1d00d890
1d00d7c0:	e8030224 	li	v0,1000
1d00d7c4:	9c320226 	addiu	v0,s0,12956
1d00d7c8:	8402428c 	lw	v0,644(v0)
1d00d7cc:	05004010 	beqz	v0,0x1d00d7e4
1d00d7d0:	9c320226 	addiu	v0,s0,12956
1d00d7d4:	8002428c 	lw	v0,640(v0)
1d00d7d8:	0006427c 	ext	v0,v0,0x18,0x1
1d00d7dc:	2c004014 	bnez	v0,0x1d00d890
1d00d7e0:	e8030224 	li	v0,1000
1d00d7e4:	9c320226 	addiu	v0,s0,12956
1d00d7e8:	2402428c 	lw	v0,548(v0)
1d00d7ec:	0400422c 	sltiu	v0,v0,4
1d00d7f0:	29004014 	bnez	v0,0x1d00d898
1d00d7f4:	00a0023c 	lui	v0,0xa000
1d00d7f8:	9c320226 	addiu	v0,s0,12956
1d00d7fc:	4402428c 	lw	v0,580(v0)
1d00d800:	0400422c 	sltiu	v0,v0,4
1d00d804:	13064050 	beqzl	v0,0x1d00f054
1d00d808:	9c320226 	addiu	v0,s0,12956
1d00d80c:	2636400b 	j	0x1d00d898
1d00d810:	00a0023c 	lui	v0,0xa000
1d00d814:	0001428c 	lw	v0,256(v0)
1d00d818:	0400422c 	sltiu	v0,v0,4
1d00d81c:	13064050 	beqzl	v0,0x1d00f06c
1d00d820:	9c320226 	addiu	v0,s0,12956
1d00d824:	2636400b 	j	0x1d00d898
1d00d828:	00a0023c 	lui	v0,0xa000
1d00d82c:	8c02438c 	lw	v1,652(v0)
1d00d830:	8100023c 	lui	v0,0x81
1d00d834:	24186200 	and	v1,v1,v0
1d00d838:	0100023c 	lui	v0,0x1
1d00d83c:	16006214 	bne	v1,v0,0x1d00d898
1d00d840:	00a0023c 	lui	v0,0xa000
1d00d844:	80016226 	addiu	v0,s3,384
1d00d848:	0a004290 	lbu	v0,10(v0)
1d00d84c:	11004014 	bnez	v0,0x1d00d894
1d00d850:	80016226 	addiu	v0,s3,384
1d00d854:	0b004290 	lbu	v0,11(v0)
1d00d858:	0f004014 	bnez	v0,0x1d00d898
1d00d85c:	00a0023c 	lui	v0,0xa000
1d00d860:	8f6c400f 	jal	0x1d01b23c
1d00d864:	00000000 	nop
1d00d868:	05004010 	beqz	v0,0x1d00d880
1d00d86c:	00000000 	nop
1d00d870:	9a6c400f 	jal	0x1d01b268
1d00d874:	00000000 	nop
1d00d878:	07004010 	beqz	v0,0x1d00d898
1d00d87c:	00a0023c 	lui	v0,0xa000
1d00d880:	c073400f 	jal	0x1d01cf00
1d00d884:	00000000 	nop
1d00d888:	02004014 	bnez	v0,0x1d00d894
1d00d88c:	e8030224 	li	v0,1000
1d00d890:	d08082af 	sw	v0,-32560(gp)
1d00d894:	00a0023c 	lui	v0,0xa000
1d00d898:	2936400b 	j	0x1d00d8a4
1d00d89c:	780140ac 	sw	zero,376(v0)
1d00d8a0:	680140ac 	sw	zero,360(v0)
1d00d8a4:	2b00a293 	lbu	v0,43(sp)
1d00d8a8:	03004230 	andi	v0,v0,0x3
1d00d8ac:	01000324 	li	v1,1
1d00d8b0:	08004314 	bne	v0,v1,0x1d00d8d4
1d00d8b4:	ffff0324 	li	v1,-1
1d00d8b8:	00a0023c 	lui	v0,0xa000
1d00d8bc:	7c01428c 	lw	v0,380(v0)
1d00d8c0:	4b024310 	beq	v0,v1,0x1d00e1f0
1d00d8c4:	01004224 	addiu	v0,v0,1
1d00d8c8:	00a0033c 	lui	v1,0xa000
1d00d8cc:	7c38400b 	j	0x1d00e1f0
1d00d8d0:	7c0162ac 	sw	v0,380(v1)
1d00d8d4:	46024014 	bnez	v0,0x1d00e1f0
1d00d8d8:	00a0023c 	lui	v0,0xa000
1d00d8dc:	7c01428c 	lw	v0,380(v0)
1d00d8e0:	43024010 	beqz	v0,0x1d00e1f0
1d00d8e4:	ffff4224 	addiu	v0,v0,-1
1d00d8e8:	00a0033c 	lui	v1,0xa000
1d00d8ec:	7c38400b 	j	0x1d00e1f0
1d00d8f0:	7c0162ac 	sw	v0,380(v1)
1d00d8f4:	0800842c 	sltiu	a0,a0,8
1d00d8f8:	3f028014 	bnez	a0,0x1d00e1f8
1d00d8fc:	9c320226 	addiu	v0,s0,12956
1d00d900:	1800a38f 	lw	v1,24(sp)
1d00d904:	140143ac 	sw	v1,276(v0)
1d00d908:	1c00a38f 	lw	v1,28(sp)
1d00d90c:	180143ac 	sw	v1,280(v0)
1d00d910:	fa000324 	li	v1,250
1d00d914:	1c0143ac 	sw	v1,284(v0)
1d00d918:	2001428c 	lw	v0,288(v0)
1d00d91c:	ffff0324 	li	v1,-1
1d00d920:	03004310 	beq	v0,v1,0x1d00d930
1d00d924:	9c320326 	addiu	v1,s0,12956
1d00d928:	01004224 	addiu	v0,v0,1
1d00d92c:	200162ac 	sw	v0,288(v1)
1d00d930:	00a0023c 	lui	v0,0xa000
1d00d934:	6401428c 	lw	v0,356(v0)
1d00d938:	2d024010 	beqz	v0,0x1d00e1f0
1d00d93c:	2900a393 	lbu	v1,41(sp)
1d00d940:	0c006330 	andi	v1,v1,0xc
1d00d944:	08000224 	li	v0,8
1d00d948:	29026214 	bne	v1,v0,0x1d00e1f0
1d00d94c:	00a0023c 	lui	v0,0xa000
1d00d950:	58014224 	addiu	v0,v0,344
1d00d954:	0c0040ac 	sw	zero,12(v0)
1d00d958:	05000324 	li	v1,5
1d00d95c:	7c38400b 	j	0x1d00e1f0
1d00d960:	180043ac 	sw	v1,24(v0)
1d00d964:	0800842c 	sltiu	a0,a0,8
1d00d968:	23028014 	bnez	a0,0x1d00e1f8
1d00d96c:	9c320226 	addiu	v0,s0,12956
1d00d970:	1800a38f 	lw	v1,24(sp)
1d00d974:	240143ac 	sw	v1,292(v0)
1d00d978:	1c00a38f 	lw	v1,28(sp)
1d00d97c:	280143ac 	sw	v1,296(v0)
1d00d980:	fa000324 	li	v1,250
1d00d984:	2c0143ac 	sw	v1,300(v0)
1d00d988:	3001428c 	lw	v0,304(v0)
1d00d98c:	ffff0324 	li	v1,-1
1d00d990:	03004310 	beq	v0,v1,0x1d00d9a0
1d00d994:	9c320326 	addiu	v1,s0,12956
1d00d998:	01004224 	addiu	v0,v0,1
1d00d99c:	300162ac 	sw	v0,304(v1)
1d00d9a0:	00a0023c 	lui	v0,0xa000
1d00d9a4:	6401428c 	lw	v0,356(v0)
1d00d9a8:	11024010 	beqz	v0,0x1d00e1f0
1d00d9ac:	2a00a393 	lbu	v1,42(sp)
1d00d9b0:	0430037c 	ins	v1,zero,0x0,0x7
1d00d9b4:	ff006330 	andi	v1,v1,0xff
1d00d9b8:	0d026010 	beqz	v1,0x1d00e1f0
1d00d9bc:	2800a38f 	lw	v1,40(sp)
1d00d9c0:	4011637c 	ext	v1,v1,0x5,0x3
1d00d9c4:	0a024314 	bne	v0,v1,0x1d00e1f0
1d00d9c8:	00a0033c 	lui	v1,0xa000
1d00d9cc:	7c01638c 	lw	v1,380(v1)
1d00d9d0:	0200632c 	sltiu	v1,v1,2
1d00d9d4:	04006010 	beqz	v1,0x1d00d9e8
1d00d9d8:	9c320326 	addiu	v1,s0,12956
1d00d9dc:	00a0023c 	lui	v0,0xa000
1d00d9e0:	7c38400b 	j	0x1d00e1f0
1d00d9e4:	640140ac 	sw	zero,356(v0)
1d00d9e8:	0c01638c 	lw	v1,268(v1)
1d00d9ec:	00026010 	beqz	v1,0x1d00e1f0
1d00d9f0:	0800432c 	sltiu	v1,v0,8
1d00d9f4:	2b006010 	beqz	v1,0x1d00daa4
1d00d9f8:	80100200 	sll	v0,v0,0x2
1d00d9fc:	019d033c 	lui	v1,0x9d01
1d00da00:	14da6324 	addiu	v1,v1,-9708
1d00da04:	21106200 	addu	v0,v1,v0
1d00da08:	0000428c 	lw	v0,0(v0)
1d00da0c:	08004000 	jr	v0
1d00da10:	00000000 	nop
1d00da14:	a4da009d 	0x9d00daa4
1d00da18:	34da009d 	0x9d00da34
1d00da1c:	50da009d 	0x9d00da50
1d00da20:	6cda009d 	0x9d00da6c
1d00da24:	88da009d 	0x9d00da88
1d00da28:	88da009d 	0x9d00da88
1d00da2c:	88da009d 	0x9d00da88
1d00da30:	88da009d 	0x9d00da88
1d00da34:	9c320226 	addiu	v0,s0,12956
1d00da38:	0401438c 	lw	v1,260(v0)
1d00da3c:	04d0037c 	ins	v1,zero,0x0,0x1b
1d00da40:	00f8023c 	lui	v0,0xf800
1d00da44:	21106200 	addu	v0,v1,v0
1d00da48:	aa36400b 	j	0x1d00daa8
1d00da4c:	0100422c 	sltiu	v0,v0,1
1d00da50:	9c320226 	addiu	v0,s0,12956
1d00da54:	0401438c 	lw	v1,260(v0)
1d00da58:	04d0037c 	ins	v1,zero,0x0,0x1b
1d00da5c:	00f0023c 	lui	v0,0xf000
1d00da60:	21106200 	addu	v0,v1,v0
1d00da64:	aa36400b 	j	0x1d00daa8
1d00da68:	0100422c 	sltiu	v0,v0,1
1d00da6c:	9c320226 	addiu	v0,s0,12956
1d00da70:	0401438c 	lw	v1,260(v0)
1d00da74:	04d0037c 	ins	v1,zero,0x0,0x1b
1d00da78:	00e0023c 	lui	v0,0xe000
1d00da7c:	21106200 	addu	v0,v1,v0
1d00da80:	aa36400b 	j	0x1d00daa8
1d00da84:	0100422c 	sltiu	v0,v0,1
1d00da88:	9c320226 	addiu	v0,s0,12956
1d00da8c:	0401438c 	lw	v1,260(v0)
1d00da90:	04d0037c 	ins	v1,zero,0x0,0x1b
1d00da94:	00c0023c 	lui	v0,0xc000
1d00da98:	21106200 	addu	v0,v1,v0
1d00da9c:	aa36400b 	j	0x1d00daa8
1d00daa0:	0100422c 	sltiu	v0,v0,1
1d00daa4:	21100000 	move	v0,zero
1d00daa8:	d1014010 	beqz	v0,0x1d00e1f0
1d00daac:	00a0023c 	lui	v0,0xa000
1d00dab0:	7c38400b 	j	0x1d00e1f0
1d00dab4:	640140ac 	sw	zero,356(v0)
1d00dab8:	0800842c 	sltiu	a0,a0,8
1d00dabc:	ce018014 	bnez	a0,0x1d00e1f8
1d00dac0:	9c320226 	addiu	v0,s0,12956
1d00dac4:	1800a38f 	lw	v1,24(sp)
1d00dac8:	340143ac 	sw	v1,308(v0)
1d00dacc:	1c00a38f 	lw	v1,28(sp)
1d00dad0:	380143ac 	sw	v1,312(v0)
1d00dad4:	c8000324 	li	v1,200
1d00dad8:	3c0143ac 	sw	v1,316(v0)
1d00dadc:	4001428c 	lw	v0,320(v0)
1d00dae0:	ffff0324 	li	v1,-1
1d00dae4:	c2014310 	beq	v0,v1,0x1d00e1f0
1d00dae8:	9c320326 	addiu	v1,s0,12956
1d00daec:	01004224 	addiu	v0,v0,1
1d00daf0:	7c38400b 	j	0x1d00e1f0
1d00daf4:	400162ac 	sw	v0,320(v1)
1d00daf8:	0800842c 	sltiu	a0,a0,8
1d00dafc:	be018014 	bnez	a0,0x1d00e1f8
1d00db00:	9c320226 	addiu	v0,s0,12956
1d00db04:	1800a38f 	lw	v1,24(sp)
1d00db08:	440143ac 	sw	v1,324(v0)
1d00db0c:	1c00a38f 	lw	v1,28(sp)
1d00db10:	480143ac 	sw	v1,328(v0)
1d00db14:	c8000324 	li	v1,200
1d00db18:	4c0143ac 	sw	v1,332(v0)
1d00db1c:	5001428c 	lw	v0,336(v0)
1d00db20:	ffff0324 	li	v1,-1
1d00db24:	03004310 	beq	v0,v1,0x1d00db34
1d00db28:	9c320326 	addiu	v1,s0,12956
1d00db2c:	01004224 	addiu	v0,v0,1
1d00db30:	500162ac 	sw	v0,336(v1)
1d00db34:	9c320226 	addiu	v0,s0,12956
1d00db38:	2402428c 	lw	v0,548(v0)
1d00db3c:	0400422c 	sltiu	v0,v0,4
1d00db40:	ab014014 	bnez	v0,0x1d00e1f0
1d00db44:	9c320226 	addiu	v0,s0,12956
1d00db48:	4402428c 	lw	v0,580(v0)
1d00db4c:	0400422c 	sltiu	v0,v0,4
1d00db50:	4b054010 	beqz	v0,0x1d00f080
1d00db54:	9c320226 	addiu	v0,s0,12956
1d00db58:	7c38400b 	j	0x1d00e1f0
1d00db5c:	00000000 	nop
1d00db60:	0001428c 	lw	v0,256(v0)
1d00db64:	0400422c 	sltiu	v0,v0,4
1d00db68:	4b054010 	beqz	v0,0x1d00f098
1d00db6c:	9c320226 	addiu	v0,s0,12956
1d00db70:	7c38400b 	j	0x1d00e1f0
1d00db74:	00000000 	nop
1d00db78:	8c02438c 	lw	v1,652(v0)
1d00db7c:	8100023c 	lui	v0,0x81
1d00db80:	24186200 	and	v1,v1,v0
1d00db84:	0100023c 	lui	v0,0x1
1d00db88:	99016214 	bne	v1,v0,0x1d00e1f0
1d00db8c:	80016226 	addiu	v0,s3,384
1d00db90:	0a004290 	lbu	v0,10(v0)
1d00db94:	96014014 	bnez	v0,0x1d00e1f0
1d00db98:	80016226 	addiu	v0,s3,384
1d00db9c:	0b004290 	lbu	v0,11(v0)
1d00dba0:	93014014 	bnez	v0,0x1d00e1f0
1d00dba4:	00000000 	nop
1d00dba8:	8f6c400f 	jal	0x1d01b23c
1d00dbac:	00000000 	nop
1d00dbb0:	05004010 	beqz	v0,0x1d00dbc8
1d00dbb4:	00000000 	nop
1d00dbb8:	9a6c400f 	jal	0x1d01b268
1d00dbbc:	00000000 	nop
1d00dbc0:	8b014010 	beqz	v0,0x1d00e1f0
1d00dbc4:	00000000 	nop
1d00dbc8:	c073400f 	jal	0x1d01cf00
1d00dbcc:	00000000 	nop
1d00dbd0:	87014014 	bnez	v0,0x1d00e1f0
1d00dbd4:	00000000 	nop
1d00dbd8:	2800a0af 	sw	zero,40(sp)
1d00dbdc:	7c38400b 	j	0x1d00e1f0
1d00dbe0:	2c00a0af 	sw	zero,44(sp)
1d00dbe4:	0800842c 	sltiu	a0,a0,8
1d00dbe8:	83018014 	bnez	a0,0x1d00e1f8
1d00dbec:	9c320226 	addiu	v0,s0,12956
1d00dbf0:	1800a38f 	lw	v1,24(sp)
1d00dbf4:	540143ac 	sw	v1,340(v0)
1d00dbf8:	1c00a38f 	lw	v1,28(sp)
1d00dbfc:	580143ac 	sw	v1,344(v0)
1d00dc00:	c8000324 	li	v1,200
1d00dc04:	5c0143ac 	sw	v1,348(v0)
1d00dc08:	6001428c 	lw	v0,352(v0)
1d00dc0c:	ffff0324 	li	v1,-1
1d00dc10:	03004310 	beq	v0,v1,0x1d00dc20
1d00dc14:	9c320326 	addiu	v1,s0,12956
1d00dc18:	01004224 	addiu	v0,v0,1
1d00dc1c:	600162ac 	sw	v0,352(v1)
1d00dc20:	80016226 	addiu	v0,s3,384
1d00dc24:	01000324 	li	v1,1
1d00dc28:	080043a0 	sb	v1,8(v0)
1d00dc2c:	4123400f 	jal	0x1d008d04
1d00dc30:	2800a427 	addiu	a0,sp,40
1d00dc34:	7c38400b 	j	0x1d00e1f0
1d00dc38:	00000000 	nop
1d00dc3c:	6e018014 	bnez	a0,0x1d00e1f8
1d00dc40:	9c320226 	addiu	v0,s0,12956
1d00dc44:	1800a38f 	lw	v1,24(sp)
1d00dc48:	640143ac 	sw	v1,356(v0)
1d00dc4c:	1c00a38f 	lw	v1,28(sp)
1d00dc50:	680143ac 	sw	v1,360(v0)
1d00dc54:	fa000324 	li	v1,250
1d00dc58:	6c0143ac 	sw	v1,364(v0)
1d00dc5c:	7001428c 	lw	v0,368(v0)
1d00dc60:	ffff0324 	li	v1,-1
1d00dc64:	03004310 	beq	v0,v1,0x1d00dc74
1d00dc68:	9c320326 	addiu	v1,s0,12956
1d00dc6c:	01004224 	addiu	v0,v0,1
1d00dc70:	700162ac 	sw	v0,368(v1)
1d00dc74:	5422400f 	jal	0x1d008950
1d00dc78:	00000000 	nop
1d00dc7c:	01000224 	li	v0,1
1d00dc80:	7c38400b 	j	0x1d00e1f0
1d00dc84:	d88082af 	sw	v0,-32552(gp)
1d00dc88:	5b018014 	bnez	a0,0x1d00e1f8
1d00dc8c:	9c320226 	addiu	v0,s0,12956
1d00dc90:	1800a38f 	lw	v1,24(sp)
1d00dc94:	740143ac 	sw	v1,372(v0)
1d00dc98:	1c00a38f 	lw	v1,28(sp)
1d00dc9c:	780143ac 	sw	v1,376(v0)
1d00dca0:	f4010324 	li	v1,500
1d00dca4:	7c0143ac 	sw	v1,380(v0)
1d00dca8:	8001428c 	lw	v0,384(v0)
1d00dcac:	ffff0324 	li	v1,-1
1d00dcb0:	03004310 	beq	v0,v1,0x1d00dcc0
1d00dcb4:	9c320326 	addiu	v1,s0,12956
1d00dcb8:	01004224 	addiu	v0,v0,1
1d00dcbc:	800162ac 	sw	v0,384(v1)
1d00dcc0:	0429400f 	jal	0x1d00a410
1d00dcc4:	00000000 	nop
1d00dcc8:	7c38400b 	j	0x1d00e1f0
1d00dccc:	00000000 	nop
1d00dcd0:	0800842c 	sltiu	a0,a0,8
1d00dcd4:	48018014 	bnez	a0,0x1d00e1f8
1d00dcd8:	9c320226 	addiu	v0,s0,12956
1d00dcdc:	1800a38f 	lw	v1,24(sp)
1d00dce0:	840143ac 	sw	v1,388(v0)
1d00dce4:	1c00a38f 	lw	v1,28(sp)
1d00dce8:	880143ac 	sw	v1,392(v0)
1d00dcec:	f4010324 	li	v1,500
1d00dcf0:	8c0143ac 	sw	v1,396(v0)
1d00dcf4:	9001428c 	lw	v0,400(v0)
1d00dcf8:	ffff0324 	li	v1,-1
1d00dcfc:	03004310 	beq	v0,v1,0x1d00dd0c
1d00dd00:	9c320326 	addiu	v1,s0,12956
1d00dd04:	01004224 	addiu	v0,v0,1
1d00dd08:	900162ac 	sw	v0,400(v1)
1d00dd0c:	0429400f 	jal	0x1d00a410
1d00dd10:	00000000 	nop
1d00dd14:	7c38400b 	j	0x1d00e1f0
1d00dd18:	00000000 	nop
1d00dd1c:	36018014 	bnez	a0,0x1d00e1f8
1d00dd20:	9c320226 	addiu	v0,s0,12956
1d00dd24:	1800a38f 	lw	v1,24(sp)
1d00dd28:	940143ac 	sw	v1,404(v0)
1d00dd2c:	1c00a38f 	lw	v1,28(sp)
1d00dd30:	980143ac 	sw	v1,408(v0)
1d00dd34:	fa000324 	li	v1,250
1d00dd38:	9c0143ac 	sw	v1,412(v0)
1d00dd3c:	a001428c 	lw	v0,416(v0)
1d00dd40:	ffff0324 	li	v1,-1
1d00dd44:	03004310 	beq	v0,v1,0x1d00dd54
1d00dd48:	9c320326 	addiu	v1,s0,12956
1d00dd4c:	01004224 	addiu	v0,v0,1
1d00dd50:	a00162ac 	sw	v0,416(v1)
1d00dd54:	01a0023c 	lui	v0,0xa001
1d00dd58:	7c38400b 	j	0x1d00e1f0
1d00dd5c:	c83040ac 	sw	zero,12488(v0)
1d00dd60:	0800842c 	sltiu	a0,a0,8
1d00dd64:	24018014 	bnez	a0,0x1d00e1f8
1d00dd68:	9c320226 	addiu	v0,s0,12956
1d00dd6c:	1800a38f 	lw	v1,24(sp)
1d00dd70:	a40143ac 	sw	v1,420(v0)
1d00dd74:	1c00a38f 	lw	v1,28(sp)
1d00dd78:	a80143ac 	sw	v1,424(v0)
1d00dd7c:	c8000324 	li	v1,200
1d00dd80:	ac0143ac 	sw	v1,428(v0)
1d00dd84:	b001428c 	lw	v0,432(v0)
1d00dd88:	ffff0324 	li	v1,-1
1d00dd8c:	18014310 	beq	v0,v1,0x1d00e1f0
1d00dd90:	9c320326 	addiu	v1,s0,12956
1d00dd94:	01004224 	addiu	v0,v0,1
1d00dd98:	7c38400b 	j	0x1d00e1f0
1d00dd9c:	b00162ac 	sw	v0,432(v1)
1d00dda0:	0800842c 	sltiu	a0,a0,8
1d00dda4:	14018014 	bnez	a0,0x1d00e1f8
1d00dda8:	9c320226 	addiu	v0,s0,12956
1d00ddac:	1800a38f 	lw	v1,24(sp)
1d00ddb0:	b40143ac 	sw	v1,436(v0)
1d00ddb4:	1c00a38f 	lw	v1,28(sp)
1d00ddb8:	b80143ac 	sw	v1,440(v0)
1d00ddbc:	c4090324 	li	v1,2500
1d00ddc0:	bc0143ac 	sw	v1,444(v0)
1d00ddc4:	c001428c 	lw	v0,448(v0)
1d00ddc8:	ffff0324 	li	v1,-1
1d00ddcc:	08014310 	beq	v0,v1,0x1d00e1f0
1d00ddd0:	9c320326 	addiu	v1,s0,12956
1d00ddd4:	01004224 	addiu	v0,v0,1
1d00ddd8:	7c38400b 	j	0x1d00e1f0
1d00dddc:	c00162ac 	sw	v0,448(v1)
1d00dde0:	0800842c 	sltiu	a0,a0,8
1d00dde4:	04018014 	bnez	a0,0x1d00e1f8
1d00dde8:	9c320226 	addiu	v0,s0,12956
1d00ddec:	1800a38f 	lw	v1,24(sp)
1d00ddf0:	c40143ac 	sw	v1,452(v0)
1d00ddf4:	1c00a38f 	lw	v1,28(sp)
1d00ddf8:	c80143ac 	sw	v1,456(v0)
1d00ddfc:	c8000324 	li	v1,200
1d00de00:	cc0143ac 	sw	v1,460(v0)
1d00de04:	d001428c 	lw	v0,464(v0)
1d00de08:	ffff0324 	li	v1,-1
1d00de0c:	03004310 	beq	v0,v1,0x1d00de1c
1d00de10:	9c320326 	addiu	v1,s0,12956
1d00de14:	01004224 	addiu	v0,v0,1
1d00de18:	d00162ac 	sw	v0,464(v1)
1d00de1c:	2800a28f 	lw	v0,40(sp)
1d00de20:	401a427c 	ext	v0,v0,0x9,0x4
1d00de24:	ff004330 	andi	v1,v0,0xff
1d00de28:	0600632c 	sltiu	v1,v1,6
1d00de2c:	20006010 	beqz	v1,0x1d00deb0
1d00de30:	ff004230 	andi	v0,v0,0xff
1d00de34:	80100200 	sll	v0,v0,0x2
1d00de38:	21108202 	addu	v0,s4,v0
1d00de3c:	0000428c 	lw	v0,0(v0)
1d00de40:	08004000 	jr	v0
1d00de44:	00000000 	nop
1d00de48:	60de009d 	0x9d00de60
1d00de4c:	70de009d 	0x9d00de70
1d00de50:	80de009d 	0x9d00de80
1d00de54:	90de009d 	0x9d00de90
1d00de58:	b0de009d 	0x9d00deb0
1d00de5c:	a0de009d 	0x9d00dea0
1d00de60:	01000324 	li	v1,1
1d00de64:	00a0023c 	lui	v0,0xa000
1d00de68:	7c38400b 	j	0x1d00e1f0
1d00de6c:	600143ac 	sw	v1,352(v0)
1d00de70:	02000324 	li	v1,2
1d00de74:	00a0023c 	lui	v0,0xa000
1d00de78:	7c38400b 	j	0x1d00e1f0
1d00de7c:	600143ac 	sw	v1,352(v0)
1d00de80:	03000324 	li	v1,3
1d00de84:	00a0023c 	lui	v0,0xa000
1d00de88:	7c38400b 	j	0x1d00e1f0
1d00de8c:	600143ac 	sw	v1,352(v0)
1d00de90:	04000324 	li	v1,4
1d00de94:	00a0023c 	lui	v0,0xa000
1d00de98:	7c38400b 	j	0x1d00e1f0
1d00de9c:	600143ac 	sw	v1,352(v0)
1d00dea0:	05000324 	li	v1,5
1d00dea4:	00a0023c 	lui	v0,0xa000
1d00dea8:	7c38400b 	j	0x1d00e1f0
1d00deac:	600143ac 	sw	v1,352(v0)
1d00deb0:	00a0023c 	lui	v0,0xa000
1d00deb4:	7c38400b 	j	0x1d00e1f0
1d00deb8:	600140ac 	sw	zero,352(v0)
1d00debc:	0800842c 	sltiu	a0,a0,8
1d00dec0:	cd008014 	bnez	a0,0x1d00e1f8
1d00dec4:	9c320226 	addiu	v0,s0,12956
1d00dec8:	1800a38f 	lw	v1,24(sp)
1d00decc:	d40143ac 	sw	v1,468(v0)
1d00ded0:	1c00a38f 	lw	v1,28(sp)
1d00ded4:	d80143ac 	sw	v1,472(v0)
1d00ded8:	c8000324 	li	v1,200
1d00dedc:	dc0143ac 	sw	v1,476(v0)
1d00dee0:	e001428c 	lw	v0,480(v0)
1d00dee4:	ffff0324 	li	v1,-1
1d00dee8:	c1004310 	beq	v0,v1,0x1d00e1f0
1d00deec:	9c320326 	addiu	v1,s0,12956
1d00def0:	01004224 	addiu	v0,v0,1
1d00def4:	7c38400b 	j	0x1d00e1f0
1d00def8:	e00162ac 	sw	v0,480(v1)
1d00defc:	0800842c 	sltiu	a0,a0,8
1d00df00:	bd008014 	bnez	a0,0x1d00e1f8
1d00df04:	9c320226 	addiu	v0,s0,12956
1d00df08:	1800a38f 	lw	v1,24(sp)
1d00df0c:	e40143ac 	sw	v1,484(v0)
1d00df10:	1c00a38f 	lw	v1,28(sp)
1d00df14:	e80143ac 	sw	v1,488(v0)
1d00df18:	fa000324 	li	v1,250
1d00df1c:	ec0143ac 	sw	v1,492(v0)
1d00df20:	f001428c 	lw	v0,496(v0)
1d00df24:	ffff0324 	li	v1,-1
1d00df28:	03004310 	beq	v0,v1,0x1d00df38
1d00df2c:	9c320326 	addiu	v1,s0,12956
1d00df30:	01004224 	addiu	v0,v0,1
1d00df34:	f00162ac 	sw	v0,496(v1)
1d00df38:	2a00a393 	lbu	v1,42(sp)
1d00df3c:	01a0023c 	lui	v0,0xa001
1d00df40:	bc364224 	addiu	v0,v0,14012
1d00df44:	08004590 	lbu	a1,8(v0)
1d00df48:	23286500 	subu	a1,v1,a1
1d00df4c:	ff00a530 	andi	a1,a1,0xff
1d00df50:	0400448c 	lw	a0,4(v0)
1d00df54:	2120a400 	addu	a0,a1,a0
1d00df58:	040044ac 	sw	a0,4(v0)
1d00df5c:	080043a0 	sb	v1,8(v0)
1d00df60:	9c320226 	addiu	v0,s0,12956
1d00df64:	f001428c 	lw	v0,496(v0)
1d00df68:	0300422c 	sltiu	v0,v0,3
1d00df6c:	4a004014 	bnez	v0,0x1d00e098
1d00df70:	01a0023c 	lui	v0,0xa001
1d00df74:	50304224 	addiu	v0,v0,12368
1d00df78:	2900a693 	lbu	a2,41(sp)
1d00df7c:	11004490 	lbu	a0,17(v0)
1d00df80:	2330c400 	subu	a2,a2,a0
1d00df84:	ff00c630 	andi	a2,a2,0xff
1d00df88:	2800a593 	lbu	a1,40(sp)
1d00df8c:	10004490 	lbu	a0,16(v0)
1d00df90:	2320a400 	subu	a0,a1,a0
1d00df94:	ff008430 	andi	a0,a0,0xff
1d00df98:	2b00a793 	lbu	a3,43(sp)
1d00df9c:	13004590 	lbu	a1,19(v0)
1d00dfa0:	2328e500 	subu	a1,a3,a1
1d00dfa4:	ff00a530 	andi	a1,a1,0xff
1d00dfa8:	12004290 	lbu	v0,18(v0)
1d00dfac:	23186200 	subu	v1,v1,v0
1d00dfb0:	2c00a793 	lbu	a3,44(sp)
1d00dfb4:	c000e730 	andi	a3,a3,0xc0
1d00dfb8:	40000224 	li	v0,64
1d00dfbc:	0a00e214 	bne	a3,v0,0x1d00dfe8
1d00dfc0:	ff006330 	andi	v1,v1,0xff
1d00dfc4:	01a0023c 	lui	v0,0xa001
1d00dfc8:	5030478c 	lw	a3,12368(v0)
1d00dfcc:	2330e600 	subu	a2,a3,a2
1d00dfd0:	503046ac 	sw	a2,12368(v0)
1d00dfd4:	50304224 	addiu	v0,v0,12368
1d00dfd8:	0800468c 	lw	a2,8(v0)
1d00dfdc:	2328c500 	subu	a1,a2,a1
1d00dfe0:	0238400b 	j	0x1d00e008
1d00dfe4:	080045ac 	sw	a1,8(v0)
1d00dfe8:	01a0023c 	lui	v0,0xa001
1d00dfec:	5030478c 	lw	a3,12368(v0)
1d00dff0:	2130e600 	addu	a2,a3,a2
1d00dff4:	503046ac 	sw	a2,12368(v0)
1d00dff8:	50304224 	addiu	v0,v0,12368
1d00dffc:	0800468c 	lw	a2,8(v0)
1d00e000:	2128c500 	addu	a1,a2,a1
1d00e004:	080045ac 	sw	a1,8(v0)
1d00e008:	2c00a593 	lbu	a1,44(sp)
1d00e00c:	0300a530 	andi	a1,a1,0x3
1d00e010:	01000224 	li	v0,1
1d00e014:	0900a214 	bne	a1,v0,0x1d00e03c
1d00e018:	01a0023c 	lui	v0,0xa001
1d00e01c:	50304224 	addiu	v0,v0,12368
1d00e020:	0400458c 	lw	a1,4(v0)
1d00e024:	2320a400 	subu	a0,a1,a0
1d00e028:	040044ac 	sw	a0,4(v0)
1d00e02c:	0c00448c 	lw	a0,12(v0)
1d00e030:	23188300 	subu	v1,a0,v1
1d00e034:	1638400b 	j	0x1d00e058
1d00e038:	0c0043ac 	sw	v1,12(v0)
1d00e03c:	50304224 	addiu	v0,v0,12368
1d00e040:	0400458c 	lw	a1,4(v0)
1d00e044:	2120a400 	addu	a0,a1,a0
1d00e048:	040044ac 	sw	a0,4(v0)
1d00e04c:	0c00448c 	lw	a0,12(v0)
1d00e050:	21188300 	addu	v1,a0,v1
1d00e054:	0c0043ac 	sw	v1,12(v0)
1d00e058:	08000224 	li	v0,8
1d00e05c:	3400a2af 	sw	v0,52(sp)
1d00e060:	70000224 	li	v0,112
1d00e064:	3000a2af 	sw	v0,48(sp)
1d00e068:	01a0023c 	lui	v0,0xa001
1d00e06c:	5030438c 	lw	v1,12368(v0)
1d00e070:	3800a3a7 	sh	v1,56(sp)
1d00e074:	50304224 	addiu	v0,v0,12368
1d00e078:	0400438c 	lw	v1,4(v0)
1d00e07c:	3a00a3a7 	sh	v1,58(sp)
1d00e080:	0800438c 	lw	v1,8(v0)
1d00e084:	3c00a3a7 	sh	v1,60(sp)
1d00e088:	0c00428c 	lw	v0,12(v0)
1d00e08c:	3e00a2a7 	sh	v0,62(sp)
1d00e090:	aa5d400f 	jal	0x1d0176a8
1d00e094:	3000a427 	addiu	a0,sp,48
1d00e098:	01a0023c 	lui	v0,0xa001
1d00e09c:	50304224 	addiu	v0,v0,12368
1d00e0a0:	2800a38f 	lw	v1,40(sp)
1d00e0a4:	100043ac 	sw	v1,16(v0)
1d00e0a8:	2c00a38f 	lw	v1,44(sp)
1d00e0ac:	7c38400b 	j	0x1d00e1f0
1d00e0b0:	140043ac 	sw	v1,20(v0)
1d00e0b4:	50008014 	bnez	a0,0x1d00e1f8
1d00e0b8:	9c320226 	addiu	v0,s0,12956
1d00e0bc:	1800a38f 	lw	v1,24(sp)
1d00e0c0:	f40143ac 	sw	v1,500(v0)
1d00e0c4:	1c00a38f 	lw	v1,28(sp)
1d00e0c8:	f80143ac 	sw	v1,504(v0)
1d00e0cc:	c8000324 	li	v1,200
1d00e0d0:	fc0143ac 	sw	v1,508(v0)
1d00e0d4:	0002428c 	lw	v0,512(v0)
1d00e0d8:	ffff0324 	li	v1,-1
1d00e0dc:	03004310 	beq	v0,v1,0x1d00e0ec
1d00e0e0:	9c320326 	addiu	v1,s0,12956
1d00e0e4:	01004224 	addiu	v0,v0,1
1d00e0e8:	000262ac 	sw	v0,512(v1)
1d00e0ec:	9c320226 	addiu	v0,s0,12956
1d00e0f0:	0002428c 	lw	v0,512(v0)
1d00e0f4:	0300422c 	sltiu	v0,v0,3
1d00e0f8:	3d004014 	bnez	v0,0x1d00e1f0
1d00e0fc:	08000224 	li	v0,8
1d00e100:	3400a2af 	sw	v0,52(sp)
1d00e104:	6a000224 	li	v0,106
1d00e108:	3000a2af 	sw	v0,48(sp)
1d00e10c:	7b20400f 	jal	0x1d0081ec
1d00e110:	3800a427 	addiu	a0,sp,56
1d00e114:	aa5d400f 	jal	0x1d0176a8
1d00e118:	3000a427 	addiu	a0,sp,48
1d00e11c:	d120400f 	jal	0x1d008344
1d00e120:	3000a427 	addiu	a0,sp,48
1d00e124:	7c38400b 	j	0x1d00e1f0
1d00e128:	00000000 	nop
1d00e12c:	0800842c 	sltiu	a0,a0,8
1d00e130:	31008014 	bnez	a0,0x1d00e1f8
1d00e134:	9c320226 	addiu	v0,s0,12956
1d00e138:	1800a38f 	lw	v1,24(sp)
1d00e13c:	040243ac 	sw	v1,516(v0)
1d00e140:	1c00a38f 	lw	v1,28(sp)
1d00e144:	080243ac 	sw	v1,520(v0)
1d00e148:	c8000324 	li	v1,200
1d00e14c:	0c0243ac 	sw	v1,524(v0)
1d00e150:	1002428c 	lw	v0,528(v0)
1d00e154:	ffff0324 	li	v1,-1
1d00e158:	03004310 	beq	v0,v1,0x1d00e168
1d00e15c:	9c320326 	addiu	v1,s0,12956
1d00e160:	01004224 	addiu	v0,v0,1
1d00e164:	100262ac 	sw	v0,528(v1)
1d00e168:	9c320226 	addiu	v0,s0,12956
1d00e16c:	1002428c 	lw	v0,528(v0)
1d00e170:	0300422c 	sltiu	v0,v0,3
1d00e174:	1e004014 	bnez	v0,0x1d00e1f0
1d00e178:	04000224 	li	v0,4
1d00e17c:	3400a2af 	sw	v0,52(sp)
1d00e180:	6c000224 	li	v0,108
1d00e184:	3000a2af 	sw	v0,48(sp)
1d00e188:	3800a0af 	sw	zero,56(sp)
1d00e18c:	9c320226 	addiu	v0,s0,12956
1d00e190:	0802438c 	lw	v1,520(v0)
1d00e194:	c000023c 	lui	v0,0xc0
1d00e198:	24206200 	and	a0,v1,v0
1d00e19c:	09008214 	bne	a0,v0,0x1d00e1c4
1d00e1a0:	3000023c 	lui	v0,0x30
1d00e1a4:	9c320226 	addiu	v0,s0,12956
1d00e1a8:	05024490 	lbu	a0,517(v0)
1d00e1ac:	0c818424 	addiu	a0,a0,-32500
1d00e1b0:	04024290 	lbu	v0,516(v0)
1d00e1b4:	00120200 	sll	v0,v0,0x8
1d00e1b8:	21108200 	addu	v0,a0,v0
1d00e1bc:	3800a2a7 	sh	v0,56(sp)
1d00e1c0:	3000023c 	lui	v0,0x30
1d00e1c4:	24186200 	and	v1,v1,v0
1d00e1c8:	07006214 	bne	v1,v0,0x1d00e1e8
1d00e1cc:	9c320226 	addiu	v0,s0,12956
1d00e1d0:	07024390 	lbu	v1,519(v0)
1d00e1d4:	0c816324 	addiu	v1,v1,-32500
1d00e1d8:	06024290 	lbu	v0,518(v0)
1d00e1dc:	00120200 	sll	v0,v0,0x8
1d00e1e0:	21106200 	addu	v0,v1,v0
1d00e1e4:	3a00a2a7 	sh	v0,58(sp)
1d00e1e8:	aa5d400f 	jal	0x1d0176a8
1d00e1ec:	3000a427 	addiu	a0,sp,48
1d00e1f0:	355f400f 	jal	0x1d017cd4
1d00e1f4:	2000a427 	addiu	a0,sp,32
1d00e1f8:	785f400f 	jal	0x1d017de0
1d00e1fc:	1000a427 	addiu	a0,sp,16
1d00e200:	30fa4014 	bnez	v0,0x1d00cac4
1d00e204:	1000a28f 	lw	v0,16(sp)
1d00e208:	01a0123c 	lui	s2,0xa001
1d00e20c:	382f5226 	addiu	s2,s2,12088
1d00e210:	01a0103c 	lui	s0,0xa001
1d00e214:	6a39400b 	j	0x1d00e5a8
1d00e218:	00a0133c 	lui	s3,0xa000
1d00e21c:	2000a2af 	sw	v0,32(sp)
1d00e220:	1400a28f 	lw	v0,20(sp)
1d00e224:	2400a2af 	sw	v0,36(sp)
1d00e228:	1800a28f 	lw	v0,24(sp)
1d00e22c:	2800a2af 	sw	v0,40(sp)
1d00e230:	1c00a28f 	lw	v0,28(sp)
1d00e234:	2c00a2af 	sw	v0,44(sp)
1d00e238:	21204002 	move	a0,s2
1d00e23c:	a56f400f 	jal	0x1d01be94
1d00e240:	1000a527 	addiu	a1,sp,16
1d00e244:	9c320226 	addiu	v0,s0,12956
1d00e248:	1402428c 	lw	v0,532(v0)
1d00e24c:	03005110 	beq	v0,s1,0x1d00e25c
1d00e250:	9c320326 	addiu	v1,s0,12956
1d00e254:	01004224 	addiu	v0,v0,1
1d00e258:	140262ac 	sw	v0,532(v1)
1d00e25c:	cf54400f 	jal	0x1d01533c
1d00e260:	00000000 	nop
1d00e264:	ce004010 	beqz	v0,0x1d00e5a0
1d00e268:	1400a28f 	lw	v0,20(sp)
1d00e26c:	0007437c 	ext	v1,v0,0x1c,0x1
1d00e270:	08006010 	beqz	v1,0x1d00e294
1d00e274:	0f004430 	andi	a0,v0,0xf
1d00e278:	1000a58f 	lw	a1,16(sp)
1d00e27c:	ff07a530 	andi	a1,a1,0x7ff
1d00e280:	802c0500 	sll	a1,a1,0x12
1d00e284:	1400a28f 	lw	v0,20(sp)
1d00e288:	808a427c 	ext	v0,v0,0xa,0x12
1d00e28c:	a738400b 	j	0x1d00e29c
1d00e290:	2510a200 	or	v0,a1,v0
1d00e294:	1000a28f 	lw	v0,16(sp)
1d00e298:	ff074230 	andi	v0,v0,0x7ff
1d00e29c:	c0006014 	bnez	v1,0x1d00e5a0
1d00e2a0:	85000324 	li	v1,133
1d00e2a4:	8f004310 	beq	v0,v1,0x1d00e4e4
1d00e2a8:	cc030324 	li	v1,972
1d00e2ac:	7d004310 	beq	v0,v1,0x1d00e4a4
1d00e2b0:	82000324 	li	v1,130
1d00e2b4:	ba004314 	bne	v0,v1,0x1d00e5a0
1d00e2b8:	0800842c 	sltiu	a0,a0,8
1d00e2bc:	bb008014 	bnez	a0,0x1d00e5ac
1d00e2c0:	9c320226 	addiu	v0,s0,12956
1d00e2c4:	1800a38f 	lw	v1,24(sp)
1d00e2c8:	180243ac 	sw	v1,536(v0)
1d00e2cc:	1c00a38f 	lw	v1,28(sp)
1d00e2d0:	1c0243ac 	sw	v1,540(v0)
1d00e2d4:	c8000324 	li	v1,200
1d00e2d8:	200243ac 	sw	v1,544(v0)
1d00e2dc:	2402428c 	lw	v0,548(v0)
1d00e2e0:	ffff0324 	li	v1,-1
1d00e2e4:	03004310 	beq	v0,v1,0x1d00e2f4
1d00e2e8:	9c320326 	addiu	v1,s0,12956
1d00e2ec:	01004224 	addiu	v0,v0,1
1d00e2f0:	240262ac 	sw	v0,548(v1)
1d00e2f4:	80016226 	addiu	v0,s3,384
1d00e2f8:	2800a493 	lbu	a0,40(sp)
1d00e2fc:	80ff8424 	addiu	a0,a0,-128
1d00e300:	2026047c 	seh	a0,a0
1d00e304:	7e004384 	lh	v1,126(v0)
1d00e308:	23188300 	subu	v1,a0,v1
1d00e30c:	80200300 	sll	a0,v1,0x2
1d00e310:	00290300 	sll	a1,v1,0x4
1d00e314:	2320a400 	subu	a0,a1,a0
1d00e318:	40290400 	sll	a1,a0,0x5
1d00e31c:	21208500 	addu	a0,a0,a1
1d00e320:	23208300 	subu	a0,a0,v1
1d00e324:	c0200400 	sll	a0,a0,0x3
1d00e328:	21188300 	addu	v1,a0,v1
1d00e32c:	80180300 	sll	v1,v1,0x2
1d00e330:	7c00448c 	lw	a0,124(v0)
1d00e334:	21188300 	addu	v1,a0,v1
1d00e338:	7c0043ac 	sw	v1,124(v0)
1d00e33c:	7400438c 	lw	v1,116(v0)
1d00e340:	02000224 	li	v0,2
1d00e344:	51006214 	bne	v1,v0,0x1d00e48c
1d00e348:	80016326 	addiu	v1,s3,384
1d00e34c:	765b400f 	jal	0x1d016dd8
1d00e350:	00000000 	nop
1d00e354:	80016326 	addiu	v1,s3,384
1d00e358:	7e006484 	lh	a0,126(v1)
1d00e35c:	c31f0400 	sra	v1,a0,0x1f
1d00e360:	26206400 	xor	a0,v1,a0
1d00e364:	23188300 	subu	v1,a0,v1
1d00e368:	2a184300 	slt	v1,v0,v1
1d00e36c:	4f036050 	beqzl	v1,0x1d00f0ac
1d00e370:	2a00a293 	lbu	v0,42(sp)
1d00e374:	3800422c 	sltiu	v0,v0,56
1d00e378:	4c034010 	beqz	v0,0x1d00f0ac
1d00e37c:	2a00a293 	lbu	v0,42(sp)
1d00e380:	9c320226 	addiu	v0,s0,12956
1d00e384:	9402428c 	lw	v0,660(v0)
1d00e388:	09004010 	beqz	v0,0x1d00e3b0
1d00e38c:	9c320226 	addiu	v0,s0,12956
1d00e390:	8c02428c 	lw	v0,652(v0)
1d00e394:	8004427c 	ext	v0,v0,0x12,0x1
1d00e398:	06004010 	beqz	v0,0x1d00e3b4
1d00e39c:	9c320226 	addiu	v0,s0,12956
1d00e3a0:	715b400f 	jal	0x1d016dc4
1d00e3a4:	00000000 	nop
1d00e3a8:	38004014 	bnez	v0,0x1d00e48c
1d00e3ac:	80016326 	addiu	v1,s3,384
1d00e3b0:	9c320226 	addiu	v0,s0,12956
1d00e3b4:	2402428c 	lw	v0,548(v0)
1d00e3b8:	0400422c 	sltiu	v0,v0,4
1d00e3bc:	28004014 	bnez	v0,0x1d00e460
1d00e3c0:	80016226 	addiu	v0,s3,384
1d00e3c4:	9c320226 	addiu	v0,s0,12956
1d00e3c8:	4402428c 	lw	v0,580(v0)
1d00e3cc:	0400422c 	sltiu	v0,v0,4
1d00e3d0:	3c034050 	beqzl	v0,0x1d00f0c4
1d00e3d4:	9c320226 	addiu	v0,s0,12956
1d00e3d8:	1839400b 	j	0x1d00e460
1d00e3dc:	80016226 	addiu	v0,s3,384
1d00e3e0:	0001428c 	lw	v0,256(v0)
1d00e3e4:	0400422c 	sltiu	v0,v0,4
1d00e3e8:	3c034050 	beqzl	v0,0x1d00f0dc
1d00e3ec:	9c320226 	addiu	v0,s0,12956
1d00e3f0:	1839400b 	j	0x1d00e460
1d00e3f4:	80016226 	addiu	v0,s3,384
1d00e3f8:	8c02438c 	lw	v1,652(v0)
1d00e3fc:	8100023c 	lui	v0,0x81
1d00e400:	24186200 	and	v1,v1,v0
1d00e404:	0100023c 	lui	v0,0x1
1d00e408:	15006214 	bne	v1,v0,0x1d00e460
1d00e40c:	80016226 	addiu	v0,s3,384
1d00e410:	0a004290 	lbu	v0,10(v0)
1d00e414:	11004014 	bnez	v0,0x1d00e45c
1d00e418:	80016226 	addiu	v0,s3,384
1d00e41c:	0b004290 	lbu	v0,11(v0)
1d00e420:	0f004014 	bnez	v0,0x1d00e460
1d00e424:	80016226 	addiu	v0,s3,384
1d00e428:	8f6c400f 	jal	0x1d01b23c
1d00e42c:	00000000 	nop
1d00e430:	05004010 	beqz	v0,0x1d00e448
1d00e434:	00000000 	nop
1d00e438:	9a6c400f 	jal	0x1d01b268
1d00e43c:	00000000 	nop
1d00e440:	07004010 	beqz	v0,0x1d00e460
1d00e444:	80016226 	addiu	v0,s3,384
1d00e448:	c073400f 	jal	0x1d01cf00
1d00e44c:	00000000 	nop
1d00e450:	02004014 	bnez	v0,0x1d00e45c
1d00e454:	e8030224 	li	v0,1000
1d00e458:	d08082af 	sw	v0,-32560(gp)
1d00e45c:	80016226 	addiu	v0,s3,384
1d00e460:	01000324 	li	v1,1
1d00e464:	2239400b 	j	0x1d00e488
1d00e468:	0a0043a0 	sb	v1,10(v0)
1d00e46c:	06004310 	beq	v0,v1,0x1d00e488
1d00e470:	9c320226 	addiu	v0,s0,12956
1d00e474:	8c02428c 	lw	v0,652(v0)
1d00e478:	0004427c 	ext	v0,v0,0x10,0x1
1d00e47c:	02004010 	beqz	v0,0x1d00e488
1d00e480:	e8030224 	li	v0,1000
1d00e484:	d08082af 	sw	v0,-32560(gp)
1d00e488:	80016326 	addiu	v1,s3,384
1d00e48c:	2800a28f 	lw	v0,40(sp)
1d00e490:	800d447c 	ext	a0,v0,0x16,0x2
1d00e494:	740064ac 	sw	a0,116(v1)
1d00e498:	84bd027c 	ins	v0,zero,0x16,0x2
1d00e49c:	6839400b 	j	0x1d00e5a0
1d00e4a0:	2800a2af 	sw	v0,40(sp)
1d00e4a4:	0800842c 	sltiu	a0,a0,8
1d00e4a8:	40008014 	bnez	a0,0x1d00e5ac
1d00e4ac:	9c320226 	addiu	v0,s0,12956
1d00e4b0:	1800a38f 	lw	v1,24(sp)
1d00e4b4:	280243ac 	sw	v1,552(v0)
1d00e4b8:	1c00a38f 	lw	v1,28(sp)
1d00e4bc:	2c0243ac 	sw	v1,556(v0)
1d00e4c0:	c8000324 	li	v1,200
1d00e4c4:	300243ac 	sw	v1,560(v0)
1d00e4c8:	3402428c 	lw	v0,564(v0)
1d00e4cc:	ffff0324 	li	v1,-1
1d00e4d0:	33004310 	beq	v0,v1,0x1d00e5a0
1d00e4d4:	9c320326 	addiu	v1,s0,12956
1d00e4d8:	01004224 	addiu	v0,v0,1
1d00e4dc:	6839400b 	j	0x1d00e5a0
1d00e4e0:	340262ac 	sw	v0,564(v1)
1d00e4e4:	0800842c 	sltiu	a0,a0,8
1d00e4e8:	30008014 	bnez	a0,0x1d00e5ac
1d00e4ec:	9c320226 	addiu	v0,s0,12956
1d00e4f0:	1800a38f 	lw	v1,24(sp)
1d00e4f4:	380243ac 	sw	v1,568(v0)
1d00e4f8:	1c00a38f 	lw	v1,28(sp)
1d00e4fc:	3c0243ac 	sw	v1,572(v0)
1d00e500:	c8000324 	li	v1,200
1d00e504:	400243ac 	sw	v1,576(v0)
1d00e508:	4402428c 	lw	v0,580(v0)
1d00e50c:	ffff0324 	li	v1,-1
1d00e510:	03004310 	beq	v0,v1,0x1d00e520
1d00e514:	9c320326 	addiu	v1,s0,12956
1d00e518:	01004224 	addiu	v0,v0,1
1d00e51c:	440262ac 	sw	v0,580(v1)
1d00e520:	2800a393 	lbu	v1,40(sp)
1d00e524:	001a0300 	sll	v1,v1,0x8
1d00e528:	2900a293 	lbu	v0,41(sp)
1d00e52c:	21106200 	addu	v0,v1,v0
1d00e530:	ffff4230 	andi	v0,v0,0xffff
1d00e534:	2e00a693 	lbu	a2,46(sp)
1d00e538:	ffff4424 	addiu	a0,v0,-1
1d00e53c:	ffff8430 	andi	a0,a0,0xffff
1d00e540:	fdff0334 	li	v1,0xfffd
1d00e544:	2b188300 	sltu	v1,a0,v1
1d00e548:	0f006010 	beqz	v1,0x1d00e588
1d00e54c:	2f00a593 	lbu	a1,47(sp)
1d00e550:	00320600 	sll	a2,a2,0x8
1d00e554:	2128a600 	addu	a1,a1,a2
1d00e558:	ffffa530 	andi	a1,a1,0xffff
1d00e55c:	ffffa424 	addiu	a0,a1,-1
1d00e560:	ffff8430 	andi	a0,a0,0xffff
1d00e564:	fdff0334 	li	v1,0xfffd
1d00e568:	2b188300 	sltu	v1,a0,v1
1d00e56c:	07006050 	beqzl	v1,0x1d00e58c
1d00e570:	80016226 	addiu	v0,s3,384
1d00e574:	80016326 	addiu	v1,s3,384
1d00e578:	23104500 	subu	v0,v0,a1
1d00e57c:	700062ac 	sw	v0,112(v1)
1d00e580:	6639400b 	j	0x1d00e598
1d00e584:	0b0060a0 	sb	zero,11(v1)
1d00e588:	80016226 	addiu	v0,s3,384
1d00e58c:	700040ac 	sw	zero,112(v0)
1d00e590:	01000324 	li	v1,1
1d00e594:	0b0043a0 	sb	v1,11(v0)
1d00e598:	3328400f 	jal	0x1d00a0cc
1d00e59c:	00000000 	nop
1d00e5a0:	f25e400f 	jal	0x1d017bc8
1d00e5a4:	2000a427 	addiu	a0,sp,32
1d00e5a8:	ffff1124 	li	s1,-1
1d00e5ac:	c85f400f 	jal	0x1d017f20
1d00e5b0:	1000a427 	addiu	a0,sp,16
1d00e5b4:	19ff4014 	bnez	v0,0x1d00e21c
1d00e5b8:	1000a28f 	lw	v0,16(sp)
1d00e5bc:	7339400b 	j	0x1d00e5cc
1d00e5c0:	00000000 	nop
1d00e5c4:	3e24400f 	jal	0x1d0090f8
1d00e5c8:	21280000 	move	a1,zero
1d00e5cc:	1960400f 	jal	0x1d018064
1d00e5d0:	1000a427 	addiu	a0,sp,16
1d00e5d4:	fbff4014 	bnez	v0,0x1d00e5c4
1d00e5d8:	1000a427 	addiu	a0,sp,16
1d00e5dc:	01a0113c 	lui	s1,0xa001
1d00e5e0:	cc303126 	addiu	s1,s1,12492
1d00e5e4:	01a0103c 	lui	s0,0xa001
1d00e5e8:	0d3c400b 	j	0x1d00f034
1d00e5ec:	01a0123c 	lui	s2,0xa001
1d00e5f0:	a56f400f 	jal	0x1d01be94
1d00e5f4:	1000a527 	addiu	a1,sp,16
1d00e5f8:	9c320226 	addiu	v0,s0,12956
1d00e5fc:	1c03428c 	lw	v0,796(v0)
1d00e600:	ffff0324 	li	v1,-1
1d00e604:	03004310 	beq	v0,v1,0x1d00e614
1d00e608:	9c320326 	addiu	v1,s0,12956
1d00e60c:	01004224 	addiu	v0,v0,1
1d00e610:	1c0362ac 	sw	v0,796(v1)
1d00e614:	cf54400f 	jal	0x1d01533c
1d00e618:	00000000 	nop
1d00e61c:	85024010 	beqz	v0,0x1d00f034
1d00e620:	1400a28f 	lw	v0,20(sp)
1d00e624:	0007437c 	ext	v1,v0,0x1c,0x1
1d00e628:	08006010 	beqz	v1,0x1d00e64c
1d00e62c:	0f004430 	andi	a0,v0,0xf
1d00e630:	1000a58f 	lw	a1,16(sp)
1d00e634:	ff07a530 	andi	a1,a1,0x7ff
1d00e638:	802c0500 	sll	a1,a1,0x12
1d00e63c:	1400a28f 	lw	v0,20(sp)
1d00e640:	808a427c 	ext	v0,v0,0xa,0x12
1d00e644:	9539400b 	j	0x1d00e654
1d00e648:	2510a200 	or	v0,a1,v0
1d00e64c:	1000a28f 	lw	v0,16(sp)
1d00e650:	ff074230 	andi	v0,v0,0x7ff
1d00e654:	77026014 	bnez	v1,0x1d00f034
1d00e658:	b3030324 	li	v1,947
1d00e65c:	28004310 	beq	v0,v1,0x1d00e700
1d00e660:	b403432c 	sltiu	v1,v0,948
1d00e664:	13006010 	beqz	v1,0x1d00e6b4
1d00e668:	35040324 	li	v1,1077
1d00e66c:	5c020324 	li	v1,604
1d00e670:	fc014310 	beq	v0,v1,0x1d00ee64
1d00e674:	5d02432c 	sltiu	v1,v0,605
1d00e678:	08006010 	beqz	v1,0x1d00e69c
1d00e67c:	aa030324 	li	v1,938
1d00e680:	67010324 	li	v1,359
1d00e684:	5c024310 	beq	v0,v1,0x1d00eff8
1d00e688:	04020324 	li	v1,516
1d00e68c:	9e004310 	beq	v0,v1,0x1d00e908
1d00e690:	0800842c 	sltiu	a0,a0,8
1d00e694:	0d3c400b 	j	0x1d00f034
1d00e698:	00000000 	nop
1d00e69c:	01024310 	beq	v0,v1,0x1d00eea4
1d00e6a0:	ab030324 	li	v1,939
1d00e6a4:	13024310 	beq	v0,v1,0x1d00eef4
1d00e6a8:	0800842c 	sltiu	a0,a0,8
1d00e6ac:	0d3c400b 	j	0x1d00f034
1d00e6b0:	00000000 	nop
1d00e6b4:	4e004310 	beq	v0,v1,0x1d00e7f0
1d00e6b8:	3604432c 	sltiu	v1,v0,1078
1d00e6bc:	08006010 	beqz	v1,0x1d00e6e0
1d00e6c0:	66040324 	li	v1,1126
1d00e6c4:	b5030324 	li	v1,949
1d00e6c8:	1c024310 	beq	v0,v1,0x1d00ef3c
1d00e6cc:	34040324 	li	v1,1076
1d00e6d0:	1b004310 	beq	v0,v1,0x1d00e740
1d00e6d4:	0800842c 	sltiu	a0,a0,8
1d00e6d8:	0d3c400b 	j	0x1d00f034
1d00e6dc:	00000000 	nop
1d00e6e0:	69014310 	beq	v0,v1,0x1d00ec88
1d00e6e4:	67040324 	li	v1,1127
1d00e6e8:	9f014310 	beq	v0,v1,0x1d00ed68
1d00e6ec:	65040324 	li	v1,1125
1d00e6f0:	50024314 	bne	v0,v1,0x1d00f034
1d00e6f4:	0800842c 	sltiu	a0,a0,8
1d00e6f8:	7b3a400b 	j	0x1d00e9ec
1d00e6fc:	00000000 	nop
1d00e700:	0800842c 	sltiu	a0,a0,8
1d00e704:	4b028014 	bnez	a0,0x1d00f034
1d00e708:	9c320226 	addiu	v0,s0,12956
1d00e70c:	1800a38f 	lw	v1,24(sp)
1d00e710:	200343ac 	sw	v1,800(v0)
1d00e714:	1c00a38f 	lw	v1,28(sp)
1d00e718:	240343ac 	sw	v1,804(v0)
1d00e71c:	e2040324 	li	v1,1250
1d00e720:	280343ac 	sw	v1,808(v0)
1d00e724:	2c03428c 	lw	v0,812(v0)
1d00e728:	ffff0324 	li	v1,-1
1d00e72c:	41024310 	beq	v0,v1,0x1d00f034
1d00e730:	9c320326 	addiu	v1,s0,12956
1d00e734:	01004224 	addiu	v0,v0,1
1d00e738:	0d3c400b 	j	0x1d00f034
1d00e73c:	2c0362ac 	sw	v0,812(v1)
1d00e740:	3c028014 	bnez	a0,0x1d00f034
1d00e744:	9c320226 	addiu	v0,s0,12956
1d00e748:	1800a38f 	lw	v1,24(sp)
1d00e74c:	300343ac 	sw	v1,816(v0)
1d00e750:	1c00a38f 	lw	v1,28(sp)
1d00e754:	340343ac 	sw	v1,820(v0)
1d00e758:	fa000324 	li	v1,250
1d00e75c:	380343ac 	sw	v1,824(v0)
1d00e760:	3c03428c 	lw	v0,828(v0)
1d00e764:	ffff0324 	li	v1,-1
1d00e768:	03004310 	beq	v0,v1,0x1d00e778
1d00e76c:	9c320326 	addiu	v1,s0,12956
1d00e770:	01004224 	addiu	v0,v0,1
1d00e774:	3c0362ac 	sw	v0,828(v1)
1d00e778:	805b400f 	jal	0x1d016e00
1d00e77c:	00000000 	nop
1d00e780:	2c024010 	beqz	v0,0x1d00f034
1d00e784:	2080838f 	lw	v1,-32736(gp)
1d00e788:	01006324 	addiu	v1,v1,1
1d00e78c:	cccc023c 	lui	v0,0xcccc
1d00e790:	cdcc4234 	ori	v0,v0,0xcccd
1d00e794:	19006200 	multu	v1,v0
1d00e798:	10100000 	mfhi	v0
1d00e79c:	c2100200 	srl	v0,v0,0x3
1d00e7a0:	40200200 	sll	a0,v0,0x1
1d00e7a4:	c0100200 	sll	v0,v0,0x3
1d00e7a8:	21108200 	addu	v0,a0,v0
1d00e7ac:	23106200 	subu	v0,v1,v0
1d00e7b0:	20024014 	bnez	v0,0x1d00f034
1d00e7b4:	208082af 	sw	v0,-32736(gp)
1d00e7b8:	1800a28f 	lw	v0,24(sp)
1d00e7bc:	3800a2af 	sw	v0,56(sp)
1d00e7c0:	1c00a28f 	lw	v0,28(sp)
1d00e7c4:	01000324 	li	v1,1
1d00e7c8:	84f7627c 	ins	v0,v1,0x1e,0x1
1d00e7cc:	3c00a2af 	sw	v0,60(sp)
1d00e7d0:	08000224 	li	v0,8
1d00e7d4:	3400a2af 	sw	v0,52(sp)
1d00e7d8:	34040224 	li	v0,1076
1d00e7dc:	3000a2af 	sw	v0,48(sp)
1d00e7e0:	4e5e400f 	jal	0x1d017938
1d00e7e4:	3000a427 	addiu	a0,sp,48
1d00e7e8:	0d3c400b 	j	0x1d00f034
1d00e7ec:	00000000 	nop
1d00e7f0:	0800842c 	sltiu	a0,a0,8
1d00e7f4:	0f028014 	bnez	a0,0x1d00f034
1d00e7f8:	9c320226 	addiu	v0,s0,12956
1d00e7fc:	1800a38f 	lw	v1,24(sp)
1d00e800:	400343ac 	sw	v1,832(v0)
1d00e804:	1c00a38f 	lw	v1,28(sp)
1d00e808:	440343ac 	sw	v1,836(v0)
1d00e80c:	fa000324 	li	v1,250
1d00e810:	480343ac 	sw	v1,840(v0)
1d00e814:	4c03428c 	lw	v0,844(v0)
1d00e818:	ffff0324 	li	v1,-1
1d00e81c:	03004310 	beq	v0,v1,0x1d00e82c
1d00e820:	9c320326 	addiu	v1,s0,12956
1d00e824:	01004224 	addiu	v0,v0,1
1d00e828:	4c0362ac 	sw	v0,844(v1)
1d00e82c:	9c320226 	addiu	v0,s0,12956
1d00e830:	4c03428c 	lw	v0,844(v0)
1d00e834:	0300422c 	sltiu	v0,v0,3
1d00e838:	fe014014 	bnez	v0,0x1d00f034
1d00e83c:	1c00a393 	lbu	v1,28(sp)
1d00e840:	d0ff6324 	addiu	v1,v1,-48
1d00e844:	1a00a297 	lhu	v0,26(sp)
1d00e848:	00034230 	andi	v0,v0,0x300
1d00e84c:	21186200 	addu	v1,v1,v0
1d00e850:	21100000 	move	v0,zero
1d00e854:	0450627c 	ins	v0,v1,0x0,0xb
1d00e858:	3800a2af 	sw	v0,56(sp)
1d00e85c:	9c320226 	addiu	v0,s0,12956
1d00e860:	58004390 	lbu	v1,88(v0)
1d00e864:	3b00a3a3 	sb	v1,59(sp)
1d00e868:	9003438c 	lw	v1,912(v0)
1d00e86c:	000c637c 	ext	v1,v1,0x10,0x2
1d00e870:	001a0300 	sll	v1,v1,0x8
1d00e874:	93034290 	lbu	v0,915(v0)
1d00e878:	21186200 	addu	v1,v1,v0
1d00e87c:	3800a28f 	lw	v0,56(sp)
1d00e880:	84bb627c 	ins	v0,v1,0xe,0xa
1d00e884:	3800a2af 	sw	v0,56(sp)
1d00e888:	bc36428e 	lw	v0,14012(s2)
1d00e88c:	40180200 	sll	v1,v0,0x1
1d00e890:	c0100200 	sll	v0,v0,0x3
1d00e894:	21106200 	addu	v0,v1,v0
1d00e898:	bc364326 	addiu	v1,s2,14012
1d00e89c:	0400648c 	lw	a0,4(v1)
1d00e8a0:	3115033c 	lui	v1,0x1531
1d00e8a4:	67216324 	addiu	v1,v1,8551
1d00e8a8:	19008300 	multu	a0,v1
1d00e8ac:	10180000 	mfhi	v1
1d00e8b0:	421a0300 	srl	v1,v1,0x9
1d00e8b4:	0a00652c 	sltiu	a1,v1,10
1d00e8b8:	09000424 	li	a0,9
1d00e8bc:	0a188500 	movz	v1,a0,a1
1d00e8c0:	21106200 	addu	v0,v1,v0
1d00e8c4:	f6ff4424 	addiu	a0,v0,-10
1d00e8c8:	ff00033c 	lui	v1,0xff
1d00e8cc:	f6ff6334 	ori	v1,v1,0xfff6
1d00e8d0:	2b188300 	sltu	v1,a0,v1
1d00e8d4:	0a100300 	movz	v0,zero,v1
1d00e8d8:	21184000 	move	v1,v0
1d00e8dc:	21100000 	move	v0,zero
1d00e8e0:	04b8627c 	ins	v0,v1,0x0,0x18
1d00e8e4:	3c00a2af 	sw	v0,60(sp)
1d00e8e8:	08000224 	li	v0,8
1d00e8ec:	3400a2af 	sw	v0,52(sp)
1d00e8f0:	72000224 	li	v0,114
1d00e8f4:	3000a2af 	sw	v0,48(sp)
1d00e8f8:	aa5d400f 	jal	0x1d0176a8
1d00e8fc:	3000a427 	addiu	a0,sp,48
1d00e900:	0d3c400b 	j	0x1d00f034
1d00e904:	00000000 	nop
1d00e908:	ca018014 	bnez	a0,0x1d00f034
1d00e90c:	9c320226 	addiu	v0,s0,12956
1d00e910:	1800a38f 	lw	v1,24(sp)
1d00e914:	500343ac 	sw	v1,848(v0)
1d00e918:	1c00a38f 	lw	v1,28(sp)
1d00e91c:	540343ac 	sw	v1,852(v0)
1d00e920:	c8000324 	li	v1,200
1d00e924:	580343ac 	sw	v1,856(v0)
1d00e928:	5c03428c 	lw	v0,860(v0)
1d00e92c:	ffff0324 	li	v1,-1
1d00e930:	03004310 	beq	v0,v1,0x1d00e940
1d00e934:	9c320326 	addiu	v1,s0,12956
1d00e938:	01004224 	addiu	v0,v0,1
1d00e93c:	5c0362ac 	sw	v0,860(v1)
1d00e940:	9c320226 	addiu	v0,s0,12956
1d00e944:	5c03428c 	lw	v0,860(v0)
1d00e948:	0300422c 	sltiu	v0,v0,3
1d00e94c:	b9014014 	bnez	v0,0x1d00f034
1d00e950:	00000000 	nop
1d00e954:	3800a0af 	sw	zero,56(sp)
1d00e958:	3c00a0af 	sw	zero,60(sp)
1d00e95c:	1a00a293 	lbu	v0,26(sp)
1d00e960:	83ff4224 	addiu	v0,v0,-125
1d00e964:	2016027c 	seh	v0,v0
1d00e968:	1e00a493 	lbu	a0,30(sp)
1d00e96c:	00220400 	sll	a0,a0,0x8
1d00e970:	1f00a393 	lbu	v1,31(sp)
1d00e974:	21188300 	addu	v1,a0,v1
1d00e978:	3800a3a7 	sh	v1,56(sp)
1d00e97c:	1800a48f 	lw	a0,24(sp)
1d00e980:	0008847c 	ext	a0,a0,0x0,0x2
1d00e984:	ff008430 	andi	a0,a0,0xff
1d00e988:	00220400 	sll	a0,a0,0x8
1d00e98c:	1900a393 	lbu	v1,25(sp)
1d00e990:	21208300 	addu	a0,a0,v1
1d00e994:	3800a38f 	lw	v1,56(sp)
1d00e998:	04cc837c 	ins	v1,a0,0x10,0xa
1d00e99c:	3800a3af 	sw	v1,56(sp)
1d00e9a0:	21184000 	move	v1,v0
1d00e9a4:	80004228 	slti	v0,v0,128
1d00e9a8:	01004050 	beqzl	v0,0x1d00e9b0
1d00e9ac:	7f000324 	li	v1,127
1d00e9b0:	3c00a3a3 	sb	v1,60(sp)
1d00e9b4:	1800a38f 	lw	v1,24(sp)
1d00e9b8:	c0006338 	xori	v1,v1,0xc0
1d00e9bc:	8009637c 	ext	v1,v1,0x6,0x2
1d00e9c0:	3800a28f 	lw	v0,56(sp)
1d00e9c4:	84ff627c 	ins	v0,v1,0x1e,0x2
1d00e9c8:	3800a2af 	sw	v0,56(sp)
1d00e9cc:	08000224 	li	v0,8
1d00e9d0:	3400a2af 	sw	v0,52(sp)
1d00e9d4:	75000224 	li	v0,117
1d00e9d8:	3000a2af 	sw	v0,48(sp)
1d00e9dc:	aa5d400f 	jal	0x1d0176a8
1d00e9e0:	3000a427 	addiu	a0,sp,48
1d00e9e4:	0d3c400b 	j	0x1d00f034
1d00e9e8:	00000000 	nop
1d00e9ec:	91018014 	bnez	a0,0x1d00f034
1d00e9f0:	9c320226 	addiu	v0,s0,12956
1d00e9f4:	1800a38f 	lw	v1,24(sp)
1d00e9f8:	600343ac 	sw	v1,864(v0)
1d00e9fc:	1c00a38f 	lw	v1,28(sp)
1d00ea00:	640343ac 	sw	v1,868(v0)
1d00ea04:	c4090324 	li	v1,2500
1d00ea08:	680343ac 	sw	v1,872(v0)
1d00ea0c:	6c03428c 	lw	v0,876(v0)
1d00ea10:	ffff0324 	li	v1,-1
1d00ea14:	03004310 	beq	v0,v1,0x1d00ea24
1d00ea18:	9c320326 	addiu	v1,s0,12956
1d00ea1c:	01004224 	addiu	v0,v0,1
1d00ea20:	6c0362ac 	sw	v0,876(v1)
1d00ea24:	9c320226 	addiu	v0,s0,12956
1d00ea28:	6c03428c 	lw	v0,876(v0)
1d00ea2c:	0200422c 	sltiu	v0,v0,2
1d00ea30:	80014014 	bnez	v0,0x1d00f034
1d00ea34:	15f0023c 	lui	v0,0xf015
1d00ea38:	3800a0af 	sw	zero,56(sp)
1d00ea3c:	3c00a0af 	sw	zero,60(sp)
1d00ea40:	1800a493 	lbu	a0,24(sp)
1d00ea44:	40e74234 	ori	v0,v0,0xe740
1d00ea48:	2d00033c 	lui	v1,0x2d
1d00ea4c:	c0c66334 	ori	v1,v1,0xc6c0
1d00ea50:	02288370 	mul	a1,a0,v1
1d00ea54:	2110a200 	addu	v0,a1,v0
1d00ea58:	17004018 	blez	v0,0x1d00eab8
1d00ea5c:	1800a48f 	lw	a0,24(sp)
1d00ea60:	802a837c 	ext	v1,a0,0xa,0x6
1d00ea64:	80280300 	sll	a1,v1,0x2
1d00ea68:	c0310300 	sll	a2,v1,0x7
1d00ea6c:	2328c500 	subu	a1,a2,a1
1d00ea70:	2118a300 	addu	v1,a1,v1
1d00ea74:	80280300 	sll	a1,v1,0x2
1d00ea78:	21186500 	addu	v1,v1,a1
1d00ea7c:	80280300 	sll	a1,v1,0x2
1d00ea80:	21186500 	addu	v1,v1,a1
1d00ea84:	00190300 	sll	v1,v1,0x4
1d00ea88:	21104300 	addu	v0,v0,v1
1d00ea8c:	1a00a393 	lbu	v1,26(sp)
1d00ea90:	80190300 	sll	v1,v1,0x6
1d00ea94:	82260400 	srl	a0,a0,0x1a
1d00ea98:	21186400 	addu	v1,v1,a0
1d00ea9c:	80200300 	sll	a0,v1,0x2
1d00eaa0:	21188300 	addu	v1,a0,v1
1d00eaa4:	21184300 	addu	v1,v0,v1
1d00eaa8:	21100000 	move	v0,zero
1d00eaac:	04f0627c 	ins	v0,v1,0x0,0x1f
1d00eab0:	c33a400b 	j	0x1d00eb0c
1d00eab4:	3800a2af 	sw	v0,56(sp)
1d00eab8:	802a837c 	ext	v1,a0,0xa,0x6
1d00eabc:	80280300 	sll	a1,v1,0x2
1d00eac0:	c0310300 	sll	a2,v1,0x7
1d00eac4:	2328c500 	subu	a1,a2,a1
1d00eac8:	2118a300 	addu	v1,a1,v1
1d00eacc:	80280300 	sll	a1,v1,0x2
1d00ead0:	21186500 	addu	v1,v1,a1
1d00ead4:	80280300 	sll	a1,v1,0x2
1d00ead8:	21186500 	addu	v1,v1,a1
1d00eadc:	00190300 	sll	v1,v1,0x4
1d00eae0:	23104300 	subu	v0,v0,v1
1d00eae4:	1a00a393 	lbu	v1,26(sp)
1d00eae8:	80190300 	sll	v1,v1,0x6
1d00eaec:	82260400 	srl	a0,a0,0x1a
1d00eaf0:	21186400 	addu	v1,v1,a0
1d00eaf4:	80200300 	sll	a0,v1,0x2
1d00eaf8:	21188300 	addu	v1,a0,v1
1d00eafc:	23184300 	subu	v1,v0,v1
1d00eb00:	3800a28f 	lw	v0,56(sp)
1d00eb04:	04f0627c 	ins	v0,v1,0x0,0x1f
1d00eb08:	3800a2af 	sw	v0,56(sp)
1d00eb0c:	1b00a293 	lbu	v0,27(sp)
1d00eb10:	03004230 	andi	v0,v0,0x3
1d00eb14:	02000324 	li	v1,2
1d00eb18:	06004314 	bne	v0,v1,0x1d00eb34
1d00eb1c:	01000324 	li	v1,1
1d00eb20:	3800a28f 	lw	v0,56(sp)
1d00eb24:	ffff0324 	li	v1,-1
1d00eb28:	c4ff627c 	ins	v0,v1,0x1f,0x1
1d00eb2c:	d33a400b 	j	0x1d00eb4c
1d00eb30:	3800a2af 	sw	v0,56(sp)
1d00eb34:	06004314 	bne	v0,v1,0x1d00eb50
1d00eb38:	1c00a393 	lbu	v1,28(sp)
1d00eb3c:	3800a28f 	lw	v0,56(sp)
1d00eb40:	ffff0324 	li	v1,-1
1d00eb44:	c4ff627c 	ins	v0,v1,0x1f,0x1
1d00eb48:	3800a2af 	sw	v0,56(sp)
1d00eb4c:	1c00a393 	lbu	v1,28(sp)
1d00eb50:	40180300 	sll	v1,v1,0x1
1d00eb54:	1c00a28f 	lw	v0,28(sp)
1d00eb58:	c003427c 	ext	v0,v0,0xf,0x1
1d00eb5c:	21186200 	addu	v1,v1,v0
1d00eb60:	4dff6324 	addiu	v1,v1,-179
1d00eb64:	2d00023c 	lui	v0,0x2d
1d00eb68:	c0c64234 	ori	v0,v0,0xc6c0
1d00eb6c:	02106270 	mul	v0,v1,v0
1d00eb70:	17004018 	blez	v0,0x1d00ebd0
1d00eb74:	1e00a593 	lbu	a1,30(sp)
1d00eb78:	80290500 	sll	a1,a1,0x6
1d00eb7c:	1c00a38f 	lw	v1,28(sp)
1d00eb80:	82260300 	srl	a0,v1,0x1a
1d00eb84:	2120a400 	addu	a0,a1,a0
1d00eb88:	80280400 	sll	a1,a0,0x2
1d00eb8c:	2120a400 	addu	a0,a1,a0
1d00eb90:	402a637c 	ext	v1,v1,0x9,0x6
1d00eb94:	80280300 	sll	a1,v1,0x2
1d00eb98:	c0310300 	sll	a2,v1,0x7
1d00eb9c:	2328c500 	subu	a1,a2,a1
1d00eba0:	2118a300 	addu	v1,a1,v1
1d00eba4:	80280300 	sll	a1,v1,0x2
1d00eba8:	21186500 	addu	v1,v1,a1
1d00ebac:	80280300 	sll	a1,v1,0x2
1d00ebb0:	21186500 	addu	v1,v1,a1
1d00ebb4:	00190300 	sll	v1,v1,0x4
1d00ebb8:	21188300 	addu	v1,a0,v1
1d00ebbc:	21106200 	addu	v0,v1,v0
1d00ebc0:	3c00a38f 	lw	v1,60(sp)
1d00ebc4:	04f0437c 	ins	v1,v0,0x0,0x1f
1d00ebc8:	0a3b400b 	j	0x1d00ec28
1d00ebcc:	3c00a3af 	sw	v1,60(sp)
1d00ebd0:	1c00a48f 	lw	a0,28(sp)
1d00ebd4:	402a837c 	ext	v1,a0,0x9,0x6
1d00ebd8:	80280300 	sll	a1,v1,0x2
1d00ebdc:	c0310300 	sll	a2,v1,0x7
1d00ebe0:	2328c500 	subu	a1,a2,a1
1d00ebe4:	2118a300 	addu	v1,a1,v1
1d00ebe8:	80280300 	sll	a1,v1,0x2
1d00ebec:	21186500 	addu	v1,v1,a1
1d00ebf0:	80280300 	sll	a1,v1,0x2
1d00ebf4:	21186500 	addu	v1,v1,a1
1d00ebf8:	00190300 	sll	v1,v1,0x4
1d00ebfc:	23104300 	subu	v0,v0,v1
1d00ec00:	1e00a393 	lbu	v1,30(sp)
1d00ec04:	80190300 	sll	v1,v1,0x6
1d00ec08:	82260400 	srl	a0,a0,0x1a
1d00ec0c:	21186400 	addu	v1,v1,a0
1d00ec10:	80200300 	sll	a0,v1,0x2
1d00ec14:	21188300 	addu	v1,a0,v1
1d00ec18:	23184300 	subu	v1,v0,v1
1d00ec1c:	3c00a28f 	lw	v0,60(sp)
1d00ec20:	04f0627c 	ins	v0,v1,0x0,0x1f
1d00ec24:	3c00a2af 	sw	v0,60(sp)
1d00ec28:	1900a293 	lbu	v0,25(sp)
1d00ec2c:	03004230 	andi	v0,v0,0x3
1d00ec30:	01000324 	li	v1,1
1d00ec34:	06004314 	bne	v0,v1,0x1d00ec50
1d00ec38:	02000324 	li	v1,2
1d00ec3c:	3c00a28f 	lw	v0,60(sp)
1d00ec40:	ffff0324 	li	v1,-1
1d00ec44:	c4ff627c 	ins	v0,v1,0x1f,0x1
1d00ec48:	1a3b400b 	j	0x1d00ec68
1d00ec4c:	3c00a2af 	sw	v0,60(sp)
1d00ec50:	06004314 	bne	v0,v1,0x1d00ec6c
1d00ec54:	08000224 	li	v0,8
1d00ec58:	3c00a28f 	lw	v0,60(sp)
1d00ec5c:	ffff0324 	li	v1,-1
1d00ec60:	c4ff627c 	ins	v0,v1,0x1f,0x1
1d00ec64:	3c00a2af 	sw	v0,60(sp)
1d00ec68:	08000224 	li	v0,8
1d00ec6c:	3400a2af 	sw	v0,52(sp)
1d00ec70:	6d000224 	li	v0,109
1d00ec74:	3000a2af 	sw	v0,48(sp)
1d00ec78:	aa5d400f 	jal	0x1d0176a8
1d00ec7c:	3000a427 	addiu	a0,sp,48
1d00ec80:	0d3c400b 	j	0x1d00f034
1d00ec84:	00000000 	nop
1d00ec88:	0800842c 	sltiu	a0,a0,8
1d00ec8c:	e9008014 	bnez	a0,0x1d00f034
1d00ec90:	9c320226 	addiu	v0,s0,12956
1d00ec94:	1800a38f 	lw	v1,24(sp)
1d00ec98:	700343ac 	sw	v1,880(v0)
1d00ec9c:	1c00a38f 	lw	v1,28(sp)
1d00eca0:	740343ac 	sw	v1,884(v0)
1d00eca4:	c4090324 	li	v1,2500
1d00eca8:	780343ac 	sw	v1,888(v0)
1d00ecac:	7c03428c 	lw	v0,892(v0)
1d00ecb0:	ffff0324 	li	v1,-1
1d00ecb4:	03004310 	beq	v0,v1,0x1d00ecc4
1d00ecb8:	9c320326 	addiu	v1,s0,12956
1d00ecbc:	01004224 	addiu	v0,v0,1
1d00ecc0:	7c0362ac 	sw	v0,892(v1)
1d00ecc4:	9c320226 	addiu	v0,s0,12956
1d00ecc8:	7c03428c 	lw	v0,892(v0)
1d00eccc:	0200422c 	sltiu	v0,v0,2
1d00ecd0:	d8004014 	bnez	v0,0x1d00f034
1d00ecd4:	1c00a38f 	lw	v1,28(sp)
1d00ecd8:	c024647c 	ext	a0,v1,0x13,0x5
1d00ecdc:	001b627c 	ext	v0,v1,0xc,0x4
1d00ece0:	01004224 	addiu	v0,v0,1
1d00ece4:	0a008424 	addiu	a0,a0,10
1d00ece8:	045a447c 	ins	a0,v0,0x8,0x4
1d00ecec:	4020627c 	ext	v0,v1,0x1,0x5
1d00ecf0:	01004224 	addiu	v0,v0,1
1d00ecf4:	04a4447c 	ins	a0,v0,0x10,0x5
1d00ecf8:	1800a28f 	lw	v0,24(sp)
1d00ecfc:	c020457c 	ext	a1,v0,0x3,0x5
1d00ed00:	04e6a47c 	ins	a0,a1,0x18,0x5
1d00ed04:	3800a4af 	sw	a0,56(sp)
1d00ed08:	802c457c 	ext	a1,v0,0x12,0x6
1d00ed0c:	802a447c 	ext	a0,v0,0xa,0x6
1d00ed10:	046aa47c 	ins	a0,a1,0x8,0x6
1d00ed14:	0016467c 	ext	a2,v0,0x18,0x3
1d00ed18:	40300600 	sll	a2,a2,0x1
1d00ed1c:	c001657c 	ext	a1,v1,0x7,0x1
1d00ed20:	2128c500 	addu	a1,a2,a1
1d00ed24:	049ca47c 	ins	a0,a1,0x10,0x4
1d00ed28:	c026457c 	ext	a1,v0,0x1b,0x5
1d00ed2c:	04e6a47c 	ins	a0,a1,0x18,0x5
1d00ed30:	8000457c 	ext	a1,v0,0x2,0x1
1d00ed34:	21108000 	move	v0,a0
1d00ed38:	44efa27c 	ins	v0,a1,0x1d,0x1
1d00ed3c:	8001637c 	ext	v1,v1,0x6,0x1
1d00ed40:	84f7627c 	ins	v0,v1,0x1e,0x1
1d00ed44:	3c00a2af 	sw	v0,60(sp)
1d00ed48:	08000224 	li	v0,8
1d00ed4c:	3400a2af 	sw	v0,52(sp)
1d00ed50:	6e000224 	li	v0,110
1d00ed54:	3000a2af 	sw	v0,48(sp)
1d00ed58:	aa5d400f 	jal	0x1d0176a8
1d00ed5c:	3000a427 	addiu	a0,sp,48
1d00ed60:	0d3c400b 	j	0x1d00f034
1d00ed64:	00000000 	nop
1d00ed68:	0800842c 	sltiu	a0,a0,8
1d00ed6c:	b1008014 	bnez	a0,0x1d00f034
1d00ed70:	9c320226 	addiu	v0,s0,12956
1d00ed74:	1800a38f 	lw	v1,24(sp)
1d00ed78:	800343ac 	sw	v1,896(v0)
1d00ed7c:	1c00a38f 	lw	v1,28(sp)
1d00ed80:	840343ac 	sw	v1,900(v0)
1d00ed84:	c4090324 	li	v1,2500
1d00ed88:	880343ac 	sw	v1,904(v0)
1d00ed8c:	8c03428c 	lw	v0,908(v0)
1d00ed90:	ffff0324 	li	v1,-1
1d00ed94:	03004310 	beq	v0,v1,0x1d00eda4
1d00ed98:	9c320326 	addiu	v1,s0,12956
1d00ed9c:	01004224 	addiu	v0,v0,1
1d00eda0:	8c0362ac 	sw	v0,908(v1)
1d00eda4:	9c320226 	addiu	v0,s0,12956
1d00eda8:	8c03428c 	lw	v0,908(v0)
1d00edac:	0200422c 	sltiu	v0,v0,2
1d00edb0:	a0004014 	bnez	v0,0x1d00f034
1d00edb4:	1900a493 	lbu	a0,25(sp)
1d00edb8:	00210400 	sll	a0,a0,0x4
1d00edbc:	1800a28f 	lw	v0,24(sp)
1d00edc0:	001c437c 	ext	v1,v0,0x10,0x4
1d00edc4:	21188300 	addu	v1,a0,v1
1d00edc8:	02f86324 	addiu	v1,v1,-2046
1d00edcc:	80200300 	sll	a0,v1,0x2
1d00edd0:	c0290300 	sll	a1,v1,0x7
1d00edd4:	2320a400 	subu	a0,a1,a0
1d00edd8:	21188300 	addu	v1,a0,v1
1d00eddc:	40190300 	sll	v1,v1,0x5
1d00ede0:	e763043c 	lui	a0,0x63e7
1d00ede4:	3f068424 	addiu	a0,a0,1599
1d00ede8:	18006400 	mult	v1,a0
1d00edec:	10200000 	mfhi	a0
1d00edf0:	c3210400 	sra	a0,a0,0x7
1d00edf4:	c31f0300 	sra	v1,v1,0x1f
1d00edf8:	23188300 	subu	v1,a0,v1
1d00edfc:	3800a3a7 	sh	v1,56(sp)
1d00ee00:	1b00a493 	lbu	a0,27(sp)
1d00ee04:	00220400 	sll	a0,a0,0x8
1d00ee08:	1c00a393 	lbu	v1,28(sp)
1d00ee0c:	21188300 	addu	v1,a0,v1
1d00ee10:	3a00a3a7 	sh	v1,58(sp)
1d00ee14:	1d00a393 	lbu	v1,29(sp)
1d00ee18:	3c00a3a3 	sb	v1,60(sp)
1d00ee1c:	1c00a38f 	lw	v1,28(sp)
1d00ee20:	c024647c 	ext	a0,v1,0x13,0x5
1d00ee24:	3d00a4a3 	sb	a0,61(sp)
1d00ee28:	c026637c 	ext	v1,v1,0x1b,0x5
1d00ee2c:	3e00a3a3 	sb	v1,62(sp)
1d00ee30:	21180000 	move	v1,zero
1d00ee34:	0410437c 	ins	v1,v0,0x0,0x3
1d00ee38:	c020427c 	ext	v0,v0,0x3,0x5
1d00ee3c:	c438437c 	ins	v1,v0,0x3,0x5
1d00ee40:	3f00a3a3 	sb	v1,63(sp)
1d00ee44:	08000224 	li	v0,8
1d00ee48:	3400a2af 	sw	v0,52(sp)
1d00ee4c:	6f000224 	li	v0,111
1d00ee50:	3000a2af 	sw	v0,48(sp)
1d00ee54:	aa5d400f 	jal	0x1d0176a8
1d00ee58:	3000a427 	addiu	a0,sp,48
1d00ee5c:	0d3c400b 	j	0x1d00f034
1d00ee60:	00000000 	nop
1d00ee64:	0800842c 	sltiu	a0,a0,8
1d00ee68:	72008014 	bnez	a0,0x1d00f034
1d00ee6c:	9c320226 	addiu	v0,s0,12956
1d00ee70:	1800a38f 	lw	v1,24(sp)
1d00ee74:	900343ac 	sw	v1,912(v0)
1d00ee78:	1c00a38f 	lw	v1,28(sp)
1d00ee7c:	940343ac 	sw	v1,916(v0)
1d00ee80:	c8000324 	li	v1,200
1d00ee84:	980343ac 	sw	v1,920(v0)
1d00ee88:	9c03428c 	lw	v0,924(v0)
1d00ee8c:	ffff0324 	li	v1,-1
1d00ee90:	68004310 	beq	v0,v1,0x1d00f034
1d00ee94:	9c320326 	addiu	v1,s0,12956
1d00ee98:	01004224 	addiu	v0,v0,1
1d00ee9c:	0d3c400b 	j	0x1d00f034
1d00eea0:	9c0362ac 	sw	v0,924(v1)
1d00eea4:	0800842c 	sltiu	a0,a0,8
1d00eea8:	62008014 	bnez	a0,0x1d00f034
1d00eeac:	9c320226 	addiu	v0,s0,12956
1d00eeb0:	1800a38f 	lw	v1,24(sp)
1d00eeb4:	a00343ac 	sw	v1,928(v0)
1d00eeb8:	1c00a38f 	lw	v1,28(sp)
1d00eebc:	a40343ac 	sw	v1,932(v0)
1d00eec0:	f4010324 	li	v1,500
1d00eec4:	a80343ac 	sw	v1,936(v0)
1d00eec8:	ac03428c 	lw	v0,940(v0)
1d00eecc:	ffff0324 	li	v1,-1
1d00eed0:	03004310 	beq	v0,v1,0x1d00eee0
1d00eed4:	9c320326 	addiu	v1,s0,12956
1d00eed8:	01004224 	addiu	v0,v0,1
1d00eedc:	ac0362ac 	sw	v0,940(v1)
1d00eee0:	0429400f 	jal	0x1d00a410
1d00eee4:	00000000 	nop
1d00eee8:	0a000224 	li	v0,10
1d00eeec:	0d3c400b 	j	0x1d00f034
1d00eef0:	d48082af 	sw	v0,-32556(gp)
1d00eef4:	4f008014 	bnez	a0,0x1d00f034
1d00eef8:	9c320226 	addiu	v0,s0,12956
1d00eefc:	1800a38f 	lw	v1,24(sp)
1d00ef00:	b00343ac 	sw	v1,944(v0)
1d00ef04:	1c00a38f 	lw	v1,28(sp)
1d00ef08:	b40343ac 	sw	v1,948(v0)
1d00ef0c:	f4010324 	li	v1,500
1d00ef10:	b80343ac 	sw	v1,952(v0)
1d00ef14:	bc03428c 	lw	v0,956(v0)
1d00ef18:	ffff0324 	li	v1,-1
1d00ef1c:	03004310 	beq	v0,v1,0x1d00ef2c
1d00ef20:	9c320326 	addiu	v1,s0,12956
1d00ef24:	01004224 	addiu	v0,v0,1
1d00ef28:	bc0362ac 	sw	v0,956(v1)
1d00ef2c:	0429400f 	jal	0x1d00a410
1d00ef30:	00000000 	nop
1d00ef34:	0d3c400b 	j	0x1d00f034
1d00ef38:	00000000 	nop
1d00ef3c:	0800842c 	sltiu	a0,a0,8
1d00ef40:	3c008014 	bnez	a0,0x1d00f034
1d00ef44:	9c320226 	addiu	v0,s0,12956
1d00ef48:	1800a38f 	lw	v1,24(sp)
1d00ef4c:	c00343ac 	sw	v1,960(v0)
1d00ef50:	1c00a38f 	lw	v1,28(sp)
1d00ef54:	c40343ac 	sw	v1,964(v0)
1d00ef58:	e2040324 	li	v1,1250
1d00ef5c:	c80343ac 	sw	v1,968(v0)
1d00ef60:	cc03428c 	lw	v0,972(v0)
1d00ef64:	ffff0324 	li	v1,-1
1d00ef68:	03004310 	beq	v0,v1,0x1d00ef78
1d00ef6c:	9c320326 	addiu	v1,s0,12956
1d00ef70:	01004224 	addiu	v0,v0,1
1d00ef74:	cc0362ac 	sw	v0,972(v1)
1d00ef78:	9c320226 	addiu	v0,s0,12956
1d00ef7c:	cc03428c 	lw	v0,972(v0)
1d00ef80:	0300422c 	sltiu	v0,v0,3
1d00ef84:	2b004014 	bnez	v0,0x1d00f034
1d00ef88:	1800a393 	lbu	v1,24(sp)
1d00ef8c:	001a0300 	sll	v1,v1,0x8
1d00ef90:	1900a293 	lbu	v0,25(sp)
1d00ef94:	21106200 	addu	v0,v1,v0
1d00ef98:	3800a2a7 	sh	v0,56(sp)
1d00ef9c:	1a00a393 	lbu	v1,26(sp)
1d00efa0:	001a0300 	sll	v1,v1,0x8
1d00efa4:	1b00a293 	lbu	v0,27(sp)
1d00efa8:	21106200 	addu	v0,v1,v0
1d00efac:	3a00a2a7 	sh	v0,58(sp)
1d00efb0:	1e00a393 	lbu	v1,30(sp)
1d00efb4:	001a0300 	sll	v1,v1,0x8
1d00efb8:	1f00a293 	lbu	v0,31(sp)
1d00efbc:	21106200 	addu	v0,v1,v0
1d00efc0:	3c00a2a7 	sh	v0,60(sp)
1d00efc4:	1c00a393 	lbu	v1,28(sp)
1d00efc8:	001a0300 	sll	v1,v1,0x8
1d00efcc:	1d00a293 	lbu	v0,29(sp)
1d00efd0:	21106200 	addu	v0,v1,v0
1d00efd4:	3e00a2a7 	sh	v0,62(sp)
1d00efd8:	08000224 	li	v0,8
1d00efdc:	3400a2af 	sw	v0,52(sp)
1d00efe0:	71000224 	li	v0,113
1d00efe4:	3000a2af 	sw	v0,48(sp)
1d00efe8:	aa5d400f 	jal	0x1d0176a8
1d00efec:	3000a427 	addiu	a0,sp,48
1d00eff0:	0d3c400b 	j	0x1d00f034
1d00eff4:	00000000 	nop
1d00eff8:	0800842c 	sltiu	a0,a0,8
1d00effc:	0d008014 	bnez	a0,0x1d00f034
1d00f000:	9c320226 	addiu	v0,s0,12956
1d00f004:	1800a38f 	lw	v1,24(sp)
1d00f008:	d00343ac 	sw	v1,976(v0)
1d00f00c:	1c00a38f 	lw	v1,28(sp)
1d00f010:	d40343ac 	sw	v1,980(v0)
1d00f014:	c8000324 	li	v1,200
1d00f018:	d80343ac 	sw	v1,984(v0)
1d00f01c:	dc03428c 	lw	v0,988(v0)
1d00f020:	ffff0324 	li	v1,-1
1d00f024:	03004310 	beq	v0,v1,0x1d00f034
1d00f028:	9c320326 	addiu	v1,s0,12956
1d00f02c:	01004224 	addiu	v0,v0,1
1d00f030:	dc0362ac 	sw	v0,988(v1)
1d00f034:	6a60400f 	jal	0x1d0181a8
1d00f038:	1000a427 	addiu	a0,sp,16
1d00f03c:	6cfd4014 	bnez	v0,0x1d00e5f0
1d00f040:	21202002 	move	a0,s1
1d00f044:	cb60400f 	jal	0x1d01832c
1d00f048:	00000000 	nop
1d00f04c:	3c3c400b 	j	0x1d00f0f0
1d00f050:	5400bf8f 	lw	ra,84(sp)
1d00f054:	6001428c 	lw	v0,352(v0)
1d00f058:	0400422c 	sltiu	v0,v0,4
1d00f05c:	edf94050 	beqzl	v0,0x1d00d814
1d00f060:	9c320226 	addiu	v0,s0,12956
1d00f064:	2636400b 	j	0x1d00d898
1d00f068:	00a0023c 	lui	v0,0xa000
1d00f06c:	9402428c 	lw	v0,660(v0)
1d00f070:	eef94054 	bnezl	v0,0x1d00d82c
1d00f074:	9c320226 	addiu	v0,s0,12956
1d00f078:	2636400b 	j	0x1d00d898
1d00f07c:	00a0023c 	lui	v0,0xa000
1d00f080:	6001428c 	lw	v0,352(v0)
1d00f084:	0400422c 	sltiu	v0,v0,4
1d00f088:	b5fa4010 	beqz	v0,0x1d00db60
1d00f08c:	9c320226 	addiu	v0,s0,12956
1d00f090:	7c38400b 	j	0x1d00e1f0
1d00f094:	00000000 	nop
1d00f098:	9402428c 	lw	v0,660(v0)
1d00f09c:	b6fa4014 	bnez	v0,0x1d00db78
1d00f0a0:	9c320226 	addiu	v0,s0,12956
1d00f0a4:	7c38400b 	j	0x1d00e1f0
1d00f0a8:	00000000 	nop
1d00f0ac:	c0004230 	andi	v0,v0,0xc0
1d00f0b0:	c0000324 	li	v1,192
1d00f0b4:	edfc4314 	bne	v0,v1,0x1d00e46c
1d00f0b8:	80000324 	li	v1,128
1d00f0bc:	e138400b 	j	0x1d00e384
1d00f0c0:	9c320226 	addiu	v0,s0,12956
1d00f0c4:	6001428c 	lw	v0,352(v0)
1d00f0c8:	0400422c 	sltiu	v0,v0,4
1d00f0cc:	c4fc4050 	beqzl	v0,0x1d00e3e0
1d00f0d0:	9c320226 	addiu	v0,s0,12956
1d00f0d4:	1839400b 	j	0x1d00e460
1d00f0d8:	80016226 	addiu	v0,s3,384
1d00f0dc:	9402428c 	lw	v0,660(v0)
1d00f0e0:	c5fc4054 	bnezl	v0,0x1d00e3f8
1d00f0e4:	9c320226 	addiu	v0,s0,12956
1d00f0e8:	1839400b 	j	0x1d00e460
1d00f0ec:	80016226 	addiu	v0,s3,384
1d00f0f0:	5000b48f 	lw	s4,80(sp)
1d00f0f4:	4c00b38f 	lw	s3,76(sp)
1d00f0f8:	4800b28f 	lw	s2,72(sp)
1d00f0fc:	4400b18f 	lw	s1,68(sp)
1d00f100:	4000b08f 	lw	s0,64(sp)
1d00f104:	0800e003 	jr	ra
1d00f108:	5800bd27 	addiu	sp,sp,88
1d00f10c:	e0ffbd27 	addiu	sp,sp,-32
1d00f110:	1c00bfaf 	sw	ra,28(sp)
1d00f114:	1800b2af 	sw	s2,24(sp)
1d00f118:	1400b1af 	sw	s1,20(sp)
1d00f11c:	1000b0af 	sw	s0,16(sp)
1d00f120:	21888000 	move	s1,a0
1d00f124:	00008290 	lbu	v0,0(a0)
1d00f128:	84004014 	bnez	v0,0x1d00f33c
1d00f12c:	2180a000 	move	s0,a1
1d00f130:	cf54400f 	jal	0x1d01533c
1d00f134:	00000000 	nop
1d00f138:	4b004010 	beqz	v0,0x1d00f268
1d00f13c:	21200002 	move	a0,s0
1d00f140:	01002292 	lbu	v0,1(s1)
1d00f144:	19004050 	beqzl	v0,0x1d00f1ac
1d00f148:	02002292 	lbu	v0,2(s1)
1d00f14c:	08003226 	addiu	s2,s1,8
1d00f150:	f56a400f 	jal	0x1d01abd4
1d00f154:	21204002 	move	a0,s2
1d00f158:	be23400f 	jal	0x1d008ef8
1d00f15c:	21204002 	move	a0,s2
1d00f160:	01a0023c 	lui	v0,0xa001
1d00f164:	0300448a 	lwl	a0,3(s2)
1d00f168:	0000449a 	lwr	a0,0(s2)
1d00f16c:	0700438a 	lwl	v1,7(s2)
1d00f170:	0400439a 	lwr	v1,4(s2)
1d00f174:	283544ac 	sw	a0,13608(v0)
1d00f178:	28354224 	addiu	v0,v0,13608
1d00f17c:	040043ac 	sw	v1,4(v0)
1d00f180:	01a0023c 	lui	v0,0xa001
1d00f184:	9c324224 	addiu	v0,v0,12956
1d00f188:	64000324 	li	v1,100
1d00f18c:	940243ac 	sw	v1,660(v0)
1d00f190:	9802428c 	lw	v0,664(v0)
1d00f194:	ffff0324 	li	v1,-1
1d00f198:	03004310 	beq	v0,v1,0x1d00f1a8
1d00f19c:	01004224 	addiu	v0,v0,1
1d00f1a0:	01a0033c 	lui	v1,0xa001
1d00f1a4:	343562ac 	sw	v0,13620(v1)
1d00f1a8:	02002292 	lbu	v0,2(s1)
1d00f1ac:	16004050 	beqzl	v0,0x1d00f208
1d00f1b0:	03002292 	lbu	v0,3(s1)
1d00f1b4:	10003226 	addiu	s2,s1,16
1d00f1b8:	4321400f 	jal	0x1d00850c
1d00f1bc:	21204002 	move	a0,s2
1d00f1c0:	01a0023c 	lui	v0,0xa001
1d00f1c4:	0300448a 	lwl	a0,3(s2)
1d00f1c8:	0000449a 	lwr	a0,0(s2)
1d00f1cc:	0700438a 	lwl	v1,7(s2)
1d00f1d0:	0400439a 	lwr	v1,4(s2)
1d00f1d4:	483544ac 	sw	a0,13640(v0)
1d00f1d8:	48354224 	addiu	v0,v0,13640
1d00f1dc:	040043ac 	sw	v1,4(v0)
1d00f1e0:	01a0023c 	lui	v0,0xa001
1d00f1e4:	9c324224 	addiu	v0,v0,12956
1d00f1e8:	b40240ac 	sw	zero,692(v0)
1d00f1ec:	b802428c 	lw	v0,696(v0)
1d00f1f0:	ffff0324 	li	v1,-1
1d00f1f4:	03004310 	beq	v0,v1,0x1d00f204
1d00f1f8:	01004224 	addiu	v0,v0,1
1d00f1fc:	01a0033c 	lui	v1,0xa001
1d00f200:	543562ac 	sw	v0,13652(v1)
1d00f204:	03002292 	lbu	v0,3(s1)
1d00f208:	17004010 	beqz	v0,0x1d00f268
1d00f20c:	21200002 	move	a0,s0
1d00f210:	18003126 	addiu	s1,s1,24
1d00f214:	0822400f 	jal	0x1d008820
1d00f218:	21202002 	move	a0,s1
1d00f21c:	01a0023c 	lui	v0,0xa001
1d00f220:	0300248a 	lwl	a0,3(s1)
1d00f224:	0000249a 	lwr	a0,0(s1)
1d00f228:	0700238a 	lwl	v1,7(s1)
1d00f22c:	0400239a 	lwr	v1,4(s1)
1d00f230:	683544ac 	sw	a0,13672(v0)
1d00f234:	68354224 	addiu	v0,v0,13672
1d00f238:	040043ac 	sw	v1,4(v0)
1d00f23c:	01a0023c 	lui	v0,0xa001
1d00f240:	9c324224 	addiu	v0,v0,12956
1d00f244:	c8000324 	li	v1,200
1d00f248:	d40243ac 	sw	v1,724(v0)
1d00f24c:	d802428c 	lw	v0,728(v0)
1d00f250:	ffff0324 	li	v1,-1
1d00f254:	03004310 	beq	v0,v1,0x1d00f264
1d00f258:	01004224 	addiu	v0,v0,1
1d00f25c:	01a0033c 	lui	v1,0xa001
1d00f260:	743562ac 	sw	v0,13684(v1)
1d00f264:	21200002 	move	a0,s0
1d00f268:	21280000 	move	a1,zero
1d00f26c:	9288400f 	jal	0x1d022248
1d00f270:	40000624 	li	a2,64
1d00f274:	ffff0224 	li	v0,-1
1d00f278:	000002a2 	sb	v0,0(s0)
1d00f27c:	02000224 	li	v0,2
1d00f280:	020002a6 	sh	v0,2(s0)
1d00f284:	cf54400f 	jal	0x1d01533c
1d00f288:	040002a6 	sh	v0,4(s0)
1d00f28c:	010002a2 	sb	v0,1(s0)
1d00f290:	b826400f 	jal	0x1d009ae0
1d00f294:	08000426 	addiu	a0,s0,8
1d00f298:	9822400f 	jal	0x1d008a60
1d00f29c:	10000426 	addiu	a0,s0,16
1d00f2a0:	b71f400f 	jal	0x1d007edc
1d00f2a4:	14000426 	addiu	a0,s0,20
1d00f2a8:	7b20400f 	jal	0x1d0081ec
1d00f2ac:	1c000426 	addiu	a0,s0,28
1d00f2b0:	01a0023c 	lui	v0,0xa001
1d00f2b4:	9c324224 	addiu	v0,v0,12956
1d00f2b8:	18024390 	lbu	v1,536(v0)
1d00f2bc:	80ff6324 	addiu	v1,v1,-128
1d00f2c0:	c0180300 	sll	v1,v1,0x3
1d00f2c4:	240003a6 	sh	v1,36(s0)
1d00f2c8:	00a0033c 	lui	v1,0xa000
1d00f2cc:	fe016384 	lh	v1,510(v1)
1d00f2d0:	c0180300 	sll	v1,v1,0x3
1d00f2d4:	260003a6 	sh	v1,38(s0)
1d00f2d8:	1802428c 	lw	v0,536(v0)
1d00f2dc:	800d427c 	ext	v0,v0,0x16,0x2
1d00f2e0:	916c400f 	jal	0x1d01b244
1d00f2e4:	2c0002a2 	sb	v0,44(s0)
1d00f2e8:	8f6c400f 	jal	0x1d01b23c
1d00f2ec:	2d0002a2 	sb	v0,45(s0)
1d00f2f0:	2e0002a2 	sb	v0,46(s0)
1d00f2f4:	2f000226 	addiu	v0,s0,47
1d00f2f8:	01a0033c 	lui	v1,0xa001
1d00f2fc:	7c32678c 	lw	a3,12924(v1)
1d00f300:	7c326324 	addiu	v1,v1,12924
1d00f304:	0400668c 	lw	a2,4(v1)
1d00f308:	0800658c 	lw	a1,8(v1)
1d00f30c:	0c00648c 	lw	a0,12(v1)
1d00f310:	030047a8 	swl	a3,3(v0)
1d00f314:	000047b8 	swr	a3,0(v0)
1d00f318:	070046a8 	swl	a2,7(v0)
1d00f31c:	040046b8 	swr	a2,4(v0)
1d00f320:	0b0045a8 	swl	a1,11(v0)
1d00f324:	080045b8 	swr	a1,8(v0)
1d00f328:	0f0044a8 	swl	a0,15(v0)
1d00f32c:	0c0044b8 	swr	a0,12(v0)
1d00f330:	10006390 	lbu	v1,16(v1)
1d00f334:	e63c400b 	j	0x1d00f398
1d00f338:	100043a0 	sb	v1,16(v0)
1d00f33c:	01000324 	li	v1,1
1d00f340:	03004314 	bne	v0,v1,0x1d00f350
1d00f344:	00000000 	nop
1d00f348:	9a89400f 	jal	0x1d022668
1d00f34c:	00000000 	nop
1d00f350:	aa5c400f 	jal	0x1d0172a8
1d00f354:	00000000 	nop
1d00f358:	10004014 	bnez	v0,0x1d00f39c
1d00f35c:	1c00bf8f 	lw	ra,28(sp)
1d00f360:	21202002 	move	a0,s1
1d00f364:	c67d400f 	jal	0x1d01f718
1d00f368:	21280002 	move	a1,s0
1d00f36c:	0b004014 	bnez	v0,0x1d00f39c
1d00f370:	1c00bf8f 	lw	ra,28(sp)
1d00f374:	21202002 	move	a0,s1
1d00f378:	7177400f 	jal	0x1d01ddc4
1d00f37c:	21280002 	move	a1,s0
1d00f380:	06004014 	bnez	v0,0x1d00f39c
1d00f384:	1c00bf8f 	lw	ra,28(sp)
1d00f388:	21200002 	move	a0,s0
1d00f38c:	21280000 	move	a1,zero
1d00f390:	9288400f 	jal	0x1d022248
1d00f394:	40000624 	li	a2,64
1d00f398:	1c00bf8f 	lw	ra,28(sp)
1d00f39c:	1800b28f 	lw	s2,24(sp)
1d00f3a0:	1400b18f 	lw	s1,20(sp)
1d00f3a4:	1000b08f 	lw	s0,16(sp)
1d00f3a8:	0800e003 	jr	ra
1d00f3ac:	2000bd27 	addiu	sp,sp,32
1d00f3b0:	1000a28f 	lw	v0,16(sp)
1d00f3b4:	000080ac 	sw	zero,0(a0)
1d00f3b8:	0000a2ac 	sw	v0,0(a1)
1d00f3bc:	0000e38c 	lw	v1,0(a3)
1d00f3c0:	2a186600 	slt	v1,v1,a2
1d00f3c4:	03006014 	bnez	v1,0x1d00f3d4
1d00f3c8:	80180200 	sll	v1,v0,0x2
1d00f3cc:	0800e003 	jr	ra
1d00f3d0:	0000a0ac 	sw	zero,0(a1)
1d00f3d4:	2118e300 	addu	v1,a3,v1
1d00f3d8:	0000638c 	lw	v1,0(v1)
1d00f3dc:	2a18c300 	slt	v1,a2,v1
1d00f3e0:	0c006054 	bnezl	v1,0x1d00f414
1d00f3e4:	0000a38c 	lw	v1,0(a1)
1d00f3e8:	0800e003 	jr	ra
1d00f3ec:	000082ac 	sw	v0,0(a0)
1d00f3f0:	42100200 	srl	v0,v0,0x1
1d00f3f4:	80180200 	sll	v1,v0,0x2
1d00f3f8:	2118e300 	addu	v1,a3,v1
1d00f3fc:	0000638c 	lw	v1,0(v1)
1d00f400:	2a18c300 	slt	v1,a2,v1
1d00f404:	02006050 	beqzl	v1,0x1d00f410
1d00f408:	000082ac 	sw	v0,0(a0)
1d00f40c:	0000a2ac 	sw	v0,0(a1)
1d00f410:	0000a38c 	lw	v1,0(a1)
1d00f414:	0000828c 	lw	v0,0(a0)
1d00f418:	23406200 	subu	t0,v1,v0
1d00f41c:	0200082d 	sltiu	t0,t0,2
1d00f420:	f3ff0011 	beqz	t0,0x1d00f3f0
1d00f424:	21104300 	addu	v0,v0,v1
1d00f428:	0800e003 	jr	ra
1d00f42c:	00000000 	nop
1d00f430:	e0ffbd27 	addiu	sp,sp,-32
1d00f434:	1c00bfaf 	sw	ra,28(sp)
1d00f438:	1800b2af 	sw	s2,24(sp)
1d00f43c:	1400b1af 	sw	s1,20(sp)
1d00f440:	1000b0af 	sw	s0,16(sp)
1d00f444:	21488000 	move	t1,a0
1d00f448:	2190c000 	move	s2,a2
1d00f44c:	0000a28c 	lw	v0,0(a1)
1d00f450:	2a104400 	slt	v0,v0,a0
1d00f454:	25004010 	beqz	v0,0x1d00f4ec
1d00f458:	2188e000 	move	s1,a3
1d00f45c:	80100700 	sll	v0,a3,0x2
1d00f460:	2110a200 	addu	v0,a1,v0
1d00f464:	0000428c 	lw	v0,0(v0)
1d00f468:	2a108200 	slt	v0,a0,v0
1d00f46c:	25004050 	beqzl	v0,0x1d00f504
1d00f470:	80881100 	sll	s1,s1,0x2
1d00f474:	0200e32c 	sltiu	v1,a3,2
1d00f478:	10006014 	bnez	v1,0x1d00f4bc
1d00f47c:	42100700 	srl	v0,a3,0x1
1d00f480:	2118e000 	move	v1,a3
1d00f484:	21800000 	move	s0,zero
1d00f488:	80200200 	sll	a0,v0,0x2
1d00f48c:	2120a400 	addu	a0,a1,a0
1d00f490:	0000888c 	lw	t0,0(a0)
1d00f494:	2a402801 	slt	t0,t1,t0
1d00f498:	0b184800 	movn	v1,v0,t0
1d00f49c:	0a804800 	movz	s0,v0,t0
1d00f4a0:	21100302 	addu	v0,s0,v1
1d00f4a4:	23207000 	subu	a0,v1,s0
1d00f4a8:	0200842c 	sltiu	a0,a0,2
1d00f4ac:	f6ff8010 	beqz	a0,0x1d00f488
1d00f4b0:	42100200 	srl	v0,v0,0x1
1d00f4b4:	313d400b 	j	0x1d00f4c4
1d00f4b8:	80101000 	sll	v0,s0,0x2
1d00f4bc:	21800000 	move	s0,zero
1d00f4c0:	80101000 	sll	v0,s0,0x2
1d00f4c4:	2128a200 	addu	a1,a1,v0
1d00f4c8:	0000a28c 	lw	v0,0(a1)
1d00f4cc:	0400a68c 	lw	a2,4(a1)
1d00f4d0:	21200000 	move	a0,zero
1d00f4d4:	23282201 	subu	a1,t1,v0
1d00f4d8:	2330c200 	subu	a2,a2,v0
1d00f4dc:	dc7b400f 	jal	0x1d01ef70
1d00f4e0:	21380000 	move	a3,zero
1d00f4e4:	3d3d400b 	j	0x1d00f4f4
1d00f4e8:	00000000 	nop
1d00f4ec:	21800000 	move	s0,zero
1d00f4f0:	21100000 	move	v0,zero
1d00f4f4:	06001156 	bnel	s0,s1,0x1d00f510
1d00f4f8:	01001026 	addiu	s0,s0,1
1d00f4fc:	21880002 	move	s1,s0
1d00f500:	80881100 	sll	s1,s1,0x2
1d00f504:	21905102 	addu	s2,s2,s1
1d00f508:	533d400b 	j	0x1d00f54c
1d00f50c:	0000428e 	lw	v0,0(s2)
1d00f510:	80801000 	sll	s0,s0,0x2
1d00f514:	21905002 	addu	s2,s2,s0
1d00f518:	fcff438e 	lw	v1,-4(s2)
1d00f51c:	0000458e 	lw	a1,0(s2)
1d00f520:	c33f0500 	sra	a3,a1,0x1f
1d00f524:	c3370300 	sra	a2,v1,0x1f
1d00f528:	2320a300 	subu	a0,a1,v1
1d00f52c:	2b28a400 	sltu	a1,a1,a0
1d00f530:	2330e600 	subu	a2,a3,a2
1d00f534:	2330c500 	subu	a2,a2,a1
1d00f538:	19008200 	multu	a0,v0
1d00f53c:	10280000 	mfhi	a1
1d00f540:	0238c270 	mul	a3,a2,v0
1d00f544:	2110e500 	addu	v0,a3,a1
1d00f548:	21106200 	addu	v0,v1,v0
1d00f54c:	1c00bf8f 	lw	ra,28(sp)
1d00f550:	1800b28f 	lw	s2,24(sp)
1d00f554:	1400b18f 	lw	s1,20(sp)
1d00f558:	1000b08f 	lw	s0,16(sp)
1d00f55c:	0800e003 	jr	ra
1d00f560:	2000bd27 	addiu	sp,sp,32
1d00f564:	d0ffbd27 	addiu	sp,sp,-48
1d00f568:	2c00bfaf 	sw	ra,44(sp)
1d00f56c:	2800b5af 	sw	s5,40(sp)
1d00f570:	2400b4af 	sw	s4,36(sp)
1d00f574:	2000b3af 	sw	s3,32(sp)
1d00f578:	1c00b2af 	sw	s2,28(sp)
1d00f57c:	1800b1af 	sw	s1,24(sp)
1d00f580:	1400b0af 	sw	s0,20(sp)
1d00f584:	21a08000 	move	s4,a0
1d00f588:	2188a000 	move	s1,a1
1d00f58c:	2198c000 	move	s3,a2
1d00f590:	2610e500 	xor	v0,a3,a1
1d00f594:	08004104 	bgez	v0,0x1d00f5b8
1d00f598:	2180e000 	move	s0,a3
1d00f59c:	6b78400f 	jal	0x1d01e1ac
1d00f5a0:	00000000 	nop
1d00f5a4:	25104300 	or	v0,v0,v1
1d00f5a8:	2ba80200 	sltu	s5,zero,v0
1d00f5ac:	23901500 	negu	s2,s5
1d00f5b0:	703d400b 	j	0x1d00f5c0
1d00f5b4:	21a84002 	move	s5,s2
1d00f5b8:	21900000 	move	s2,zero
1d00f5bc:	21a80000 	move	s5,zero
1d00f5c0:	21208002 	move	a0,s4
1d00f5c4:	21282002 	move	a1,s1
1d00f5c8:	21306002 	move	a2,s3
1d00f5cc:	1476400f 	jal	0x1d01d850
1d00f5d0:	21380002 	move	a3,s0
1d00f5d4:	21104202 	addu	v0,s2,v0
1d00f5d8:	2b905200 	sltu	s2,v0,s2
1d00f5dc:	2118a302 	addu	v1,s5,v1
1d00f5e0:	21184302 	addu	v1,s2,v1
1d00f5e4:	2c00bf8f 	lw	ra,44(sp)
1d00f5e8:	2800b58f 	lw	s5,40(sp)
1d00f5ec:	2400b48f 	lw	s4,36(sp)
1d00f5f0:	2000b38f 	lw	s3,32(sp)
1d00f5f4:	1c00b28f 	lw	s2,28(sp)
1d00f5f8:	1800b18f 	lw	s1,24(sp)
1d00f5fc:	1400b08f 	lw	s0,20(sp)
1d00f600:	0800e003 	jr	ra
1d00f604:	3000bd27 	addiu	sp,sp,48
1d00f608:	c0ffbd27 	addiu	sp,sp,-64
1d00f60c:	3c00bfaf 	sw	ra,60(sp)
1d00f610:	3800b5af 	sw	s5,56(sp)
1d00f614:	3400b4af 	sw	s4,52(sp)
1d00f618:	3000b3af 	sw	s3,48(sp)
1d00f61c:	2c00b2af 	sw	s2,44(sp)
1d00f620:	2800b1af 	sw	s1,40(sp)
1d00f624:	2400b0af 	sw	s0,36(sp)
1d00f628:	21808000 	move	s0,a0
1d00f62c:	2190a000 	move	s2,a1
1d00f630:	21a8c000 	move	s5,a2
1d00f634:	21a0e000 	move	s4,a3
1d00f638:	5000a28f 	lw	v0,80(sp)
1d00f63c:	1000a2af 	sw	v0,16(sp)
1d00f640:	1800a427 	addiu	a0,sp,24
1d00f644:	ec3c400f 	jal	0x1d00f3b0
1d00f648:	1c00a527 	addiu	a1,sp,28
1d00f64c:	1c00b38f 	lw	s3,28(sp)
1d00f650:	80981300 	sll	s3,s3,0x2
1d00f654:	21109302 	addu	v0,s4,s3
1d00f658:	0000478c 	lw	a3,0(v0)
1d00f65c:	1800b18f 	lw	s1,24(sp)
1d00f660:	80881100 	sll	s1,s1,0x2
1d00f664:	21a09102 	addu	s4,s4,s1
1d00f668:	0000838e 	lw	v1,0(s4)
1d00f66c:	2a206700 	slt	a0,v1,a3
1d00f670:	0b008010 	beqz	a0,0x1d00f6a0
1d00f674:	21100000 	move	v0,zero
1d00f678:	2320a302 	subu	a0,s5,v1
1d00f67c:	42280400 	srl	a1,a0,0x1
1d00f680:	0080063c 	lui	a2,0x8000
1d00f684:	24108600 	and	v0,a0,a2
1d00f688:	2338e300 	subu	a3,a3,v1
1d00f68c:	c0270400 	sll	a0,a0,0x1f
1d00f690:	2528a200 	or	a1,a1,v0
1d00f694:	2130e000 	move	a2,a3
1d00f698:	593d400f 	jal	0x1d00f564
1d00f69c:	c33f0700 	sra	a3,a3,0x1f
1d00f6a0:	21985302 	addu	s3,s2,s3
1d00f6a4:	0000638e 	lw	v1,0(s3)
1d00f6a8:	000003ae 	sw	v1,0(s0)
1d00f6ac:	21885102 	addu	s1,s2,s1
1d00f6b0:	0000268e 	lw	a2,0(s1)
1d00f6b4:	23306600 	subu	a2,v1,a2
1d00f6b8:	c31f0600 	sra	v1,a2,0x1f
1d00f6bc:	19004600 	multu	v0,a2
1d00f6c0:	12300000 	mflo	a2
1d00f6c4:	10380000 	mfhi	a3
1d00f6c8:	02206270 	mul	a0,v1,v0
1d00f6cc:	21388700 	addu	a3,a0,a3
1d00f6d0:	40100700 	sll	v0,a3,0x1
1d00f6d4:	c2370600 	srl	a2,a2,0x1f
1d00f6d8:	25304600 	or	a2,v0,a2
1d00f6dc:	000006ae 	sw	a2,0(s0)
1d00f6e0:	0000228e 	lw	v0,0(s1)
1d00f6e4:	2130c200 	addu	a2,a2,v0
1d00f6e8:	000006ae 	sw	a2,0(s0)
1d00f6ec:	3c00bf8f 	lw	ra,60(sp)
1d00f6f0:	3800b58f 	lw	s5,56(sp)
1d00f6f4:	3400b48f 	lw	s4,52(sp)
1d00f6f8:	3000b38f 	lw	s3,48(sp)
1d00f6fc:	2c00b28f 	lw	s2,44(sp)
1d00f700:	2800b18f 	lw	s1,40(sp)
1d00f704:	2400b08f 	lw	s0,36(sp)
1d00f708:	0800e003 	jr	ra
1d00f70c:	4000bd27 	addiu	sp,sp,64
1d00f710:	a0febd27 	addiu	sp,sp,-352
1d00f714:	5c01bfaf 	sw	ra,348(sp)
1d00f718:	5801beaf 	sw	s8,344(sp)
1d00f71c:	5401b7af 	sw	s7,340(sp)
1d00f720:	5001b6af 	sw	s6,336(sp)
1d00f724:	4c01b5af 	sw	s5,332(sp)
1d00f728:	4801b4af 	sw	s4,328(sp)
1d00f72c:	4401b3af 	sw	s3,324(sp)
1d00f730:	4001b2af 	sw	s2,320(sp)
1d00f734:	3c01b1af 	sw	s1,316(sp)
1d00f738:	3801b0af 	sw	s0,312(sp)
1d00f73c:	00a0023c 	lui	v0,0xa000
1d00f740:	a8054290 	lbu	v0,1448(v0)
1d00f744:	04004010 	beqz	v0,0x1d00f758
1d00f748:	21300000 	move	a2,zero
1d00f74c:	00a0023c 	lui	v0,0xa000
1d00f750:	a9054690 	lbu	a2,1449(v0)
1d00f754:	2b300600 	sltu	a2,zero,a2
1d00f758:	ff00c630 	andi	a2,a2,0xff
1d00f75c:	00a0023c 	lui	v0,0xa000
1d00f760:	7c0546a0 	sb	a2,1404(v0)
1d00f764:	00a0053c 	lui	a1,0xa000
1d00f768:	dc04a524 	addiu	a1,a1,1244
1d00f76c:	6000a48c 	lw	a0,96(a1)
1d00f770:	c3170400 	sra	v0,a0,0x1f
1d00f774:	26204400 	xor	a0,v0,a0
1d00f778:	23208200 	subu	a0,a0,v0
1d00f77c:	00a0033c 	lui	v1,0xa000
1d00f780:	a8056324 	addiu	v1,v1,1448
1d00f784:	1400678c 	lw	a3,20(v1)
1d00f788:	1800628c 	lw	v0,24(v1)
1d00f78c:	2110e200 	addu	v0,a3,v0
1d00f790:	c3470200 	sra	t0,v0,0x1f
1d00f794:	8f0a073c 	lui	a3,0xa8f
1d00f798:	295ce724 	addiu	a3,a3,23593
1d00f79c:	19004700 	multu	v0,a3
1d00f7a0:	12100000 	mflo	v0
1d00f7a4:	10180000 	mfhi	v1
1d00f7a8:	02480771 	mul	t1,t0,a3
1d00f7ac:	21182301 	addu	v1,t1,v1
1d00f7b0:	401a0300 	sll	v1,v1,0x9
1d00f7b4:	c2150200 	srl	v0,v0,0x17
1d00f7b8:	25106200 	or	v0,v1,v0
1d00f7bc:	0001a2af 	sw	v0,256(sp)
1d00f7c0:	9300a290 	lbu	v0,147(a1)
1d00f7c4:	0d004014 	bnez	v0,0x1d00f7fc
1d00f7c8:	0001b18f 	lw	s1,256(sp)
1d00f7cc:	00a0023c 	lui	v0,0xa000
1d00f7d0:	b8054390 	lbu	v1,1464(v0)
1d00f7d4:	02000224 	li	v0,2
1d00f7d8:	05006214 	bne	v1,v0,0x1d00f7f0
1d00f7dc:	0001aa8f 	lw	t2,256(sp)
1d00f7e0:	c3171100 	sra	v0,s1,0x1f
1d00f7e4:	26885100 	xor	s1,v0,s1
1d00f7e8:	ff3d400b 	j	0x1d00f7fc
1d00f7ec:	23885100 	subu	s1,v0,s1
1d00f7f0:	c3170a00 	sra	v0,t2,0x1f
1d00f7f4:	26884a00 	xor	s1,v0,t2
1d00f7f8:	23882202 	subu	s1,s1,v0
1d00f7fc:	c3171100 	sra	v0,s1,0x1f
1d00f800:	26585100 	xor	t3,v0,s1
1d00f804:	23586201 	subu	t3,t3,v0
1d00f808:	f400abaf 	sw	t3,244(sp)
1d00f80c:	00a0023c 	lui	v0,0xa000
1d00f810:	dc044224 	addiu	v0,v0,1244
1d00f814:	6400458c 	lw	a1,100(v0)
1d00f818:	90004390 	lbu	v1,144(v0)
1d00f81c:	0700632c 	sltiu	v1,v1,7
1d00f820:	89016010 	beqz	v1,0x1d00fe48
1d00f824:	7400478c 	lw	a3,116(v0)
1d00f828:	90004390 	lbu	v1,144(v0)
1d00f82c:	80180300 	sll	v1,v1,0x2
1d00f830:	019d023c 	lui	v0,0x9d01
1d00f834:	48f84224 	addiu	v0,v0,-1976
1d00f838:	21104300 	addu	v0,v0,v1
1d00f83c:	0000428c 	lw	v0,0(v0)
1d00f840:	08004000 	jr	v0
1d00f844:	00000000 	nop
1d00f848:	48fe009d 	0x9d00fe48
1d00f84c:	64f8009d 	0x9d00f864
1d00f850:	bcf9009d 	0x9d00f9bc
1d00f854:	54fa009d 	0x9d00fa54
1d00f858:	2cfb009d 	0x9d00fb2c
1d00f85c:	c8fb009d 	0x9d00fbc8
1d00f860:	64fc009d 	0x9d00fc64
1d00f864:	0d00c014 	bnez	a2,0x1d00f89c
1d00f868:	0004023c 	lui	v0,0x400
1d00f86c:	00a0023c 	lui	v0,0xa000
1d00f870:	dc044224 	addiu	v0,v0,1244
1d00f874:	02000324 	li	v1,2
1d00f878:	900043a0 	sb	v1,144(v0)
1d00f87c:	910040a0 	sb	zero,145(v0)
1d00f880:	8c0040a0 	sb	zero,140(v0)
1d00f884:	8d0040a0 	sb	zero,141(v0)
1d00f888:	8e0040a0 	sb	zero,142(v0)
1d00f88c:	00a0033c 	lui	v1,0xa000
1d00f890:	a40560a0 	sb	zero,1444(v1)
1d00f894:	c33f400b 	j	0x1d00ff0c
1d00f898:	920040a0 	sb	zero,146(v0)
1d00f89c:	2a108200 	slt	v0,a0,v0
1d00f8a0:	1e004010 	beqz	v0,0x1d00f91c
1d00f8a4:	00a0023c 	lui	v0,0xa000
1d00f8a8:	00a0023c 	lui	v0,0xa000
1d00f8ac:	ac05428c 	lw	v0,1452(v0)
1d00f8b0:	0f004050 	beqzl	v0,0x1d00f8f0
1d00f8b4:	00a0023c 	lui	v0,0xa000
1d00f8b8:	05004018 	blez	v0,0x1d00f8d0
1d00f8bc:	00a0033c 	lui	v1,0xa000
1d00f8c0:	b8056790 	lbu	a3,1464(v1)
1d00f8c4:	02000324 	li	v1,2
1d00f8c8:	0900e350 	beql	a3,v1,0x1d00f8f0
1d00f8cc:	00a0023c 	lui	v0,0xa000
1d00f8d0:	12004104 	bgez	v0,0x1d00f91c
1d00f8d4:	00a0023c 	lui	v0,0xa000
1d00f8d8:	00a0023c 	lui	v0,0xa000
1d00f8dc:	b8054390 	lbu	v1,1464(v0)
1d00f8e0:	04000224 	li	v0,4
1d00f8e4:	0d006214 	bne	v1,v0,0x1d00f91c
1d00f8e8:	00a0023c 	lui	v0,0xa000
1d00f8ec:	00a0023c 	lui	v0,0xa000
1d00f8f0:	dc044224 	addiu	v0,v0,1244
1d00f8f4:	06000324 	li	v1,6
1d00f8f8:	900043a0 	sb	v1,144(v0)
1d00f8fc:	910040a0 	sb	zero,145(v0)
1d00f900:	8c0040a0 	sb	zero,140(v0)
1d00f904:	01000324 	li	v1,1
1d00f908:	8d0043a0 	sb	v1,141(v0)
1d00f90c:	8e0040a0 	sb	zero,142(v0)
1d00f910:	00a0023c 	lui	v0,0xa000
1d00f914:	c33f400b 	j	0x1d00ff0c
1d00f918:	a40543a0 	sb	v1,1444(v0)
1d00f91c:	0406428c 	lw	v0,1540(v0)
1d00f920:	0080033c 	lui	v1,0x8000
1d00f924:	03004314 	bne	v0,v1,0x1d00f934
1d00f928:	23180200 	negu	v1,v0
1d00f92c:	ff7f033c 	lui	v1,0x7fff
1d00f930:	ffff6334 	ori	v1,v1,0xffff
1d00f934:	2a104500 	slt	v0,v0,a1
1d00f938:	16004010 	beqz	v0,0x1d00f994
1d00f93c:	00a0023c 	lui	v0,0xa000
1d00f940:	f400ac8f 	lw	t4,244(sp)
1d00f944:	23208c00 	subu	a0,a0,t4
1d00f948:	0800801c 	bgtz	a0,0x1d00f96c
1d00f94c:	dc044224 	addiu	v0,v0,1244
1d00f950:	00a0023c 	lui	v0,0xa000
1d00f954:	c405428c 	lw	v0,1476(v0)
1d00f958:	2328a200 	subu	a1,a1,v0
1d00f95c:	2a186500 	slt	v1,v1,a1
1d00f960:	0c006010 	beqz	v1,0x1d00f994
1d00f964:	00a0023c 	lui	v0,0xa000
1d00f968:	dc044224 	addiu	v0,v0,1244
1d00f96c:	07000324 	li	v1,7
1d00f970:	900043a0 	sb	v1,144(v0)
1d00f974:	8e0040a0 	sb	zero,142(v0)
1d00f978:	02000324 	li	v1,2
1d00f97c:	8c0043a0 	sb	v1,140(v0)
1d00f980:	8d0040a0 	sb	zero,141(v0)
1d00f984:	04000324 	li	v1,4
1d00f988:	00a0023c 	lui	v0,0xa000
1d00f98c:	c33f400b 	j	0x1d00ff0c
1d00f990:	a40543a0 	sb	v1,1444(v0)
1d00f994:	dc044224 	addiu	v0,v0,1244
1d00f998:	8e0040a0 	sb	zero,142(v0)
1d00f99c:	01000324 	li	v1,1
1d00f9a0:	8c0043a0 	sb	v1,140(v0)
1d00f9a4:	02000324 	li	v1,2
1d00f9a8:	8d0043a0 	sb	v1,141(v0)
1d00f9ac:	00a0043c 	lui	a0,0xa000
1d00f9b0:	a40583a0 	sb	v1,1444(a0)
1d00f9b4:	c33f400b 	j	0x1d00ff0c
1d00f9b8:	920040a0 	sb	zero,146(v0)
1d00f9bc:	1c00c010 	beqz	a2,0x1d00fa30
1d00f9c0:	00a0023c 	lui	v0,0xa000
1d00f9c4:	00a0023c 	lui	v0,0xa000
1d00f9c8:	b8054390 	lbu	v1,1464(v0)
1d00f9cc:	01000224 	li	v0,1
1d00f9d0:	0c006214 	bne	v1,v0,0x1d00fa04
1d00f9d4:	00a0023c 	lui	v0,0xa000
1d00f9d8:	dc044224 	addiu	v0,v0,1244
1d00f9dc:	06000324 	li	v1,6
1d00f9e0:	900043a0 	sb	v1,144(v0)
1d00f9e4:	910040a0 	sb	zero,145(v0)
1d00f9e8:	8c0040a0 	sb	zero,140(v0)
1d00f9ec:	01000324 	li	v1,1
1d00f9f0:	8d0043a0 	sb	v1,141(v0)
1d00f9f4:	8e0040a0 	sb	zero,142(v0)
1d00f9f8:	00a0023c 	lui	v0,0xa000
1d00f9fc:	c33f400b 	j	0x1d00ff0c
1d00fa00:	a40543a0 	sb	v1,1444(v0)
1d00fa04:	dc044224 	addiu	v0,v0,1244
1d00fa08:	07000324 	li	v1,7
1d00fa0c:	900043a0 	sb	v1,144(v0)
1d00fa10:	8e0040a0 	sb	zero,142(v0)
1d00fa14:	02000324 	li	v1,2
1d00fa18:	8c0043a0 	sb	v1,140(v0)
1d00fa1c:	8d0040a0 	sb	zero,141(v0)
1d00fa20:	04000324 	li	v1,4
1d00fa24:	00a0023c 	lui	v0,0xa000
1d00fa28:	c33f400b 	j	0x1d00ff0c
1d00fa2c:	a40543a0 	sb	v1,1444(v0)
1d00fa30:	dc044224 	addiu	v0,v0,1244
1d00fa34:	910040a0 	sb	zero,145(v0)
1d00fa38:	8c0040a0 	sb	zero,140(v0)
1d00fa3c:	8d0040a0 	sb	zero,141(v0)
1d00fa40:	8e0040a0 	sb	zero,142(v0)
1d00fa44:	00a0033c 	lui	v1,0xa000
1d00fa48:	a40560a0 	sb	zero,1444(v1)
1d00fa4c:	c33f400b 	j	0x1d00ff0c
1d00fa50:	920040a0 	sb	zero,146(v0)
1d00fa54:	0d00c014 	bnez	a2,0x1d00fa8c
1d00fa58:	00a0023c 	lui	v0,0xa000
1d00fa5c:	00a0023c 	lui	v0,0xa000
1d00fa60:	dc044224 	addiu	v0,v0,1244
1d00fa64:	02000324 	li	v1,2
1d00fa68:	900043a0 	sb	v1,144(v0)
1d00fa6c:	910040a0 	sb	zero,145(v0)
1d00fa70:	8c0040a0 	sb	zero,140(v0)
1d00fa74:	8d0040a0 	sb	zero,141(v0)
1d00fa78:	8e0040a0 	sb	zero,142(v0)
1d00fa7c:	00a0033c 	lui	v1,0xa000
1d00fa80:	a40560a0 	sb	zero,1444(v1)
1d00fa84:	c33f400b 	j	0x1d00ff0c
1d00fa88:	920040a0 	sb	zero,146(v0)
1d00fa8c:	6d054290 	lbu	v0,1389(v0)
1d00fa90:	1400432c 	sltiu	v1,v0,20
1d00fa94:	21066054 	bnezl	v1,0x1d01131c
1d00fa98:	01004224 	addiu	v0,v0,1
1d00fa9c:	00a0033c 	lui	v1,0xa000
1d00faa0:	ac05638c 	lw	v1,1452(v1)
1d00faa4:	10006104 	bgez	v1,0x1d00fae8
1d00faa8:	00a0043c 	lui	a0,0xa000
1d00faac:	b8058590 	lbu	a1,1464(a0)
1d00fab0:	02000424 	li	a0,2
1d00fab4:	0c00a410 	beq	a1,a0,0x1d00fae8
1d00fab8:	00000000 	nop
1d00fabc:	00a0023c 	lui	v0,0xa000
1d00fac0:	dc044224 	addiu	v0,v0,1244
1d00fac4:	05000324 	li	v1,5
1d00fac8:	900043a0 	sb	v1,144(v0)
1d00facc:	8e0044a0 	sb	a0,142(v0)
1d00fad0:	8c0040a0 	sb	zero,140(v0)
1d00fad4:	01000424 	li	a0,1
1d00fad8:	8d0044a0 	sb	a0,141(v0)
1d00fadc:	00a0023c 	lui	v0,0xa000
1d00fae0:	c33f400b 	j	0x1d00ff0c
1d00fae4:	a40543a0 	sb	v1,1444(v0)
1d00fae8:	0b066018 	blez	v1,0x1d011318
1d00faec:	00a0033c 	lui	v1,0xa000
1d00faf0:	b8056490 	lbu	a0,1464(v1)
1d00faf4:	04000324 	li	v1,4
1d00faf8:	08068310 	beq	a0,v1,0x1d01131c
1d00fafc:	01004224 	addiu	v0,v0,1
1d00fb00:	00a0023c 	lui	v0,0xa000
1d00fb04:	dc044224 	addiu	v0,v0,1244
1d00fb08:	900043a0 	sb	v1,144(v0)
1d00fb0c:	8e0043a0 	sb	v1,142(v0)
1d00fb10:	8c0040a0 	sb	zero,140(v0)
1d00fb14:	01000324 	li	v1,1
1d00fb18:	8d0043a0 	sb	v1,141(v0)
1d00fb1c:	06000324 	li	v1,6
1d00fb20:	00a0023c 	lui	v0,0xa000
1d00fb24:	c33f400b 	j	0x1d00ff0c
1d00fb28:	a40543a0 	sb	v1,1444(v0)
1d00fb2c:	0d00c014 	bnez	a2,0x1d00fb64
1d00fb30:	00a0023c 	lui	v0,0xa000
1d00fb34:	00a0023c 	lui	v0,0xa000
1d00fb38:	dc044224 	addiu	v0,v0,1244
1d00fb3c:	02000324 	li	v1,2
1d00fb40:	900043a0 	sb	v1,144(v0)
1d00fb44:	910040a0 	sb	zero,145(v0)
1d00fb48:	8c0040a0 	sb	zero,140(v0)
1d00fb4c:	8d0040a0 	sb	zero,141(v0)
1d00fb50:	8e0040a0 	sb	zero,142(v0)
1d00fb54:	00a0033c 	lui	v1,0xa000
1d00fb58:	a40560a0 	sb	zero,1444(v1)
1d00fb5c:	c33f400b 	j	0x1d00ff0c
1d00fb60:	920040a0 	sb	zero,146(v0)
1d00fb64:	b8054390 	lbu	v1,1464(v0)
1d00fb68:	04000224 	li	v0,4
1d00fb6c:	0c006214 	bne	v1,v0,0x1d00fba0
1d00fb70:	00a0023c 	lui	v0,0xa000
1d00fb74:	dc044224 	addiu	v0,v0,1244
1d00fb78:	06000324 	li	v1,6
1d00fb7c:	900043a0 	sb	v1,144(v0)
1d00fb80:	910040a0 	sb	zero,145(v0)
1d00fb84:	8c0040a0 	sb	zero,140(v0)
1d00fb88:	01000324 	li	v1,1
1d00fb8c:	8d0043a0 	sb	v1,141(v0)
1d00fb90:	8e0040a0 	sb	zero,142(v0)
1d00fb94:	00a0023c 	lui	v0,0xa000
1d00fb98:	c33f400b 	j	0x1d00ff0c
1d00fb9c:	a40543a0 	sb	v1,1444(v0)
1d00fba0:	dc044224 	addiu	v0,v0,1244
1d00fba4:	04000324 	li	v1,4
1d00fba8:	8e0043a0 	sb	v1,142(v0)
1d00fbac:	8c0040a0 	sb	zero,140(v0)
1d00fbb0:	01000324 	li	v1,1
1d00fbb4:	8d0043a0 	sb	v1,141(v0)
1d00fbb8:	06000324 	li	v1,6
1d00fbbc:	00a0023c 	lui	v0,0xa000
1d00fbc0:	c33f400b 	j	0x1d00ff0c
1d00fbc4:	a40543a0 	sb	v1,1444(v0)
1d00fbc8:	0d00c014 	bnez	a2,0x1d00fc00
1d00fbcc:	00a0023c 	lui	v0,0xa000
1d00fbd0:	00a0023c 	lui	v0,0xa000
1d00fbd4:	dc044224 	addiu	v0,v0,1244
1d00fbd8:	02000324 	li	v1,2
1d00fbdc:	900043a0 	sb	v1,144(v0)
1d00fbe0:	910040a0 	sb	zero,145(v0)
1d00fbe4:	8c0040a0 	sb	zero,140(v0)
1d00fbe8:	8d0040a0 	sb	zero,141(v0)
1d00fbec:	8e0040a0 	sb	zero,142(v0)
1d00fbf0:	00a0033c 	lui	v1,0xa000
1d00fbf4:	a40560a0 	sb	zero,1444(v1)
1d00fbf8:	c33f400b 	j	0x1d00ff0c
1d00fbfc:	920040a0 	sb	zero,146(v0)
1d00fc00:	b8054390 	lbu	v1,1464(v0)
1d00fc04:	02000224 	li	v0,2
1d00fc08:	0c006214 	bne	v1,v0,0x1d00fc3c
1d00fc0c:	00a0023c 	lui	v0,0xa000
1d00fc10:	dc044224 	addiu	v0,v0,1244
1d00fc14:	06000324 	li	v1,6
1d00fc18:	900043a0 	sb	v1,144(v0)
1d00fc1c:	910040a0 	sb	zero,145(v0)
1d00fc20:	8c0040a0 	sb	zero,140(v0)
1d00fc24:	01000324 	li	v1,1
1d00fc28:	8d0043a0 	sb	v1,141(v0)
1d00fc2c:	8e0040a0 	sb	zero,142(v0)
1d00fc30:	00a0023c 	lui	v0,0xa000
1d00fc34:	c33f400b 	j	0x1d00ff0c
1d00fc38:	a40543a0 	sb	v1,1444(v0)
1d00fc3c:	dc044224 	addiu	v0,v0,1244
1d00fc40:	02000324 	li	v1,2
1d00fc44:	8e0043a0 	sb	v1,142(v0)
1d00fc48:	8c0040a0 	sb	zero,140(v0)
1d00fc4c:	01000324 	li	v1,1
1d00fc50:	8d0043a0 	sb	v1,141(v0)
1d00fc54:	05000324 	li	v1,5
1d00fc58:	00a0023c 	lui	v0,0xa000
1d00fc5c:	c33f400b 	j	0x1d00ff0c
1d00fc60:	a40543a0 	sb	v1,1444(v0)
1d00fc64:	0d00c014 	bnez	a2,0x1d00fc9c
1d00fc68:	c3170400 	sra	v0,a0,0x1f
1d00fc6c:	00a0023c 	lui	v0,0xa000
1d00fc70:	dc044224 	addiu	v0,v0,1244
1d00fc74:	02000324 	li	v1,2
1d00fc78:	900043a0 	sb	v1,144(v0)
1d00fc7c:	910040a0 	sb	zero,145(v0)
1d00fc80:	8c0040a0 	sb	zero,140(v0)
1d00fc84:	8d0040a0 	sb	zero,141(v0)
1d00fc88:	8e0040a0 	sb	zero,142(v0)
1d00fc8c:	00a0033c 	lui	v1,0xa000
1d00fc90:	a40560a0 	sb	zero,1444(v1)
1d00fc94:	c33f400b 	j	0x1d00ff0c
1d00fc98:	920040a0 	sb	zero,146(v0)
1d00fc9c:	c21d0400 	srl	v1,a0,0x17
1d00fca0:	40120200 	sll	v0,v0,0x9
1d00fca4:	25106200 	or	v0,v1,v0
1d00fca8:	0800401c 	bgtz	v0,0x1d00fccc
1d00fcac:	40220400 	sll	a0,a0,0x9
1d00fcb0:	21004014 	bnez	v0,0x1d00fd38
1d00fcb4:	f400ad8f 	lw	t5,244(sp)
1d00fcb8:	6666023c 	lui	v0,0x6666
1d00fcbc:	67664224 	addiu	v0,v0,26215
1d00fcc0:	2b108200 	sltu	v0,a0,v0
1d00fcc4:	1d004014 	bnez	v0,0x1d00fd3c
1d00fcc8:	c3170d00 	sra	v0,t5,0x1f
1d00fccc:	00a0023c 	lui	v0,0xa000
1d00fcd0:	ac05428c 	lw	v0,1452(v0)
1d00fcd4:	05004104 	bgez	v0,0x1d00fcec
1d00fcd8:	00a0033c 	lui	v1,0xa000
1d00fcdc:	b8056490 	lbu	a0,1464(v1)
1d00fce0:	02000324 	li	v1,2
1d00fce4:	08008350 	beql	a0,v1,0x1d00fd08
1d00fce8:	00a0023c 	lui	v0,0xa000
1d00fcec:	11004018 	blez	v0,0x1d00fd34
1d00fcf0:	00a0023c 	lui	v0,0xa000
1d00fcf4:	b8054390 	lbu	v1,1464(v0)
1d00fcf8:	04000224 	li	v0,4
1d00fcfc:	0e006254 	bnel	v1,v0,0x1d00fd38
1d00fd00:	f400ad8f 	lw	t5,244(sp)
1d00fd04:	00a0023c 	lui	v0,0xa000
1d00fd08:	dc044224 	addiu	v0,v0,1244
1d00fd0c:	01000324 	li	v1,1
1d00fd10:	900043a0 	sb	v1,144(v0)
1d00fd14:	8e0040a0 	sb	zero,142(v0)
1d00fd18:	8c0043a0 	sb	v1,140(v0)
1d00fd1c:	02000324 	li	v1,2
1d00fd20:	8d0043a0 	sb	v1,141(v0)
1d00fd24:	00a0043c 	lui	a0,0xa000
1d00fd28:	a40583a0 	sb	v1,1444(a0)
1d00fd2c:	c33f400b 	j	0x1d00ff0c
1d00fd30:	920040a0 	sb	zero,146(v0)
1d00fd34:	f400ad8f 	lw	t5,244(sp)
1d00fd38:	c3170d00 	sra	v0,t5,0x1f
1d00fd3c:	421e0d00 	srl	v1,t5,0x19
1d00fd40:	c0110200 	sll	v0,v0,0x7
1d00fd44:	25106200 	or	v0,v1,v0
1d00fd48:	3500401c 	bgtz	v0,0x1d00fe20
1d00fd4c:	c0190d00 	sll	v1,t5,0x7
1d00fd50:	07004014 	bnez	v0,0x1d00fd70
1d00fd54:	00a0023c 	lui	v0,0xa000
1d00fd58:	3333023c 	lui	v0,0x3333
1d00fd5c:	33334224 	addiu	v0,v0,13107
1d00fd60:	2b106200 	sltu	v0,v1,v0
1d00fd64:	2f004010 	beqz	v0,0x1d00fe24
1d00fd68:	00a0023c 	lui	v0,0xa000
1d00fd6c:	00a0023c 	lui	v0,0xa000
1d00fd70:	aa054290 	lbu	v0,1450(v0)
1d00fd74:	2b004010 	beqz	v0,0x1d00fe24
1d00fd78:	00a0023c 	lui	v0,0xa000
1d00fd7c:	00a0023c 	lui	v0,0xa000
1d00fd80:	ab054290 	lbu	v0,1451(v0)
1d00fd84:	06004014 	bnez	v0,0x1d00fda0
1d00fd88:	00a0023c 	lui	v0,0xa000
1d00fd8c:	00a0023c 	lui	v0,0xa000
1d00fd90:	b8054390 	lbu	v1,1464(v0)
1d00fd94:	01000224 	li	v0,1
1d00fd98:	21006210 	beq	v1,v0,0x1d00fe20
1d00fd9c:	00a0023c 	lui	v0,0xa000
1d00fda0:	ac05428c 	lw	v0,1452(v0)
1d00fda4:	05004104 	bgez	v0,0x1d00fdbc
1d00fda8:	00a0033c 	lui	v1,0xa000
1d00fdac:	b8056490 	lbu	a0,1464(v1)
1d00fdb0:	02000324 	li	v1,2
1d00fdb4:	07008354 	bnel	a0,v1,0x1d00fdd4
1d00fdb8:	00a0023c 	lui	v0,0xa000
1d00fdbc:	18004018 	blez	v0,0x1d00fe20
1d00fdc0:	00a0023c 	lui	v0,0xa000
1d00fdc4:	b8054390 	lbu	v1,1464(v0)
1d00fdc8:	04000224 	li	v0,4
1d00fdcc:	14006210 	beq	v1,v0,0x1d00fe20
1d00fdd0:	00a0023c 	lui	v0,0xa000
1d00fdd4:	dc044224 	addiu	v0,v0,1244
1d00fdd8:	03000324 	li	v1,3
1d00fddc:	900043a0 	sb	v1,144(v0)
1d00fde0:	91004290 	lbu	v0,145(v0)
1d00fde4:	01004224 	addiu	v0,v0,1
1d00fde8:	0001442c 	sltiu	a0,v0,256
1d00fdec:	ff000324 	li	v1,255
1d00fdf0:	0b184400 	movn	v1,v0,a0
1d00fdf4:	00a0023c 	lui	v0,0xa000
1d00fdf8:	dc044224 	addiu	v0,v0,1244
1d00fdfc:	910043a0 	sb	v1,145(v0)
1d00fe00:	8e0040a0 	sb	zero,142(v0)
1d00fe04:	8c0040a0 	sb	zero,140(v0)
1d00fe08:	01000324 	li	v1,1
1d00fe0c:	8d0043a0 	sb	v1,141(v0)
1d00fe10:	03000324 	li	v1,3
1d00fe14:	00a0023c 	lui	v0,0xa000
1d00fe18:	c33f400b 	j	0x1d00ff0c
1d00fe1c:	a40543a0 	sb	v1,1444(v0)
1d00fe20:	00a0023c 	lui	v0,0xa000
1d00fe24:	dc044224 	addiu	v0,v0,1244
1d00fe28:	910040a0 	sb	zero,145(v0)
1d00fe2c:	8c0040a0 	sb	zero,140(v0)
1d00fe30:	01000324 	li	v1,1
1d00fe34:	8d0043a0 	sb	v1,141(v0)
1d00fe38:	8e0040a0 	sb	zero,142(v0)
1d00fe3c:	00a0023c 	lui	v0,0xa000
1d00fe40:	c33f400b 	j	0x1d00ff0c
1d00fe44:	a40543a0 	sb	v1,1444(v0)
1d00fe48:	0c00c014 	bnez	a2,0x1d00fe7c
1d00fe4c:	00a0023c 	lui	v0,0xa000
1d00fe50:	dc044224 	addiu	v0,v0,1244
1d00fe54:	02000324 	li	v1,2
1d00fe58:	900043a0 	sb	v1,144(v0)
1d00fe5c:	910040a0 	sb	zero,145(v0)
1d00fe60:	8c0040a0 	sb	zero,140(v0)
1d00fe64:	8d0040a0 	sb	zero,141(v0)
1d00fe68:	8e0040a0 	sb	zero,142(v0)
1d00fe6c:	00a0033c 	lui	v1,0xa000
1d00fe70:	a40560a0 	sb	zero,1444(v1)
1d00fe74:	c33f400b 	j	0x1d00ff0c
1d00fe78:	920040a0 	sb	zero,146(v0)
1d00fe7c:	1700e01c 	bgtz	a3,0x1d00fedc
1d00fe80:	00a0023c 	lui	v0,0xa000
1d00fe84:	00a0023c 	lui	v0,0xa000
1d00fe88:	6e054290 	lbu	v0,1390(v0)
1d00fe8c:	0a00432c 	sltiu	v1,v0,10
1d00fe90:	16056050 	beqzl	v1,0x1d0112ec
1d00fe94:	00a0023c 	lui	v0,0xa000
1d00fe98:	01004224 	addiu	v0,v0,1
1d00fe9c:	0001442c 	sltiu	a0,v0,256
1d00fea0:	ff000324 	li	v1,255
1d00fea4:	0b184400 	movn	v1,v0,a0
1d00fea8:	00a0023c 	lui	v0,0xa000
1d00feac:	dc044224 	addiu	v0,v0,1244
1d00feb0:	920043a0 	sb	v1,146(v0)
1d00feb4:	07000324 	li	v1,7
1d00feb8:	900043a0 	sb	v1,144(v0)
1d00febc:	8e0040a0 	sb	zero,142(v0)
1d00fec0:	02000324 	li	v1,2
1d00fec4:	8c0043a0 	sb	v1,140(v0)
1d00fec8:	8d0040a0 	sb	zero,141(v0)
1d00fecc:	04000324 	li	v1,4
1d00fed0:	00a0023c 	lui	v0,0xa000
1d00fed4:	c33f400b 	j	0x1d00ff0c
1d00fed8:	a40543a0 	sb	v1,1444(v0)
1d00fedc:	0406428c 	lw	v0,1540(v0)
1d00fee0:	2a28a200 	slt	a1,a1,v0
1d00fee4:	0105a014 	bnez	a1,0x1d0112ec
1d00fee8:	00a0023c 	lui	v0,0xa000
1d00feec:	dc044224 	addiu	v0,v0,1244
1d00fef0:	8e0040a0 	sb	zero,142(v0)
1d00fef4:	02000324 	li	v1,2
1d00fef8:	8c0043a0 	sb	v1,140(v0)
1d00fefc:	8d0040a0 	sb	zero,141(v0)
1d00ff00:	04000324 	li	v1,4
1d00ff04:	00a0023c 	lui	v0,0xa000
1d00ff08:	a40543a0 	sb	v1,1444(v0)
1d00ff0c:	00a0023c 	lui	v0,0xa000
1d00ff10:	a8054224 	addiu	v0,v0,1448
1d00ff14:	10004390 	lbu	v1,16(v0)
1d00ff18:	0600632c 	sltiu	v1,v1,6
1d00ff1c:	45006050 	beqzl	v1,0x1d010034
1d00ff20:	1c01a0af 	sw	zero,284(sp)
1d00ff24:	10004390 	lbu	v1,16(v0)
1d00ff28:	80180300 	sll	v1,v1,0x2
1d00ff2c:	019d023c 	lui	v0,0x9d01
1d00ff30:	44ff4224 	addiu	v0,v0,-188
1d00ff34:	21104300 	addu	v0,v0,v1
1d00ff38:	0000428c 	lw	v0,0(v0)
1d00ff3c:	08004000 	jr	v0
1d00ff40:	00000000 	nop
1d00ff44:	3000019d 	0x9d010030
1d00ff48:	5cff009d 	0x9d00ff5c
1d00ff4c:	88ff009d 	0x9d00ff88
1d00ff50:	acff009d 	0x9d00ffac
1d00ff54:	d8ff009d 	0x9d00ffd8
1d00ff58:	0400019d 	0x9d010004
1d00ff5c:	00a0023c 	lui	v0,0xa000
1d00ff60:	ac05438c 	lw	v1,1452(v0)
1d00ff64:	00ff023c 	lui	v0,0xff00
1d00ff68:	2a206200 	slt	a0,v1,v0
1d00ff6c:	0b184400 	movn	v1,v0,a0
1d00ff70:	0001023c 	lui	v0,0x100
1d00ff74:	01004424 	addiu	a0,v0,1
1d00ff78:	2a206400 	slt	a0,v1,a0
1d00ff7c:	0b106400 	movn	v0,v1,a0
1d00ff80:	0d40400b 	j	0x1d010034
1d00ff84:	1c01a2af 	sw	v0,284(sp)
1d00ff88:	00a0023c 	lui	v0,0xa000
1d00ff8c:	ac05428c 	lw	v0,1452(v0)
1d00ff90:	00f2033c 	lui	v1,0xf200
1d00ff94:	2a204300 	slt	a0,v0,v1
1d00ff98:	0b106400 	movn	v0,v1,a0
1d00ff9c:	01004328 	slti	v1,v0,1
1d00ffa0:	0a100300 	movz	v0,zero,v1
1d00ffa4:	0d40400b 	j	0x1d010034
1d00ffa8:	1c01a2af 	sw	v0,284(sp)
1d00ffac:	00a0023c 	lui	v0,0xa000
1d00ffb0:	ac05438c 	lw	v1,1452(v0)
1d00ffb4:	00ff023c 	lui	v0,0xff00
1d00ffb8:	2a206200 	slt	a0,v1,v0
1d00ffbc:	0b184400 	movn	v1,v0,a0
1d00ffc0:	0001023c 	lui	v0,0x100
1d00ffc4:	01004424 	addiu	a0,v0,1
1d00ffc8:	2a206400 	slt	a0,v1,a0
1d00ffcc:	0b106400 	movn	v0,v1,a0
1d00ffd0:	0d40400b 	j	0x1d010034
1d00ffd4:	1c01a2af 	sw	v0,284(sp)
1d00ffd8:	00a0023c 	lui	v0,0xa000
1d00ffdc:	ac05428c 	lw	v0,1452(v0)
1d00ffe0:	00004328 	slti	v1,v0,0
1d00ffe4:	0b100300 	movn	v0,zero,v1
1d00ffe8:	21184000 	move	v1,v0
1d00ffec:	005a023c 	lui	v0,0x5a00
1d00fff0:	01004424 	addiu	a0,v0,1
1d00fff4:	2a206400 	slt	a0,v1,a0
1d00fff8:	0b106400 	movn	v0,v1,a0
1d00fffc:	0d40400b 	j	0x1d010034

Disassembly of section .sec67:

1d010000 <.sec67>:
1d010000:	1c01a2af 	sw	v0,284(sp)
1d010004:	00a0023c 	lui	v0,0xa000
1d010008:	ac05428c 	lw	v0,1452(v0)
1d01000c:	00004328 	slti	v1,v0,0
1d010010:	0b100300 	movn	v0,zero,v1
1d010014:	21184000 	move	v1,v0
1d010018:	005a023c 	lui	v0,0x5a00
1d01001c:	01004424 	addiu	a0,v0,1
1d010020:	2a206400 	slt	a0,v1,a0
1d010024:	0b106400 	movn	v0,v1,a0
1d010028:	0d40400b 	j	0x1d010034
1d01002c:	1c01a2af 	sw	v0,284(sp)
1d010030:	1c01a0af 	sw	zero,284(sp)
1d010034:	1c01ae8f 	lw	t6,284(sp)
1d010038:	43710e00 	sra	t6,t6,0x5
1d01003c:	3001aeaf 	sw	t6,304(sp)
1d010040:	00a0023c 	lui	v0,0xa000
1d010044:	dc044224 	addiu	v0,v0,1244
1d010048:	1c00a327 	addiu	v1,sp,28
1d01004c:	60004424 	addiu	a0,v0,96
1d010050:	0000498c 	lw	t1,0(v0)
1d010054:	0400488c 	lw	t0,4(v0)
1d010058:	0800478c 	lw	a3,8(v0)
1d01005c:	0c00458c 	lw	a1,12(v0)
1d010060:	000069ac 	sw	t1,0(v1)
1d010064:	040068ac 	sw	t0,4(v1)
1d010068:	080067ac 	sw	a3,8(v1)
1d01006c:	0c0065ac 	sw	a1,12(v1)
1d010070:	10004224 	addiu	v0,v0,16
1d010074:	f6ff4414 	bne	v0,a0,0x1d010050
1d010078:	10006324 	addiu	v1,v1,16
1d01007c:	3001a28f 	lw	v0,304(sp)
1d010080:	7c00a2af 	sw	v0,124(sp)
1d010084:	2000a227 	addiu	v0,sp,32
1d010088:	8000a327 	addiu	v1,sp,128
1d01008c:	21486000 	move	t1,v1
1d010090:	0000458c 	lw	a1,0(v0)
1d010094:	fcff448c 	lw	a0,-4(v0)
1d010098:	2320a400 	subu	a0,a1,a0
1d01009c:	03008304 	bgezl	a0,0x1d0100ac
1d0100a0:	000064ac 	sw	a0,0(v1)
1d0100a4:	23200400 	negu	a0,a0
1d0100a8:	000064ac 	sw	a0,0(v1)
1d0100ac:	04004224 	addiu	v0,v0,4
1d0100b0:	f7ff4914 	bne	v0,t1,0x1d010090
1d0100b4:	04006324 	addiu	v1,v1,4
1d0100b8:	00a0023c 	lui	v0,0xa000
1d0100bc:	6b054290 	lbu	v0,1387(v0)
1d0100c0:	0e00422c 	sltiu	v0,v0,14
1d0100c4:	01004238 	xori	v0,v0,0x1
1d0100c8:	2500c010 	beqz	a2,0x1d010160
1d0100cc:	2401a2af 	sw	v0,292(sp)
1d0100d0:	25004010 	beqz	v0,0x1d010168
1d0100d4:	e000aa27 	addiu	t2,sp,224
1d0100d8:	029d0b3c 	lui	t3,0x9d02
1d0100dc:	60196b25 	addiu	t3,t3,6496
1d0100e0:	ec00ad27 	addiu	t5,sp,236
1d0100e4:	21604001 	move	t4,t2
1d0100e8:	1c00a427 	addiu	a0,sp,28
1d0100ec:	21306001 	move	a2,t3
1d0100f0:	21380000 	move	a3,zero
1d0100f4:	0000c58c 	lw	a1,0(a2)
1d0100f8:	c3170500 	sra	v0,a1,0x1f
1d0100fc:	0000838c 	lw	v1,0(a0)
1d010100:	c3470300 	sra	t0,v1,0x1f
1d010104:	18000501 	mult	t0,a1
1d010108:	00004370 	madd	v0,v1
1d01010c:	12400000 	mflo	t0
1d010110:	1900a300 	multu	a1,v1
1d010114:	12100000 	mflo	v0
1d010118:	10180000 	mfhi	v1
1d01011c:	21180301 	addu	v1,t0,v1
1d010120:	00190300 	sll	v1,v1,0x4
1d010124:	02170200 	srl	v0,v0,0x1c
1d010128:	25106200 	or	v0,v1,v0
1d01012c:	2110e200 	addu	v0,a3,v0
1d010130:	04008424 	addiu	a0,a0,4
1d010134:	03008910 	beq	a0,t1,0x1d010144
1d010138:	0c00c624 	addiu	a2,a2,12
1d01013c:	3d40400b 	j	0x1d0100f4
1d010140:	21384000 	move	a3,v0
1d010144:	000082ad 	sw	v0,0(t4)
1d010148:	04004a25 	addiu	t2,t2,4
1d01014c:	e5ff4d15 	bne	t2,t5,0x1d0100e4
1d010150:	04006b25 	addiu	t3,t3,4
1d010154:	e400b68f 	lw	s6,228(sp)
1d010158:	5e40400b 	j	0x1d010178
1d01015c:	2401b08f 	lw	s0,292(sp)
1d010160:	5b40400b 	j	0x1d01016c
1d010164:	21800000 	move	s0,zero
1d010168:	2401b08f 	lw	s0,292(sp)
1d01016c:	00a0023c 	lui	v0,0xa000
1d010170:	c405568c 	lw	s6,1476(v0)
1d010174:	43b11600 	sra	s6,s6,0x5
1d010178:	40b11600 	sll	s6,s6,0x5
1d01017c:	00a0023c 	lui	v0,0xa000
1d010180:	b005428c 	lw	v0,1456(v0)
1d010184:	00004328 	slti	v1,v0,0
1d010188:	0b100300 	movn	v0,zero,v1
1d01018c:	21184000 	move	v1,v0
1d010190:	0006023c 	lui	v0,0x600
1d010194:	01005224 	addiu	s2,v0,1
1d010198:	2a907200 	slt	s2,v1,s2
1d01019c:	0b107200 	movn	v0,v1,s2
1d0101a0:	0c004014 	bnez	v0,0x1d0101d4
1d0101a4:	21904000 	move	s2,v0
1d0101a8:	05000224 	li	v0,5
1d0101ac:	1000a2af 	sw	v0,16(sp)
1d0101b0:	1800a427 	addiu	a0,sp,24
1d0101b4:	00a0053c 	lui	a1,0xa000
1d0101b8:	e005a524 	addiu	a1,a1,1504
1d0101bc:	f400a68f 	lw	a2,244(sp)
1d0101c0:	00a0073c 	lui	a3,0xa000
1d0101c4:	823d400f 	jal	0x1d00f608
1d0101c8:	c805e724 	addiu	a3,a3,1480
1d0101cc:	7c40400b 	j	0x1d0101f0
1d0101d0:	1800b28f 	lw	s2,24(sp)
1d0101d4:	9900023c 	lui	v0,0x99
1d0101d8:	9a994234 	ori	v0,v0,0x999a
1d0101dc:	2a104202 	slt	v0,s2,v0
1d0101e0:	04004010 	beqz	v0,0x1d0101f4
1d0101e4:	00a0023c 	lui	v0,0xa000
1d0101e8:	9900123c 	lui	s2,0x99
1d0101ec:	9a995236 	ori	s2,s2,0x999a
1d0101f0:	00a0023c 	lui	v0,0xa000
1d0101f4:	b405428c 	lw	v0,1460(v0)
1d0101f8:	00004328 	slti	v1,v0,0
1d0101fc:	0b100300 	movn	v0,zero,v1
1d010200:	21184000 	move	v1,v0
1d010204:	000c023c 	lui	v0,0xc00
1d010208:	01004424 	addiu	a0,v0,1
1d01020c:	2a206400 	slt	a0,v1,a0
1d010210:	0b106400 	movn	v0,v1,a0
1d010214:	04004054 	bnezl	v0,0x1d010228
1d010218:	9900173c 	lui	s7,0x99
1d01021c:	00a0023c 	lui	v0,0xa000
1d010220:	9040400b 	j	0x1d010240
1d010224:	f805578c 	lw	s7,1528(v0)
1d010228:	9a99f736 	ori	s7,s7,0x999a
1d01022c:	2ab85700 	slt	s7,v0,s7
1d010230:	43120200 	sra	v0,v0,0x9
1d010234:	cc4c0324 	li	v1,19660
1d010238:	0a185700 	movz	v1,v0,s7
1d01023c:	21b86000 	move	s7,v1
1d010240:	2a105602 	slt	v0,s2,s6
1d010244:	10004014 	bnez	v0,0x1d010288
1d010248:	23b81700 	negu	s7,s7
1d01024c:	c3171700 	sra	v0,s7,0x1f
1d010250:	c21d1700 	srl	v1,s7,0x17
1d010254:	40120200 	sll	v0,v0,0x9
1d010258:	25106200 	or	v0,v1,v0
1d01025c:	c31f1600 	sra	v1,s6,0x1f
1d010260:	2a206200 	slt	a0,v1,v0
1d010264:	06008014 	bnez	a0,0x1d010280
1d010268:	40321700 	sll	a2,s7,0x9
1d01026c:	08004314 	bne	v0,v1,0x1d010290
1d010270:	e0ff0224 	li	v0,-32
1d010274:	2b28c602 	sltu	a1,s6,a2
1d010278:	0600a010 	beqz	a1,0x1d010294
1d01027c:	24102202 	and	v0,s1,v0
1d010280:	a340400b 	j	0x1d01028c
1d010284:	40b21700 	sll	s6,s7,0x9
1d010288:	21b04002 	move	s6,s2
1d01028c:	e0ff0224 	li	v0,-32
1d010290:	24102202 	and	v0,s1,v0
1d010294:	04000012 	beqz	s0,0x1d0102a8
1d010298:	2001a2af 	sw	v0,288(sp)
1d01029c:	4c00a28f 	lw	v0,76(sp)
1d0102a0:	40110200 	sll	v0,v0,0x5
1d0102a4:	2001a2af 	sw	v0,288(sp)
1d0102a8:	00a0033c 	lui	v1,0xa000
1d0102ac:	dc046324 	addiu	v1,v1,1244
1d0102b0:	6000708c 	lw	s0,96(v1)
1d0102b4:	2001a48f 	lw	a0,288(sp)
1d0102b8:	23109000 	subu	v0,a0,s0
1d0102bc:	c3270200 	sra	a0,v0,0x1f
1d0102c0:	26108200 	xor	v0,a0,v0
1d0102c4:	23104400 	subu	v0,v0,a0
1d0102c8:	94006390 	lbu	v1,148(v1)
1d0102cc:	13006014 	bnez	v1,0x1d01031c
1d0102d0:	f800a3af 	sw	v1,248(sp)
1d0102d4:	00a0033c 	lui	v1,0xa000
1d0102d8:	fc05648c 	lw	a0,1532(v1)
1d0102dc:	c31f0400 	sra	v1,a0,0x1f
1d0102e0:	c22d0400 	srl	a1,a0,0x17
1d0102e4:	401a0300 	sll	v1,v1,0x9
1d0102e8:	2518a300 	or	v1,a1,v1
1d0102ec:	21304000 	move	a2,v0
1d0102f0:	c3170200 	sra	v0,v0,0x1f
1d0102f4:	2a284300 	slt	a1,v0,v1
1d0102f8:	1c00a014 	bnez	a1,0x1d01036c
1d0102fc:	40220400 	sll	a0,a0,0x9
1d010300:	1f006254 	bnel	v1,v0,0x1d010380
1d010304:	8000a38f 	lw	v1,128(sp)
1d010308:	2b20c400 	sltu	a0,a2,a0
1d01030c:	18008014 	bnez	a0,0x1d010370
1d010310:	01000524 	li	a1,1
1d010314:	e040400b 	j	0x1d010380
1d010318:	8000a38f 	lw	v1,128(sp)
1d01031c:	21304000 	move	a2,v0
1d010320:	c3170200 	sra	v0,v0,0x1f
1d010324:	00a0033c 	lui	v1,0xa000
1d010328:	fc05638c 	lw	v1,1532(v1)
1d01032c:	80200300 	sll	a0,v1,0x2
1d010330:	21208300 	addu	a0,a0,v1
1d010334:	c31f0400 	sra	v1,a0,0x1f
1d010338:	c22d0400 	srl	a1,a0,0x17
1d01033c:	401a0300 	sll	v1,v1,0x9
1d010340:	2518a300 	or	v1,a1,v1
1d010344:	2a286200 	slt	a1,v1,v0
1d010348:	0b00a014 	bnez	a1,0x1d010378
1d01034c:	40220400 	sll	a0,a0,0x9
1d010350:	0b004354 	bnel	v0,v1,0x1d010380
1d010354:	8000a38f 	lw	v1,128(sp)
1d010358:	2b208600 	sltu	a0,a0,a2
1d01035c:	07008054 	bnezl	a0,0x1d01037c
1d010360:	f800a0af 	sw	zero,248(sp)
1d010364:	e040400b 	j	0x1d010380
1d010368:	8000a38f 	lw	v1,128(sp)
1d01036c:	01000524 	li	a1,1
1d010370:	df40400b 	j	0x1d01037c
1d010374:	f800a5af 	sw	a1,248(sp)
1d010378:	f800a0af 	sw	zero,248(sp)
1d01037c:	8000a38f 	lw	v1,128(sp)
1d010380:	8400a227 	addiu	v0,sp,132
1d010384:	e000a627 	addiu	a2,sp,224
1d010388:	0000448c 	lw	a0,0(v0)
1d01038c:	2a286400 	slt	a1,v1,a0
1d010390:	04004224 	addiu	v0,v0,4
1d010394:	fcff4614 	bne	v0,a2,0x1d010388
1d010398:	0b188500 	movn	v1,a0,a1
1d01039c:	00a0023c 	lui	v0,0xa000
1d0103a0:	0006448c 	lw	a0,1536(v0)
1d0103a4:	c3170400 	sra	v0,a0,0x1f
1d0103a8:	c22d0400 	srl	a1,a0,0x17
1d0103ac:	40120200 	sll	v0,v0,0x9
1d0103b0:	2510a200 	or	v0,a1,v0
1d0103b4:	40220400 	sll	a0,a0,0x9
1d0103b8:	40190300 	sll	v1,v1,0x5
1d0103bc:	c32f0300 	sra	a1,v1,0x1f
1d0103c0:	2a38a200 	slt	a3,a1,v0
1d0103c4:	0700e014 	bnez	a3,0x1d0103e4
1d0103c8:	01000624 	li	a2,1
1d0103cc:	05004554 	bnel	v0,a1,0x1d0103e4
1d0103d0:	21300000 	move	a2,zero
1d0103d4:	2b186400 	sltu	v1,v1,a0
1d0103d8:	03006014 	bnez	v1,0x1d0103e8
1d0103dc:	ff00c630 	andi	a2,a2,0xff
1d0103e0:	21300000 	move	a2,zero
1d0103e4:	ff00c630 	andi	a2,a2,0xff
1d0103e8:	2801a6af 	sw	a2,296(sp)
1d0103ec:	f800a98f 	lw	t1,248(sp)
1d0103f0:	15002011 	beqz	t1,0x1d010448
1d0103f4:	21100000 	move	v0,zero
1d0103f8:	1400c050 	beqzl	a2,0x1d01044c
1d0103fc:	ff004230 	andi	v0,v0,0xff
1d010400:	2a18d202 	slt	v1,s6,s2
1d010404:	11006050 	beqzl	v1,0x1d01044c
1d010408:	ff004230 	andi	v0,v0,0xff
1d01040c:	c3271600 	sra	a0,s6,0x1f
1d010410:	c31f1700 	sra	v1,s7,0x1f
1d010414:	c2151700 	srl	v0,s7,0x17
1d010418:	401a0300 	sll	v1,v1,0x9
1d01041c:	25184300 	or	v1,v0,v1
1d010420:	40321700 	sll	a2,s7,0x9
1d010424:	2a286400 	slt	a1,v1,a0
1d010428:	0700a014 	bnez	a1,0x1d010448
1d01042c:	01000224 	li	v0,1
1d010430:	05008354 	bnel	a0,v1,0x1d010448
1d010434:	21100000 	move	v0,zero
1d010438:	2b30d600 	sltu	a2,a2,s6
1d01043c:	0300c014 	bnez	a2,0x1d01044c
1d010440:	ff004230 	andi	v0,v0,0xff
1d010444:	21100000 	move	v0,zero
1d010448:	ff004230 	andi	v0,v0,0xff
1d01044c:	2c01a2af 	sw	v0,300(sp)
1d010450:	00a0053c 	lui	a1,0xa000
1d010454:	7405a524 	addiu	a1,a1,1396
1d010458:	c3371000 	sra	a2,s0,0x1f
1d01045c:	421f1000 	srl	v1,s0,0x1d
1d010460:	c0100600 	sll	v0,a2,0x3
1d010464:	25106200 	or	v0,v1,v0
1d010468:	c0181000 	sll	v1,s0,0x3
1d01046c:	823f0300 	srl	a3,v1,0x1e
1d010470:	80200200 	sll	a0,v0,0x2
1d010474:	2520e400 	or	a0,a3,a0
1d010478:	40391000 	sll	a3,s0,0x5
1d01047c:	2318e300 	subu	v1,a3,v1
1d010480:	2b38e300 	sltu	a3,a3,v1
1d010484:	23208200 	subu	a0,a0,v0
1d010488:	23208700 	subu	a0,a0,a3
1d01048c:	21107000 	addu	v0,v1,s0
1d010490:	2b184300 	sltu	v1,v0,v1
1d010494:	21308600 	addu	a2,a0,a2
1d010498:	21186600 	addu	v1,v1,a2
1d01049c:	001a0300 	sll	v1,v1,0x8
1d0104a0:	02160200 	srl	v0,v0,0x18
1d0104a4:	25106200 	or	v0,v1,v0
1d0104a8:	0e00a2a4 	sh	v0,14(a1)
1d0104ac:	c3371100 	sra	a2,s1,0x1f
1d0104b0:	421f1100 	srl	v1,s1,0x1d
1d0104b4:	c0100600 	sll	v0,a2,0x3
1d0104b8:	25106200 	or	v0,v1,v0
1d0104bc:	c0181100 	sll	v1,s1,0x3
1d0104c0:	823f0300 	srl	a3,v1,0x1e
1d0104c4:	80200200 	sll	a0,v0,0x2
1d0104c8:	2520e400 	or	a0,a3,a0
1d0104cc:	40391100 	sll	a3,s1,0x5
1d0104d0:	2318e300 	subu	v1,a3,v1
1d0104d4:	2b38e300 	sltu	a3,a3,v1
1d0104d8:	23208200 	subu	a0,a0,v0
1d0104dc:	23208700 	subu	a0,a0,a3
1d0104e0:	21107100 	addu	v0,v1,s1
1d0104e4:	2b184300 	sltu	v1,v0,v1
1d0104e8:	21308600 	addu	a2,a0,a2
1d0104ec:	21186600 	addu	v1,v1,a2
1d0104f0:	001a0300 	sll	v1,v1,0x8
1d0104f4:	02160200 	srl	v0,v0,0x18
1d0104f8:	25106200 	or	v0,v1,v0
1d0104fc:	04000006 	bltz	s0,0x1d010510
1d010500:	1200a2a4 	sh	v0,18(a1)
1d010504:	00a0023c 	lui	v0,0xa000
1d010508:	4741400b 	j	0x1d01051c
1d01050c:	4405488c 	lw	t0,1348(v0)
1d010510:	00a0023c 	lui	v0,0xa000
1d010514:	4405488c 	lw	t0,1348(v0)
1d010518:	23400800 	negu	t0,t0
1d01051c:	00a0023c 	lui	v0,0xa000
1d010520:	74054224 	addiu	v0,v0,1396
1d010524:	80180800 	sll	v1,t0,0x2
1d010528:	21186800 	addu	v1,v1,t0
1d01052c:	c31d0300 	sra	v1,v1,0x17
1d010530:	140043a0 	sb	v1,20(v0)
1d010534:	00a0073c 	lui	a3,0xa000
1d010538:	a805e724 	addiu	a3,a3,1448
1d01053c:	1c00ea8c 	lw	t2,28(a3)
1d010540:	f000aaaf 	sw	t2,240(sp)
1d010544:	80180a00 	sll	v1,t2,0x2
1d010548:	21186a00 	addu	v1,v1,t2
1d01054c:	c31d0300 	sra	v1,v1,0x17
1d010550:	150043a0 	sb	v1,21(v0)
1d010554:	08004b90 	lbu	t3,8(v0)
1d010558:	1401abaf 	sw	t3,276(sp)
1d01055c:	10004ba0 	sb	t3,16(v0)
1d010560:	2c01ac8f 	lw	t4,300(sp)
1d010564:	11004ca0 	sb	t4,17(v0)
1d010568:	c31f1000 	sra	v1,s0,0x1f
1d01056c:	26107000 	xor	v0,v1,s0
1d010570:	23104300 	subu	v0,v0,v1
1d010574:	f400ad8f 	lw	t5,244(sp)
1d010578:	23104d00 	subu	v0,v0,t5
1d01057c:	c34f0200 	sra	t1,v0,0x1f
1d010580:	00a00a3c 	lui	t2,0xa000
1d010584:	dc044a25 	addiu	t2,t2,1244
1d010588:	6c00438d 	lw	v1,108(t2)
1d01058c:	a800e48c 	lw	a0,168(a3)
1d010590:	c3370400 	sra	a2,a0,0x1f
1d010594:	1800c200 	mult	a2,v0
1d010598:	00002471 	madd	t1,a0
1d01059c:	12300000 	mflo	a2
1d0105a0:	19004400 	multu	v0,a0
1d0105a4:	12200000 	mflo	a0
1d0105a8:	10280000 	mfhi	a1
1d0105ac:	2128c500 	addu	a1,a2,a1
1d0105b0:	002c0500 	sll	a1,a1,0x10
1d0105b4:	02340400 	srl	a2,a0,0x10
1d0105b8:	2530a600 	or	a2,a1,a2
1d0105bc:	c32f0300 	sra	a1,v1,0x1f
1d0105c0:	ac00e48c 	lw	a0,172(a3)
1d0105c4:	c33f0400 	sra	a3,a0,0x1f
1d0105c8:	1800e300 	mult	a3,v1
1d0105cc:	0000a470 	madd	a1,a0
1d0105d0:	12380000 	mflo	a3
1d0105d4:	19006400 	multu	v1,a0
1d0105d8:	12200000 	mflo	a0
1d0105dc:	10280000 	mfhi	a1
1d0105e0:	2128e500 	addu	a1,a3,a1
1d0105e4:	002c0500 	sll	a1,a1,0x10
1d0105e8:	02240400 	srl	a0,a0,0x10
1d0105ec:	2520a400 	or	a0,a1,a0
1d0105f0:	2130c400 	addu	a2,a2,a0
1d0105f4:	2130c800 	addu	a2,a2,t0
1d0105f8:	f000a58f 	lw	a1,240(sp)
1d0105fc:	2320c500 	subu	a0,a2,a1
1d010600:	8d004591 	lbu	a1,141(t2)
1d010604:	4400a010 	beqz	a1,0x1d010718
1d010608:	01000724 	li	a3,1
1d01060c:	0800a754 	bnel	a1,a3,0x1d010630
1d010610:	00a00c3c 	lui	t4,0xa000
1d010614:	00a0033c 	lui	v1,0xa000
1d010618:	38066494 	lhu	a0,1592(v1)
1d01061c:	00a0033c 	lui	v1,0xa000
1d010620:	7e0564a4 	sh	a0,1406(v1)
1d010624:	21380000 	move	a3,zero
1d010628:	e041400b 	j	0x1d010780
1d01062c:	21180000 	move	v1,zero
1d010630:	a8058c25 	addiu	t4,t4,1448
1d010634:	9c008a95 	lhu	t2,156(t4)
1d010638:	c35f0600 	sra	t3,a2,0x1f
1d01063c:	19004601 	multu	t2,a2
1d010640:	12300000 	mflo	a2
1d010644:	10380000 	mfhi	a3
1d010648:	02686a71 	mul	t5,t3,t2
1d01064c:	2138a701 	addu	a3,t5,a3
1d010650:	403a0700 	sll	a3,a3,0x9
1d010654:	c2350600 	srl	a2,a2,0x17
1d010658:	2530e600 	or	a2,a3,a2
1d01065c:	c35f0400 	sra	t3,a0,0x1f
1d010660:	b0008a8d 	lw	t2,176(t4)
1d010664:	c33f0a00 	sra	a3,t2,0x1f
1d010668:	1800e400 	mult	a3,a0
1d01066c:	00006a71 	madd	t3,t2
1d010670:	12380000 	mflo	a3
1d010674:	19008a00 	multu	a0,t2
1d010678:	10580000 	mfhi	t3
1d01067c:	2158eb00 	addu	t3,a3,t3
1d010680:	c3590b00 	sra	t3,t3,0x7
1d010684:	2158cb00 	addu	t3,a2,t3
1d010688:	00a0063c 	lui	a2,0xa000
1d01068c:	4c05ca8c 	lw	t2,1356(a2)
1d010690:	c33f0a00 	sra	a3,t2,0x1f
1d010694:	b400868d 	lw	a2,180(t4)
1d010698:	c36f0600 	sra	t5,a2,0x1f
1d01069c:	1800aa01 	mult	t5,t2
1d0106a0:	0000e670 	madd	a3,a2
1d0106a4:	12680000 	mflo	t5
1d0106a8:	19004601 	multu	t2,a2
1d0106ac:	10380000 	mfhi	a3
1d0106b0:	2138a701 	addu	a3,t5,a3
1d0106b4:	c3390700 	sra	a3,a3,0x7
1d0106b8:	21386701 	addu	a3,t3,a3
1d0106bc:	c35f0700 	sra	t3,a3,0x1f
1d0106c0:	a000868d 	lw	a2,160(t4)
1d0106c4:	23300600 	negu	a2,a2
1d0106c8:	c3570600 	sra	t2,a2,0x1f
1d0106cc:	18004701 	mult	t2,a3
1d0106d0:	00006671 	madd	t3,a2
1d0106d4:	12500000 	mflo	t2
1d0106d8:	1900e600 	multu	a3,a2
1d0106dc:	12300000 	mflo	a2
1d0106e0:	10380000 	mfhi	a3
1d0106e4:	21384701 	addu	a3,t2,a3
1d0106e8:	003c0700 	sll	a3,a3,0x10
1d0106ec:	02340600 	srl	a2,a2,0x10
1d0106f0:	2538e600 	or	a3,a3,a2
1d0106f4:	a4008695 	lhu	a2,164(t4)
1d0106f8:	80300600 	sll	a2,a2,0x2
1d0106fc:	2a50c700 	slt	t2,a2,a3
1d010700:	07004055 	bnezl	t2,0x1d010720
1d010704:	83300600 	sra	a2,a2,0x2
1d010708:	0000e628 	slti	a2,a3,0
1d01070c:	0b380600 	movn	a3,zero,a2
1d010710:	c741400b 	j	0x1d01071c
1d010714:	2130e000 	move	a2,a3
1d010718:	21300000 	move	a2,zero
1d01071c:	83300600 	sra	a2,a2,0x2
1d010720:	00a0073c 	lui	a3,0xa000
1d010724:	0200a52c 	sltiu	a1,a1,2
1d010728:	1300a014 	bnez	a1,0x1d010778
1d01072c:	7e05e6a4 	sh	a2,1406(a3)
1d010730:	c33f0400 	sra	a3,a0,0x1f
1d010734:	eb51063c 	lui	a2,0x51eb
1d010738:	1f85c634 	ori	a2,a2,0x851f
1d01073c:	19008600 	multu	a0,a2
1d010740:	10280000 	mfhi	a1
1d010744:	0250e670 	mul	t2,a3,a2
1d010748:	21284501 	addu	a1,t2,a1
1d01074c:	03390500 	sra	a3,a1,0x4
1d010750:	00a0043c 	lui	a0,0xa000
1d010754:	4c05848c 	lw	a0,1356(a0)
1d010758:	2138e400 	addu	a3,a3,a0
1d01075c:	19004600 	multu	v0,a2
1d010760:	10280000 	mfhi	a1
1d010764:	02502671 	mul	t2,t1,a2
1d010768:	21284501 	addu	a1,t2,a1
1d01076c:	03210500 	sra	a0,a1,0x4
1d010770:	e041400b 	j	0x1d010780
1d010774:	21186400 	addu	v1,v1,a0
1d010778:	21380000 	move	a3,zero
1d01077c:	21180000 	move	v1,zero
1d010780:	2158e000 	move	t3,a3
1d010784:	c3370700 	sra	a2,a3,0x1f
1d010788:	00a0043c 	lui	a0,0xa000
1d01078c:	4006848c 	lw	a0,1600(a0)
1d010790:	c32f0400 	sra	a1,a0,0x1f
1d010794:	c2550400 	srl	t2,a0,0x17
1d010798:	402a0500 	sll	a1,a1,0x9
1d01079c:	25284501 	or	a1,t2,a1
1d0107a0:	2a50a600 	slt	t2,a1,a2
1d0107a4:	06004015 	bnez	t2,0x1d0107c0
1d0107a8:	40620400 	sll	t4,a0,0x9
1d0107ac:	0800c554 	bnel	a2,a1,0x1d0107d0
1d0107b0:	23200400 	negu	a0,a0
1d0107b4:	2b608701 	sltu	t4,t4,a3
1d0107b8:	05008051 	beqzl	t4,0x1d0107d0
1d0107bc:	23200400 	negu	a0,a0
1d0107c0:	40220400 	sll	a0,a0,0x9
1d0107c4:	00a0053c 	lui	a1,0xa000
1d0107c8:	0542400b 	j	0x1d010814
1d0107cc:	4c05a4ac 	sw	a0,1356(a1)
1d0107d0:	c32f0400 	sra	a1,a0,0x1f
1d0107d4:	c2550400 	srl	t2,a0,0x17
1d0107d8:	402a0500 	sll	a1,a1,0x9
1d0107dc:	25284501 	or	a1,t2,a1
1d0107e0:	2a50c500 	slt	t2,a2,a1
1d0107e4:	06004015 	bnez	t2,0x1d010800
1d0107e8:	40620400 	sll	t4,a0,0x9
1d0107ec:	0800a654 	bnel	a1,a2,0x1d010810
1d0107f0:	00a0043c 	lui	a0,0xa000
1d0107f4:	2b586c01 	sltu	t3,t3,t4
1d0107f8:	05006051 	beqzl	t3,0x1d010810
1d0107fc:	00a0043c 	lui	a0,0xa000
1d010800:	40220400 	sll	a0,a0,0x9
1d010804:	00a0053c 	lui	a1,0xa000
1d010808:	0542400b 	j	0x1d010814
1d01080c:	4c05a4ac 	sw	a0,1356(a1)
1d010810:	4c0587ac 	sw	a3,1356(a0)
1d010814:	21506000 	move	t2,v1
1d010818:	c3370300 	sra	a2,v1,0x1f
1d01081c:	00a0043c 	lui	a0,0xa000
1d010820:	3c06848c 	lw	a0,1596(a0)
1d010824:	c32f0400 	sra	a1,a0,0x1f
1d010828:	c23d0400 	srl	a3,a0,0x17
1d01082c:	402a0500 	sll	a1,a1,0x9
1d010830:	2528e500 	or	a1,a3,a1
1d010834:	2a38a600 	slt	a3,a1,a2
1d010838:	0600e014 	bnez	a3,0x1d010854
1d01083c:	405a0400 	sll	t3,a0,0x9
1d010840:	0800c554 	bnel	a2,a1,0x1d010864
1d010844:	23200400 	negu	a0,a0
1d010848:	2b586301 	sltu	t3,t3,v1
1d01084c:	05006051 	beqzl	t3,0x1d010864
1d010850:	23200400 	negu	a0,a0
1d010854:	40220400 	sll	a0,a0,0x9
1d010858:	00a0033c 	lui	v1,0xa000
1d01085c:	2a42400b 	j	0x1d0108a8
1d010860:	480564ac 	sw	a0,1352(v1)
1d010864:	c32f0400 	sra	a1,a0,0x1f
1d010868:	c23d0400 	srl	a3,a0,0x17
1d01086c:	402a0500 	sll	a1,a1,0x9
1d010870:	2528e500 	or	a1,a3,a1
1d010874:	2a38c500 	slt	a3,a2,a1
1d010878:	0600e014 	bnez	a3,0x1d010894
1d01087c:	405a0400 	sll	t3,a0,0x9
1d010880:	0800a654 	bnel	a1,a2,0x1d0108a4
1d010884:	00a0043c 	lui	a0,0xa000
1d010888:	2b504b01 	sltu	t2,t2,t3
1d01088c:	05004051 	beqzl	t2,0x1d0108a4
1d010890:	00a0043c 	lui	a0,0xa000
1d010894:	40220400 	sll	a0,a0,0x9
1d010898:	00a0033c 	lui	v1,0xa000
1d01089c:	2a42400b 	j	0x1d0108a8
1d0108a0:	480564ac 	sw	a0,1352(v1)
1d0108a4:	480583ac 	sw	v1,1352(a0)
1d0108a8:	00a0053c 	lui	a1,0xa000
1d0108ac:	a805a524 	addiu	a1,a1,1448
1d0108b0:	6000a38c 	lw	v1,96(a1)
1d0108b4:	c3270300 	sra	a0,v1,0x1f
1d0108b8:	18008200 	mult	a0,v0
1d0108bc:	00002371 	madd	t1,v1
1d0108c0:	12480000 	mflo	t1
1d0108c4:	19004300 	multu	v0,v1
1d0108c8:	12100000 	mflo	v0
1d0108cc:	10180000 	mfhi	v1
1d0108d0:	21182301 	addu	v1,t1,v1
1d0108d4:	00f40300 	sll	s8,v1,0x10
1d0108d8:	02140200 	srl	v0,v0,0x10
1d0108dc:	25f0c203 	or	s8,s8,v0
1d0108e0:	2130c003 	move	a2,s8
1d0108e4:	c3271e00 	sra	a0,s8,0x1f
1d0108e8:	6400a38c 	lw	v1,100(a1)
1d0108ec:	c3170300 	sra	v0,v1,0x1f
1d0108f0:	c22d0300 	srl	a1,v1,0x17
1d0108f4:	40120200 	sll	v0,v0,0x9
1d0108f8:	2510a200 	or	v0,a1,v0
1d0108fc:	2a284400 	slt	a1,v0,a0
1d010900:	0600a014 	bnez	a1,0x1d01091c
1d010904:	403a0300 	sll	a3,v1,0x9
1d010908:	06008254 	bnel	a0,v0,0x1d010924
1d01090c:	23180300 	negu	v1,v1
1d010910:	2b38fe00 	sltu	a3,a3,s8
1d010914:	0300e050 	beqzl	a3,0x1d010924
1d010918:	23180300 	negu	v1,v1
1d01091c:	5642400b 	j	0x1d010958
1d010920:	40f20300 	sll	s8,v1,0x9
1d010924:	c3170300 	sra	v0,v1,0x1f
1d010928:	c22d0300 	srl	a1,v1,0x17
1d01092c:	40120200 	sll	v0,v0,0x9
1d010930:	2510a200 	or	v0,a1,v0
1d010934:	2a288200 	slt	a1,a0,v0
1d010938:	0600a014 	bnez	a1,0x1d010954
1d01093c:	403a0300 	sll	a3,v1,0x9
1d010940:	06004414 	bne	v0,a0,0x1d01095c
1d010944:	21f01e01 	addu	s8,t0,s8
1d010948:	2b30c700 	sltu	a2,a2,a3
1d01094c:	0400c010 	beqz	a2,0x1d010960
1d010950:	2130c003 	move	a2,s8
1d010954:	40f20300 	sll	s8,v1,0x9
1d010958:	21f01e01 	addu	s8,t0,s8
1d01095c:	2130c003 	move	a2,s8
1d010960:	c3271e00 	sra	a0,s8,0x1f
1d010964:	00a0023c 	lui	v0,0xa000
1d010968:	1006428c 	lw	v0,1552(v0)
1d01096c:	c31f0200 	sra	v1,v0,0x1f
1d010970:	c22d0200 	srl	a1,v0,0x17
1d010974:	401a0300 	sll	v1,v1,0x9
1d010978:	2518a300 	or	v1,a1,v1
1d01097c:	2a286400 	slt	a1,v1,a0
1d010980:	0600a014 	bnez	a1,0x1d01099c
1d010984:	403a0200 	sll	a3,v0,0x9
1d010988:	06008354 	bnel	a0,v1,0x1d0109a4
1d01098c:	23100200 	negu	v0,v0
1d010990:	2b38fe00 	sltu	a3,a3,s8
1d010994:	0300e050 	beqzl	a3,0x1d0109a4
1d010998:	23100200 	negu	v0,v0
1d01099c:	7642400b 	j	0x1d0109d8
1d0109a0:	40f20200 	sll	s8,v0,0x9
1d0109a4:	c31f0200 	sra	v1,v0,0x1f
1d0109a8:	c22d0200 	srl	a1,v0,0x17
1d0109ac:	401a0300 	sll	v1,v1,0x9
1d0109b0:	2518a300 	or	v1,a1,v1
1d0109b4:	2a288300 	slt	a1,a0,v1
1d0109b8:	0600a014 	bnez	a1,0x1d0109d4
1d0109bc:	403a0200 	sll	a3,v0,0x9
1d0109c0:	06006414 	bne	v1,a0,0x1d0109dc
1d0109c4:	80a81e00 	sll	s5,s8,0x2
1d0109c8:	2b30c700 	sltu	a2,a2,a3
1d0109cc:	0400c050 	beqzl	a2,0x1d0109e0
1d0109d0:	f000a28f 	lw	v0,240(sp)
1d0109d4:	40f20200 	sll	s8,v0,0x9
1d0109d8:	80a81e00 	sll	s5,s8,0x2
1d0109dc:	f000a28f 	lw	v0,240(sp)
1d0109e0:	80280200 	sll	a1,v0,0x2
1d0109e4:	00a00c3c 	lui	t4,0xa000
1d0109e8:	dc048c25 	addiu	t4,t4,1244
1d0109ec:	7800838d 	lw	v1,120(t4)
1d0109f0:	0401a3af 	sw	v1,260(sp)
1d0109f4:	23406500 	subu	t0,v1,a1
1d0109f8:	c35f0800 	sra	t3,t0,0x1f
1d0109fc:	00a0063c 	lui	a2,0xa000
1d010a00:	a805c624 	addiu	a2,a2,1448
1d010a04:	8400c28c 	lw	v0,132(a2)
1d010a08:	c3270200 	sra	a0,v0,0x1f
1d010a0c:	18008800 	mult	a0,t0
1d010a10:	00006271 	madd	t3,v0
1d010a14:	12200000 	mflo	a0
1d010a18:	19000201 	multu	t0,v0
1d010a1c:	12100000 	mflo	v0
1d010a20:	10180000 	mfhi	v1
1d010a24:	21188300 	addu	v1,a0,v1
1d010a28:	00240300 	sll	a0,v1,0x10
1d010a2c:	02140200 	srl	v0,v0,0x10
1d010a30:	25208200 	or	a0,a0,v0
1d010a34:	c33f0400 	sra	a3,a0,0x1f
1d010a38:	c3570500 	sra	t2,a1,0x1f
1d010a3c:	8000828d 	lw	v0,128(t4)
1d010a40:	0801a2af 	sw	v0,264(sp)
1d010a44:	c31f1500 	sra	v1,s5,0x1f
1d010a48:	1001a3af 	sw	v1,272(sp)
1d010a4c:	7c00898d 	lw	t1,124(t4)
1d010a50:	fc00a9af 	sw	t1,252(sp)
1d010a54:	8400948d 	lw	s4,132(t4)
1d010a58:	c34f1400 	sra	t1,s4,0x1f
1d010a5c:	88008c8d 	lw	t4,136(t4)
1d010a60:	0c01acaf 	sw	t4,268(sp)
1d010a64:	7800c28c 	lw	v0,120(a2)
1d010a68:	c3670200 	sra	t4,v0,0x1f
1d010a6c:	18008401 	mult	t4,a0
1d010a70:	0000e270 	madd	a3,v0
1d010a74:	12600000 	mflo	t4
1d010a78:	19008200 	multu	a0,v0
1d010a7c:	12100000 	mflo	v0
1d010a80:	10180000 	mfhi	v1
1d010a84:	21188301 	addu	v1,t4,v1
1d010a88:	001c0300 	sll	v1,v1,0x10
1d010a8c:	02140200 	srl	v0,v0,0x10
1d010a90:	25106200 	or	v0,v1,v0
1d010a94:	c31f0200 	sra	v1,v0,0x1f
1d010a98:	18004201 	mult	t2,v0
1d010a9c:	00006570 	madd	v1,a1
1d010aa0:	12600000 	mflo	t4
1d010aa4:	19004500 	multu	v0,a1
1d010aa8:	12100000 	mflo	v0
1d010aac:	10180000 	mfhi	v1
1d010ab0:	21188301 	addu	v1,t4,v1
1d010ab4:	40190300 	sll	v1,v1,0x5
1d010ab8:	c2160200 	srl	v0,v0,0x1b
1d010abc:	25106200 	or	v0,v1,v0
1d010ac0:	0801a38f 	lw	v1,264(sp)
1d010ac4:	21106200 	addu	v0,v1,v0
1d010ac8:	c3670200 	sra	t4,v0,0x1f
1d010acc:	18008501 	mult	t4,a1
1d010ad0:	00004271 	madd	t2,v0
1d010ad4:	12600000 	mflo	t4
1d010ad8:	1900a200 	multu	a1,v0
1d010adc:	12100000 	mflo	v0
1d010ae0:	10180000 	mfhi	v1
1d010ae4:	21188301 	addu	v1,t4,v1
1d010ae8:	40190300 	sll	v1,v1,0x5
1d010aec:	c2660200 	srl	t4,v0,0x1b
1d010af0:	25606c00 	or	t4,v1,t4
1d010af4:	7c00c28c 	lw	v0,124(a2)
1d010af8:	c36f0200 	sra	t5,v0,0x1f
1d010afc:	1800a401 	mult	t5,a0
1d010b00:	0000e270 	madd	a3,v0
1d010b04:	12680000 	mflo	t5
1d010b08:	19008200 	multu	a0,v0
1d010b0c:	12100000 	mflo	v0
1d010b10:	10180000 	mfhi	v1
1d010b14:	2118a301 	addu	v1,t5,v1
1d010b18:	001c0300 	sll	v1,v1,0x10
1d010b1c:	02140200 	srl	v0,v0,0x10
1d010b20:	25106200 	or	v0,v1,v0
1d010b24:	c31f0200 	sra	v1,v0,0x1f
1d010b28:	1001ad8f 	lw	t5,272(sp)
1d010b2c:	1800a201 	mult	t5,v0
1d010b30:	00007570 	madd	v1,s5
1d010b34:	12680000 	mflo	t5
1d010b38:	19005500 	multu	v0,s5
1d010b3c:	12100000 	mflo	v0
1d010b40:	10180000 	mfhi	v1
1d010b44:	2118a301 	addu	v1,t5,v1
1d010b48:	40190300 	sll	v1,v1,0x5
1d010b4c:	c2160200 	srl	v0,v0,0x1b
1d010b50:	25106200 	or	v0,v1,v0
1d010b54:	fc00a38f 	lw	v1,252(sp)
1d010b58:	21106200 	addu	v0,v1,v0
1d010b5c:	c36f0200 	sra	t5,v0,0x1f
1d010b60:	1800b501 	mult	t5,s5
1d010b64:	1001ae8f 	lw	t6,272(sp)
1d010b68:	0000c271 	madd	t6,v0
1d010b6c:	12680000 	mflo	t5
1d010b70:	1900a202 	multu	s5,v0
1d010b74:	12100000 	mflo	v0
1d010b78:	10180000 	mfhi	v1
1d010b7c:	2118a301 	addu	v1,t5,v1
1d010b80:	40190300 	sll	v1,v1,0x5
1d010b84:	c2160200 	srl	v0,v0,0x1b
1d010b88:	25106200 	or	v0,v1,v0
1d010b8c:	21608201 	addu	t4,t4,v0
1d010b90:	8000c28c 	lw	v0,128(a2)
1d010b94:	c36f0200 	sra	t5,v0,0x1f
1d010b98:	1800a401 	mult	t5,a0
1d010b9c:	0000e270 	madd	a3,v0
1d010ba0:	12680000 	mflo	t5
1d010ba4:	19008200 	multu	a0,v0
1d010ba8:	12100000 	mflo	v0
1d010bac:	10180000 	mfhi	v1
1d010bb0:	2118a301 	addu	v1,t5,v1
1d010bb4:	001c0300 	sll	v1,v1,0x10
1d010bb8:	02140200 	srl	v0,v0,0x10
1d010bbc:	25106200 	or	v0,v1,v0
1d010bc0:	c31f0200 	sra	v1,v0,0x1f
1d010bc4:	18002201 	mult	t1,v0
1d010bc8:	00007470 	madd	v1,s4
1d010bcc:	12680000 	mflo	t5
1d010bd0:	19005400 	multu	v0,s4
1d010bd4:	12100000 	mflo	v0
1d010bd8:	10180000 	mfhi	v1
1d010bdc:	2118a301 	addu	v1,t5,v1
1d010be0:	40190300 	sll	v1,v1,0x5
1d010be4:	c2160200 	srl	v0,v0,0x1b
1d010be8:	25106200 	or	v0,v1,v0
1d010bec:	0c01a38f 	lw	v1,268(sp)
1d010bf0:	21106200 	addu	v0,v1,v0
1d010bf4:	c36f0200 	sra	t5,v0,0x1f
1d010bf8:	1800b401 	mult	t5,s4
1d010bfc:	00002271 	madd	t1,v0
1d010c00:	12680000 	mflo	t5
1d010c04:	19008202 	multu	s4,v0
1d010c08:	12100000 	mflo	v0
1d010c0c:	10180000 	mfhi	v1
1d010c10:	2118a301 	addu	v1,t5,v1
1d010c14:	40190300 	sll	v1,v1,0x5
1d010c18:	c2160200 	srl	v0,v0,0x1b
1d010c1c:	25106200 	or	v0,v1,v0
1d010c20:	21108201 	addu	v0,t4,v0
1d010c24:	1801a2af 	sw	v0,280(sp)
1d010c28:	c000c290 	lbu	v0,192(a2)
1d010c2c:	05004014 	bnez	v0,0x1d010c44
1d010c30:	01000624 	li	a2,1
1d010c34:	0008063c 	lui	a2,0x800
1d010c38:	1801a28f 	lw	v0,280(sp)
1d010c3c:	2a304600 	slt	a2,v0,a2
1d010c40:	0100c638 	xori	a2,a2,0x1
1d010c44:	00a0023c 	lui	v0,0xa000
1d010c48:	68055390 	lbu	s3,1384(v0)
1d010c4c:	2b006012 	beqz	s3,0x1d010cfc
1d010c50:	ff00c630 	andi	a2,a2,0xff
1d010c54:	01000224 	li	v0,1
1d010c58:	5e006212 	beq	s3,v0,0x1d010dd4
1d010c5c:	0801ae8f 	lw	t6,264(sp)
1d010c60:	0801a38f 	lw	v1,264(sp)
1d010c64:	2600c014 	bnez	a2,0x1d010d00
1d010c68:	3401a3af 	sw	v1,308(sp)
1d010c6c:	00a0023c 	lui	v0,0xa000
1d010c70:	1406428c 	lw	v0,1556(v0)
1d010c74:	c31f0200 	sra	v1,v0,0x1f
1d010c78:	18006500 	mult	v1,a1
1d010c7c:	00004271 	madd	t2,v0
1d010c80:	12500000 	mflo	t2
1d010c84:	1900a200 	multu	a1,v0
1d010c88:	12100000 	mflo	v0
1d010c8c:	10180000 	mfhi	v1
1d010c90:	21184301 	addu	v1,t2,v1
1d010c94:	001c0300 	sll	v1,v1,0x10
1d010c98:	02140200 	srl	v0,v0,0x10
1d010c9c:	25106200 	or	v0,v1,v0
1d010ca0:	c31f0200 	sra	v1,v0,0x1f
1d010ca4:	18006400 	mult	v1,a0
1d010ca8:	0000e270 	madd	a3,v0
1d010cac:	12280000 	mflo	a1
1d010cb0:	19008200 	multu	a0,v0
1d010cb4:	12100000 	mflo	v0
1d010cb8:	10180000 	mfhi	v1
1d010cbc:	2118a300 	addu	v1,a1,v1
1d010cc0:	40190300 	sll	v1,v1,0x5
1d010cc4:	c2160200 	srl	v0,v0,0x1b
1d010cc8:	25106200 	or	v0,v1,v0
1d010ccc:	c3570200 	sra	t2,v0,0x1f
1d010cd0:	eb51053c 	lui	a1,0x51eb
1d010cd4:	1f85a534 	ori	a1,a1,0x851f
1d010cd8:	19004500 	multu	v0,a1
1d010cdc:	10180000 	mfhi	v1
1d010ce0:	02604571 	mul	t4,t2,a1
1d010ce4:	21188301 	addu	v1,t4,v1
1d010ce8:	03110300 	sra	v0,v1,0x4
1d010cec:	0801ad8f 	lw	t5,264(sp)
1d010cf0:	2110a201 	addu	v0,t5,v0
1d010cf4:	4043400b 	j	0x1d010d00
1d010cf8:	3401a2af 	sw	v0,308(sp)
1d010cfc:	3401a0af 	sw	zero,308(sp)
1d010d00:	06006052 	beqzl	s3,0x1d010d1c
1d010d04:	f400a48f 	lw	a0,244(sp)
1d010d08:	01000324 	li	v1,1
1d010d0c:	0c006316 	bne	s3,v1,0x1d010d40
1d010d10:	fc00a28f 	lw	v0,252(sp)
1d010d14:	7743400b 	j	0x1d010ddc
1d010d18:	00000000 	nop
1d010d1c:	029d053c 	lui	a1,0x9d02
1d010d20:	4019a524 	addiu	a1,a1,6464
1d010d24:	029d063c 	lui	a2,0x9d02
1d010d28:	5019c624 	addiu	a2,a2,6480
1d010d2c:	0c3d400f 	jal	0x1d00f430
1d010d30:	03000724 	li	a3,3
1d010d34:	21180000 	move	v1,zero
1d010d38:	b143400b 	j	0x1d010ec4
1d010d3c:	21380000 	move	a3,zero
1d010d40:	2600c014 	bnez	a2,0x1d010ddc
1d010d44:	1001ae8f 	lw	t6,272(sp)
1d010d48:	00a0023c 	lui	v0,0xa000
1d010d4c:	1806428c 	lw	v0,1560(v0)
1d010d50:	c31f0200 	sra	v1,v0,0x1f
1d010d54:	18007500 	mult	v1,s5
1d010d58:	0000c271 	madd	t6,v0
1d010d5c:	12280000 	mflo	a1
1d010d60:	1900a202 	multu	s5,v0
1d010d64:	12100000 	mflo	v0
1d010d68:	10180000 	mfhi	v1
1d010d6c:	2118a300 	addu	v1,a1,v1
1d010d70:	001c0300 	sll	v1,v1,0x10
1d010d74:	02140200 	srl	v0,v0,0x10
1d010d78:	25106200 	or	v0,v1,v0
1d010d7c:	c31f0200 	sra	v1,v0,0x1f
1d010d80:	18006400 	mult	v1,a0
1d010d84:	0000e270 	madd	a3,v0
1d010d88:	12280000 	mflo	a1
1d010d8c:	19008200 	multu	a0,v0
1d010d90:	12100000 	mflo	v0
1d010d94:	10180000 	mfhi	v1
1d010d98:	2118a300 	addu	v1,a1,v1
1d010d9c:	40190300 	sll	v1,v1,0x5
1d010da0:	c2160200 	srl	v0,v0,0x1b
1d010da4:	25106200 	or	v0,v1,v0
1d010da8:	c3570200 	sra	t2,v0,0x1f
1d010dac:	eb51053c 	lui	a1,0x51eb
1d010db0:	1f85a534 	ori	a1,a1,0x851f
1d010db4:	19004500 	multu	v0,a1
1d010db8:	10180000 	mfhi	v1
1d010dbc:	02604571 	mul	t4,t2,a1
1d010dc0:	21188301 	addu	v1,t4,v1
1d010dc4:	03110300 	sra	v0,v1,0x4
1d010dc8:	fc00ad8f 	lw	t5,252(sp)
1d010dcc:	7743400b 	j	0x1d010ddc
1d010dd0:	2110a201 	addu	v0,t5,v0
1d010dd4:	3401aeaf 	sw	t6,308(sp)
1d010dd8:	fc00a28f 	lw	v0,252(sp)
1d010ddc:	28006012 	beqz	s3,0x1d010e80
1d010de0:	01000324 	li	v1,1
1d010de4:	35006312 	beq	s3,v1,0x1d010ebc
1d010de8:	0c01a38f 	lw	v1,268(sp)
1d010dec:	2600c054 	bnezl	a2,0x1d010e88
1d010df0:	0200642e 	sltiu	a0,s3,2
1d010df4:	00a0033c 	lui	v1,0xa000
1d010df8:	1c066c8c 	lw	t4,1564(v1)
1d010dfc:	c31f0c00 	sra	v1,t4,0x1f
1d010e00:	18007400 	mult	v1,s4
1d010e04:	00002c71 	madd	t1,t4
1d010e08:	12480000 	mflo	t1
1d010e0c:	19008c02 	multu	s4,t4
1d010e10:	12600000 	mflo	t4
1d010e14:	10680000 	mfhi	t5
1d010e18:	21682d01 	addu	t5,t1,t5
1d010e1c:	001c0d00 	sll	v1,t5,0x10
1d010e20:	02640c00 	srl	t4,t4,0x10
1d010e24:	25606c00 	or	t4,v1,t4
1d010e28:	c31f0c00 	sra	v1,t4,0x1f
1d010e2c:	18006400 	mult	v1,a0
1d010e30:	0000ec70 	madd	a3,t4
1d010e34:	12380000 	mflo	a3
1d010e38:	19008c00 	multu	a0,t4
1d010e3c:	12200000 	mflo	a0
1d010e40:	10280000 	mfhi	a1
1d010e44:	2128e500 	addu	a1,a3,a1
1d010e48:	40190500 	sll	v1,a1,0x5
1d010e4c:	c2260400 	srl	a0,a0,0x1b
1d010e50:	25206400 	or	a0,v1,a0
1d010e54:	c33f0400 	sra	a3,a0,0x1f
1d010e58:	eb51033c 	lui	v1,0x51eb
1d010e5c:	1f856334 	ori	v1,v1,0x851f
1d010e60:	19008300 	multu	a0,v1
1d010e64:	10280000 	mfhi	a1
1d010e68:	0248e370 	mul	t1,a3,v1
1d010e6c:	21282501 	addu	a1,t1,a1
1d010e70:	03190500 	sra	v1,a1,0x4
1d010e74:	0c01aa8f 	lw	t2,268(sp)
1d010e78:	a143400b 	j	0x1d010e84
1d010e7c:	21184301 	addu	v1,t2,v1
1d010e80:	21180000 	move	v1,zero
1d010e84:	0200642e 	sltiu	a0,s3,2
1d010e88:	0e008014 	bnez	a0,0x1d010ec4
1d010e8c:	21380000 	move	a3,zero
1d010e90:	0c00c014 	bnez	a2,0x1d010ec4
1d010e94:	21388002 	move	a3,s4
1d010e98:	eb51043c 	lui	a0,0x51eb
1d010e9c:	1f858434 	ori	a0,a0,0x851f
1d010ea0:	19000401 	multu	t0,a0
1d010ea4:	10480000 	mfhi	t1
1d010ea8:	02286471 	mul	a1,t3,a0
1d010eac:	2148a900 	addu	t1,a1,t1
1d010eb0:	03390900 	sra	a3,t1,0x4
1d010eb4:	b143400b 	j	0x1d010ec4
1d010eb8:	21388702 	addu	a3,s4,a3
1d010ebc:	b143400b 	j	0x1d010ec4
1d010ec0:	21380000 	move	a3,zero
1d010ec4:	00a0043c 	lui	a0,0xa000
1d010ec8:	3406848c 	lw	a0,1588(a0)
1d010ecc:	c3370700 	sra	a2,a3,0x1f
1d010ed0:	c32f0400 	sra	a1,a0,0x1f
1d010ed4:	42450400 	srl	t0,a0,0x15
1d010ed8:	c02a0500 	sll	a1,a1,0xb
1d010edc:	25280501 	or	a1,t0,a1
1d010ee0:	2a40a600 	slt	t0,a1,a2
1d010ee4:	06000015 	bnez	t0,0x1d010f00
1d010ee8:	c04a0400 	sll	t1,a0,0xb
1d010eec:	0600c554 	bnel	a2,a1,0x1d010f08
1d010ef0:	0000e828 	slti	t0,a3,0
1d010ef4:	2b482701 	sltu	t1,t1,a3
1d010ef8:	03002051 	beqzl	t1,0x1d010f08
1d010efc:	0000e828 	slti	t0,a3,0
1d010f00:	c443400b 	j	0x1d010f10
1d010f04:	c0420400 	sll	t0,a0,0xb
1d010f08:	0b380800 	movn	a3,zero,t0
1d010f0c:	2140e000 	move	t0,a3
1d010f10:	0200642e 	sltiu	a0,s3,2
1d010f14:	0a008014 	bnez	a0,0x1d010f40
1d010f18:	1801a98f 	lw	t1,280(sp)
1d010f1c:	00002529 	slti	a1,t1,0
1d010f20:	0b480500 	movn	t1,zero,a1
1d010f24:	21282001 	move	a1,t1
1d010f28:	0008043c 	lui	a0,0x800
1d010f2c:	01008924 	addiu	t1,a0,1
1d010f30:	2a48a900 	slt	t1,a1,t1
1d010f34:	0b20a900 	movn	a0,a1,t1
1d010f38:	d143400b 	j	0x1d010f44
1d010f3c:	21488000 	move	t1,a0
1d010f40:	21480000 	move	t1,zero
1d010f44:	00a0043c 	lui	a0,0xa000
1d010f48:	74058424 	addiu	a0,a0,1396
1d010f4c:	040089ac 	sw	t1,4(a0)
1d010f50:	180095ac 	sw	s5,24(a0)
1d010f54:	0401aa8f 	lw	t2,260(sp)
1d010f58:	1c008aac 	sw	t2,28(a0)
1d010f5c:	0801ab8f 	lw	t3,264(sp)
1d010f60:	20008bac 	sw	t3,32(a0)
1d010f64:	fc00ac8f 	lw	t4,252(sp)
1d010f68:	24008cac 	sw	t4,36(a0)
1d010f6c:	0c01ad8f 	lw	t5,268(sp)
1d010f70:	28008dac 	sw	t5,40(a0)
1d010f74:	06006012 	beqz	s3,0x1d010f90
1d010f78:	2c0094ac 	sw	s4,44(a0)
1d010f7c:	01000424 	li	a0,1
1d010f80:	06006452 	beql	s3,a0,0x1d010f9c
1d010f84:	00a0043c 	lui	a0,0xa000
1d010f88:	e943400b 	j	0x1d010fa4
1d010f8c:	00a0043c 	lui	a0,0xa000
1d010f90:	00a0043c 	lui	a0,0xa000
1d010f94:	0944400b 	j	0x1d011024
1d010f98:	540580ac 	sw	zero,1364(a0)
1d010f9c:	0944400b 	j	0x1d011024
1d010fa0:	540580ac 	sw	zero,1364(a0)
1d010fa4:	3006848c 	lw	a0,1584(a0)
1d010fa8:	0100063c 	lui	a2,0x1
1d010fac:	2330c400 	subu	a2,a2,a0
1d010fb0:	c33f0600 	sra	a3,a2,0x1f
1d010fb4:	0401ae8f 	lw	t6,260(sp)
1d010fb8:	c32f0e00 	sra	a1,t6,0x1f
1d010fbc:	1800a600 	mult	a1,a2
1d010fc0:	0000ee70 	madd	a3,t6
1d010fc4:	12280000 	mflo	a1
1d010fc8:	1900ce00 	multu	a2,t6
1d010fcc:	12300000 	mflo	a2
1d010fd0:	10380000 	mfhi	a3
1d010fd4:	2138a700 	addu	a3,a1,a3
1d010fd8:	40290700 	sll	a1,a3,0x5
1d010fdc:	c2360600 	srl	a2,a2,0x1b
1d010fe0:	2530a600 	or	a2,a1,a2
1d010fe4:	c0320600 	sll	a2,a2,0xb
1d010fe8:	c32f0400 	sra	a1,a0,0x1f
1d010fec:	1800b500 	mult	a1,s5
1d010ff0:	1001a58f 	lw	a1,272(sp)
1d010ff4:	0000a470 	madd	a1,a0
1d010ff8:	12380000 	mflo	a3
1d010ffc:	1900a402 	multu	s5,a0
1d011000:	12200000 	mflo	a0
1d011004:	10280000 	mfhi	a1
1d011008:	2128e500 	addu	a1,a3,a1
1d01100c:	002c0500 	sll	a1,a1,0x10
1d011010:	02240400 	srl	a0,a0,0x10
1d011014:	2520a400 	or	a0,a1,a0
1d011018:	2120c400 	addu	a0,a2,a0
1d01101c:	00a0053c 	lui	a1,0xa000
1d011020:	5405a4ac 	sw	a0,1364(a1)
1d011024:	2801a48f 	lw	a0,296(sp)
1d011028:	0ab00400 	movz	s6,zero,a0
1d01102c:	1c01a58f 	lw	a1,284(sp)
1d011030:	2320b000 	subu	a0,a1,s0
1d011034:	c3370400 	sra	a2,a0,0x1f
1d011038:	c23f0400 	srl	a3,a0,0x1f
1d01103c:	40280600 	sll	a1,a2,0x1
1d011040:	2528e500 	or	a1,a3,a1
1d011044:	40380400 	sll	a3,a0,0x1
1d011048:	2120e400 	addu	a0,a3,a0
1d01104c:	2b388700 	sltu	a3,a0,a3
1d011050:	2128a600 	addu	a1,a1,a2
1d011054:	2128e500 	addu	a1,a3,a1
1d011058:	c02f0500 	sll	a1,a1,0x1f
1d01105c:	42200400 	srl	a0,a0,0x1
1d011060:	2520a400 	or	a0,a1,a0
1d011064:	2120c402 	addu	a0,s6,a0
1d011068:	2a284402 	slt	a1,s2,a0
1d01106c:	0f00a054 	bnezl	a1,0x1d0110ac
1d011070:	21204002 	move	a0,s2
1d011074:	c32f1700 	sra	a1,s7,0x1f
1d011078:	c2351700 	srl	a2,s7,0x17
1d01107c:	402a0500 	sll	a1,a1,0x9
1d011080:	2528c500 	or	a1,a2,a1
1d011084:	c3370400 	sra	a2,a0,0x1f
1d011088:	2a38c500 	slt	a3,a2,a1
1d01108c:	0600e014 	bnez	a3,0x1d0110a8
1d011090:	405a1700 	sll	t3,s7,0x9
1d011094:	0600a654 	bnel	a1,a2,0x1d0110b0
1d011098:	00a0053c 	lui	a1,0xa000
1d01109c:	2b508b00 	sltu	t2,a0,t3
1d0110a0:	03004051 	beqzl	t2,0x1d0110b0
1d0110a4:	00a0053c 	lui	a1,0xa000
1d0110a8:	40221700 	sll	a0,s7,0x9
1d0110ac:	00a0053c 	lui	a1,0xa000
1d0110b0:	4405a68c 	lw	a2,1348(a1)
1d0110b4:	0700c004 	bltz	a2,0x1d0110d4
1d0110b8:	23288600 	subu	a1,a0,a2
1d0110bc:	0000a428 	slti	a0,a1,0
1d0110c0:	0014073c 	lui	a3,0x1400
1d0110c4:	00020a3c 	lui	t2,0x200
1d0110c8:	0a384401 	movz	a3,t2,a0
1d0110cc:	3644400b 	j	0x1d0110d8
1d0110d0:	2120e000 	move	a0,a3
1d0110d4:	0014043c 	lui	a0,0x1400
1d0110d8:	40380500 	sll	a3,a1,0x1
1d0110dc:	c0280500 	sll	a1,a1,0x3
1d0110e0:	2128e500 	addu	a1,a3,a1
1d0110e4:	2a388500 	slt	a3,a0,a1
1d0110e8:	0500e014 	bnez	a3,0x1d011100
1d0110ec:	c3570400 	sra	t2,a0,0x1f
1d0110f0:	23200400 	negu	a0,a0
1d0110f4:	2a388500 	slt	a3,a0,a1
1d0110f8:	0b20a700 	movn	a0,a1,a3
1d0110fc:	c3570400 	sra	t2,a0,0x1f
1d011100:	eb51073c 	lui	a3,0x51eb
1d011104:	1f85e734 	ori	a3,a3,0x851f
1d011108:	19008700 	multu	a0,a3
1d01110c:	10280000 	mfhi	a1
1d011110:	02584771 	mul	t3,t2,a3
1d011114:	21286501 	addu	a1,t3,a1
1d011118:	03210500 	sra	a0,a1,0x4
1d01111c:	2130c400 	addu	a2,a2,a0
1d011120:	2a204602 	slt	a0,s2,a2
1d011124:	10008014 	bnez	a0,0x1d011168
1d011128:	1401ac8f 	lw	t4,276(sp)
1d01112c:	c3271700 	sra	a0,s7,0x1f
1d011130:	c22d1700 	srl	a1,s7,0x17
1d011134:	40220400 	sll	a0,a0,0x9
1d011138:	2520a400 	or	a0,a1,a0
1d01113c:	c32f0600 	sra	a1,a2,0x1f
1d011140:	2a38a400 	slt	a3,a1,a0
1d011144:	0600e014 	bnez	a3,0x1d011160
1d011148:	40521700 	sll	t2,s7,0x9
1d01114c:	06008554 	bnel	a0,a1,0x1d011168
1d011150:	2190c000 	move	s2,a2
1d011154:	2b50ca00 	sltu	t2,a2,t2
1d011158:	02004051 	beqzl	t2,0x1d011164
1d01115c:	2190c000 	move	s2,a2
1d011160:	40921700 	sll	s2,s7,0x9
1d011164:	1401ac8f 	lw	t4,276(sp)
1d011168:	1f008011 	beqz	t4,0x1d0111e8
1d01116c:	00a0043c 	lui	a0,0xa000
1d011170:	2c01ad8f 	lw	t5,300(sp)
1d011174:	0700a051 	beqzl	t5,0x1d011194
1d011178:	00a0063c 	lui	a2,0xa000
1d01117c:	00a0043c 	lui	a0,0xa000
1d011180:	dc048424 	addiu	a0,a0,1244
1d011184:	2001ae8f 	lw	t6,288(sp)
1d011188:	60008eac 	sw	t6,96(a0)
1d01118c:	7144400b 	j	0x1d0111c4
1d011190:	680096ac 	sw	s6,104(a0)
1d011194:	dc04c624 	addiu	a2,a2,1244
1d011198:	c3571200 	sra	t2,s2,0x1f
1d01119c:	eb51073c 	lui	a3,0x51eb
1d0111a0:	1f85e734 	ori	a3,a3,0x851f
1d0111a4:	19004702 	multu	s2,a3
1d0111a8:	10280000 	mfhi	a1
1d0111ac:	02584771 	mul	t3,t2,a3
1d0111b0:	21286501 	addu	a1,t3,a1
1d0111b4:	03210500 	sra	a0,a1,0x4
1d0111b8:	21800402 	addu	s0,s0,a0
1d0111bc:	6000d0ac 	sw	s0,96(a2)
1d0111c0:	6800d2ac 	sw	s2,104(a2)
1d0111c4:	2401ac8f 	lw	t4,292(sp)
1d0111c8:	0d008015 	bnez	t4,0x1d011200
1d0111cc:	00a0043c 	lui	a0,0xa000
1d0111d0:	00a0043c 	lui	a0,0xa000
1d0111d4:	dc048424 	addiu	a0,a0,1244
1d0111d8:	8f008590 	lbu	a1,143(a0)
1d0111dc:	0100a524 	addiu	a1,a1,1
1d0111e0:	7f44400b 	j	0x1d0111fc
1d0111e4:	8f0085a0 	sb	a1,143(a0)
1d0111e8:	dc048424 	addiu	a0,a0,1244
1d0111ec:	600091ac 	sw	s1,96(a0)
1d0111f0:	f000ad8f 	lw	t5,240(sp)
1d0111f4:	68008dac 	sw	t5,104(a0)
1d0111f8:	8f0080a0 	sb	zero,143(a0)
1d0111fc:	00a0043c 	lui	a0,0xa000
1d011200:	6a058590 	lbu	a1,1386(a0)
1d011204:	00a0043c 	lui	a0,0xa000
1d011208:	b8058490 	lbu	a0,1464(a0)
1d01120c:	1100a410 	beq	a1,a0,0x1d011254
1d011210:	01000624 	li	a2,1
1d011214:	06008614 	bne	a0,a2,0x1d011230
1d011218:	00a0043c 	lui	a0,0xa000
1d01121c:	00a0043c 	lui	a0,0xa000
1d011220:	ab058490 	lbu	a0,1451(a0)
1d011224:	0c008010 	beqz	a0,0x1d011258
1d011228:	00a0043c 	lui	a0,0xa000
1d01122c:	00a0043c 	lui	a0,0xa000
1d011230:	aa058490 	lbu	a0,1450(a0)
1d011234:	08008010 	beqz	a0,0x1d011258
1d011238:	00a0043c 	lui	a0,0xa000
1d01123c:	00a0043c 	lui	a0,0xa000
1d011240:	7c058490 	lbu	a0,1404(a0)
1d011244:	04008010 	beqz	a0,0x1d011258
1d011248:	00a0043c 	lui	a0,0xa000
1d01124c:	9744400b 	j	0x1d01125c
1d011250:	800585a0 	sb	a1,1408(a0)
1d011254:	00a0043c 	lui	a0,0xa000
1d011258:	800580a0 	sb	zero,1408(a0)
1d01125c:	00a0043c 	lui	a0,0xa000
1d011260:	74058524 	addiu	a1,a0,1396
1d011264:	0800a590 	lbu	a1,8(a1)
1d011268:	740585a0 	sb	a1,1396(a0)
1d01126c:	0001ae8f 	lw	t6,256(sp)
1d011270:	0400c005 	bltz	t6,0x1d011284
1d011274:	00a0043c 	lui	a0,0xa000
1d011278:	6f058490 	lbu	a0,1391(a0)
1d01127c:	a244400b 	j	0x1d011288
1d011280:	2b200400 	sltu	a0,zero,a0
1d011284:	01000424 	li	a0,1
1d011288:	00a0063c 	lui	a2,0xa000
1d01128c:	dc04c624 	addiu	a2,a2,1244
1d011290:	9300c4a0 	sb	a0,147(a2)
1d011294:	6400deac 	sw	s8,100(a2)
1d011298:	7400c9ac 	sw	t1,116(a2)
1d01129c:	00a0043c 	lui	a0,0xa000
1d0112a0:	e0048424 	addiu	a0,a0,1248
1d0112a4:	6000c624 	addiu	a2,a2,96
1d0112a8:	0000858c 	lw	a1,0(a0)
1d0112ac:	fcff85ac 	sw	a1,-4(a0)
1d0112b0:	04008424 	addiu	a0,a0,4
1d0112b4:	fdff8654 	bnel	a0,a2,0x1d0112ac
1d0112b8:	0000858c 	lw	a1,0(a0)
1d0112bc:	00a0043c 	lui	a0,0xa000
1d0112c0:	dc048424 	addiu	a0,a0,1244
1d0112c4:	3001a58f 	lw	a1,304(sp)
1d0112c8:	5c0085ac 	sw	a1,92(a0)
1d0112cc:	f800a98f 	lw	t1,248(sp)
1d0112d0:	940089a0 	sb	t1,148(a0)
1d0112d4:	7c0082ac 	sw	v0,124(a0)
1d0112d8:	3401aa8f 	lw	t2,308(sp)
1d0112dc:	80008aac 	sw	t2,128(a0)
1d0112e0:	840088ac 	sw	t0,132(a0)
1d0112e4:	d544400b 	j	0x1d011354
1d0112e8:	880083ac 	sw	v1,136(a0)
1d0112ec:	dc044224 	addiu	v0,v0,1244
1d0112f0:	01000324 	li	v1,1
1d0112f4:	900043a0 	sb	v1,144(v0)
1d0112f8:	8e0040a0 	sb	zero,142(v0)
1d0112fc:	8c0043a0 	sb	v1,140(v0)
1d011300:	02000324 	li	v1,2
1d011304:	8d0043a0 	sb	v1,141(v0)
1d011308:	00a0043c 	lui	a0,0xa000
1d01130c:	a40583a0 	sb	v1,1444(a0)
1d011310:	c33f400b 	j	0x1d00ff0c
1d011314:	920040a0 	sb	zero,146(v0)
1d011318:	01004224 	addiu	v0,v0,1
1d01131c:	0001442c 	sltiu	a0,v0,256
1d011320:	ff000324 	li	v1,255
1d011324:	0b184400 	movn	v1,v0,a0
1d011328:	00a0023c 	lui	v0,0xa000
1d01132c:	dc044224 	addiu	v0,v0,1244
1d011330:	910043a0 	sb	v1,145(v0)
1d011334:	8e0040a0 	sb	zero,142(v0)
1d011338:	8c0040a0 	sb	zero,140(v0)
1d01133c:	01000324 	li	v1,1
1d011340:	8d0043a0 	sb	v1,141(v0)
1d011344:	03000324 	li	v1,3
1d011348:	00a0023c 	lui	v0,0xa000
1d01134c:	c33f400b 	j	0x1d00ff0c
1d011350:	a40543a0 	sb	v1,1444(v0)
1d011354:	5c01bf8f 	lw	ra,348(sp)
1d011358:	5801be8f 	lw	s8,344(sp)
1d01135c:	5401b78f 	lw	s7,340(sp)
1d011360:	5001b68f 	lw	s6,336(sp)
1d011364:	4c01b58f 	lw	s5,332(sp)
1d011368:	4801b48f 	lw	s4,328(sp)
1d01136c:	4401b38f 	lw	s3,324(sp)
1d011370:	4001b28f 	lw	s2,320(sp)
1d011374:	3c01b18f 	lw	s1,316(sp)
1d011378:	3801b08f 	lw	s0,312(sp)
1d01137c:	0800e003 	jr	ra
1d011380:	6001bd27 	addiu	sp,sp,352
1d011384:	02000324 	li	v1,2
1d011388:	00a0023c 	lui	v0,0xa000
1d01138c:	0800e003 	jr	ra
1d011390:	6c0543a0 	sb	v1,1388(v0)
1d011394:	0800e003 	jr	ra
1d011398:	00000000 	nop

Disassembly of section .sec68:

1d01139c <.sec68>:
1d01139c:	00a0023c 	lui	v0,0xa000
1d0113a0:	80044224 	addiu	v0,v0,1152
1d0113a4:	08004294 	lhu	v0,8(v0)
1d0113a8:	ffff4230 	andi	v0,v0,0xffff
1d0113ac:	4000422c 	sltiu	v0,v0,64
1d0113b0:	4c004010 	beqz	v0,0x1d0114e4
1d0113b4:	00a0033c 	lui	v1,0xa000
1d0113b8:	00a0023c 	lui	v0,0xa000
1d0113bc:	80044224 	addiu	v0,v0,1152
1d0113c0:	08004394 	lhu	v1,8(v0)
1d0113c4:	ffff6330 	andi	v1,v1,0xffff
1d0113c8:	ff006230 	andi	v0,v1,0xff
1d0113cc:	04818493 	lbu	a0,-32508(gp)
1d0113d0:	ff008430 	andi	a0,a0,0xff
1d0113d4:	04008014 	bnez	a0,0x1d0113e8
1d0113d8:	01000424 	li	a0,1
1d0113dc:	048184a3 	sb	a0,-32508(gp)
1d0113e0:	0245400b 	j	0x1d011408
1d0113e4:	00a0043c 	lui	a0,0xa000
1d0113e8:	04818593 	lbu	a1,-32508(gp)
1d0113ec:	ff00a530 	andi	a1,a1,0xff
1d0113f0:	01000424 	li	a0,1
1d0113f4:	0400a414 	bne	a1,a0,0x1d011408
1d0113f8:	00a0043c 	lui	a0,0xa000
1d0113fc:	02000424 	li	a0,2
1d011400:	048184a3 	sb	a0,-32508(gp)
1d011404:	00a0043c 	lui	a0,0xa000
1d011408:	80048424 	addiu	a0,a0,1152
1d01140c:	08008594 	lhu	a1,8(a0)
1d011410:	ff006330 	andi	v1,v1,0xff
1d011414:	2318a300 	subu	v1,a1,v1
1d011418:	ffff6330 	andi	v1,v1,0xffff
1d01141c:	080083a4 	sh	v1,8(a0)
1d011420:	00a0033c 	lui	v1,0xa000
1d011424:	1002638c 	lw	v1,528(v1)
1d011428:	ff004530 	andi	a1,v0,0xff
1d01142c:	02006690 	lbu	a2,2(v1)
1d011430:	020065a0 	sb	a1,2(v1)
1d011434:	03006590 	lbu	a1,3(v1)
1d011438:	0408057c 	ins	a1,zero,0x0,0x2
1d01143c:	030065a0 	sb	a1,3(v1)
1d011440:	00a0033c 	lui	v1,0xa000
1d011444:	90046324 	addiu	v1,v1,1168
1d011448:	288183af 	sw	v1,-32472(gp)
1d01144c:	0400838c 	lw	v1,4(a0)
1d011450:	01006330 	andi	v1,v1,0x1
1d011454:	05006010 	beqz	v1,0x1d01146c
1d011458:	00000000 	nop
1d01145c:	13004014 	bnez	v0,0x1d0114ac
1d011460:	00a0053c 	lui	a1,0xa000
1d011464:	0800e003 	jr	ra
1d011468:	00000000 	nop
1d01146c:	fdff4010 	beqz	v0,0x1d011464
1d011470:	00a0053c 	lui	a1,0xa000
1d011474:	2881838f 	lw	v1,-32472(gp)
1d011478:	01006424 	addiu	a0,v1,1
1d01147c:	288184af 	sw	a0,-32472(gp)
1d011480:	8004a48c 	lw	a0,1152(a1)
1d011484:	01008624 	addiu	a2,a0,1
1d011488:	8004a6ac 	sw	a2,1152(a1)
1d01148c:	00008490 	lbu	a0,0(a0)
1d011490:	000064a0 	sb	a0,0(v1)
1d011494:	ffff4224 	addiu	v0,v0,-1
1d011498:	ff004230 	andi	v0,v0,0xff
1d01149c:	f6ff4014 	bnez	v0,0x1d011478
1d0114a0:	2881838f 	lw	v1,-32472(gp)
1d0114a4:	0800e003 	jr	ra
1d0114a8:	00000000 	nop
1d0114ac:	2881838f 	lw	v1,-32472(gp)
1d0114b0:	01006424 	addiu	a0,v1,1
1d0114b4:	288184af 	sw	a0,-32472(gp)
1d0114b8:	8004a48c 	lw	a0,1152(a1)
1d0114bc:	01008624 	addiu	a2,a0,1
1d0114c0:	8004a6ac 	sw	a2,1152(a1)
1d0114c4:	00008490 	lbu	a0,0(a0)
1d0114c8:	000064a0 	sb	a0,0(v1)
1d0114cc:	ffff4224 	addiu	v0,v0,-1
1d0114d0:	ff004230 	andi	v0,v0,0xff
1d0114d4:	f6ff4014 	bnez	v0,0x1d0114b0
1d0114d8:	2881838f 	lw	v1,-32472(gp)
1d0114dc:	0800e003 	jr	ra
1d0114e0:	00000000 	nop
1d0114e4:	80046324 	addiu	v1,v1,1152
1d0114e8:	08006294 	lhu	v0,8(v1)
1d0114ec:	c0ff4224 	addiu	v0,v0,-64
1d0114f0:	ffff4230 	andi	v0,v0,0xffff
1d0114f4:	080062a4 	sh	v0,8(v1)
1d0114f8:	00a0023c 	lui	v0,0xa000
1d0114fc:	1002428c 	lw	v0,528(v0)
1d011500:	02004490 	lbu	a0,2(v0)
1d011504:	40000424 	li	a0,64
1d011508:	020044a0 	sb	a0,2(v0)
1d01150c:	03004490 	lbu	a0,3(v0)
1d011510:	0408047c 	ins	a0,zero,0x0,0x2
1d011514:	030044a0 	sb	a0,3(v0)
1d011518:	00a0023c 	lui	v0,0xa000
1d01151c:	90044224 	addiu	v0,v0,1168
1d011520:	288182af 	sw	v0,-32472(gp)
1d011524:	0400628c 	lw	v0,4(v1)
1d011528:	01004230 	andi	v0,v0,0x1
1d01152c:	cfff4010 	beqz	v0,0x1d01146c
1d011530:	40000224 	li	v0,64
1d011534:	2b45400b 	j	0x1d0114ac
1d011538:	00a0053c 	lui	a1,0xa000
1d01153c:	0002033c 	lui	v1,0x200
1d011540:	88bf023c 	lui	v0,0xbf88
1d011544:	741043ac 	sw	v1,4212(v0)
1d011548:	ff000224 	li	v0,255
1d01154c:	88bf033c 	lui	v1,0xbf88
1d011550:	205262ac 	sw	v0,21024(v1)
1d011554:	88bf033c 	lui	v1,0xbf88
1d011558:	005262ac 	sw	v0,20992(v1)
1d01155c:	88bf023c 	lui	v0,0xbf88
1d011560:	005340ac 	sw	zero,21248(v0)
1d011564:	88bf023c 	lui	v0,0xbf88
1d011568:	105340ac 	sw	zero,21264(v0)
1d01156c:	10534224 	addiu	v0,v0,21264
1d011570:	100040ac 	sw	zero,16(v0)
1d011574:	200040ac 	sw	zero,32(v0)
1d011578:	88bf023c 	lui	v0,0xbf88
1d01157c:	e05240ac 	sw	zero,21216(v0)
1d011580:	9f000224 	li	v0,159
1d011584:	88bf033c 	lui	v1,0xbf88
1d011588:	305262ac 	sw	v0,21040(v1)
1d01158c:	88bf033c 	lui	v1,0xbf88
1d011590:	105262ac 	sw	v0,21008(v1)
1d011594:	88bf023c 	lui	v0,0xbf88
1d011598:	7050438c 	lw	v1,20592(v0)
1d01159c:	0f006330 	andi	v1,v1,0xf
1d0115a0:	705043ac 	sw	v1,20592(v0)
1d0115a4:	7050438c 	lw	v1,20592(v0)
1d0115a8:	705043ac 	sw	v1,20592(v0)
1d0115ac:	88bf023c 	lui	v0,0xbf88
1d0115b0:	80504390 	lbu	v1,20608(v0)
1d0115b4:	01000424 	li	a0,1
1d0115b8:	0400837c 	ins	v1,a0,0x0,0x1
1d0115bc:	805043a0 	sb	v1,20608(v0)
1d0115c0:	00a0023c 	lui	v0,0xa000
1d0115c4:	00044224 	addiu	v0,v0,1024
1d0115c8:	00e0427c 	ext	v0,v0,0x0,0x1d
1d0115cc:	02260200 	srl	a0,v0,0x18
1d0115d0:	88bf033c 	lui	v1,0xbf88
1d0115d4:	d05264ac 	sw	a0,21200(v1)
1d0115d8:	02240200 	srl	a0,v0,0x10
1d0115dc:	88bf033c 	lui	v1,0xbf88
1d0115e0:	c05264ac 	sw	a0,21184(v1)
1d0115e4:	02120200 	srl	v0,v0,0x8
1d0115e8:	88bf033c 	lui	v1,0xbf88
1d0115ec:	705262ac 	sw	v0,21104(v1)
1d0115f0:	21100000 	move	v0,zero
1d0115f4:	00a0053c 	lui	a1,0xa000
1d0115f8:	0004a524 	addiu	a1,a1,1024
1d0115fc:	10000424 	li	a0,16
1d011600:	c0180200 	sll	v1,v0,0x3
1d011604:	21186500 	addu	v1,v1,a1
1d011608:	21300000 	move	a2,zero
1d01160c:	21380000 	move	a3,zero
1d011610:	000066ac 	sw	a2,0(v1)
1d011614:	040067ac 	sw	a3,4(v1)
1d011618:	01004224 	addiu	v0,v0,1
1d01161c:	f9ff4414 	bne	v0,a0,0x1d011604
1d011620:	c0180200 	sll	v1,v0,0x3
1d011624:	88bf023c 	lui	v0,0xbf88
1d011628:	50524390 	lbu	v1,21072(v0)
1d01162c:	01000424 	li	a0,1
1d011630:	4408837c 	ins	v1,a0,0x1,0x1
1d011634:	505243a0 	sb	v1,21072(v0)
1d011638:	88bf033c 	lui	v1,0xbf88
1d01163c:	605260ac 	sw	zero,21088(v1)
1d011640:	50524390 	lbu	v1,21072(v0)
1d011644:	4429037c 	ins	v1,zero,0x5,0x1
1d011648:	505243a0 	sb	v1,21072(v0)
1d01164c:	50524390 	lbu	v1,21072(v0)
1d011650:	4408037c 	ins	v1,zero,0x1,0x1
1d011654:	505243a0 	sb	v1,21072(v0)
1d011658:	88bf023c 	lui	v0,0xbf88
1d01165c:	0052428c 	lw	v0,20992(v0)
1d011660:	08004230 	andi	v0,v0,0x8
1d011664:	11004010 	beqz	v0,0x1d0116ac
1d011668:	88bf083c 	lui	t0,0xbf88
1d01166c:	08000724 	li	a3,8
1d011670:	00a0063c 	lui	a2,0xa000
1d011674:	00a0053c 	lui	a1,0xa000
1d011678:	88bf043c 	lui	a0,0xbf88
1d01167c:	005207ad 	sw	a3,20992(t0)
1d011680:	8004c224 	addiu	v0,a2,1152
1d011684:	040040a0 	sb	zero,4(v0)
1d011688:	d004a224 	addiu	v0,a1,1232
1d01168c:	040040a0 	sb	zero,4(v0)
1d011690:	0400438c 	lw	v1,4(v0)
1d011694:	04ba037c 	ins	v1,zero,0x8,0x10
1d011698:	040043ac 	sw	v1,4(v0)
1d01169c:	0052828c 	lw	v0,20992(a0)
1d0116a0:	08004230 	andi	v0,v0,0x8
1d0116a4:	f5ff4014 	bnez	v0,0x1d01167c
1d0116a8:	00000000 	nop
1d0116ac:	01000224 	li	v0,1
1d0116b0:	f88082af 	sw	v0,-32520(gp)
1d0116b4:	008182af 	sw	v0,-32512(gp)
1d0116b8:	308180af 	sw	zero,-32464(gp)
1d0116bc:	348180af 	sw	zero,-32460(gp)
1d0116c0:	148180af 	sw	zero,-32492(gp)
1d0116c4:	00a0043c 	lui	a0,0xa000
1d0116c8:	10028424 	addiu	a0,a0,528
1d0116cc:	00a0033c 	lui	v1,0xa000
1d0116d0:	00026324 	addiu	v1,v1,512
1d0116d4:	21100000 	move	v0,zero
1d0116d8:	48818827 	addiu	t0,gp,-32440
1d0116dc:	18818727 	addiu	a3,gp,-32488
1d0116e0:	04000624 	li	a2,4
1d0116e4:	000080ac 	sw	zero,0(a0)
1d0116e8:	000060ac 	sw	zero,0(v1)
1d0116ec:	21280201 	addu	a1,t0,v0
1d0116f0:	0000a0a0 	sb	zero,0(a1)
1d0116f4:	2128e200 	addu	a1,a3,v0
1d0116f8:	0000a0a0 	sb	zero,0(a1)
1d0116fc:	01004224 	addiu	v0,v0,1
1d011700:	04008424 	addiu	a0,a0,4
1d011704:	f7ff4614 	bne	v0,a2,0x1d0116e4
1d011708:	04006324 	addiu	v1,v1,4
1d01170c:	00a0033c 	lui	v1,0xa000
1d011710:	10046324 	addiu	v1,v1,1040
1d011714:	00a0023c 	lui	v0,0xa000
1d011718:	100243ac 	sw	v1,528(v0)
1d01171c:	0d000324 	li	v1,13
1d011720:	88bf023c 	lui	v0,0xbf88
1d011724:	005343ac 	sw	v1,21248(v0)
1d011728:	00a0033c 	lui	v1,0xa000
1d01172c:	00046224 	addiu	v0,v1,1024
1d011730:	0c818427 	addiu	a0,gp,-32500
1d011734:	00e0847c 	ext	a0,a0,0x0,0x1d
1d011738:	040044ac 	sw	a0,4(v0)
1d01173c:	02004494 	lhu	a0,2(v0)
1d011740:	40000524 	li	a1,64
1d011744:	0448a47c 	ins	a0,a1,0x0,0xa
1d011748:	020044a4 	sh	a0,2(v0)
1d01174c:	84000224 	li	v0,132
1d011750:	000462a4 	sh	v0,1024(v1)
1d011754:	fc8080a3 	sb	zero,-32516(gp)
1d011758:	388180af 	sw	zero,-32456(gp)
1d01175c:	0800e003 	jr	ra
1d011760:	00000000 	nop
1d011764:	0800a230 	andi	v0,a1,0x8
1d011768:	ff004230 	andi	v0,v0,0xff
1d01176c:	15004010 	beqz	v0,0x1d0117c4
1d011770:	0400a230 	andi	v0,a1,0x4
1d011774:	40190400 	sll	v1,a0,0x5
1d011778:	00a0023c 	lui	v0,0xa000
1d01177c:	00044224 	addiu	v0,v0,1024
1d011780:	21104300 	addu	v0,v0,v1
1d011784:	00004390 	lbu	v1,0(v0)
1d011788:	c439037c 	ins	v1,zero,0x7,0x1
1d01178c:	000043a0 	sb	v1,0(v0)
1d011790:	80300400 	sll	a2,a0,0x2
1d011794:	00a0033c 	lui	v1,0xa000
1d011798:	00026324 	addiu	v1,v1,512
1d01179c:	2118c300 	addu	v1,a2,v1
1d0117a0:	000062ac 	sw	v0,0(v1)
1d0117a4:	00004390 	lbu	v1,0(v0)
1d0117a8:	8431037c 	ins	v1,zero,0x6,0x1
1d0117ac:	000043a0 	sb	v1,0(v0)
1d0117b0:	08004390 	lbu	v1,8(v0)
1d0117b4:	01000624 	li	a2,1
1d0117b8:	8431c37c 	ins	v1,a2,0x6,0x1
1d0117bc:	080043a0 	sb	v1,8(v0)
1d0117c0:	0400a230 	andi	v0,a1,0x4
1d0117c4:	ff004230 	andi	v0,v0,0xff
1d0117c8:	16004050 	beqzl	v0,0x1d011824
1d0117cc:	00210400 	sll	a0,a0,0x4
1d0117d0:	40190400 	sll	v1,a0,0x5
1d0117d4:	10006324 	addiu	v1,v1,16
1d0117d8:	00a0023c 	lui	v0,0xa000
1d0117dc:	00044224 	addiu	v0,v0,1024
1d0117e0:	21104300 	addu	v0,v0,v1
1d0117e4:	00004390 	lbu	v1,0(v0)
1d0117e8:	c439037c 	ins	v1,zero,0x7,0x1
1d0117ec:	000043a0 	sb	v1,0(v0)
1d0117f0:	80300400 	sll	a2,a0,0x2
1d0117f4:	00a0033c 	lui	v1,0xa000
1d0117f8:	10026324 	addiu	v1,v1,528
1d0117fc:	2118c300 	addu	v1,a2,v1
1d011800:	000062ac 	sw	v0,0(v1)
1d011804:	00004390 	lbu	v1,0(v0)
1d011808:	8431037c 	ins	v1,zero,0x6,0x1
1d01180c:	000043a0 	sb	v1,0(v0)
1d011810:	08004390 	lbu	v1,8(v0)
1d011814:	01000624 	li	a2,1
1d011818:	8431c37c 	ins	v1,a2,0x6,0x1
1d01181c:	080043a0 	sb	v1,8(v0)
1d011820:	00210400 	sll	a0,a0,0x4
1d011824:	88bf023c 	lui	v0,0xbf88
1d011828:	00534224 	addiu	v0,v0,21248
1d01182c:	21204400 	addu	a0,v0,a0
1d011830:	0800e003 	jr	ra
1d011834:	000085a0 	sb	a1,0(a0)
1d011838:	0600a010 	beqz	a1,0x1d011854
1d01183c:	80180400 	sll	v1,a0,0x2
1d011840:	00a0023c 	lui	v0,0xa000
1d011844:	10024224 	addiu	v0,v0,528
1d011848:	21106200 	addu	v0,v1,v0
1d01184c:	1946400b 	j	0x1d011864
1d011850:	0000428c 	lw	v0,0(v0)
1d011854:	00a0023c 	lui	v0,0xa000
1d011858:	00024224 	addiu	v0,v0,512
1d01185c:	21106200 	addu	v0,v1,v0
1d011860:	0000428c 	lw	v0,0(v0)
1d011864:	2f004010 	beqz	v0,0x1d011924
1d011868:	00e0c67c 	ext	a2,a2,0x0,0x1d
1d01186c:	070046a8 	swl	a2,7(v0)
1d011870:	040046b8 	swr	a2,4(v0)
1d011874:	ff00e730 	andi	a3,a3,0xff
1d011878:	02004390 	lbu	v1,2(v0)
1d01187c:	020047a0 	sb	a3,2(v0)
1d011880:	03004390 	lbu	v1,3(v0)
1d011884:	0408037c 	ins	v1,zero,0x0,0x2
1d011888:	030043a0 	sb	v1,3(v0)
1d01188c:	00004390 	lbu	v1,0(v0)
1d011890:	01004690 	lbu	a2,1(v0)
1d011894:	40006330 	andi	v1,v1,0x40
1d011898:	ffff6330 	andi	v1,v1,0xffff
1d01189c:	ff006330 	andi	v1,v1,0xff
1d0118a0:	00004690 	lbu	a2,0(v0)
1d0118a4:	000043a0 	sb	v1,0(v0)
1d0118a8:	01004390 	lbu	v1,1(v0)
1d0118ac:	010040a0 	sb	zero,1(v0)
1d0118b0:	00004690 	lbu	a2,0(v0)
1d0118b4:	ff00c630 	andi	a2,a2,0xff
1d0118b8:	01004390 	lbu	v1,1(v0)
1d0118bc:	ff006330 	andi	v1,v1,0xff
1d0118c0:	001a0300 	sll	v1,v1,0x8
1d0118c4:	25186600 	or	v1,v1,a2
1d0118c8:	88006334 	ori	v1,v1,0x88
1d0118cc:	ff006630 	andi	a2,v1,0xff
1d0118d0:	00004790 	lbu	a3,0(v0)
1d0118d4:	000046a0 	sb	a2,0(v0)
1d0118d8:	021a0300 	srl	v1,v1,0x8
1d0118dc:	01004690 	lbu	a2,1(v0)
1d0118e0:	010043a0 	sb	v1,1(v0)
1d0118e4:	0800a010 	beqz	a1,0x1d011908
1d0118e8:	80200400 	sll	a0,a0,0x2
1d0118ec:	00a0033c 	lui	v1,0xa000
1d0118f0:	10026324 	addiu	v1,v1,528
1d0118f4:	21206400 	addu	a0,v1,a0
1d0118f8:	00008390 	lbu	v1,0(a0)
1d0118fc:	08006338 	xori	v1,v1,0x8
1d011900:	0800e003 	jr	ra
1d011904:	000083a0 	sb	v1,0(a0)
1d011908:	00a0033c 	lui	v1,0xa000
1d01190c:	00026324 	addiu	v1,v1,512
1d011910:	21206400 	addu	a0,v1,a0
1d011914:	00008390 	lbu	v1,0(a0)
1d011918:	08006338 	xori	v1,v1,0x8
1d01191c:	0800e003 	jr	ra
1d011920:	000083a0 	sb	v1,0(a0)
1d011924:	0800e003 	jr	ra
1d011928:	21100000 	move	v0,zero
1d01192c:	1b008054 	bnezl	a0,0x1d01199c
1d011930:	40200400 	sll	a0,a0,0x1
1d011934:	1c81828f 	lw	v0,-32484(gp)
1d011938:	02004390 	lbu	v1,2(v0)
1d01193c:	40000324 	li	v1,64
1d011940:	020043a0 	sb	v1,2(v0)
1d011944:	03004390 	lbu	v1,3(v0)
1d011948:	0408037c 	ins	v1,zero,0x0,0x2
1d01194c:	030043a0 	sb	v1,3(v0)
1d011950:	1c81828f 	lw	v0,-32484(gp)
1d011954:	0c818327 	addiu	v1,gp,-32500
1d011958:	00e0637c 	ext	v1,v1,0x0,0x1d
1d01195c:	070043a8 	swl	v1,7(v0)
1d011960:	040043b8 	swr	v1,4(v0)
1d011964:	00004390 	lbu	v1,0(v0)
1d011968:	8cff0324 	li	v1,-116
1d01196c:	000043a0 	sb	v1,0(v0)
1d011970:	01004390 	lbu	v1,1(v0)
1d011974:	010040a0 	sb	zero,1(v0)
1d011978:	00a0023c 	lui	v0,0xa000
1d01197c:	1002428c 	lw	v0,528(v0)
1d011980:	00004390 	lbu	v1,0(v0)
1d011984:	84ff0324 	li	v1,-124
1d011988:	000043a0 	sb	v1,0(v0)
1d01198c:	01004390 	lbu	v1,1(v0)
1d011990:	010040a0 	sb	zero,1(v0)
1d011994:	0800e003 	jr	ra
1d011998:	00000000 	nop
1d01199c:	21288500 	addu	a1,a0,a1
1d0119a0:	00110500 	sll	v0,a1,0x4
1d0119a4:	00a0033c 	lui	v1,0xa000
1d0119a8:	00046324 	addiu	v1,v1,1024
1d0119ac:	21106200 	addu	v0,v1,v0
1d0119b0:	00004494 	lhu	a0,0(v0)
1d0119b4:	84008434 	ori	a0,a0,0x84
1d0119b8:	000044a4 	sh	a0,0(v0)
1d0119bc:	00110500 	sll	v0,a1,0x4
1d0119c0:	08004224 	addiu	v0,v0,8
1d0119c4:	21106200 	addu	v0,v1,v0
1d0119c8:	00004394 	lhu	v1,0(v0)
1d0119cc:	84006334 	ori	v1,v1,0x84
1d0119d0:	0800e003 	jr	ra
1d0119d4:	000043a4 	sh	v1,0(v0)
1d0119d8:	88bf023c 	lui	v0,0xbf88
1d0119dc:	5052428c 	lw	v0,21072(v0)
1d0119e0:	20004230 	andi	v0,v0,0x20
1d0119e4:	34004010 	beqz	v0,0x1d011ab8
1d0119e8:	80200400 	sll	a0,a0,0x2
1d0119ec:	00a0023c 	lui	v0,0xa000
1d0119f0:	10024224 	addiu	v0,v0,528
1d0119f4:	21208200 	addu	a0,a0,v0
1d0119f8:	0000828c 	lw	v0,0(a0)
1d0119fc:	03004588 	lwl	a1,3(v0)
1d011a00:	00004598 	lwr	a1,0(v0)
1d011a04:	07004388 	lwl	v1,7(v0)
1d011a08:	04004398 	lwr	v1,4(v0)
1d011a0c:	4000a530 	andi	a1,a1,0x40
1d011a10:	21180000 	move	v1,zero
1d011a14:	030045a8 	swl	a1,3(v0)
1d011a18:	000045b8 	swr	a1,0(v0)
1d011a1c:	070043a8 	swl	v1,7(v0)
1d011a20:	040043b8 	swr	v1,4(v0)
1d011a24:	0000828c 	lw	v0,0(a0)
1d011a28:	03004588 	lwl	a1,3(v0)
1d011a2c:	00004598 	lwr	a1,0(v0)
1d011a30:	07004388 	lwl	v1,7(v0)
1d011a34:	04004398 	lwr	v1,4(v0)
1d011a38:	4000a538 	xori	a1,a1,0x40
1d011a3c:	030045a8 	swl	a1,3(v0)
1d011a40:	000045b8 	swr	a1,0(v0)
1d011a44:	070043a8 	swl	v1,7(v0)
1d011a48:	040043b8 	swr	v1,4(v0)
1d011a4c:	00008290 	lbu	v0,0(a0)
1d011a50:	08004238 	xori	v0,v0,0x8
1d011a54:	000082a0 	sb	v0,0(a0)
1d011a58:	0000828c 	lw	v0,0(a0)
1d011a5c:	00004390 	lbu	v1,0(v0)
1d011a60:	01004590 	lbu	a1,1(v0)
1d011a64:	40006330 	andi	v1,v1,0x40
1d011a68:	ffff6330 	andi	v1,v1,0xffff
1d011a6c:	ff006330 	andi	v1,v1,0xff
1d011a70:	00004590 	lbu	a1,0(v0)
1d011a74:	000043a0 	sb	v1,0(v0)
1d011a78:	01004390 	lbu	v1,1(v0)
1d011a7c:	010040a0 	sb	zero,1(v0)
1d011a80:	0000828c 	lw	v0,0(a0)
1d011a84:	00004490 	lbu	a0,0(v0)
1d011a88:	ff008430 	andi	a0,a0,0xff
1d011a8c:	01004390 	lbu	v1,1(v0)
1d011a90:	ff006330 	andi	v1,v1,0xff
1d011a94:	001a0300 	sll	v1,v1,0x8
1d011a98:	25186400 	or	v1,v1,a0
1d011a9c:	40006338 	xori	v1,v1,0x40
1d011aa0:	ff006430 	andi	a0,v1,0xff
1d011aa4:	00004590 	lbu	a1,0(v0)
1d011aa8:	000044a0 	sb	a0,0(v0)
1d011aac:	021a0300 	srl	v1,v1,0x8
1d011ab0:	01004490 	lbu	a0,1(v0)
1d011ab4:	010043a0 	sb	v1,1(v0)
1d011ab8:	0800e003 	jr	ra
1d011abc:	00000000 	nop
1d011ac0:	88bf023c 	lui	v0,0xbf88
1d011ac4:	505240ac 	sw	zero,21072(v0)
1d011ac8:	88bf023c 	lui	v0,0xbf88
1d011acc:	105240ac 	sw	zero,21008(v0)
1d011ad0:	388180af 	sw	zero,-32456(gp)
1d011ad4:	0800e003 	jr	ra
1d011ad8:	00000000 	nop
1d011adc:	e8ffbd27 	addiu	sp,sp,-24
1d011ae0:	1400bfaf 	sw	ra,20(sp)
1d011ae4:	3881828f 	lw	v0,-32456(gp)
1d011ae8:	2e004014 	bnez	v0,0x1d011ba4
1d011aec:	1400bf8f 	lw	ra,20(sp)
1d011af0:	88bf023c 	lui	v0,0xbf88
1d011af4:	505240ac 	sw	zero,21072(v0)
1d011af8:	88bf023c 	lui	v0,0xbf88
1d011afc:	105240ac 	sw	zero,21008(v0)
1d011b00:	88bf033c 	lui	v1,0xbf88
1d011b04:	e05260ac 	sw	zero,21216(v1)
1d011b08:	9f000324 	li	v1,159
1d011b0c:	88bf043c 	lui	a0,0xbf88
1d011b10:	305283ac 	sw	v1,21040(a0)
1d011b14:	105243ac 	sw	v1,21008(v0)
1d011b18:	88bf023c 	lui	v0,0xbf88
1d011b1c:	7050438c 	lw	v1,20592(v0)
1d011b20:	0f006330 	andi	v1,v1,0xf
1d011b24:	705043ac 	sw	v1,20592(v0)
1d011b28:	7050438c 	lw	v1,20592(v0)
1d011b2c:	705043ac 	sw	v1,20592(v0)
1d011b30:	0002033c 	lui	v1,0x200
1d011b34:	88bf023c 	lui	v0,0xbf88
1d011b38:	781043ac 	sw	v1,4216(v0)
1d011b3c:	00ff0334 	li	v1,0xff00
1d011b40:	88bf023c 	lui	v0,0xbf88
1d011b44:	441143ac 	sw	v1,4420(v0)
1d011b48:	00100324 	li	v1,4096
1d011b4c:	88bf023c 	lui	v0,0xbf88
1d011b50:	481143ac 	sw	v1,4424(v0)
1d011b54:	ab8a400f 	jal	0x1d022aac
1d011b58:	00000000 	nop
1d011b5c:	318b400f 	jal	0x1d022cc4
1d011b60:	00000000 	nop
1d011b64:	88bf023c 	lui	v0,0xbf88
1d011b68:	5052428c 	lw	v0,21072(v0)
1d011b6c:	01004230 	andi	v0,v0,0x1
1d011b70:	09004014 	bnez	v0,0x1d011b98
1d011b74:	88bf023c 	lui	v0,0xbf88
1d011b78:	01000424 	li	a0,1
1d011b7c:	50524390 	lbu	v1,21072(v0)
1d011b80:	0400837c 	ins	v1,a0,0x0,0x1
1d011b84:	505243a0 	sb	v1,21072(v0)
1d011b88:	5052438c 	lw	v1,21072(v0)
1d011b8c:	01006330 	andi	v1,v1,0x1
1d011b90:	faff6010 	beqz	v1,0x1d011b7c
1d011b94:	00000000 	nop
1d011b98:	01000224 	li	v0,1
1d011b9c:	388182af 	sw	v0,-32456(gp)
1d011ba0:	1400bf8f 	lw	ra,20(sp)
1d011ba4:	0800e003 	jr	ra
1d011ba8:	1800bd27 	addiu	sp,sp,24
1d011bac:	f880828f 	lw	v0,-32520(gp)
1d011bb0:	17004014 	bnez	v0,0x1d011c10
1d011bb4:	01000224 	li	v0,1
1d011bb8:	f88082af 	sw	v0,-32520(gp)
1d011bbc:	0081828f 	lw	v0,-32512(gp)
1d011bc0:	13004014 	bnez	v0,0x1d011c10
1d011bc4:	01000224 	li	v0,1
1d011bc8:	008182af 	sw	v0,-32512(gp)
1d011bcc:	20818393 	lbu	v1,-32480(gp)
1d011bd0:	ff006330 	andi	v1,v1,0xff
1d011bd4:	02000224 	li	v0,2
1d011bd8:	0f006214 	bne	v1,v0,0x1d011c18
1d011bdc:	00a0033c 	lui	v1,0xa000
1d011be0:	1002628c 	lw	v0,528(v1)
1d011be4:	02004490 	lbu	a0,2(v0)
1d011be8:	020040a0 	sb	zero,2(v0)
1d011bec:	03004490 	lbu	a0,3(v0)
1d011bf0:	0408047c 	ins	a0,zero,0x0,0x2
1d011bf4:	030044a0 	sb	a0,3(v0)
1d011bf8:	1002628c 	lw	v0,528(v1)
1d011bfc:	00004390 	lbu	v1,0(v0)
1d011c00:	c8ff0324 	li	v1,-56
1d011c04:	000043a0 	sb	v1,0(v0)
1d011c08:	01004390 	lbu	v1,1(v0)
1d011c0c:	010040a0 	sb	zero,1(v0)
1d011c10:	0800e003 	jr	ra
1d011c14:	00000000 	nop
1d011c18:	20818393 	lbu	v1,-32480(gp)
1d011c1c:	ff006330 	andi	v1,v1,0xff
1d011c20:	01000224 	li	v0,1
1d011c24:	23006214 	bne	v1,v0,0x1d011cb4
1d011c28:	00000000 	nop
1d011c2c:	f08080af 	sw	zero,-32528(gp)
1d011c30:	2481828f 	lw	v0,-32476(gp)
1d011c34:	02004390 	lbu	v1,2(v0)
1d011c38:	40000424 	li	a0,64
1d011c3c:	020044a0 	sb	a0,2(v0)
1d011c40:	03004390 	lbu	v1,3(v0)
1d011c44:	0408037c 	ins	v1,zero,0x0,0x2
1d011c48:	030043a0 	sb	v1,3(v0)
1d011c4c:	2481828f 	lw	v0,-32476(gp)
1d011c50:	0c818327 	addiu	v1,gp,-32500
1d011c54:	00e0637c 	ext	v1,v1,0x0,0x1d
1d011c58:	070043a8 	swl	v1,7(v0)
1d011c5c:	040043b8 	swr	v1,4(v0)
1d011c60:	00004590 	lbu	a1,0(v0)
1d011c64:	84ff0524 	li	a1,-124
1d011c68:	000045a0 	sb	a1,0(v0)
1d011c6c:	01004590 	lbu	a1,1(v0)
1d011c70:	010040a0 	sb	zero,1(v0)
1d011c74:	01000224 	li	v0,1
1d011c78:	f08082af 	sw	v0,-32528(gp)
1d011c7c:	1c81828f 	lw	v0,-32484(gp)
1d011c80:	02004590 	lbu	a1,2(v0)
1d011c84:	020044a0 	sb	a0,2(v0)
1d011c88:	03004490 	lbu	a0,3(v0)
1d011c8c:	0408047c 	ins	a0,zero,0x0,0x2
1d011c90:	030044a0 	sb	a0,3(v0)
1d011c94:	1c81828f 	lw	v0,-32484(gp)
1d011c98:	070043a8 	swl	v1,7(v0)
1d011c9c:	040043b8 	swr	v1,4(v0)
1d011ca0:	00004390 	lbu	v1,0(v0)
1d011ca4:	80ff0324 	li	v1,-128
1d011ca8:	000043a0 	sb	v1,0(v0)
1d011cac:	01004390 	lbu	v1,1(v0)
1d011cb0:	010040a0 	sb	zero,1(v0)
1d011cb4:	0800e003 	jr	ra
1d011cb8:	00000000 	nop
1d011cbc:	e8ffbd27 	addiu	sp,sp,-24
1d011cc0:	1400bfaf 	sw	ra,20(sp)
1d011cc4:	308180af 	sw	zero,-32464(gp)
1d011cc8:	348180af 	sw	zero,-32460(gp)
1d011ccc:	20818393 	lbu	v1,-32480(gp)
1d011cd0:	ff006330 	andi	v1,v1,0xff
1d011cd4:	02000224 	li	v0,2
1d011cd8:	14006214 	bne	v1,v0,0x1d011d2c
1d011cdc:	1c81828f 	lw	v0,-32484(gp)
1d011ce0:	02004390 	lbu	v1,2(v0)
1d011ce4:	40000324 	li	v1,64
1d011ce8:	020043a0 	sb	v1,2(v0)
1d011cec:	03004390 	lbu	v1,3(v0)
1d011cf0:	0408037c 	ins	v1,zero,0x0,0x2
1d011cf4:	030043a0 	sb	v1,3(v0)
1d011cf8:	1c81828f 	lw	v0,-32484(gp)
1d011cfc:	00a0033c 	lui	v1,0xa000
1d011d00:	90046324 	addiu	v1,v1,1168
1d011d04:	00e0637c 	ext	v1,v1,0x0,0x1d
1d011d08:	070043a8 	swl	v1,7(v0)
1d011d0c:	040043b8 	swr	v1,4(v0)
1d011d10:	00004390 	lbu	v1,0(v0)
1d011d14:	c8ff0324 	li	v1,-56
1d011d18:	000043a0 	sb	v1,0(v0)
1d011d1c:	01004390 	lbu	v1,1(v0)
1d011d20:	010040a0 	sb	zero,1(v0)
1d011d24:	6847400b 	j	0x1d011da0
1d011d28:	1400bf8f 	lw	ra,20(sp)
1d011d2c:	12818397 	lhu	v1,-32494(gp)
1d011d30:	ffff6330 	andi	v1,v1,0xffff
1d011d34:	00a0023c 	lui	v0,0xa000
1d011d38:	80044224 	addiu	v0,v0,1152
1d011d3c:	08004294 	lhu	v0,8(v0)
1d011d40:	ffff4230 	andi	v0,v0,0xffff
1d011d44:	2b106200 	sltu	v0,v1,v0
1d011d48:	06004010 	beqz	v0,0x1d011d64
1d011d4c:	00000000 	nop
1d011d50:	12818397 	lhu	v1,-32494(gp)
1d011d54:	ffff6330 	andi	v1,v1,0xffff
1d011d58:	00a0023c 	lui	v0,0xa000
1d011d5c:	80044224 	addiu	v0,v0,1152
1d011d60:	080043a4 	sh	v1,8(v0)
1d011d64:	e744400f 	jal	0x1d01139c
1d011d68:	00000000 	nop
1d011d6c:	00a0023c 	lui	v0,0xa000
1d011d70:	1002428c 	lw	v0,528(v0)
1d011d74:	00a0033c 	lui	v1,0xa000
1d011d78:	90046324 	addiu	v1,v1,1168
1d011d7c:	00e0637c 	ext	v1,v1,0x0,0x1d
1d011d80:	070043a8 	swl	v1,7(v0)
1d011d84:	040043b8 	swr	v1,4(v0)
1d011d88:	00004390 	lbu	v1,0(v0)
1d011d8c:	c8ff0324 	li	v1,-56
1d011d90:	000043a0 	sb	v1,0(v0)
1d011d94:	01004390 	lbu	v1,1(v0)
1d011d98:	010040a0 	sb	zero,1(v0)
1d011d9c:	1400bf8f 	lw	ra,20(sp)
1d011da0:	0800e003 	jr	ra
1d011da4:	1800bd27 	addiu	sp,sp,24
1d011da8:	00e85d41 	rdpgpr	sp,sp
1d011dac:	00701b40 	mfc0	k1,c0_epc
1d011db0:	02601a40 	mfc0	k0,c0_srsctl
1d011db4:	68ffbd27 	addiu	sp,sp,-152
1d011db8:	9400bbaf 	sw	k1,148(sp)
1d011dbc:	00601b40 	mfc0	k1,c0_status
1d011dc0:	9000baaf 	sw	k0,144(sp)
1d011dc4:	00681a40 	mfc0	k0,c0_cause
1d011dc8:	8c00bbaf 	sw	k1,140(sp)
1d011dcc:	82d21a00 	srl	k0,k0,0xa
1d011dd0:	847a5b7f 	ins	k1,k0,0xa,0x6
1d011dd4:	44201b7c 	ins	k1,zero,0x1,0x4
1d011dd8:	00609b40 	mtc0	k1,c0_status
1d011ddc:	2000a3af 	sw	v1,32(sp)
1d011de0:	1c00a2af 	sw	v0,28(sp)
1d011de4:	9000a38f 	lw	v1,144(sp)
1d011de8:	0f006330 	andi	v1,v1,0xf
1d011dec:	19006014 	bnez	v1,0x1d011e54
1d011df0:	00000000 	nop
1d011df4:	7c00bfaf 	sw	ra,124(sp)
1d011df8:	7800b9af 	sw	t9,120(sp)
1d011dfc:	7400b8af 	sw	t8,116(sp)
1d011e00:	7000b7af 	sw	s7,112(sp)
1d011e04:	6c00b6af 	sw	s6,108(sp)
1d011e08:	6800b5af 	sw	s5,104(sp)
1d011e0c:	6400b4af 	sw	s4,100(sp)
1d011e10:	6000b3af 	sw	s3,96(sp)
1d011e14:	5c00b2af 	sw	s2,92(sp)
1d011e18:	5800b1af 	sw	s1,88(sp)
1d011e1c:	5400b0af 	sw	s0,84(sp)
1d011e20:	5000afaf 	sw	t7,80(sp)
1d011e24:	4c00aeaf 	sw	t6,76(sp)
1d011e28:	4800adaf 	sw	t5,72(sp)
1d011e2c:	4400acaf 	sw	t4,68(sp)
1d011e30:	4000abaf 	sw	t3,64(sp)
1d011e34:	3c00aaaf 	sw	t2,60(sp)
1d011e38:	3800a9af 	sw	t1,56(sp)
1d011e3c:	3400a8af 	sw	t0,52(sp)
1d011e40:	3000a7af 	sw	a3,48(sp)
1d011e44:	2c00a6af 	sw	a2,44(sp)
1d011e48:	2800a5af 	sw	a1,40(sp)
1d011e4c:	2400a4af 	sw	a0,36(sp)
1d011e50:	1800a1af 	sw	at,24(sp)
1d011e54:	12100000 	mflo	v0
1d011e58:	8400a2af 	sw	v0,132(sp)
1d011e5c:	10180000 	mfhi	v1
1d011e60:	8000a3af 	sw	v1,128(sp)
1d011e64:	3881838f 	lw	v1,-32456(gp)
1d011e68:	01000224 	li	v0,1
1d011e6c:	0f006214 	bne	v1,v0,0x1d011eac
1d011e70:	88bf023c 	lui	v0,0xbf88
1d011e74:	ff000324 	li	v1,255
1d011e78:	88bf023c 	lui	v0,0xbf88
1d011e7c:	005243ac 	sw	v1,20992(v0)
1d011e80:	88bf023c 	lui	v0,0xbf88
1d011e84:	10524390 	lbu	v1,21008(v0)
1d011e88:	01000424 	li	a0,1
1d011e8c:	0400837c 	ins	v1,a0,0x0,0x1
1d011e90:	105243a0 	sb	v1,21008(v0)
1d011e94:	10524390 	lbu	v1,21008(v0)
1d011e98:	0421837c 	ins	v1,a0,0x4,0x1
1d011e9c:	105243a0 	sb	v1,21008(v0)
1d011ea0:	02000224 	li	v0,2
1d011ea4:	388182af 	sw	v0,-32456(gp)
1d011ea8:	88bf023c 	lui	v0,0xbf88
1d011eac:	4050428c 	lw	v0,20544(v0)
1d011eb0:	10004230 	andi	v0,v0,0x10
1d011eb4:	14004010 	beqz	v0,0x1d011f08
1d011eb8:	88bf023c 	lui	v0,0xbf88
1d011ebc:	88bf023c 	lui	v0,0xbf88
1d011ec0:	5050428c 	lw	v0,20560(v0)
1d011ec4:	10004230 	andi	v0,v0,0x10
1d011ec8:	0f004010 	beqz	v0,0x1d011f08
1d011ecc:	88bf023c 	lui	v0,0xbf88
1d011ed0:	88bf103c 	lui	s0,0xbf88
1d011ed4:	10001124 	li	s1,16
1d011ed8:	405011ae 	sw	s1,20544(s0)
1d011edc:	148180af 	sw	zero,-32492(gp)
1d011ee0:	74000424 	li	a0,116
1d011ee4:	21280000 	move	a1,zero
1d011ee8:	437f400f 	jal	0x1d01fd0c
1d011eec:	21300000 	move	a2,zero
1d011ef0:	88bf023c 	lui	v0,0xbf88
1d011ef4:	50504390 	lbu	v1,20560(v0)
1d011ef8:	0421037c 	ins	v1,zero,0x4,0x1
1d011efc:	505043a0 	sb	v1,20560(v0)
1d011f00:	405011ae 	sw	s1,20544(s0)
1d011f04:	88bf023c 	lui	v0,0xbf88
1d011f08:	8050428c 	lw	v0,20608(v0)
1d011f0c:	02004230 	andi	v0,v0,0x2
1d011f10:	05004010 	beqz	v0,0x1d011f28
1d011f14:	88bf023c 	lui	v0,0xbf88
1d011f18:	4281400f 	jal	0x1d020508
1d011f1c:	69000424 	li	a0,105
1d011f20:	7b4c400b 	j	0x1d0131ec
1d011f24:	00000000 	nop
1d011f28:	0052428c 	lw	v0,20992(v0)
1d011f2c:	01004230 	andi	v0,v0,0x1
1d011f30:	11004010 	beqz	v0,0x1d011f78
1d011f34:	88bf023c 	lui	v0,0xbf88
1d011f38:	88bf023c 	lui	v0,0xbf88
1d011f3c:	1052428c 	lw	v0,21008(v0)
1d011f40:	01004230 	andi	v0,v0,0x1
1d011f44:	0c004010 	beqz	v0,0x1d011f78
1d011f48:	88bf023c 	lui	v0,0xbf88
1d011f4c:	4f45400f 	jal	0x1d01153c
1d011f50:	00000000 	nop
1d011f54:	0002033c 	lui	v1,0x200
1d011f58:	88bf023c 	lui	v0,0xbf88
1d011f5c:	781043ac 	sw	v1,4216(v0)
1d011f60:	04000224 	li	v0,4
1d011f64:	388182af 	sw	v0,-32456(gp)
1d011f68:	01000324 	li	v1,1
1d011f6c:	88bf023c 	lui	v0,0xbf88
1d011f70:	005243ac 	sw	v1,20992(v0)
1d011f74:	88bf023c 	lui	v0,0xbf88
1d011f78:	0052428c 	lw	v0,20992(v0)
1d011f7c:	10004230 	andi	v0,v0,0x10
1d011f80:	15004010 	beqz	v0,0x1d011fd8
1d011f84:	88bf023c 	lui	v0,0xbf88
1d011f88:	88bf023c 	lui	v0,0xbf88
1d011f8c:	1052428c 	lw	v0,21008(v0)
1d011f90:	10004230 	andi	v0,v0,0x10
1d011f94:	10004010 	beqz	v0,0x1d011fd8
1d011f98:	88bf023c 	lui	v0,0xbf88
1d011f9c:	88bf033c 	lui	v1,0xbf88
1d011fa0:	50506490 	lbu	a0,20560(v1)
1d011fa4:	01000224 	li	v0,1
1d011fa8:	0421447c 	ins	a0,v0,0x4,0x1
1d011fac:	505064a0 	sb	a0,20560(v1)
1d011fb0:	88bf103c 	lui	s0,0xbf88
1d011fb4:	10001124 	li	s1,16
1d011fb8:	005211ae 	sw	s1,20992(s0)
1d011fbc:	148182af 	sw	v0,-32492(gp)
1d011fc0:	75000424 	li	a0,117
1d011fc4:	21280000 	move	a1,zero
1d011fc8:	437f400f 	jal	0x1d01fd0c
1d011fcc:	21300000 	move	a2,zero
1d011fd0:	005211ae 	sw	s1,20992(s0)
1d011fd4:	88bf023c 	lui	v0,0xbf88
1d011fd8:	0052428c 	lw	v0,20992(v0)
1d011fdc:	04004230 	andi	v0,v0,0x4
1d011fe0:	1c004010 	beqz	v0,0x1d012054
1d011fe4:	88bf023c 	lui	v0,0xbf88
1d011fe8:	88bf023c 	lui	v0,0xbf88
1d011fec:	1052428c 	lw	v0,21008(v0)
1d011ff0:	04004230 	andi	v0,v0,0x4
1d011ff4:	06004010 	beqz	v0,0x1d012010
1d011ff8:	04000324 	li	v1,4
1d011ffc:	73000424 	li	a0,115
1d012000:	21280000 	move	a1,zero
1d012004:	437f400f 	jal	0x1d01fd0c
1d012008:	01000624 	li	a2,1
1d01200c:	04000324 	li	v1,4
1d012010:	88bf023c 	lui	v0,0xbf88
1d012014:	005243ac 	sw	v1,20992(v0)
1d012018:	3c818293 	lbu	v0,-32452(gp)
1d01201c:	ff004230 	andi	v0,v0,0xff
1d012020:	05004010 	beqz	v0,0x1d012038
1d012024:	00000000 	nop
1d012028:	3c818293 	lbu	v0,-32452(gp)
1d01202c:	ffff4224 	addiu	v0,v0,-1
1d012030:	ff004230 	andi	v0,v0,0xff
1d012034:	3c8182a3 	sb	v0,-32452(gp)
1d012038:	3c818293 	lbu	v0,-32452(gp)
1d01203c:	ff004230 	andi	v0,v0,0xff
1d012040:	04004014 	bnez	v0,0x1d012054
1d012044:	88bf023c 	lui	v0,0xbf88
1d012048:	eb46400f 	jal	0x1d011bac
1d01204c:	00000000 	nop
1d012050:	88bf023c 	lui	v0,0xbf88
1d012054:	0052428c 	lw	v0,20992(v0)
1d012058:	80004230 	andi	v0,v0,0x80
1d01205c:	2c004010 	beqz	v0,0x1d012110
1d012060:	88bf023c 	lui	v0,0xbf88
1d012064:	88bf023c 	lui	v0,0xbf88
1d012068:	1052428c 	lw	v0,21008(v0)
1d01206c:	80004230 	andi	v0,v0,0x80
1d012070:	27004010 	beqz	v0,0x1d012110
1d012074:	88bf023c 	lui	v0,0xbf88
1d012078:	88bf023c 	lui	v0,0xbf88
1d01207c:	0053428c 	lw	v0,21248(v0)
1d012080:	02004230 	andi	v0,v0,0x2
1d012084:	1e004010 	beqz	v0,0x1d012100
1d012088:	2481828f 	lw	v0,-32476(gp)
1d01208c:	00004390 	lbu	v1,0(v0)
1d012090:	ff006330 	andi	v1,v1,0xff
1d012094:	01004490 	lbu	a0,1(v0)
1d012098:	ff008430 	andi	a0,a0,0xff
1d01209c:	00220400 	sll	a0,a0,0x8
1d0120a0:	25208300 	or	a0,a0,v1
1d0120a4:	80000324 	li	v1,128
1d0120a8:	12008354 	bnel	a0,v1,0x1d0120f4
1d0120ac:	88bf023c 	lui	v0,0xbf88
1d0120b0:	00a0033c 	lui	v1,0xa000
1d0120b4:	1002638c 	lw	v1,528(v1)
1d0120b8:	00006490 	lbu	a0,0(v1)
1d0120bc:	ff008430 	andi	a0,a0,0xff
1d0120c0:	01006390 	lbu	v1,1(v1)
1d0120c4:	ff006330 	andi	v1,v1,0xff
1d0120c8:	001a0300 	sll	v1,v1,0x8
1d0120cc:	25206400 	or	a0,v1,a0
1d0120d0:	84000324 	li	v1,132
1d0120d4:	07008354 	bnel	a0,v1,0x1d0120f4
1d0120d8:	88bf023c 	lui	v0,0xbf88
1d0120dc:	00004390 	lbu	v1,0(v0)
1d0120e0:	8cff0324 	li	v1,-116
1d0120e4:	000043a0 	sb	v1,0(v0)
1d0120e8:	01004390 	lbu	v1,1(v0)
1d0120ec:	010040a0 	sb	zero,1(v0)
1d0120f0:	88bf023c 	lui	v0,0xbf88
1d0120f4:	00534390 	lbu	v1,21248(v0)
1d0120f8:	4408037c 	ins	v1,zero,0x1,0x1
1d0120fc:	005343a0 	sb	v1,21248(v0)
1d012100:	80000324 	li	v1,128
1d012104:	88bf023c 	lui	v0,0xbf88
1d012108:	005243ac 	sw	v1,20992(v0)
1d01210c:	88bf023c 	lui	v0,0xbf88
1d012110:	0052428c 	lw	v0,20992(v0)
1d012114:	02004230 	andi	v0,v0,0x2
1d012118:	0f004010 	beqz	v0,0x1d012158
1d01211c:	88bf023c 	lui	v0,0xbf88
1d012120:	1052428c 	lw	v0,21008(v0)
1d012124:	02004230 	andi	v0,v0,0x2
1d012128:	0b004010 	beqz	v0,0x1d012158
1d01212c:	ff7f043c 	lui	a0,0x7fff
1d012130:	ffff8434 	ori	a0,a0,0xffff
1d012134:	21280000 	move	a1,zero
1d012138:	437f400f 	jal	0x1d01fd0c
1d01213c:	01000624 	li	a2,1
1d012140:	ff000324 	li	v1,255
1d012144:	88bf023c 	lui	v0,0xbf88
1d012148:	205243ac 	sw	v1,21024(v0)
1d01214c:	02000324 	li	v1,2
1d012150:	88bf023c 	lui	v0,0xbf88
1d012154:	005243ac 	sw	v1,20992(v0)
1d012158:	3881828f 	lw	v0,-32456(gp)
1d01215c:	0400422c 	sltiu	v0,v0,4
1d012160:	05004010 	beqz	v0,0x1d012178
1d012164:	88bf023c 	lui	v0,0xbf88
1d012168:	4281400f 	jal	0x1d020508
1d01216c:	69000424 	li	a0,105
1d012170:	7b4c400b 	j	0x1d0131ec
1d012174:	00000000 	nop
1d012178:	1052428c 	lw	v0,21008(v0)
1d01217c:	08004230 	andi	v0,v0,0x8
1d012180:	18044010 	beqz	v0,0x1d0131e4
1d012184:	88bf023c 	lui	v0,0xbf88
1d012188:	0052428c 	lw	v0,20992(v0)
1d01218c:	08004230 	andi	v0,v0,0x8
1d012190:	14044010 	beqz	v0,0x1d0131e4
1d012194:	00000000 	nop
1d012198:	04001024 	li	s0,4
1d01219c:	00a0113c 	lui	s1,0xa000
1d0121a0:	00a0123c 	lui	s2,0xa000
1d0121a4:	00a0133c 	lui	s3,0xa000
1d0121a8:	10047326 	addiu	s3,s3,1040
1d0121ac:	029d143c 	lui	s4,0x9d02
1d0121b0:	7248400b 	j	0x1d0121c8
1d0121b4:	641f9426 	addiu	s4,s4,8036
1d0121b8:	0052428c 	lw	v0,20992(v0)
1d0121bc:	08004230 	andi	v0,v0,0x8
1d0121c0:	08044010 	beqz	v0,0x1d0131e4
1d0121c4:	00000000 	nop
1d0121c8:	88bf023c 	lui	v0,0xbf88
1d0121cc:	4052428c 	lw	v0,21056(v0)
1d0121d0:	ff004230 	andi	v0,v0,0xff
1d0121d4:	088182a3 	sb	v0,-32504(gp)
1d0121d8:	0881828f 	lw	v0,-32504(gp)
1d0121dc:	0019427c 	ext	v0,v0,0x4,0x4
1d0121e0:	2c8182a3 	sb	v0,-32468(gp)
1d0121e4:	08000324 	li	v1,8
1d0121e8:	88bf023c 	lui	v0,0xbf88
1d0121ec:	005243ac 	sw	v1,20992(v0)
1d0121f0:	08818293 	lbu	v0,-32504(gp)
1d0121f4:	08004230 	andi	v0,v0,0x8
1d0121f8:	ff004230 	andi	v0,v0,0xff
1d0121fc:	0d004014 	bnez	v0,0x1d012234
1d012200:	00000000 	nop
1d012204:	2c818293 	lbu	v0,-32468(gp)
1d012208:	ff004230 	andi	v0,v0,0xff
1d01220c:	18818327 	addiu	v1,gp,-32488
1d012210:	21106200 	addu	v0,v1,v0
1d012214:	00004490 	lbu	a0,0(v0)
1d012218:	01008430 	andi	a0,a0,0x1
1d01221c:	01008438 	xori	a0,a0,0x1
1d012220:	00004390 	lbu	v1,0(v0)
1d012224:	0400837c 	ins	v1,a0,0x0,0x1
1d012228:	000043a0 	sb	v1,0(v0)
1d01222c:	9748400b 	j	0x1d01225c
1d012230:	00000000 	nop
1d012234:	2c818293 	lbu	v0,-32468(gp)
1d012238:	ff004230 	andi	v0,v0,0xff
1d01223c:	48818327 	addiu	v1,gp,-32440
1d012240:	21106200 	addu	v0,v1,v0
1d012244:	00004490 	lbu	a0,0(v0)
1d012248:	01008430 	andi	a0,a0,0x1
1d01224c:	01008438 	xori	a0,a0,0x1
1d012250:	00004390 	lbu	v1,0(v0)
1d012254:	0400837c 	ins	v1,a0,0x0,0x1
1d012258:	000043a0 	sb	v1,0(v0)
1d01225c:	2c818293 	lbu	v0,-32468(gp)
1d012260:	ff004230 	andi	v0,v0,0xff
1d012264:	d8034014 	bnez	v0,0x1d0131c8
1d012268:	72000424 	li	a0,114
1d01226c:	2d000224 	li	v0,45
1d012270:	3c8182a3 	sb	v0,-32452(gp)
1d012274:	08818293 	lbu	v0,-32504(gp)
1d012278:	fb004230 	andi	v0,v0,0xfb
1d01227c:	71034014 	bnez	v0,0x1d013044
1d012280:	00000000 	nop
1d012284:	08818393 	lbu	v1,-32504(gp)
1d012288:	8028637c 	ext	v1,v1,0x2,0x6
1d01228c:	c0180300 	sll	v1,v1,0x3
1d012290:	00a0023c 	lui	v0,0xa000
1d012294:	00044224 	addiu	v0,v0,1024
1d012298:	21104300 	addu	v0,v0,v1
1d01229c:	248182af 	sw	v0,-32476(gp)
1d0122a0:	1c8182af 	sw	v0,-32484(gp)
1d0122a4:	08004338 	xori	v1,v0,0x8
1d0122a8:	1c8183a3 	sb	v1,-32484(gp)
1d0122ac:	00004490 	lbu	a0,0(v0)
1d0122b0:	3c008430 	andi	a0,a0,0x3c
1d0122b4:	34000324 	li	v1,52
1d0122b8:	cd028314 	bne	a0,v1,0x1d012df0
1d0122bc:	0c819527 	addiu	s5,gp,-32500
1d0122c0:	0800a626 	addiu	a2,s5,8
1d0122c4:	2118a002 	move	v1,s5
1d0122c8:	00a0053c 	lui	a1,0xa000
1d0122cc:	0400448c 	lw	a0,4(v0)
1d0122d0:	25208500 	or	a0,a0,a1
1d0122d4:	00008490 	lbu	a0,0(a0)
1d0122d8:	000064a0 	sb	a0,0(v1)
1d0122dc:	0400448c 	lw	a0,4(v0)
1d0122e0:	01008424 	addiu	a0,a0,1
1d0122e4:	040044ac 	sw	a0,4(v0)
1d0122e8:	01006324 	addiu	v1,v1,1
1d0122ec:	f7ff6614 	bne	v1,a2,0x1d0122cc
1d0122f0:	00000000 	nop
1d0122f4:	00e0b57e 	ext	s5,s5,0x0,0x1d
1d0122f8:	040055ac 	sw	s5,4(v0)
1d0122fc:	048180a3 	sb	zero,-32508(gp)
1d012300:	f48080af 	sw	zero,-32524(gp)
1d012304:	308180af 	sw	zero,-32464(gp)
1d012308:	348180af 	sw	zero,-32460(gp)
1d01230c:	f08080af 	sw	zero,-32528(gp)
1d012310:	208180a3 	sb	zero,-32480(gp)
1d012314:	1002228e 	lw	v0,528(s1)
1d012318:	00004390 	lbu	v1,0(v0)
1d01231c:	01004490 	lbu	a0,1(v0)
1d012320:	ff008430 	andi	a0,a0,0xff
1d012324:	00220400 	sll	a0,a0,0x8
1d012328:	7f006330 	andi	v1,v1,0x7f
1d01232c:	25186400 	or	v1,v1,a0
1d012330:	ff006430 	andi	a0,v1,0xff
1d012334:	00004590 	lbu	a1,0(v0)
1d012338:	000044a0 	sb	a0,0(v0)
1d01233c:	021a0300 	srl	v1,v1,0x8
1d012340:	01004490 	lbu	a0,1(v0)
1d012344:	010043a0 	sb	v1,1(v0)
1d012348:	10022292 	lbu	v0,528(s1)
1d01234c:	08004238 	xori	v0,v0,0x8
1d012350:	100222a2 	sb	v0,528(s1)
1d012354:	1002228e 	lw	v0,528(s1)
1d012358:	00004390 	lbu	v1,0(v0)
1d01235c:	01004490 	lbu	a0,1(v0)
1d012360:	ff008430 	andi	a0,a0,0xff
1d012364:	00220400 	sll	a0,a0,0x8
1d012368:	7f006330 	andi	v1,v1,0x7f
1d01236c:	25186400 	or	v1,v1,a0
1d012370:	ff006430 	andi	a0,v1,0xff
1d012374:	00004590 	lbu	a1,0(v0)
1d012378:	000044a0 	sb	a0,0(v0)
1d01237c:	021a0300 	srl	v1,v1,0x8
1d012380:	01004490 	lbu	a0,1(v0)
1d012384:	010043a0 	sb	v1,1(v0)
1d012388:	10022292 	lbu	v0,528(s1)
1d01238c:	08004238 	xori	v0,v0,0x8
1d012390:	100222a2 	sb	v0,528(s1)
1d012394:	1c81828f 	lw	v0,-32484(gp)
1d012398:	00004390 	lbu	v1,0(v0)
1d01239c:	01004490 	lbu	a0,1(v0)
1d0123a0:	ff008430 	andi	a0,a0,0xff
1d0123a4:	00220400 	sll	a0,a0,0x8
1d0123a8:	7f006330 	andi	v1,v1,0x7f
1d0123ac:	25186400 	or	v1,v1,a0
1d0123b0:	ff006430 	andi	a0,v1,0xff
1d0123b4:	00004590 	lbu	a1,0(v0)
1d0123b8:	000044a0 	sb	a0,0(v0)
1d0123bc:	021a0300 	srl	v1,v1,0x8
1d0123c0:	01004490 	lbu	a0,1(v0)
1d0123c4:	010043a0 	sb	v1,1(v0)
1d0123c8:	80044226 	addiu	v0,s2,1152
1d0123cc:	040040a0 	sb	zero,4(v0)
1d0123d0:	080040a4 	sh	zero,8(v0)
1d0123d4:	00a0023c 	lui	v0,0xa000
1d0123d8:	d0044224 	addiu	v0,v0,1232
1d0123dc:	040040a0 	sb	zero,4(v0)
1d0123e0:	0400438c 	lw	v1,4(v0)
1d0123e4:	04ba037c 	ins	v1,zero,0x8,0x10
1d0123e8:	040043ac 	sw	v1,4(v0)
1d0123ec:	0c818293 	lbu	v0,-32500(gp)
1d0123f0:	60004230 	andi	v0,v0,0x60
1d0123f4:	1d024014 	bnez	v0,0x1d012c6c
1d0123f8:	03000424 	li	a0,3
1d0123fc:	0d818293 	lbu	v0,-32499(gp)
1d012400:	ff004230 	andi	v0,v0,0xff
1d012404:	0c00432c 	sltiu	v1,v0,12
1d012408:	18026010 	beqz	v1,0x1d012c6c
1d01240c:	80100200 	sll	v0,v0,0x2
1d012410:	019d033c 	lui	v1,0x9d01
1d012414:	28246324 	addiu	v1,v1,9256
1d012418:	21106200 	addu	v0,v1,v0
1d01241c:	0000428c 	lw	v0,0(v0)
1d012420:	08004000 	jr	v0
1d012424:	00000000 	nop
1d012428:	8826019d 	0x9d012688
1d01242c:	e427019d 	0x9d0127e4
1d012430:	682c019d 	0x9d012c68
1d012434:	e427019d 	0x9d0127e4
1d012438:	682c019d 	0x9d012c68
1d01243c:	5824019d 	0x9d012458
1d012440:	7c24019d 	0x9d01247c
1d012444:	582c019d 	0x9d012c58
1d012448:	5426019d 	0x9d012654
1d01244c:	8025019d 	0x9d012580
1d012450:	e02b019d 	0x9d012be0
1d012454:	202c019d 	0x9d012c20
1d012458:	80044226 	addiu	v0,s2,1152
1d01245c:	04004390 	lbu	v1,4(v0)
1d012460:	01000424 	li	a0,1
1d012464:	c439837c 	ins	v1,a0,0x7,0x1
1d012468:	040043a0 	sb	v1,4(v0)
1d01246c:	08000224 	li	v0,8
1d012470:	388182af 	sw	v0,-32456(gp)
1d012474:	1b4b400b 	j	0x1d012c6c
1d012478:	03000424 	li	a0,3
1d01247c:	0c818393 	lbu	v1,-32500(gp)
1d012480:	ff006330 	andi	v1,v1,0xff
1d012484:	80000224 	li	v0,128
1d012488:	f8016214 	bne	v1,v0,0x1d012c6c
1d01248c:	03000424 	li	a0,3
1d012490:	80044226 	addiu	v0,s2,1152
1d012494:	c0ff0324 	li	v1,-64
1d012498:	040043a0 	sb	v1,4(v0)
1d01249c:	0f818293 	lbu	v0,-32497(gp)
1d0124a0:	ff004230 	andi	v0,v0,0xff
1d0124a4:	02000324 	li	v1,2
1d0124a8:	0b004310 	beq	v0,v1,0x1d0124d8
1d0124ac:	03000324 	li	v1,3
1d0124b0:	1a004310 	beq	v0,v1,0x1d01251c
1d0124b4:	01000324 	li	v1,1
1d0124b8:	2e004314 	bne	v0,v1,0x1d012574
1d0124bc:	80044226 	addiu	v0,s2,1152
1d0124c0:	800454ae 	sw	s4,1152(s2)
1d0124c4:	80044226 	addiu	v0,s2,1152
1d0124c8:	12000324 	li	v1,18
1d0124cc:	080043a4 	sh	v1,8(v0)
1d0124d0:	1b4b400b 	j	0x1d012c6c
1d0124d4:	03000424 	li	a0,3
1d0124d8:	0e818293 	lbu	v0,-32498(gp)
1d0124dc:	ff004230 	andi	v0,v0,0xff
1d0124e0:	80100200 	sll	v0,v0,0x2
1d0124e4:	029d033c 	lui	v1,0x9d02
1d0124e8:	cc1e6324 	addiu	v1,v1,7884
1d0124ec:	21106200 	addu	v0,v1,v0
1d0124f0:	0000428c 	lw	v0,0(v0)
1d0124f4:	800442ae 	sw	v0,1152(s2)
1d0124f8:	8004428e 	lw	v0,1152(s2)
1d0124fc:	02004390 	lbu	v1,2(v0)
1d012500:	80044226 	addiu	v0,s2,1152
1d012504:	080043a0 	sb	v1,8(v0)
1d012508:	8004438e 	lw	v1,1152(s2)
1d01250c:	03006390 	lbu	v1,3(v1)
1d012510:	090043a0 	sb	v1,9(v0)
1d012514:	1b4b400b 	j	0x1d012c6c
1d012518:	03000424 	li	a0,3
1d01251c:	0e818293 	lbu	v0,-32498(gp)
1d012520:	ff004230 	andi	v0,v0,0xff
1d012524:	0300422c 	sltiu	v0,v0,3
1d012528:	0f004010 	beqz	v0,0x1d012568
1d01252c:	80044226 	addiu	v0,s2,1152
1d012530:	0e818293 	lbu	v0,-32498(gp)
1d012534:	ff004230 	andi	v0,v0,0xff
1d012538:	80100200 	sll	v0,v0,0x2
1d01253c:	029d033c 	lui	v1,0x9d02
1d012540:	c01e6324 	addiu	v1,v1,7872
1d012544:	21106200 	addu	v0,v1,v0
1d012548:	0000428c 	lw	v0,0(v0)
1d01254c:	800442ae 	sw	v0,1152(s2)
1d012550:	8004428e 	lw	v0,1152(s2)
1d012554:	00004390 	lbu	v1,0(v0)
1d012558:	80044226 	addiu	v0,s2,1152
1d01255c:	080043a4 	sh	v1,8(v0)
1d012560:	1b4b400b 	j	0x1d012c6c
1d012564:	03000424 	li	a0,3
1d012568:	040040a0 	sb	zero,4(v0)
1d01256c:	1b4b400b 	j	0x1d012c6c
1d012570:	03000424 	li	a0,3
1d012574:	040040a0 	sb	zero,4(v0)
1d012578:	1b4b400b 	j	0x1d012c6c
1d01257c:	03000424 	li	a0,3
1d012580:	80044226 	addiu	v0,s2,1152
1d012584:	04004390 	lbu	v1,4(v0)
1d012588:	01001724 	li	s7,1
1d01258c:	c439e37e 	ins	v1,s7,0x7,0x1
1d012590:	040043a0 	sb	v1,4(v0)
1d012594:	88bf023c 	lui	v0,0xbf88
1d012598:	105340ac 	sw	zero,21264(v0)
1d01259c:	10534224 	addiu	v0,v0,21264
1d0125a0:	100040ac 	sw	zero,16(v0)
1d0125a4:	200040ac 	sw	zero,32(v0)
1d0125a8:	00a0163c 	lui	s6,0xa000
1d0125ac:	0004d626 	addiu	s6,s6,1024
1d0125b0:	2120c002 	move	a0,s6
1d0125b4:	21280000 	move	a1,zero
1d0125b8:	9288400f 	jal	0x1d022248
1d0125bc:	80000624 	li	a2,128
1d0125c0:	88bf023c 	lui	v0,0xbf88
1d0125c4:	50524390 	lbu	v1,21072(v0)
1d0125c8:	4408e37e 	ins	v1,s7,0x1,0x1
1d0125cc:	505243a0 	sb	v1,21072(v0)
1d0125d0:	488180a3 	sb	zero,-32440(gp)
1d0125d4:	188180a3 	sb	zero,-32488(gp)
1d0125d8:	498180a3 	sb	zero,-32439(gp)
1d0125dc:	198180a3 	sb	zero,-32487(gp)
1d0125e0:	4a8180a3 	sb	zero,-32438(gp)
1d0125e4:	1a8180a3 	sb	zero,-32486(gp)
1d0125e8:	4b8180a3 	sb	zero,-32437(gp)
1d0125ec:	1b8180a3 	sb	zero,-32485(gp)
1d0125f0:	448180a3 	sb	zero,-32444(gp)
1d0125f4:	50524390 	lbu	v1,21072(v0)
1d0125f8:	4408037c 	ins	v1,zero,0x1,0x1
1d0125fc:	505243a0 	sb	v1,21072(v0)
1d012600:	100233ae 	sw	s3,528(s1)
1d012604:	248196af 	sw	s6,-32476(gp)
1d012608:	1c8196af 	sw	s6,-32484(gp)
1d01260c:	0e818293 	lbu	v0,-32498(gp)
1d012610:	ff004230 	andi	v0,v0,0xff
1d012614:	fc8082a3 	sb	v0,-32516(gp)
1d012618:	fc808293 	lbu	v0,-32516(gp)
1d01261c:	ff004230 	andi	v0,v0,0xff
1d012620:	04004014 	bnez	v0,0x1d012634
1d012624:	10000224 	li	v0,16
1d012628:	388182af 	sw	v0,-32456(gp)
1d01262c:	1b4b400b 	j	0x1d012c6c
1d012630:	03000424 	li	a0,3
1d012634:	01000424 	li	a0,1
1d012638:	fc808527 	addiu	a1,gp,-32516
1d01263c:	437f400f 	jal	0x1d01fd0c
1d012640:	01000624 	li	a2,1
1d012644:	20000224 	li	v0,32
1d012648:	388182af 	sw	v0,-32456(gp)
1d01264c:	1b4b400b 	j	0x1d012c6c
1d012650:	03000424 	li	a0,3
1d012654:	fc808227 	addiu	v0,gp,-32516
1d012658:	800442ae 	sw	v0,1152(s2)
1d01265c:	80044226 	addiu	v0,s2,1152
1d012660:	04004490 	lbu	a0,4(v0)
1d012664:	01000324 	li	v1,1
1d012668:	0400647c 	ins	a0,v1,0x0,0x1
1d01266c:	040044a0 	sb	a0,4(v0)
1d012670:	080043a0 	sb	v1,8(v0)
1d012674:	04004490 	lbu	a0,4(v0)
1d012678:	c439647c 	ins	a0,v1,0x7,0x1
1d01267c:	040044a0 	sb	a0,4(v0)
1d012680:	1b4b400b 	j	0x1d012c6c
1d012684:	03000424 	li	a0,3
1d012688:	00a0023c 	lui	v0,0xa000
1d01268c:	900440a0 	sb	zero,1168(v0)
1d012690:	90044224 	addiu	v0,v0,1168
1d012694:	010040a0 	sb	zero,1(v0)
1d012698:	0c81828f 	lw	v0,-32500(gp)
1d01269c:	1f004230 	andi	v0,v0,0x1f
1d0126a0:	01000324 	li	v1,1
1d0126a4:	19004310 	beq	v0,v1,0x1d01270c
1d0126a8:	02000324 	li	v1,2
1d0126ac:	1e004350 	beql	v0,v1,0x1d012728
1d0126b0:	80044226 	addiu	v0,s2,1152
1d0126b4:	3c004014 	bnez	v0,0x1d0127a8
1d0126b8:	80044226 	addiu	v0,s2,1152
1d0126bc:	80044326 	addiu	v1,s2,1152
1d0126c0:	04006490 	lbu	a0,4(v1)
1d0126c4:	01000224 	li	v0,1
1d0126c8:	c439447c 	ins	a0,v0,0x7,0x1
1d0126cc:	040064a0 	sb	a0,4(v1)
1d0126d0:	00a0033c 	lui	v1,0xa000
1d0126d4:	90046490 	lbu	a0,1168(v1)
1d0126d8:	ff008430 	andi	a0,a0,0xff
1d0126dc:	01008434 	ori	a0,a0,0x1
1d0126e0:	900464a0 	sb	a0,1168(v1)
1d0126e4:	4081838f 	lw	v1,-32448(gp)
1d0126e8:	2f006254 	bnel	v1,v0,0x1d0127a8
1d0126ec:	80044226 	addiu	v0,s2,1152
1d0126f0:	00a0023c 	lui	v0,0xa000
1d0126f4:	90044390 	lbu	v1,1168(v0)
1d0126f8:	ff006330 	andi	v1,v1,0xff
1d0126fc:	02006334 	ori	v1,v1,0x2
1d012700:	900443a0 	sb	v1,1168(v0)
1d012704:	ea49400b 	j	0x1d0127a8
1d012708:	80044226 	addiu	v0,s2,1152
1d01270c:	80044226 	addiu	v0,s2,1152
1d012710:	04004390 	lbu	v1,4(v0)
1d012714:	01000424 	li	a0,1
1d012718:	c439837c 	ins	v1,a0,0x7,0x1
1d01271c:	040043a0 	sb	v1,4(v0)
1d012720:	ea49400b 	j	0x1d0127a8
1d012724:	80044226 	addiu	v0,s2,1152
1d012728:	04004390 	lbu	v1,4(v0)
1d01272c:	01000424 	li	a0,1
1d012730:	c439837c 	ins	v1,a0,0x7,0x1
1d012734:	040043a0 	sb	v1,4(v0)
1d012738:	10818293 	lbu	v0,-32496(gp)
1d01273c:	80004230 	andi	v0,v0,0x80
1d012740:	ff004230 	andi	v0,v0,0xff
1d012744:	09004014 	bnez	v0,0x1d01276c
1d012748:	00000000 	nop
1d01274c:	1081838f 	lw	v1,-32496(gp)
1d012750:	0f006330 	andi	v1,v1,0xf
1d012754:	80180300 	sll	v1,v1,0x2
1d012758:	00a0023c 	lui	v0,0xa000
1d01275c:	00024224 	addiu	v0,v0,512
1d012760:	21106200 	addu	v0,v1,v0
1d012764:	e149400b 	j	0x1d012784
1d012768:	0000428c 	lw	v0,0(v0)
1d01276c:	1081838f 	lw	v1,-32496(gp)
1d012770:	0f006330 	andi	v1,v1,0xf
1d012774:	80180300 	sll	v1,v1,0x2
1d012778:	10022226 	addiu	v0,s1,528
1d01277c:	21106200 	addu	v0,v1,v0
1d012780:	0000428c 	lw	v0,0(v0)
1d012784:	00004390 	lbu	v1,0(v0)
1d012788:	84006330 	andi	v1,v1,0x84
1d01278c:	84000224 	li	v0,132
1d012790:	05006214 	bne	v1,v0,0x1d0127a8
1d012794:	80044226 	addiu	v0,s2,1152
1d012798:	01000324 	li	v1,1
1d01279c:	00a0023c 	lui	v0,0xa000
1d0127a0:	900443a0 	sb	v1,1168(v0)
1d0127a4:	80044226 	addiu	v0,s2,1152
1d0127a8:	0400428c 	lw	v0,4(v0)
1d0127ac:	80004230 	andi	v0,v0,0x80
1d0127b0:	2d014010 	beqz	v0,0x1d012c68
1d0127b4:	00a0023c 	lui	v0,0xa000
1d0127b8:	90044224 	addiu	v0,v0,1168
1d0127bc:	800442ae 	sw	v0,1152(s2)
1d0127c0:	80044226 	addiu	v0,s2,1152
1d0127c4:	04004390 	lbu	v1,4(v0)
1d0127c8:	01000424 	li	a0,1
1d0127cc:	0400837c 	ins	v1,a0,0x0,0x1
1d0127d0:	040043a0 	sb	v1,4(v0)
1d0127d4:	02000324 	li	v1,2
1d0127d8:	080043a0 	sb	v1,8(v0)
1d0127dc:	1b4b400b 	j	0x1d012c6c
1d0127e0:	03000424 	li	a0,3
1d0127e4:	0e818393 	lbu	v1,-32498(gp)
1d0127e8:	ff006330 	andi	v1,v1,0xff
1d0127ec:	01000224 	li	v0,1
1d0127f0:	12006214 	bne	v1,v0,0x1d01283c
1d0127f4:	00000000 	nop
1d0127f8:	0c818293 	lbu	v0,-32500(gp)
1d0127fc:	1f004230 	andi	v0,v0,0x1f
1d012800:	0e004014 	bnez	v0,0x1d01283c
1d012804:	80044226 	addiu	v0,s2,1152
1d012808:	04004390 	lbu	v1,4(v0)
1d01280c:	01000424 	li	a0,1
1d012810:	c439837c 	ins	v1,a0,0x7,0x1
1d012814:	040043a0 	sb	v1,4(v0)
1d012818:	0d818393 	lbu	v1,-32499(gp)
1d01281c:	ff006330 	andi	v1,v1,0xff
1d012820:	03000224 	li	v0,3
1d012824:	04006214 	bne	v1,v0,0x1d012838
1d012828:	01000224 	li	v0,1
1d01282c:	408182af 	sw	v0,-32448(gp)
1d012830:	0f4a400b 	j	0x1d01283c
1d012834:	00000000 	nop
1d012838:	408180af 	sw	zero,-32448(gp)
1d01283c:	0e818293 	lbu	v0,-32498(gp)
1d012840:	ff004230 	andi	v0,v0,0xff
1d012844:	09014014 	bnez	v0,0x1d012c6c
1d012848:	03000424 	li	a0,3
1d01284c:	0c818393 	lbu	v1,-32500(gp)
1d012850:	1f006330 	andi	v1,v1,0x1f
1d012854:	02000224 	li	v0,2
1d012858:	05016214 	bne	v1,v0,0x1d012c70
1d01285c:	21280000 	move	a1,zero
1d012860:	10818293 	lbu	v0,-32496(gp)
1d012864:	0f004230 	andi	v0,v0,0xf
1d012868:	01014010 	beqz	v0,0x1d012c70
1d01286c:	00000000 	nop
1d012870:	1081828f 	lw	v0,-32496(gp)
1d012874:	0f004230 	andi	v0,v0,0xf
1d012878:	04004228 	slti	v0,v0,4
1d01287c:	fc004010 	beqz	v0,0x1d012c70
1d012880:	00000000 	nop
1d012884:	3881838f 	lw	v1,-32456(gp)
1d012888:	20000224 	li	v0,32
1d01288c:	f8006214 	bne	v1,v0,0x1d012c70
1d012890:	80044226 	addiu	v0,s2,1152
1d012894:	04004390 	lbu	v1,4(v0)
1d012898:	01000424 	li	a0,1
1d01289c:	c439837c 	ins	v1,a0,0x7,0x1
1d0128a0:	040043a0 	sb	v1,4(v0)
1d0128a4:	10818293 	lbu	v0,-32496(gp)
1d0128a8:	80004230 	andi	v0,v0,0x80
1d0128ac:	ff004230 	andi	v0,v0,0xff
1d0128b0:	10004014 	bnez	v0,0x1d0128f4
1d0128b4:	10818227 	addiu	v0,gp,-32496
1d0128b8:	0000448c 	lw	a0,0(v0)
1d0128bc:	0f008430 	andi	a0,a0,0xf
1d0128c0:	80200400 	sll	a0,a0,0x2
1d0128c4:	00a0033c 	lui	v1,0xa000
1d0128c8:	00026324 	addiu	v1,v1,512
1d0128cc:	21188300 	addu	v1,a0,v1
1d0128d0:	0000638c 	lw	v1,0(v1)
1d0128d4:	1000a3af 	sw	v1,16(sp)
1d0128d8:	0000428c 	lw	v0,0(v0)
1d0128dc:	0f004230 	andi	v0,v0,0xf
1d0128e0:	18818327 	addiu	v1,gp,-32488
1d0128e4:	21106200 	addu	v0,v1,v0
1d0128e8:	00005690 	lbu	s6,0(v0)
1d0128ec:	4a4a400b 	j	0x1d012928
1d0128f0:	ff00d632 	andi	s6,s6,0xff
1d0128f4:	0000448c 	lw	a0,0(v0)
1d0128f8:	0f008430 	andi	a0,a0,0xf
1d0128fc:	80200400 	sll	a0,a0,0x2
1d012900:	10022326 	addiu	v1,s1,528
1d012904:	21188300 	addu	v1,a0,v1
1d012908:	0000638c 	lw	v1,0(v1)
1d01290c:	1000a3af 	sw	v1,16(sp)
1d012910:	0000428c 	lw	v0,0(v0)
1d012914:	0f004230 	andi	v0,v0,0xf
1d012918:	48818327 	addiu	v1,gp,-32440
1d01291c:	21106200 	addu	v0,v1,v0
1d012920:	00005690 	lbu	s6,0(v0)
1d012924:	ff00d632 	andi	s6,s6,0xff
1d012928:	0100c232 	andi	v0,s6,0x1
1d01292c:	04004014 	bnez	v0,0x1d012940
1d012930:	1000a293 	lbu	v0,16(sp)
1d012934:	c418027c 	ins	v0,zero,0x3,0x1
1d012938:	524a400b 	j	0x1d012948
1d01293c:	1000a2a3 	sb	v0,16(sp)
1d012940:	08004234 	ori	v0,v0,0x8
1d012944:	1000a2a3 	sb	v0,16(sp)
1d012948:	10818293 	lbu	v0,-32496(gp)
1d01294c:	80004230 	andi	v0,v0,0x80
1d012950:	ff004230 	andi	v0,v0,0xff
1d012954:	0a004014 	bnez	v0,0x1d012980
1d012958:	00000000 	nop
1d01295c:	1081838f 	lw	v1,-32496(gp)
1d012960:	0f006330 	andi	v1,v1,0xf
1d012964:	80180300 	sll	v1,v1,0x2
1d012968:	00a0023c 	lui	v0,0xa000
1d01296c:	00024224 	addiu	v0,v0,512
1d012970:	21106200 	addu	v0,v1,v0
1d012974:	1000a38f 	lw	v1,16(sp)
1d012978:	674a400b 	j	0x1d01299c
1d01297c:	000043ac 	sw	v1,0(v0)
1d012980:	1081838f 	lw	v1,-32496(gp)
1d012984:	0f006330 	andi	v1,v1,0xf
1d012988:	80180300 	sll	v1,v1,0x2
1d01298c:	10022226 	addiu	v0,s1,528
1d012990:	21106200 	addu	v0,v1,v0
1d012994:	1000a38f 	lw	v1,16(sp)
1d012998:	000043ac 	sw	v1,0(v0)
1d01299c:	0d818393 	lbu	v1,-32499(gp)
1d0129a0:	ff006330 	andi	v1,v1,0xff
1d0129a4:	03000224 	li	v0,3
1d0129a8:	27006214 	bne	v1,v0,0x1d012a48
1d0129ac:	1000a293 	lbu	v0,16(sp)
1d0129b0:	1000a28f 	lw	v0,16(sp)
1d0129b4:	00004390 	lbu	v1,0(v0)
1d0129b8:	0430037c 	ins	v1,zero,0x0,0x7
1d0129bc:	ff006330 	andi	v1,v1,0xff
1d0129c0:	19006050 	beqzl	v1,0x1d012a28
1d0129c4:	00004390 	lbu	v1,0(v0)
1d0129c8:	10818393 	lbu	v1,-32496(gp)
1d0129cc:	80006330 	andi	v1,v1,0x80
1d0129d0:	ff006330 	andi	v1,v1,0xff
1d0129d4:	0b006014 	bnez	v1,0x1d012a04
1d0129d8:	00000000 	nop
1d0129dc:	1081838f 	lw	v1,-32496(gp)
1d0129e0:	0f006330 	andi	v1,v1,0xf
1d0129e4:	18818427 	addiu	a0,gp,-32488
1d0129e8:	21188300 	addu	v1,a0,v1
1d0129ec:	00006490 	lbu	a0,0(v1)
1d0129f0:	01000524 	li	a1,1
1d0129f4:	4408a47c 	ins	a0,a1,0x1,0x1
1d0129f8:	000064a0 	sb	a0,0(v1)
1d0129fc:	8a4a400b 	j	0x1d012a28
1d012a00:	00004390 	lbu	v1,0(v0)
1d012a04:	1081838f 	lw	v1,-32496(gp)
1d012a08:	0f006330 	andi	v1,v1,0xf
1d012a0c:	48818427 	addiu	a0,gp,-32440
1d012a10:	21188300 	addu	v1,a0,v1
1d012a14:	00006490 	lbu	a0,0(v1)
1d012a18:	01000524 	li	a1,1
1d012a1c:	4408a47c 	ins	a0,a1,0x1,0x1
1d012a20:	000064a0 	sb	a0,0(v1)
1d012a24:	00004390 	lbu	v1,0(v0)
1d012a28:	01004490 	lbu	a0,1(v0)
1d012a2c:	00220400 	sll	a0,a0,0x8
1d012a30:	25188300 	or	v1,a0,v1
1d012a34:	84006334 	ori	v1,v1,0x84
1d012a38:	000043a0 	sb	v1,0(v0)
1d012a3c:	021a0300 	srl	v1,v1,0x8
1d012a40:	1a4b400b 	j	0x1d012c68
1d012a44:	010043a0 	sb	v1,1(v0)
1d012a48:	08004238 	xori	v0,v0,0x8
1d012a4c:	1000a2a3 	sb	v0,16(sp)
1d012a50:	1000a28f 	lw	v0,16(sp)
1d012a54:	00004390 	lbu	v1,0(v0)
1d012a58:	0430037c 	ins	v1,zero,0x0,0x7
1d012a5c:	ff006330 	andi	v1,v1,0xff
1d012a60:	17006010 	beqz	v1,0x1d012ac0
1d012a64:	00004390 	lbu	v1,0(v0)
1d012a68:	01004490 	lbu	a0,1(v0)
1d012a6c:	00220400 	sll	a0,a0,0x8
1d012a70:	25188300 	or	v1,a0,v1
1d012a74:	7fff6330 	andi	v1,v1,0xff7f
1d012a78:	000043a0 	sb	v1,0(v0)
1d012a7c:	021a0300 	srl	v1,v1,0x8
1d012a80:	010043a0 	sb	v1,1(v0)
1d012a84:	1000a28f 	lw	v0,16(sp)
1d012a88:	00004390 	lbu	v1,0(v0)
1d012a8c:	01004490 	lbu	a0,1(v0)
1d012a90:	00220400 	sll	a0,a0,0x8
1d012a94:	25188300 	or	v1,a0,v1
1d012a98:	40006334 	ori	v1,v1,0x40
1d012a9c:	000043a0 	sb	v1,0(v0)
1d012aa0:	021a0300 	srl	v1,v1,0x8
1d012aa4:	010043a0 	sb	v1,1(v0)
1d012aa8:	05000424 	li	a0,5
1d012aac:	1000a58f 	lw	a1,16(sp)
1d012ab0:	437f400f 	jal	0x1d01fd0c
1d012ab4:	04000624 	li	a2,4
1d012ab8:	b84a400b 	j	0x1d012ae0
1d012abc:	1000a293 	lbu	v0,16(sp)
1d012ac0:	01004490 	lbu	a0,1(v0)
1d012ac4:	00220400 	sll	a0,a0,0x8
1d012ac8:	25188300 	or	v1,a0,v1
1d012acc:	40006334 	ori	v1,v1,0x40
1d012ad0:	000043a0 	sb	v1,0(v0)
1d012ad4:	021a0300 	srl	v1,v1,0x8
1d012ad8:	010043a0 	sb	v1,1(v0)
1d012adc:	1000a293 	lbu	v0,16(sp)
1d012ae0:	08004238 	xori	v0,v0,0x8
1d012ae4:	1000a2a3 	sb	v0,16(sp)
1d012ae8:	0200c232 	andi	v0,s6,0x2
1d012aec:	ff004230 	andi	v0,v0,0xff
1d012af0:	06004014 	bnez	v0,0x1d012b0c
1d012af4:	1000a28f 	lw	v0,16(sp)
1d012af8:	00004390 	lbu	v1,0(v0)
1d012afc:	0430037c 	ins	v1,zero,0x0,0x7
1d012b00:	ff006330 	andi	v1,v1,0xff
1d012b04:	25006050 	beqzl	v1,0x1d012b9c
1d012b08:	00004390 	lbu	v1,0(v0)
1d012b0c:	10818293 	lbu	v0,-32496(gp)
1d012b10:	80004230 	andi	v0,v0,0x80
1d012b14:	ff004230 	andi	v0,v0,0xff
1d012b18:	0a004014 	bnez	v0,0x1d012b44
1d012b1c:	00000000 	nop
1d012b20:	1081828f 	lw	v0,-32496(gp)
1d012b24:	0f004230 	andi	v0,v0,0xf
1d012b28:	18818327 	addiu	v1,gp,-32488
1d012b2c:	21106200 	addu	v0,v1,v0
1d012b30:	00004390 	lbu	v1,0(v0)
1d012b34:	4408037c 	ins	v1,zero,0x1,0x1
1d012b38:	000043a0 	sb	v1,0(v0)
1d012b3c:	d94a400b 	j	0x1d012b64
1d012b40:	1000a28f 	lw	v0,16(sp)
1d012b44:	1081828f 	lw	v0,-32496(gp)
1d012b48:	0f004230 	andi	v0,v0,0xf
1d012b4c:	48818327 	addiu	v1,gp,-32440
1d012b50:	21106200 	addu	v0,v1,v0
1d012b54:	00004390 	lbu	v1,0(v0)
1d012b58:	4408037c 	ins	v1,zero,0x1,0x1
1d012b5c:	000043a0 	sb	v1,0(v0)
1d012b60:	1000a28f 	lw	v0,16(sp)
1d012b64:	00004390 	lbu	v1,0(v0)
1d012b68:	01004490 	lbu	a0,1(v0)
1d012b6c:	00220400 	sll	a0,a0,0x8
1d012b70:	25188300 	or	v1,a0,v1
1d012b74:	3bff6330 	andi	v1,v1,0xff3b
1d012b78:	000043a0 	sb	v1,0(v0)
1d012b7c:	021a0300 	srl	v1,v1,0x8
1d012b80:	010043a0 	sb	v1,1(v0)
1d012b84:	05000424 	li	a0,5
1d012b88:	1000a58f 	lw	a1,16(sp)
1d012b8c:	437f400f 	jal	0x1d01fd0c
1d012b90:	04000624 	li	a2,4
1d012b94:	ee4a400b 	j	0x1d012bb8
1d012b98:	00000000 	nop
1d012b9c:	01004490 	lbu	a0,1(v0)
1d012ba0:	00220400 	sll	a0,a0,0x8
1d012ba4:	25188300 	or	v1,a0,v1
1d012ba8:	3bff6330 	andi	v1,v1,0xff3b
1d012bac:	000043a0 	sb	v1,0(v0)
1d012bb0:	021a0300 	srl	v1,v1,0x8
1d012bb4:	010043a0 	sb	v1,1(v0)
1d012bb8:	1081828f 	lw	v0,-32496(gp)
1d012bbc:	0f004230 	andi	v0,v0,0xf
1d012bc0:	00110200 	sll	v0,v0,0x4
1d012bc4:	88bf033c 	lui	v1,0xbf88
1d012bc8:	00536324 	addiu	v1,v1,21248
1d012bcc:	21106200 	addu	v0,v1,v0
1d012bd0:	0000438c 	lw	v1,0(v0)
1d012bd4:	4408037c 	ins	v1,zero,0x1,0x1
1d012bd8:	1a4b400b 	j	0x1d012c68
1d012bdc:	000043ac 	sw	v1,0(v0)
1d012be0:	10818293 	lbu	v0,-32496(gp)
1d012be4:	ff004230 	andi	v0,v0,0xff
1d012be8:	44818327 	addiu	v1,gp,-32444
1d012bec:	21106200 	addu	v0,v1,v0
1d012bf0:	800442ae 	sw	v0,1152(s2)
1d012bf4:	80044226 	addiu	v0,s2,1152
1d012bf8:	04004490 	lbu	a0,4(v0)
1d012bfc:	01000324 	li	v1,1
1d012c00:	0400647c 	ins	a0,v1,0x0,0x1
1d012c04:	040044a0 	sb	a0,4(v0)
1d012c08:	080043a0 	sb	v1,8(v0)
1d012c0c:	04004490 	lbu	a0,4(v0)
1d012c10:	c439647c 	ins	a0,v1,0x7,0x1
1d012c14:	040044a0 	sb	a0,4(v0)
1d012c18:	1b4b400b 	j	0x1d012c6c
1d012c1c:	03000424 	li	a0,3
1d012c20:	80044226 	addiu	v0,s2,1152
1d012c24:	04004390 	lbu	v1,4(v0)
1d012c28:	01000424 	li	a0,1
1d012c2c:	c439837c 	ins	v1,a0,0x7,0x1
1d012c30:	040043a0 	sb	v1,4(v0)
1d012c34:	10818293 	lbu	v0,-32496(gp)
1d012c38:	ff004230 	andi	v0,v0,0xff
1d012c3c:	0e818393 	lbu	v1,-32498(gp)
1d012c40:	ff006330 	andi	v1,v1,0xff
1d012c44:	44818427 	addiu	a0,gp,-32444
1d012c48:	21108200 	addu	v0,a0,v0
1d012c4c:	000043a0 	sb	v1,0(v0)
1d012c50:	1b4b400b 	j	0x1d012c6c
1d012c54:	03000424 	li	a0,3
1d012c58:	02000424 	li	a0,2
1d012c5c:	21280000 	move	a1,zero
1d012c60:	437f400f 	jal	0x1d01fd0c
1d012c64:	21300000 	move	a2,zero
1d012c68:	03000424 	li	a0,3
1d012c6c:	21280000 	move	a1,zero
1d012c70:	437f400f 	jal	0x1d01fd0c
1d012c74:	21300000 	move	a2,zero
1d012c78:	88bf023c 	lui	v0,0xbf88
1d012c7c:	50524390 	lbu	v1,21072(v0)
1d012c80:	4429037c 	ins	v1,zero,0x5,0x1
1d012c84:	505243a0 	sb	v1,21072(v0)
1d012c88:	80044226 	addiu	v0,s2,1152
1d012c8c:	0400428c 	lw	v0,4(v0)
1d012c90:	80004230 	andi	v0,v0,0x80
1d012c94:	28004014 	bnez	v0,0x1d012d38
1d012c98:	00a0023c 	lui	v0,0xa000
1d012c9c:	d0044224 	addiu	v0,v0,1232
1d012ca0:	04004290 	lbu	v0,4(v0)
1d012ca4:	80004230 	andi	v0,v0,0x80
1d012ca8:	ff004230 	andi	v0,v0,0xff
1d012cac:	0b004010 	beqz	v0,0x1d012cdc
1d012cb0:	02000224 	li	v0,2
1d012cb4:	208182a3 	sb	v0,-32480(gp)
1d012cb8:	3481828f 	lw	v0,-32460(gp)
1d012cbc:	03004014 	bnez	v0,0x1d012ccc
1d012cc0:	00000000 	nop
1d012cc4:	2f47400f 	jal	0x1d011cbc
1d012cc8:	00000000 	nop
1d012ccc:	008180af 	sw	zero,-32512(gp)
1d012cd0:	f88080af 	sw	zero,-32520(gp)
1d012cd4:	764c400b 	j	0x1d0131d8
1d012cd8:	ffff1026 	addiu	s0,s0,-1
1d012cdc:	1c81828f 	lw	v0,-32484(gp)
1d012ce0:	02004390 	lbu	v1,2(v0)
1d012ce4:	40000324 	li	v1,64
1d012ce8:	020043a0 	sb	v1,2(v0)
1d012cec:	03004390 	lbu	v1,3(v0)
1d012cf0:	0408037c 	ins	v1,zero,0x0,0x2
1d012cf4:	030043a0 	sb	v1,3(v0)
1d012cf8:	1c81828f 	lw	v0,-32484(gp)
1d012cfc:	070055a8 	swl	s5,7(v0)
1d012d00:	040055b8 	swr	s5,4(v0)
1d012d04:	00004390 	lbu	v1,0(v0)
1d012d08:	8cff0324 	li	v1,-116
1d012d0c:	000043a0 	sb	v1,0(v0)
1d012d10:	01004390 	lbu	v1,1(v0)
1d012d14:	010040a0 	sb	zero,1(v0)
1d012d18:	1002228e 	lw	v0,528(s1)
1d012d1c:	00004390 	lbu	v1,0(v0)
1d012d20:	84ff0324 	li	v1,-124
1d012d24:	000043a0 	sb	v1,0(v0)
1d012d28:	01004390 	lbu	v1,1(v0)
1d012d2c:	010040a0 	sb	zero,1(v0)
1d012d30:	764c400b 	j	0x1d0131d8
1d012d34:	ffff1026 	addiu	s0,s0,-1
1d012d38:	0c818293 	lbu	v0,-32500(gp)
1d012d3c:	80004230 	andi	v0,v0,0x80
1d012d40:	ff004230 	andi	v0,v0,0xff
1d012d44:	11004010 	beqz	v0,0x1d012d8c
1d012d48:	02000224 	li	v0,2
1d012d4c:	01000224 	li	v0,1
1d012d50:	208182a3 	sb	v0,-32480(gp)
1d012d54:	3081828f 	lw	v0,-32464(gp)
1d012d58:	03004014 	bnez	v0,0x1d012d68
1d012d5c:	00000000 	nop
1d012d60:	2f47400f 	jal	0x1d011cbc
1d012d64:	00000000 	nop
1d012d68:	008180af 	sw	zero,-32512(gp)
1d012d6c:	f88080af 	sw	zero,-32520(gp)
1d012d70:	f480828f 	lw	v0,-32524(gp)
1d012d74:	18014014 	bnez	v0,0x1d0131d8
1d012d78:	ffff1026 	addiu	s0,s0,-1
1d012d7c:	eb46400f 	jal	0x1d011bac
1d012d80:	00000000 	nop
1d012d84:	774c400b 	j	0x1d0131dc
1d012d88:	ff001032 	andi	s0,s0,0xff
1d012d8c:	208182a3 	sb	v0,-32480(gp)
1d012d90:	1c81828f 	lw	v0,-32484(gp)
1d012d94:	02004390 	lbu	v1,2(v0)
1d012d98:	40000324 	li	v1,64
1d012d9c:	020043a0 	sb	v1,2(v0)
1d012da0:	03004390 	lbu	v1,3(v0)
1d012da4:	0408037c 	ins	v1,zero,0x0,0x2
1d012da8:	030043a0 	sb	v1,3(v0)
1d012dac:	1c81828f 	lw	v0,-32484(gp)
1d012db0:	070055a8 	swl	s5,7(v0)
1d012db4:	040055b8 	swr	s5,4(v0)
1d012db8:	00004390 	lbu	v1,0(v0)
1d012dbc:	84ff0324 	li	v1,-124
1d012dc0:	000043a0 	sb	v1,0(v0)
1d012dc4:	01004390 	lbu	v1,1(v0)
1d012dc8:	010040a0 	sb	zero,1(v0)
1d012dcc:	008180af 	sw	zero,-32512(gp)
1d012dd0:	f88080af 	sw	zero,-32520(gp)
1d012dd4:	f480828f 	lw	v0,-32524(gp)
1d012dd8:	ff004014 	bnez	v0,0x1d0131d8
1d012ddc:	ffff1026 	addiu	s0,s0,-1
1d012de0:	eb46400f 	jal	0x1d011bac
1d012de4:	00000000 	nop
1d012de8:	774c400b 	j	0x1d0131dc
1d012dec:	ff001032 	andi	s0,s0,0xff
1d012df0:	20818493 	lbu	a0,-32480(gp)
1d012df4:	ff008430 	andi	a0,a0,0xff
1d012df8:	02000324 	li	v1,2
1d012dfc:	78008314 	bne	a0,v1,0x1d012fe0
1d012e00:	00000000 	nop
1d012e04:	0000428c 	lw	v0,0(v0)
1d012e08:	003c427c 	ext	v0,v0,0x10,0x8
1d012e0c:	00a0033c 	lui	v1,0xa000
1d012e10:	d0046324 	addiu	v1,v1,1232
1d012e14:	0400638c 	lw	v1,4(v1)
1d012e18:	007a637c 	ext	v1,v1,0x8,0x10
1d012e1c:	2b186200 	sltu	v1,v1,v0
1d012e20:	06006010 	beqz	v1,0x1d012e3c
1d012e24:	00a0033c 	lui	v1,0xa000
1d012e28:	00a0023c 	lui	v0,0xa000
1d012e2c:	d0044224 	addiu	v0,v0,1232
1d012e30:	0400428c 	lw	v0,4(v0)
1d012e34:	003a427c 	ext	v0,v0,0x8,0x8
1d012e38:	00a0033c 	lui	v1,0xa000
1d012e3c:	d0046324 	addiu	v1,v1,1232
1d012e40:	0400658c 	lw	a1,4(v1)
1d012e44:	007aa57c 	ext	a1,a1,0x8,0x10
1d012e48:	2328a200 	subu	a1,a1,v0
1d012e4c:	ffffa530 	andi	a1,a1,0xffff
1d012e50:	0400648c 	lw	a0,4(v1)
1d012e54:	04baa47c 	ins	a0,a1,0x8,0x10
1d012e58:	040064ac 	sw	a0,4(v1)
1d012e5c:	0f004010 	beqz	v0,0x1d012e9c
1d012e60:	ffff4224 	addiu	v0,v0,-1
1d012e64:	ff004730 	andi	a3,v0,0xff
1d012e68:	0100e724 	addiu	a3,a3,1
1d012e6c:	21100000 	move	v0,zero
1d012e70:	00a0043c 	lui	a0,0xa000
1d012e74:	00a0063c 	lui	a2,0xa000
1d012e78:	9004c624 	addiu	a2,a2,1168
1d012e7c:	d004838c 	lw	v1,1232(a0)
1d012e80:	01006524 	addiu	a1,v1,1
1d012e84:	d00485ac 	sw	a1,1232(a0)
1d012e88:	21284600 	addu	a1,v0,a2
1d012e8c:	0000a590 	lbu	a1,0(a1)
1d012e90:	01004224 	addiu	v0,v0,1
1d012e94:	f9ff4714 	bne	v0,a3,0x1d012e7c
1d012e98:	000065a0 	sb	a1,0(v1)
1d012e9c:	00a0023c 	lui	v0,0xa000
1d012ea0:	d0044224 	addiu	v0,v0,1232
1d012ea4:	0400428c 	lw	v0,4(v0)
1d012ea8:	007a427c 	ext	v0,v0,0x8,0x10
1d012eac:	21004010 	beqz	v0,0x1d012f34
1d012eb0:	1c81828f 	lw	v0,-32484(gp)
1d012eb4:	02004390 	lbu	v1,2(v0)
1d012eb8:	40000324 	li	v1,64
1d012ebc:	020043a0 	sb	v1,2(v0)
1d012ec0:	03004390 	lbu	v1,3(v0)
1d012ec4:	0408037c 	ins	v1,zero,0x0,0x2
1d012ec8:	030043a0 	sb	v1,3(v0)
1d012ecc:	1c81828f 	lw	v0,-32484(gp)
1d012ed0:	00a0033c 	lui	v1,0xa000
1d012ed4:	90046324 	addiu	v1,v1,1168
1d012ed8:	00e0637c 	ext	v1,v1,0x0,0x1d
1d012edc:	070043a8 	swl	v1,7(v0)
1d012ee0:	040043b8 	swr	v1,4(v0)
1d012ee4:	2481838f 	lw	v1,-32476(gp)
1d012ee8:	00006390 	lbu	v1,0(v1)
1d012eec:	40006330 	andi	v1,v1,0x40
1d012ef0:	ff006330 	andi	v1,v1,0xff
1d012ef4:	08006014 	bnez	v1,0x1d012f18
1d012ef8:	00000000 	nop
1d012efc:	00004390 	lbu	v1,0(v0)
1d012f00:	c8ff0324 	li	v1,-56
1d012f04:	000043a0 	sb	v1,0(v0)
1d012f08:	01004390 	lbu	v1,1(v0)
1d012f0c:	010040a0 	sb	zero,1(v0)
1d012f10:	764c400b 	j	0x1d0131d8
1d012f14:	ffff1026 	addiu	s0,s0,-1
1d012f18:	00004390 	lbu	v1,0(v0)
1d012f1c:	88ff0324 	li	v1,-120
1d012f20:	000043a0 	sb	v1,0(v0)
1d012f24:	01004390 	lbu	v1,1(v0)
1d012f28:	010040a0 	sb	zero,1(v0)
1d012f2c:	764c400b 	j	0x1d0131d8
1d012f30:	ffff1026 	addiu	s0,s0,-1
1d012f34:	02004390 	lbu	v1,2(v0)
1d012f38:	40000324 	li	v1,64
1d012f3c:	020043a0 	sb	v1,2(v0)
1d012f40:	03004390 	lbu	v1,3(v0)
1d012f44:	0408037c 	ins	v1,zero,0x0,0x2
1d012f48:	030043a0 	sb	v1,3(v0)
1d012f4c:	1c81828f 	lw	v0,-32484(gp)
1d012f50:	0c818327 	addiu	v1,gp,-32500
1d012f54:	00e0637c 	ext	v1,v1,0x0,0x1d
1d012f58:	070043a8 	swl	v1,7(v0)
1d012f5c:	040043b8 	swr	v1,4(v0)
1d012f60:	00004390 	lbu	v1,0(v0)
1d012f64:	84ff0324 	li	v1,-124
1d012f68:	000043a0 	sb	v1,0(v0)
1d012f6c:	01004390 	lbu	v1,1(v0)
1d012f70:	010040a0 	sb	zero,1(v0)
1d012f74:	00a0023c 	lui	v0,0xa000
1d012f78:	d0044224 	addiu	v0,v0,1232
1d012f7c:	0a004388 	lwl	v1,10(v0)
1d012f80:	21206000 	move	a0,v1
1d012f84:	07004498 	lwr	a0,7(v0)
1d012f88:	21108000 	move	v0,a0
1d012f8c:	08004010 	beqz	v0,0x1d012fb0
1d012f90:	00a0023c 	lui	v0,0xa000
1d012f94:	d0044224 	addiu	v0,v0,1232
1d012f98:	0a004388 	lwl	v1,10(v0)
1d012f9c:	21206000 	move	a0,v1
1d012fa0:	07004498 	lwr	a0,7(v0)
1d012fa4:	21108000 	move	v0,a0
1d012fa8:	09f84000 	jalr	v0
1d012fac:	00000000 	nop
1d012fb0:	00a0023c 	lui	v0,0xa000
1d012fb4:	d0044224 	addiu	v0,v0,1232
1d012fb8:	04004390 	lbu	v1,4(v0)
1d012fbc:	c439037c 	ins	v1,zero,0x7,0x1
1d012fc0:	040043a0 	sb	v1,4(v0)
1d012fc4:	f480828f 	lw	v0,-32524(gp)
1d012fc8:	83004014 	bnez	v0,0x1d0131d8
1d012fcc:	ffff1026 	addiu	s0,s0,-1
1d012fd0:	eb46400f 	jal	0x1d011bac
1d012fd4:	00000000 	nop
1d012fd8:	774c400b 	j	0x1d0131dc
1d012fdc:	ff001032 	andi	s0,s0,0xff
1d012fe0:	208180a3 	sb	zero,-32480(gp)
1d012fe4:	f080828f 	lw	v0,-32528(gp)
1d012fe8:	13004014 	bnez	v0,0x1d013038
1d012fec:	1c81828f 	lw	v0,-32484(gp)
1d012ff0:	02004390 	lbu	v1,2(v0)
1d012ff4:	40000324 	li	v1,64
1d012ff8:	020043a0 	sb	v1,2(v0)
1d012ffc:	03004390 	lbu	v1,3(v0)
1d013000:	0408037c 	ins	v1,zero,0x0,0x2
1d013004:	030043a0 	sb	v1,3(v0)
1d013008:	1c81828f 	lw	v0,-32484(gp)
1d01300c:	0c818327 	addiu	v1,gp,-32500
1d013010:	00e0637c 	ext	v1,v1,0x0,0x1d
1d013014:	070043a8 	swl	v1,7(v0)
1d013018:	040043b8 	swr	v1,4(v0)
1d01301c:	00004390 	lbu	v1,0(v0)
1d013020:	8cff0324 	li	v1,-116
1d013024:	000043a0 	sb	v1,0(v0)
1d013028:	01004390 	lbu	v1,1(v0)
1d01302c:	010040a0 	sb	zero,1(v0)
1d013030:	764c400b 	j	0x1d0131d8
1d013034:	ffff1026 	addiu	s0,s0,-1
1d013038:	f08080af 	sw	zero,-32528(gp)
1d01303c:	764c400b 	j	0x1d0131d8
1d013040:	ffff1026 	addiu	s0,s0,-1
1d013044:	08818393 	lbu	v1,-32504(gp)
1d013048:	fb006330 	andi	v1,v1,0xfb
1d01304c:	08000224 	li	v0,8
1d013050:	61006254 	bnel	v1,v0,0x1d0131d8
1d013054:	ffff1026 	addiu	s0,s0,-1
1d013058:	1002228e 	lw	v0,528(s1)
1d01305c:	00005590 	lbu	s5,0(v0)
1d013060:	8001b57e 	ext	s5,s5,0x6,0x1
1d013064:	10022292 	lbu	v0,528(s1)
1d013068:	08004238 	xori	v0,v0,0x8
1d01306c:	100222a2 	sb	v0,528(s1)
1d013070:	3881838f 	lw	v1,-32456(gp)
1d013074:	08000224 	li	v0,8
1d013078:	0d006214 	bne	v1,v0,0x1d0130b0
1d01307c:	00000000 	nop
1d013080:	0e818393 	lbu	v1,-32498(gp)
1d013084:	ff006330 	andi	v1,v1,0xff
1d013088:	88bf023c 	lui	v0,0xbf88
1d01308c:	605243ac 	sw	v1,21088(v0)
1d013090:	6052428c 	lw	v0,21088(v0)
1d013094:	05004010 	beqz	v0,0x1d0130ac
1d013098:	04000224 	li	v0,4
1d01309c:	10000224 	li	v0,16
1d0130a0:	388182af 	sw	v0,-32456(gp)
1d0130a4:	2c4c400b 	j	0x1d0130b0
1d0130a8:	00000000 	nop
1d0130ac:	388182af 	sw	v0,-32456(gp)
1d0130b0:	20818393 	lbu	v1,-32480(gp)
1d0130b4:	ff006330 	andi	v1,v1,0xff
1d0130b8:	01000224 	li	v0,1
1d0130bc:	26006214 	bne	v1,v0,0x1d013158
1d0130c0:	00a0023c 	lui	v0,0xa000
1d0130c4:	1002228e 	lw	v0,528(s1)
1d0130c8:	00a0033c 	lui	v1,0xa000
1d0130cc:	90046324 	addiu	v1,v1,1168
1d0130d0:	00e0637c 	ext	v1,v1,0x0,0x1d
1d0130d4:	070043a8 	swl	v1,7(v0)
1d0130d8:	040043b8 	swr	v1,4(v0)
1d0130dc:	e744400f 	jal	0x1d01139c
1d0130e0:	00000000 	nop
1d0130e4:	04818393 	lbu	v1,-32508(gp)
1d0130e8:	ff006330 	andi	v1,v1,0xff
1d0130ec:	02000224 	li	v0,2
1d0130f0:	08006214 	bne	v1,v0,0x1d013114
1d0130f4:	1002228e 	lw	v0,528(s1)
1d0130f8:	00004390 	lbu	v1,0(v0)
1d0130fc:	84ff0324 	li	v1,-124
1d013100:	000043a0 	sb	v1,0(v0)
1d013104:	01004390 	lbu	v1,1(v0)
1d013108:	010040a0 	sb	zero,1(v0)
1d01310c:	764c400b 	j	0x1d0131d8
1d013110:	ffff1026 	addiu	s0,s0,-1
1d013114:	0900a016 	bnez	s5,0x1d01313c
1d013118:	00000000 	nop
1d01311c:	1002228e 	lw	v0,528(s1)
1d013120:	00004390 	lbu	v1,0(v0)
1d013124:	c8ff0324 	li	v1,-56
1d013128:	000043a0 	sb	v1,0(v0)
1d01312c:	01004390 	lbu	v1,1(v0)
1d013130:	010040a0 	sb	zero,1(v0)
1d013134:	764c400b 	j	0x1d0131d8
1d013138:	ffff1026 	addiu	s0,s0,-1
1d01313c:	00004390 	lbu	v1,0(v0)
1d013140:	88ff0324 	li	v1,-120
1d013144:	000043a0 	sb	v1,0(v0)
1d013148:	01004390 	lbu	v1,1(v0)
1d01314c:	010040a0 	sb	zero,1(v0)
1d013150:	764c400b 	j	0x1d0131d8
1d013154:	ffff1026 	addiu	s0,s0,-1
1d013158:	d0044224 	addiu	v0,v0,1232
1d01315c:	04004290 	lbu	v0,4(v0)
1d013160:	80004230 	andi	v0,v0,0x80
1d013164:	ff004230 	andi	v0,v0,0xff
1d013168:	14004010 	beqz	v0,0x1d0131bc
1d01316c:	00a0023c 	lui	v0,0xa000
1d013170:	d0044224 	addiu	v0,v0,1232
1d013174:	0a004388 	lwl	v1,10(v0)
1d013178:	21206000 	move	a0,v1
1d01317c:	07004498 	lwr	a0,7(v0)
1d013180:	21108000 	move	v0,a0
1d013184:	08004010 	beqz	v0,0x1d0131a8
1d013188:	00a0023c 	lui	v0,0xa000
1d01318c:	d0044224 	addiu	v0,v0,1232
1d013190:	0a004388 	lwl	v1,10(v0)
1d013194:	21206000 	move	a0,v1
1d013198:	07004498 	lwr	a0,7(v0)
1d01319c:	21108000 	move	v0,a0
1d0131a0:	09f84000 	jalr	v0
1d0131a4:	00000000 	nop
1d0131a8:	00a0023c 	lui	v0,0xa000
1d0131ac:	d0044224 	addiu	v0,v0,1232
1d0131b0:	04004390 	lbu	v1,4(v0)
1d0131b4:	c439037c 	ins	v1,zero,0x7,0x1
1d0131b8:	040043a0 	sb	v1,4(v0)
1d0131bc:	208180a3 	sb	zero,-32480(gp)
1d0131c0:	764c400b 	j	0x1d0131d8
1d0131c4:	ffff1026 	addiu	s0,s0,-1
1d0131c8:	08818527 	addiu	a1,gp,-32504
1d0131cc:	437f400f 	jal	0x1d01fd0c
1d0131d0:	21300000 	move	a2,zero
1d0131d4:	ffff1026 	addiu	s0,s0,-1
1d0131d8:	ff001032 	andi	s0,s0,0xff
1d0131dc:	f6fb0016 	bnez	s0,0x1d0121b8
1d0131e0:	88bf023c 	lui	v0,0xbf88
1d0131e4:	4281400f 	jal	0x1d020508
1d0131e8:	69000424 	li	a0,105
1d0131ec:	8400a28f 	lw	v0,132(sp)
1d0131f0:	13004000 	mtlo	v0
1d0131f4:	8000a38f 	lw	v1,128(sp)
1d0131f8:	11006000 	mthi	v1
1d0131fc:	9000a28f 	lw	v0,144(sp)
1d013200:	0f004230 	andi	v0,v0,0xf
1d013204:	1b004014 	bnez	v0,0x1d013274
1d013208:	00000000 	nop
1d01320c:	7c00bf8f 	lw	ra,124(sp)
1d013210:	7800b98f 	lw	t9,120(sp)
1d013214:	7400b88f 	lw	t8,116(sp)
1d013218:	7000b78f 	lw	s7,112(sp)
1d01321c:	6c00b68f 	lw	s6,108(sp)
1d013220:	6800b58f 	lw	s5,104(sp)
1d013224:	6400b48f 	lw	s4,100(sp)
1d013228:	6000b38f 	lw	s3,96(sp)
1d01322c:	5c00b28f 	lw	s2,92(sp)
1d013230:	5800b18f 	lw	s1,88(sp)
1d013234:	5400b08f 	lw	s0,84(sp)
1d013238:	5000af8f 	lw	t7,80(sp)
1d01323c:	4c00ae8f 	lw	t6,76(sp)
1d013240:	4800ad8f 	lw	t5,72(sp)
1d013244:	4400ac8f 	lw	t4,68(sp)
1d013248:	4000ab8f 	lw	t3,64(sp)
1d01324c:	3c00aa8f 	lw	t2,60(sp)
1d013250:	3800a98f 	lw	t1,56(sp)
1d013254:	3400a88f 	lw	t0,52(sp)
1d013258:	3000a78f 	lw	a3,48(sp)
1d01325c:	2c00a68f 	lw	a2,44(sp)
1d013260:	2800a58f 	lw	a1,40(sp)
1d013264:	2400a48f 	lw	a0,36(sp)
1d013268:	2000a38f 	lw	v1,32(sp)
1d01326c:	1c00a28f 	lw	v0,28(sp)
1d013270:	1800a18f 	lw	at,24(sp)
1d013274:	00606041 	di
1d013278:	c0000000 	ehb
1d01327c:	9400ba8f 	lw	k0,148(sp)
1d013280:	8c00bb8f 	lw	k1,140(sp)
1d013284:	00709a40 	mtc0	k0,c0_epc
1d013288:	9000ba8f 	lw	k0,144(sp)
1d01328c:	9800bd27 	addiu	sp,sp,152
1d013290:	02609a40 	mtc0	k0,c0_srsctl
1d013294:	00e8dd41 	wrpgpr	sp,sp
1d013298:	00609b40 	mtc0	k1,c0_status
1d01329c:	18000042 	eret
1d0132a0:	e0808227 	addiu	v0,gp,-32544
1d0132a4:	21204400 	addu	a0,v0,a0
1d0132a8:	0800e003 	jr	ra
1d0132ac:	00008290 	lbu	v0,0(a0)
1d0132b0:	02000224 	li	v0,2
1d0132b4:	06008210 	beq	a0,v0,0x1d0132d0
1d0132b8:	88bf023c 	lui	v0,0xbf88
1d0132bc:	03000224 	li	v0,3
1d0132c0:	07008250 	beql	a0,v0,0x1d0132e0
1d0132c4:	88bf023c 	lui	v0,0xbf88
1d0132c8:	0800e003 	jr	ra
1d0132cc:	21100000 	move	v0,zero
1d0132d0:	d060428c 	lw	v0,24784(v0)
1d0132d4:	00044238 	xori	v0,v0,0x400
1d0132d8:	0800e003 	jr	ra
1d0132dc:	8002427c 	ext	v0,v0,0xa,0x1
1d0132e0:	d060428c 	lw	v0,24784(v0)
1d0132e4:	00014238 	xori	v0,v0,0x100
1d0132e8:	0800e003 	jr	ra
1d0132ec:	0002427c 	ext	v0,v0,0x8,0x1
1d0132f0:	03000224 	li	v0,3
1d0132f4:	13008210 	beq	a0,v0,0x1d013344
1d0132f8:	f8ffbd27 	addiu	sp,sp,-8
1d0132fc:	04000224 	li	v0,4
1d013300:	19008210 	beq	a0,v0,0x1d013368
1d013304:	02000224 	li	v0,2
1d013308:	20008214 	bne	a0,v0,0x1d01338c
1d01330c:	03000224 	li	v0,3
1d013310:	00020224 	li	v0,512
1d013314:	88bf033c 	lui	v1,0xbf88
1d013318:	a46162ac 	sw	v0,24996(v1)
1d01331c:	88bf033c 	lui	v1,0xbf88
1d013320:	846162ac 	sw	v0,24964(v1)
1d013324:	03000224 	li	v0,3
1d013328:	0000a2a3 	sb	v0,0(sp)
1d01332c:	0100a5a3 	sb	a1,1(sp)
1d013330:	80bf033c 	lui	v1,0xbf80
1d013334:	105a6324 	addiu	v1,v1,23056
1d013338:	80bf093c 	lui	t1,0xbf80
1d01333c:	fb4c400b 	j	0x1d0133ec
1d013340:	205a2925 	addiu	t1,t1,23072
1d013344:	00020224 	li	v0,512
1d013348:	88bf033c 	lui	v1,0xbf88
1d01334c:	e46062ac 	sw	v0,24804(v1)
1d013350:	88bf033c 	lui	v1,0xbf88
1d013354:	c46062ac 	sw	v0,24772(v1)
1d013358:	03000224 	li	v0,3
1d01335c:	0000a2a3 	sb	v0,0(sp)
1d013360:	ee4c400b 	j	0x1d0133b8
1d013364:	0100a5a3 	sb	a1,1(sp)
1d013368:	00010224 	li	v0,256
1d01336c:	88bf033c 	lui	v1,0xbf88
1d013370:	646062ac 	sw	v0,24676(v1)
1d013374:	88bf033c 	lui	v1,0xbf88
1d013378:	446062ac 	sw	v0,24644(v1)
1d01337c:	03000224 	li	v0,3
1d013380:	0000a2a3 	sb	v0,0(sp)
1d013384:	f34c400b 	j	0x1d0133cc
1d013388:	0100a5a3 	sb	a1,1(sp)
1d01338c:	0000a2a3 	sb	v0,0(sp)
1d013390:	03000224 	li	v0,3
1d013394:	08008210 	beq	a0,v0,0x1d0133b8
1d013398:	0100a5a3 	sb	a1,1(sp)
1d01339c:	04000224 	li	v0,4
1d0133a0:	0a008210 	beq	a0,v0,0x1d0133cc
1d0133a4:	02000224 	li	v0,2
1d0133a8:	1e008214 	bne	a0,v0,0x1d013424
1d0133ac:	03000224 	li	v0,3
1d0133b0:	f84c400b 	j	0x1d0133e0
1d0133b4:	80bf033c 	lui	v1,0xbf80
1d0133b8:	80bf033c 	lui	v1,0xbf80
1d0133bc:	10586324 	addiu	v1,v1,22544
1d0133c0:	80bf093c 	lui	t1,0xbf80
1d0133c4:	fb4c400b 	j	0x1d0133ec
1d0133c8:	20582925 	addiu	t1,t1,22560
1d0133cc:	80bf033c 	lui	v1,0xbf80
1d0133d0:	105c6324 	addiu	v1,v1,23568
1d0133d4:	80bf093c 	lui	t1,0xbf80
1d0133d8:	fb4c400b 	j	0x1d0133ec
1d0133dc:	205c2925 	addiu	t1,t1,23584
1d0133e0:	105a6324 	addiu	v1,v1,23056
1d0133e4:	80bf093c 	lui	t1,0xbf80
1d0133e8:	205a2925 	addiu	t1,t1,23072
1d0133ec:	0000a293 	lbu	v0,0(sp)
1d0133f0:	000022ad 	sw	v0,0(t1)
1d0133f4:	0100a293 	lbu	v0,1(sp)
1d0133f8:	000022ad 	sw	v0,0(t1)
1d0133fc:	001f083c 	lui	t0,0x1f00
1d013400:	0002053c 	lui	a1,0x200
1d013404:	0000628c 	lw	v0,0(v1)
1d013408:	24104800 	and	v0,v0,t0
1d01340c:	2b104500 	sltu	v0,v0,a1
1d013410:	fcff4014 	bnez	v0,0x1d013404
1d013414:	00000000 	nop
1d013418:	0000228d 	lw	v0,0(t1)
1d01341c:	0000228d 	lw	v0,0(t1)
1d013420:	03000224 	li	v0,3
1d013424:	0f008210 	beq	a0,v0,0x1d013464
1d013428:	04000224 	li	v0,4
1d01342c:	08008210 	beq	a0,v0,0x1d013450
1d013430:	02000224 	li	v0,2
1d013434:	31008214 	bne	a0,v0,0x1d0134fc
1d013438:	03000224 	li	v0,3
1d01343c:	80bf093c 	lui	t1,0xbf80
1d013440:	105a2925 	addiu	t1,t1,23056
1d013444:	80bf033c 	lui	v1,0xbf80
1d013448:	1d4d400b 	j	0x1d013474
1d01344c:	205a6324 	addiu	v1,v1,23072
1d013450:	80bf093c 	lui	t1,0xbf80
1d013454:	105c2925 	addiu	t1,t1,23568
1d013458:	80bf033c 	lui	v1,0xbf80
1d01345c:	1d4d400b 	j	0x1d013474
1d013460:	205c6324 	addiu	v1,v1,23584
1d013464:	80bf093c 	lui	t1,0xbf80
1d013468:	10582925 	addiu	t1,t1,22544
1d01346c:	80bf033c 	lui	v1,0xbf80
1d013470:	20586324 	addiu	v1,v1,22560
1d013474:	0700e010 	beqz	a3,0x1d013494
1d013478:	ffffea24 	addiu	t2,a3,-1
1d01347c:	21104001 	move	v0,t2
1d013480:	ffff0524 	li	a1,-1
1d013484:	000060ac 	sw	zero,0(v1)
1d013488:	ffff4224 	addiu	v0,v0,-1
1d01348c:	fdff4514 	bne	v0,a1,0x1d013484
1d013490:	00000000 	nop
1d013494:	00460700 	sll	t0,a3,0x18
1d013498:	001f053c 	lui	a1,0x1f00
1d01349c:	0000228d 	lw	v0,0(t1)
1d0134a0:	24104500 	and	v0,v0,a1
1d0134a4:	2b104800 	sltu	v0,v0,t0
1d0134a8:	fcff4014 	bnez	v0,0x1d01349c
1d0134ac:	00000000 	nop
1d0134b0:	0500c014 	bnez	a2,0x1d0134c8
1d0134b4:	00000000 	nop
1d0134b8:	0b00e014 	bnez	a3,0x1d0134e8
1d0134bc:	ffff0224 	li	v0,-1
1d0134c0:	3f4d400b 	j	0x1d0134fc
1d0134c4:	03000224 	li	v0,3
1d0134c8:	0b00e010 	beqz	a3,0x1d0134f8
1d0134cc:	2138c700 	addu	a3,a2,a3
1d0134d0:	0100c624 	addiu	a2,a2,1
1d0134d4:	0000628c 	lw	v0,0(v1)
1d0134d8:	fdffc714 	bne	a2,a3,0x1d0134d0
1d0134dc:	ffffc2a0 	sb	v0,-1(a2)
1d0134e0:	3f4d400b 	j	0x1d0134fc
1d0134e4:	03000224 	li	v0,3
1d0134e8:	0000658c 	lw	a1,0(v1)
1d0134ec:	ffff4a25 	addiu	t2,t2,-1
1d0134f0:	fdff4215 	bne	t2,v0,0x1d0134e8
1d0134f4:	00000000 	nop
1d0134f8:	03000224 	li	v0,3
1d0134fc:	0c008210 	beq	a0,v0,0x1d013530
1d013500:	04000224 	li	v0,4
1d013504:	11008210 	beq	a0,v0,0x1d01354c
1d013508:	02000224 	li	v0,2
1d01350c:	15008254 	bnel	a0,v0,0x1d013564
1d013510:	0800bd27 	addiu	sp,sp,8
1d013514:	00020224 	li	v0,512
1d013518:	88bf033c 	lui	v1,0xbf88
1d01351c:	a86162ac 	sw	v0,25000(v1)
1d013520:	88bf033c 	lui	v1,0xbf88
1d013524:	846162ac 	sw	v0,24964(v1)
1d013528:	594d400b 	j	0x1d013564
1d01352c:	0800bd27 	addiu	sp,sp,8
1d013530:	00020224 	li	v0,512
1d013534:	88bf033c 	lui	v1,0xbf88
1d013538:	e86062ac 	sw	v0,24808(v1)
1d01353c:	88bf033c 	lui	v1,0xbf88
1d013540:	c46062ac 	sw	v0,24772(v1)
1d013544:	594d400b 	j	0x1d013564
1d013548:	0800bd27 	addiu	sp,sp,8
1d01354c:	00010224 	li	v0,256
1d013550:	88bf033c 	lui	v1,0xbf88
1d013554:	686062ac 	sw	v0,24680(v1)
1d013558:	88bf033c 	lui	v1,0xbf88
1d01355c:	446062ac 	sw	v0,24644(v1)
1d013560:	0800bd27 	addiu	sp,sp,8
1d013564:	0800e003 	jr	ra
1d013568:	00000000 	nop
1d01356c:	03000224 	li	v0,3
1d013570:	13008210 	beq	a0,v0,0x1d0135c0
1d013574:	f8ffbd27 	addiu	sp,sp,-8
1d013578:	04000224 	li	v0,4
1d01357c:	19008210 	beq	a0,v0,0x1d0135e4
1d013580:	02000224 	li	v0,2
1d013584:	20008214 	bne	a0,v0,0x1d013608
1d013588:	02000224 	li	v0,2
1d01358c:	00020224 	li	v0,512
1d013590:	88bf033c 	lui	v1,0xbf88
1d013594:	a46162ac 	sw	v0,24996(v1)
1d013598:	88bf033c 	lui	v1,0xbf88
1d01359c:	846162ac 	sw	v0,24964(v1)
1d0135a0:	02000224 	li	v0,2
1d0135a4:	0000a2a3 	sb	v0,0(sp)
1d0135a8:	0100a5a3 	sb	a1,1(sp)
1d0135ac:	80bf033c 	lui	v1,0xbf80
1d0135b0:	105a6324 	addiu	v1,v1,23056
1d0135b4:	80bf093c 	lui	t1,0xbf80
1d0135b8:	9a4d400b 	j	0x1d013668
1d0135bc:	205a2925 	addiu	t1,t1,23072
1d0135c0:	00020224 	li	v0,512
1d0135c4:	88bf033c 	lui	v1,0xbf88
1d0135c8:	e46062ac 	sw	v0,24804(v1)
1d0135cc:	88bf033c 	lui	v1,0xbf88
1d0135d0:	c46062ac 	sw	v0,24772(v1)
1d0135d4:	02000224 	li	v0,2
1d0135d8:	0000a2a3 	sb	v0,0(sp)
1d0135dc:	8d4d400b 	j	0x1d013634
1d0135e0:	0100a5a3 	sb	a1,1(sp)
1d0135e4:	00010224 	li	v0,256
1d0135e8:	88bf033c 	lui	v1,0xbf88
1d0135ec:	646062ac 	sw	v0,24676(v1)
1d0135f0:	88bf033c 	lui	v1,0xbf88
1d0135f4:	446062ac 	sw	v0,24644(v1)
1d0135f8:	02000224 	li	v0,2
1d0135fc:	0000a2a3 	sb	v0,0(sp)
1d013600:	924d400b 	j	0x1d013648
1d013604:	0100a5a3 	sb	a1,1(sp)
1d013608:	0000a2a3 	sb	v0,0(sp)
1d01360c:	03000224 	li	v0,3
1d013610:	08008210 	beq	a0,v0,0x1d013634
1d013614:	0100a5a3 	sb	a1,1(sp)
1d013618:	04000224 	li	v0,4
1d01361c:	0a008210 	beq	a0,v0,0x1d013648
1d013620:	02000224 	li	v0,2
1d013624:	1e008214 	bne	a0,v0,0x1d0136a0
1d013628:	03000224 	li	v0,3
1d01362c:	974d400b 	j	0x1d01365c
1d013630:	80bf033c 	lui	v1,0xbf80
1d013634:	80bf033c 	lui	v1,0xbf80
1d013638:	10586324 	addiu	v1,v1,22544
1d01363c:	80bf093c 	lui	t1,0xbf80
1d013640:	9a4d400b 	j	0x1d013668
1d013644:	20582925 	addiu	t1,t1,22560
1d013648:	80bf033c 	lui	v1,0xbf80
1d01364c:	105c6324 	addiu	v1,v1,23568
1d013650:	80bf093c 	lui	t1,0xbf80
1d013654:	9a4d400b 	j	0x1d013668
1d013658:	205c2925 	addiu	t1,t1,23584
1d01365c:	105a6324 	addiu	v1,v1,23056
1d013660:	80bf093c 	lui	t1,0xbf80
1d013664:	205a2925 	addiu	t1,t1,23072
1d013668:	0000a293 	lbu	v0,0(sp)
1d01366c:	000022ad 	sw	v0,0(t1)
1d013670:	0100a293 	lbu	v0,1(sp)
1d013674:	000022ad 	sw	v0,0(t1)
1d013678:	001f083c 	lui	t0,0x1f00
1d01367c:	0002053c 	lui	a1,0x200
1d013680:	0000628c 	lw	v0,0(v1)
1d013684:	24104800 	and	v0,v0,t0
1d013688:	2b104500 	sltu	v0,v0,a1
1d01368c:	fcff4014 	bnez	v0,0x1d013680
1d013690:	00000000 	nop
1d013694:	0000228d 	lw	v0,0(t1)
1d013698:	0000228d 	lw	v0,0(t1)
1d01369c:	03000224 	li	v0,3
1d0136a0:	0f008210 	beq	a0,v0,0x1d0136e0
1d0136a4:	04000224 	li	v0,4
1d0136a8:	08008210 	beq	a0,v0,0x1d0136cc
1d0136ac:	02000224 	li	v0,2
1d0136b0:	31008214 	bne	a0,v0,0x1d013778
1d0136b4:	03000224 	li	v0,3
1d0136b8:	80bf083c 	lui	t0,0xbf80
1d0136bc:	105a0825 	addiu	t0,t0,23056
1d0136c0:	80bf033c 	lui	v1,0xbf80
1d0136c4:	bc4d400b 	j	0x1d0136f0
1d0136c8:	205a6324 	addiu	v1,v1,23072
1d0136cc:	80bf083c 	lui	t0,0xbf80
1d0136d0:	105c0825 	addiu	t0,t0,23568
1d0136d4:	80bf033c 	lui	v1,0xbf80
1d0136d8:	bc4d400b 	j	0x1d0136f0
1d0136dc:	205c6324 	addiu	v1,v1,23584
1d0136e0:	80bf083c 	lui	t0,0xbf80
1d0136e4:	10580825 	addiu	t0,t0,22544
1d0136e8:	80bf033c 	lui	v1,0xbf80
1d0136ec:	20586324 	addiu	v1,v1,22560
1d0136f0:	0500c014 	bnez	a2,0x1d013708
1d0136f4:	ffffe224 	addiu	v0,a3,-1
1d0136f8:	0c00e014 	bnez	a3,0x1d01372c
1d0136fc:	ffff0524 	li	a1,-1
1d013700:	d04d400b 	j	0x1d013740
1d013704:	00360700 	sll	a2,a3,0x18
1d013708:	0c00e010 	beqz	a3,0x1d01373c
1d01370c:	2128c700 	addu	a1,a2,a3
1d013710:	0100c624 	addiu	a2,a2,1
1d013714:	ffffc290 	lbu	v0,-1(a2)
1d013718:	000062ac 	sw	v0,0(v1)
1d01371c:	fdffc554 	bnel	a2,a1,0x1d013714
1d013720:	0100c624 	addiu	a2,a2,1
1d013724:	d04d400b 	j	0x1d013740
1d013728:	00360700 	sll	a2,a3,0x18
1d01372c:	000060ac 	sw	zero,0(v1)
1d013730:	ffff4224 	addiu	v0,v0,-1
1d013734:	fdff4514 	bne	v0,a1,0x1d01372c
1d013738:	00000000 	nop
1d01373c:	00360700 	sll	a2,a3,0x18
1d013740:	001f053c 	lui	a1,0x1f00
1d013744:	0000028d 	lw	v0,0(t0)
1d013748:	24104500 	and	v0,v0,a1
1d01374c:	2b104600 	sltu	v0,v0,a2
1d013750:	fcff4014 	bnez	v0,0x1d013744
1d013754:	00000000 	nop
1d013758:	0600e010 	beqz	a3,0x1d013774
1d01375c:	ffffe224 	addiu	v0,a3,-1
1d013760:	ffff0524 	li	a1,-1
1d013764:	0000668c 	lw	a2,0(v1)
1d013768:	ffff4224 	addiu	v0,v0,-1
1d01376c:	fdff4514 	bne	v0,a1,0x1d013764
1d013770:	00000000 	nop
1d013774:	03000224 	li	v0,3
1d013778:	0c008210 	beq	a0,v0,0x1d0137ac
1d01377c:	04000224 	li	v0,4
1d013780:	11008210 	beq	a0,v0,0x1d0137c8
1d013784:	02000224 	li	v0,2
1d013788:	15008254 	bnel	a0,v0,0x1d0137e0
1d01378c:	0800bd27 	addiu	sp,sp,8
1d013790:	00020224 	li	v0,512
1d013794:	88bf033c 	lui	v1,0xbf88
1d013798:	a86162ac 	sw	v0,25000(v1)
1d01379c:	88bf033c 	lui	v1,0xbf88
1d0137a0:	846162ac 	sw	v0,24964(v1)
1d0137a4:	f84d400b 	j	0x1d0137e0
1d0137a8:	0800bd27 	addiu	sp,sp,8
1d0137ac:	00020224 	li	v0,512
1d0137b0:	88bf033c 	lui	v1,0xbf88
1d0137b4:	e86062ac 	sw	v0,24808(v1)
1d0137b8:	88bf033c 	lui	v1,0xbf88
1d0137bc:	c46062ac 	sw	v0,24772(v1)
1d0137c0:	f84d400b 	j	0x1d0137e0
1d0137c4:	0800bd27 	addiu	sp,sp,8
1d0137c8:	00010224 	li	v0,256
1d0137cc:	88bf033c 	lui	v1,0xbf88
1d0137d0:	686062ac 	sw	v0,24680(v1)
1d0137d4:	88bf033c 	lui	v1,0xbf88
1d0137d8:	446062ac 	sw	v0,24644(v1)
1d0137dc:	0800bd27 	addiu	sp,sp,8
1d0137e0:	0800e003 	jr	ra
1d0137e4:	00000000 	nop
1d0137e8:	03000224 	li	v0,3
1d0137ec:	0c008210 	beq	a0,v0,0x1d013820
1d0137f0:	04000224 	li	v0,4
1d0137f4:	11008210 	beq	a0,v0,0x1d01383c
1d0137f8:	02000224 	li	v0,2
1d0137fc:	16008214 	bne	a0,v0,0x1d013858
1d013800:	03000224 	li	v0,3
1d013804:	00020224 	li	v0,512
1d013808:	88bf033c 	lui	v1,0xbf88
1d01380c:	a46162ac 	sw	v0,24996(v1)
1d013810:	88bf033c 	lui	v1,0xbf88
1d013814:	846162ac 	sw	v0,24964(v1)
1d013818:	1d4e400b 	j	0x1d013874
1d01381c:	a0000324 	li	v1,160
1d013820:	00020224 	li	v0,512
1d013824:	88bf033c 	lui	v1,0xbf88
1d013828:	e46062ac 	sw	v0,24804(v1)
1d01382c:	88bf033c 	lui	v1,0xbf88
1d013830:	c46062ac 	sw	v0,24772(v1)
1d013834:	294e400b 	j	0x1d0138a4
1d013838:	a0000324 	li	v1,160
1d01383c:	00010224 	li	v0,256
1d013840:	88bf033c 	lui	v1,0xbf88
1d013844:	646062ac 	sw	v0,24676(v1)
1d013848:	88bf033c 	lui	v1,0xbf88
1d01384c:	446062ac 	sw	v0,24644(v1)
1d013850:	354e400b 	j	0x1d0138d4
1d013854:	a0000324 	li	v1,160
1d013858:	11008210 	beq	a0,v0,0x1d0138a0
1d01385c:	04000224 	li	v0,4
1d013860:	1b008210 	beq	a0,v0,0x1d0138d0
1d013864:	02000224 	li	v0,2
1d013868:	25008214 	bne	a0,v0,0x1d013900
1d01386c:	03000224 	li	v0,3
1d013870:	a0000324 	li	v1,160
1d013874:	80bf023c 	lui	v0,0xbf80
1d013878:	205a43ac 	sw	v1,23072(v0)
1d01387c:	80bf043c 	lui	a0,0xbf80
1d013880:	001f033c 	lui	v1,0x1f00
1d013884:	105a828c 	lw	v0,23056(a0)
1d013888:	24104300 	and	v0,v0,v1
1d01388c:	fdff4010 	beqz	v0,0x1d013884
1d013890:	80bf023c 	lui	v0,0xbf80
1d013894:	205a428c 	lw	v0,23072(v0)
1d013898:	474e400b 	j	0x1d01391c
1d01389c:	80bf023c 	lui	v0,0xbf80
1d0138a0:	a0000324 	li	v1,160
1d0138a4:	80bf023c 	lui	v0,0xbf80
1d0138a8:	205843ac 	sw	v1,22560(v0)
1d0138ac:	80bf043c 	lui	a0,0xbf80
1d0138b0:	001f033c 	lui	v1,0x1f00
1d0138b4:	1058828c 	lw	v0,22544(a0)
1d0138b8:	24104300 	and	v0,v0,v1
1d0138bc:	fdff4010 	beqz	v0,0x1d0138b4
1d0138c0:	80bf023c 	lui	v0,0xbf80
1d0138c4:	2058428c 	lw	v0,22560(v0)
1d0138c8:	524e400b 	j	0x1d013948
1d0138cc:	80bf023c 	lui	v0,0xbf80
1d0138d0:	a0000324 	li	v1,160
1d0138d4:	80bf023c 	lui	v0,0xbf80
1d0138d8:	205c43ac 	sw	v1,23584(v0)
1d0138dc:	80bf043c 	lui	a0,0xbf80
1d0138e0:	001f033c 	lui	v1,0x1f00
1d0138e4:	105c828c 	lw	v0,23568(a0)
1d0138e8:	24104300 	and	v0,v0,v1
1d0138ec:	fdff4010 	beqz	v0,0x1d0138e4
1d0138f0:	80bf023c 	lui	v0,0xbf80
1d0138f4:	205c428c 	lw	v0,23584(v0)
1d0138f8:	5d4e400b 	j	0x1d013974
1d0138fc:	80bf023c 	lui	v0,0xbf80
1d013900:	10008210 	beq	a0,v0,0x1d013944
1d013904:	04000224 	li	v0,4
1d013908:	19008210 	beq	a0,v0,0x1d013970
1d01390c:	02000224 	li	v0,2
1d013910:	22008214 	bne	a0,v0,0x1d01399c
1d013914:	03000224 	li	v0,3
1d013918:	80bf023c 	lui	v0,0xbf80
1d01391c:	205a40ac 	sw	zero,23072(v0)
1d013920:	80bf043c 	lui	a0,0xbf80
1d013924:	001f033c 	lui	v1,0x1f00
1d013928:	105a828c 	lw	v0,23056(a0)
1d01392c:	24104300 	and	v0,v0,v1
1d013930:	fdff4010 	beqz	v0,0x1d013928
1d013934:	80bf023c 	lui	v0,0xbf80
1d013938:	205a428c 	lw	v0,23072(v0)
1d01393c:	704e400b 	j	0x1d0139c0
1d013940:	ff004230 	andi	v0,v0,0xff
1d013944:	80bf023c 	lui	v0,0xbf80
1d013948:	205840ac 	sw	zero,22560(v0)
1d01394c:	80bf043c 	lui	a0,0xbf80
1d013950:	001f033c 	lui	v1,0x1f00
1d013954:	1058828c 	lw	v0,22544(a0)
1d013958:	24104300 	and	v0,v0,v1
1d01395c:	fdff4010 	beqz	v0,0x1d013954
1d013960:	80bf023c 	lui	v0,0xbf80
1d013964:	2058428c 	lw	v0,22560(v0)
1d013968:	774e400b 	j	0x1d0139dc
1d01396c:	ff004230 	andi	v0,v0,0xff
1d013970:	80bf023c 	lui	v0,0xbf80
1d013974:	205c40ac 	sw	zero,23584(v0)
1d013978:	80bf043c 	lui	a0,0xbf80
1d01397c:	001f033c 	lui	v1,0x1f00
1d013980:	105c828c 	lw	v0,23568(a0)
1d013984:	24104300 	and	v0,v0,v1
1d013988:	fdff4010 	beqz	v0,0x1d013980
1d01398c:	80bf023c 	lui	v0,0xbf80
1d013990:	205c428c 	lw	v0,23584(v0)
1d013994:	7e4e400b 	j	0x1d0139f8
1d013998:	ff004230 	andi	v0,v0,0xff
1d01399c:	0f008210 	beq	a0,v0,0x1d0139dc
1d0139a0:	21100000 	move	v0,zero
1d0139a4:	04000224 	li	v0,4
1d0139a8:	13008210 	beq	a0,v0,0x1d0139f8
1d0139ac:	21100000 	move	v0,zero
1d0139b0:	02000224 	li	v0,2
1d0139b4:	17008214 	bne	a0,v0,0x1d013a14
1d0139b8:	00000000 	nop
1d0139bc:	21100000 	move	v0,zero
1d0139c0:	00020324 	li	v1,512
1d0139c4:	88bf043c 	lui	a0,0xbf88
1d0139c8:	a86183ac 	sw	v1,25000(a0)
1d0139cc:	88bf043c 	lui	a0,0xbf88
1d0139d0:	846183ac 	sw	v1,24964(a0)
1d0139d4:	0800e003 	jr	ra
1d0139d8:	00000000 	nop
1d0139dc:	00020324 	li	v1,512
1d0139e0:	88bf043c 	lui	a0,0xbf88
1d0139e4:	e86083ac 	sw	v1,24808(a0)
1d0139e8:	88bf043c 	lui	a0,0xbf88
1d0139ec:	c46083ac 	sw	v1,24772(a0)
1d0139f0:	0800e003 	jr	ra
1d0139f4:	00000000 	nop
1d0139f8:	00010324 	li	v1,256
1d0139fc:	88bf043c 	lui	a0,0xbf88
1d013a00:	686083ac 	sw	v1,24680(a0)
1d013a04:	88bf043c 	lui	a0,0xbf88
1d013a08:	446083ac 	sw	v1,24644(a0)
1d013a0c:	0800e003 	jr	ra
1d013a10:	00000000 	nop
1d013a14:	0800e003 	jr	ra
1d013a18:	21100000 	move	v0,zero
1d013a1c:	e8ffbd27 	addiu	sp,sp,-24
1d013a20:	1400bfaf 	sw	ra,20(sp)
1d013a24:	1000b0af 	sw	s0,16(sp)
1d013a28:	03000224 	li	v0,3
1d013a2c:	0d008210 	beq	a0,v0,0x1d013a64
1d013a30:	21808000 	move	s0,a0
1d013a34:	04000224 	li	v0,4
1d013a38:	11008210 	beq	a0,v0,0x1d013a80
1d013a3c:	02000224 	li	v0,2
1d013a40:	16008214 	bne	a0,v0,0x1d013a9c
1d013a44:	03000224 	li	v0,3
1d013a48:	00020224 	li	v0,512
1d013a4c:	88bf033c 	lui	v1,0xbf88
1d013a50:	a46162ac 	sw	v0,24996(v1)
1d013a54:	88bf033c 	lui	v1,0xbf88
1d013a58:	846162ac 	sw	v0,24964(v1)
1d013a5c:	ae4e400b 	j	0x1d013ab8
1d013a60:	c0000324 	li	v1,192
1d013a64:	00020224 	li	v0,512
1d013a68:	88bf033c 	lui	v1,0xbf88
1d013a6c:	e46062ac 	sw	v0,24804(v1)
1d013a70:	88bf033c 	lui	v1,0xbf88
1d013a74:	c46062ac 	sw	v0,24772(v1)
1d013a78:	ba4e400b 	j	0x1d013ae8
1d013a7c:	c0000324 	li	v1,192
1d013a80:	00010224 	li	v0,256
1d013a84:	88bf033c 	lui	v1,0xbf88
1d013a88:	646062ac 	sw	v0,24676(v1)
1d013a8c:	88bf033c 	lui	v1,0xbf88
1d013a90:	446062ac 	sw	v0,24644(v1)
1d013a94:	c64e400b 	j	0x1d013b18
1d013a98:	c0000324 	li	v1,192
1d013a9c:	11008210 	beq	a0,v0,0x1d013ae4
1d013aa0:	04000224 	li	v0,4
1d013aa4:	1b008210 	beq	a0,v0,0x1d013b14
1d013aa8:	02000224 	li	v0,2
1d013aac:	25008214 	bne	a0,v0,0x1d013b44
1d013ab0:	03000224 	li	v0,3
1d013ab4:	c0000324 	li	v1,192
1d013ab8:	80bf023c 	lui	v0,0xbf80
1d013abc:	205a43ac 	sw	v1,23072(v0)
1d013ac0:	80bf043c 	lui	a0,0xbf80
1d013ac4:	001f033c 	lui	v1,0x1f00
1d013ac8:	105a828c 	lw	v0,23056(a0)
1d013acc:	24104300 	and	v0,v0,v1
1d013ad0:	fdff4010 	beqz	v0,0x1d013ac8
1d013ad4:	80bf023c 	lui	v0,0xbf80
1d013ad8:	205a428c 	lw	v0,23072(v0)
1d013adc:	d74e400b 	j	0x1d013b5c
1d013ae0:	00020224 	li	v0,512
1d013ae4:	c0000324 	li	v1,192
1d013ae8:	80bf023c 	lui	v0,0xbf80
1d013aec:	205843ac 	sw	v1,22560(v0)
1d013af0:	80bf043c 	lui	a0,0xbf80
1d013af4:	001f033c 	lui	v1,0x1f00
1d013af8:	1058828c 	lw	v0,22544(a0)
1d013afc:	24104300 	and	v0,v0,v1
1d013b00:	fdff4010 	beqz	v0,0x1d013af8
1d013b04:	80bf023c 	lui	v0,0xbf80
1d013b08:	2058428c 	lw	v0,22560(v0)
1d013b0c:	de4e400b 	j	0x1d013b78
1d013b10:	00020224 	li	v0,512
1d013b14:	c0000324 	li	v1,192
1d013b18:	80bf023c 	lui	v0,0xbf80
1d013b1c:	205c43ac 	sw	v1,23584(v0)
1d013b20:	80bf043c 	lui	a0,0xbf80
1d013b24:	001f033c 	lui	v1,0x1f00
1d013b28:	105c828c 	lw	v0,23568(a0)
1d013b2c:	24104300 	and	v0,v0,v1
1d013b30:	fdff4010 	beqz	v0,0x1d013b28
1d013b34:	80bf023c 	lui	v0,0xbf80
1d013b38:	205c428c 	lw	v0,23584(v0)
1d013b3c:	e54e400b 	j	0x1d013b94
1d013b40:	00010224 	li	v0,256
1d013b44:	0b008210 	beq	a0,v0,0x1d013b74
1d013b48:	04000224 	li	v0,4
1d013b4c:	10008210 	beq	a0,v0,0x1d013b90
1d013b50:	02000224 	li	v0,2
1d013b54:	13008214 	bne	a0,v0,0x1d013ba4
1d013b58:	00020224 	li	v0,512
1d013b5c:	88bf033c 	lui	v1,0xbf88
1d013b60:	a86162ac 	sw	v0,25000(v1)
1d013b64:	88bf033c 	lui	v1,0xbf88
1d013b68:	846162ac 	sw	v0,24964(v1)
1d013b6c:	e94e400b 	j	0x1d013ba4
1d013b70:	00000000 	nop
1d013b74:	00020224 	li	v0,512
1d013b78:	88bf033c 	lui	v1,0xbf88
1d013b7c:	e86062ac 	sw	v0,24808(v1)
1d013b80:	88bf033c 	lui	v1,0xbf88
1d013b84:	c46062ac 	sw	v0,24772(v1)
1d013b88:	e94e400b 	j	0x1d013ba4
1d013b8c:	00000000 	nop
1d013b90:	00010224 	li	v0,256
1d013b94:	88bf033c 	lui	v1,0xbf88
1d013b98:	686062ac 	sw	v0,24680(v1)
1d013b9c:	88bf033c 	lui	v1,0xbf88
1d013ba0:	446062ac 	sw	v0,24644(v1)
1d013ba4:	fa4d400f 	jal	0x1d0137e8
1d013ba8:	21200002 	move	a0,s0
1d013bac:	fa4d400f 	jal	0x1d0137e8
1d013bb0:	21200002 	move	a0,s0
1d013bb4:	fa4d400f 	jal	0x1d0137e8
1d013bb8:	21200002 	move	a0,s0
1d013bbc:	1400bf8f 	lw	ra,20(sp)
1d013bc0:	1000b08f 	lw	s0,16(sp)
1d013bc4:	0800e003 	jr	ra
1d013bc8:	1800bd27 	addiu	sp,sp,24
1d013bcc:	03000224 	li	v0,3
1d013bd0:	0c008210 	beq	a0,v0,0x1d013c04
1d013bd4:	04000224 	li	v0,4
1d013bd8:	11008210 	beq	a0,v0,0x1d013c20
1d013bdc:	02000224 	li	v0,2
1d013be0:	16008214 	bne	a0,v0,0x1d013c3c
1d013be4:	03000224 	li	v0,3
1d013be8:	00020224 	li	v0,512
1d013bec:	88bf033c 	lui	v1,0xbf88
1d013bf0:	a46162ac 	sw	v0,24996(v1)
1d013bf4:	88bf033c 	lui	v1,0xbf88
1d013bf8:	846162ac 	sw	v0,24964(v1)
1d013bfc:	164f400b 	j	0x1d013c58
1d013c00:	b0000324 	li	v1,176
1d013c04:	00020224 	li	v0,512
1d013c08:	88bf033c 	lui	v1,0xbf88
1d013c0c:	e46062ac 	sw	v0,24804(v1)
1d013c10:	88bf033c 	lui	v1,0xbf88
1d013c14:	c46062ac 	sw	v0,24772(v1)
1d013c18:	224f400b 	j	0x1d013c88
1d013c1c:	b0000324 	li	v1,176
1d013c20:	00010224 	li	v0,256
1d013c24:	88bf033c 	lui	v1,0xbf88
1d013c28:	646062ac 	sw	v0,24676(v1)
1d013c2c:	88bf033c 	lui	v1,0xbf88
1d013c30:	446062ac 	sw	v0,24644(v1)
1d013c34:	2e4f400b 	j	0x1d013cb8
1d013c38:	b0000324 	li	v1,176
1d013c3c:	11008210 	beq	a0,v0,0x1d013c84
1d013c40:	04000224 	li	v0,4
1d013c44:	1b008210 	beq	a0,v0,0x1d013cb4
1d013c48:	02000224 	li	v0,2
1d013c4c:	25008214 	bne	a0,v0,0x1d013ce4
1d013c50:	03000224 	li	v0,3
1d013c54:	b0000324 	li	v1,176
1d013c58:	80bf023c 	lui	v0,0xbf80
1d013c5c:	205a43ac 	sw	v1,23072(v0)
1d013c60:	80bf043c 	lui	a0,0xbf80
1d013c64:	001f033c 	lui	v1,0x1f00
1d013c68:	105a828c 	lw	v0,23056(a0)
1d013c6c:	24104300 	and	v0,v0,v1
1d013c70:	fdff4010 	beqz	v0,0x1d013c68
1d013c74:	80bf023c 	lui	v0,0xbf80
1d013c78:	205a428c 	lw	v0,23072(v0)
1d013c7c:	404f400b 	j	0x1d013d00
1d013c80:	80bf023c 	lui	v0,0xbf80
1d013c84:	b0000324 	li	v1,176
1d013c88:	80bf023c 	lui	v0,0xbf80
1d013c8c:	205843ac 	sw	v1,22560(v0)
1d013c90:	80bf043c 	lui	a0,0xbf80
1d013c94:	001f033c 	lui	v1,0x1f00
1d013c98:	1058828c 	lw	v0,22544(a0)
1d013c9c:	24104300 	and	v0,v0,v1
1d013ca0:	fdff4010 	beqz	v0,0x1d013c98
1d013ca4:	80bf023c 	lui	v0,0xbf80
1d013ca8:	2058428c 	lw	v0,22560(v0)
1d013cac:	4b4f400b 	j	0x1d013d2c
1d013cb0:	80bf023c 	lui	v0,0xbf80
1d013cb4:	b0000324 	li	v1,176
1d013cb8:	80bf023c 	lui	v0,0xbf80
1d013cbc:	205c43ac 	sw	v1,23584(v0)
1d013cc0:	80bf043c 	lui	a0,0xbf80
1d013cc4:	001f033c 	lui	v1,0x1f00
1d013cc8:	105c828c 	lw	v0,23568(a0)
1d013ccc:	24104300 	and	v0,v0,v1
1d013cd0:	fdff4010 	beqz	v0,0x1d013cc8
1d013cd4:	80bf023c 	lui	v0,0xbf80
1d013cd8:	205c428c 	lw	v0,23584(v0)
1d013cdc:	564f400b 	j	0x1d013d58
1d013ce0:	80bf023c 	lui	v0,0xbf80
1d013ce4:	10008210 	beq	a0,v0,0x1d013d28
1d013ce8:	04000224 	li	v0,4
1d013cec:	19008210 	beq	a0,v0,0x1d013d54
1d013cf0:	02000224 	li	v0,2
1d013cf4:	22008214 	bne	a0,v0,0x1d013d80
1d013cf8:	03000224 	li	v0,3
1d013cfc:	80bf023c 	lui	v0,0xbf80
1d013d00:	205a40ac 	sw	zero,23072(v0)
1d013d04:	80bf043c 	lui	a0,0xbf80
1d013d08:	001f033c 	lui	v1,0x1f00
1d013d0c:	105a828c 	lw	v0,23056(a0)
1d013d10:	24104300 	and	v0,v0,v1
1d013d14:	fdff4010 	beqz	v0,0x1d013d0c
1d013d18:	80bf023c 	lui	v0,0xbf80
1d013d1c:	205a428c 	lw	v0,23072(v0)
1d013d20:	694f400b 	j	0x1d013da4
1d013d24:	ff004230 	andi	v0,v0,0xff
1d013d28:	80bf023c 	lui	v0,0xbf80
1d013d2c:	205840ac 	sw	zero,22560(v0)
1d013d30:	80bf043c 	lui	a0,0xbf80
1d013d34:	001f033c 	lui	v1,0x1f00
1d013d38:	1058828c 	lw	v0,22544(a0)
1d013d3c:	24104300 	and	v0,v0,v1
1d013d40:	fdff4010 	beqz	v0,0x1d013d38
1d013d44:	80bf023c 	lui	v0,0xbf80
1d013d48:	2058428c 	lw	v0,22560(v0)
1d013d4c:	704f400b 	j	0x1d013dc0
1d013d50:	ff004230 	andi	v0,v0,0xff
1d013d54:	80bf023c 	lui	v0,0xbf80
1d013d58:	205c40ac 	sw	zero,23584(v0)
1d013d5c:	80bf043c 	lui	a0,0xbf80
1d013d60:	001f033c 	lui	v1,0x1f00
1d013d64:	105c828c 	lw	v0,23568(a0)
1d013d68:	24104300 	and	v0,v0,v1
1d013d6c:	fdff4010 	beqz	v0,0x1d013d64
1d013d70:	80bf023c 	lui	v0,0xbf80
1d013d74:	205c428c 	lw	v0,23584(v0)
1d013d78:	774f400b 	j	0x1d013ddc
1d013d7c:	ff004230 	andi	v0,v0,0xff
1d013d80:	0f008210 	beq	a0,v0,0x1d013dc0
1d013d84:	21100000 	move	v0,zero
1d013d88:	04000224 	li	v0,4
1d013d8c:	13008210 	beq	a0,v0,0x1d013ddc
1d013d90:	21100000 	move	v0,zero
1d013d94:	02000224 	li	v0,2
1d013d98:	17008214 	bne	a0,v0,0x1d013df8
1d013d9c:	00000000 	nop
1d013da0:	21100000 	move	v0,zero
1d013da4:	00020324 	li	v1,512
1d013da8:	88bf043c 	lui	a0,0xbf88
1d013dac:	a86183ac 	sw	v1,25000(a0)
1d013db0:	88bf043c 	lui	a0,0xbf88
1d013db4:	846183ac 	sw	v1,24964(a0)
1d013db8:	0800e003 	jr	ra
1d013dbc:	00000000 	nop
1d013dc0:	00020324 	li	v1,512
1d013dc4:	88bf043c 	lui	a0,0xbf88
1d013dc8:	e86083ac 	sw	v1,24808(a0)
1d013dcc:	88bf043c 	lui	a0,0xbf88
1d013dd0:	c46083ac 	sw	v1,24772(a0)
1d013dd4:	0800e003 	jr	ra
1d013dd8:	00000000 	nop
1d013ddc:	00010324 	li	v1,256
1d013de0:	88bf043c 	lui	a0,0xbf88
1d013de4:	686083ac 	sw	v1,24680(a0)
1d013de8:	88bf043c 	lui	a0,0xbf88
1d013dec:	446083ac 	sw	v1,24644(a0)
1d013df0:	0800e003 	jr	ra
1d013df4:	00000000 	nop
1d013df8:	0800e003 	jr	ra
1d013dfc:	21100000 	move	v0,zero
1d013e00:	03000224 	li	v0,3
1d013e04:	12008210 	beq	a0,v0,0x1d013e50
1d013e08:	00020224 	li	v0,512
1d013e0c:	04000224 	li	v0,4
1d013e10:	19008210 	beq	a0,v0,0x1d013e78
1d013e14:	00010224 	li	v0,256
1d013e18:	02000224 	li	v0,2
1d013e1c:	20008254 	bnel	a0,v0,0x1d013ea0
1d013e20:	0300a530 	andi	a1,a1,0x3
1d013e24:	00020224 	li	v0,512
1d013e28:	88bf033c 	lui	v1,0xbf88
1d013e2c:	a46162ac 	sw	v0,24996(v1)
1d013e30:	88bf033c 	lui	v1,0xbf88
1d013e34:	846162ac 	sw	v0,24964(v1)
1d013e38:	0300a530 	andi	a1,a1,0x3
1d013e3c:	01000224 	li	v0,1
1d013e40:	0410a200 	sllv	v0,v0,a1
1d013e44:	7f004230 	andi	v0,v0,0x7f
1d013e48:	b34f400b 	j	0x1d013ecc
1d013e4c:	80004234 	ori	v0,v0,0x80
1d013e50:	88bf033c 	lui	v1,0xbf88
1d013e54:	e46062ac 	sw	v0,24804(v1)
1d013e58:	88bf033c 	lui	v1,0xbf88
1d013e5c:	c46062ac 	sw	v0,24772(v1)
1d013e60:	0300a530 	andi	a1,a1,0x3
1d013e64:	01000224 	li	v0,1
1d013e68:	0410a200 	sllv	v0,v0,a1
1d013e6c:	7f004230 	andi	v0,v0,0x7f
1d013e70:	be4f400b 	j	0x1d013ef8
1d013e74:	80004234 	ori	v0,v0,0x80
1d013e78:	88bf033c 	lui	v1,0xbf88
1d013e7c:	646062ac 	sw	v0,24676(v1)
1d013e80:	88bf033c 	lui	v1,0xbf88
1d013e84:	446062ac 	sw	v0,24644(v1)
1d013e88:	0300a530 	andi	a1,a1,0x3
1d013e8c:	01000224 	li	v0,1
1d013e90:	0410a200 	sllv	v0,v0,a1
1d013e94:	7f004230 	andi	v0,v0,0x7f
1d013e98:	c94f400b 	j	0x1d013f24
1d013e9c:	80004234 	ori	v0,v0,0x80
1d013ea0:	01000224 	li	v0,1
1d013ea4:	0410a200 	sllv	v0,v0,a1
1d013ea8:	7f004230 	andi	v0,v0,0x7f
1d013eac:	03000324 	li	v1,3
1d013eb0:	11008310 	beq	a0,v1,0x1d013ef8
1d013eb4:	80004234 	ori	v0,v0,0x80
1d013eb8:	04000324 	li	v1,4
1d013ebc:	19008310 	beq	a0,v1,0x1d013f24
1d013ec0:	02000324 	li	v1,2
1d013ec4:	22008354 	bnel	a0,v1,0x1d013f50
1d013ec8:	03000224 	li	v0,3
1d013ecc:	80bf033c 	lui	v1,0xbf80
1d013ed0:	205a62ac 	sw	v0,23072(v1)
1d013ed4:	80bf043c 	lui	a0,0xbf80
1d013ed8:	001f033c 	lui	v1,0x1f00
1d013edc:	105a828c 	lw	v0,23056(a0)
1d013ee0:	24104300 	and	v0,v0,v1
1d013ee4:	fdff4010 	beqz	v0,0x1d013edc
1d013ee8:	80bf023c 	lui	v0,0xbf80
1d013eec:	205a428c 	lw	v0,23072(v0)
1d013ef0:	da4f400b 	j	0x1d013f68
1d013ef4:	00020224 	li	v0,512
1d013ef8:	80bf033c 	lui	v1,0xbf80
1d013efc:	205862ac 	sw	v0,22560(v1)
1d013f00:	80bf043c 	lui	a0,0xbf80
1d013f04:	001f033c 	lui	v1,0x1f00
1d013f08:	1058828c 	lw	v0,22544(a0)
1d013f0c:	24104300 	and	v0,v0,v1
1d013f10:	fdff4010 	beqz	v0,0x1d013f08
1d013f14:	80bf023c 	lui	v0,0xbf80
1d013f18:	2058428c 	lw	v0,22560(v0)
1d013f1c:	e14f400b 	j	0x1d013f84
1d013f20:	00020224 	li	v0,512
1d013f24:	80bf033c 	lui	v1,0xbf80
1d013f28:	205c62ac 	sw	v0,23584(v1)
1d013f2c:	80bf043c 	lui	a0,0xbf80
1d013f30:	001f033c 	lui	v1,0x1f00
1d013f34:	105c828c 	lw	v0,23568(a0)
1d013f38:	24104300 	and	v0,v0,v1
1d013f3c:	fdff4010 	beqz	v0,0x1d013f34
1d013f40:	80bf023c 	lui	v0,0xbf80
1d013f44:	205c428c 	lw	v0,23584(v0)
1d013f48:	e84f400b 	j	0x1d013fa0
1d013f4c:	00010224 	li	v0,256
1d013f50:	0b008210 	beq	a0,v0,0x1d013f80
1d013f54:	04000224 	li	v0,4
1d013f58:	10008210 	beq	a0,v0,0x1d013f9c
1d013f5c:	02000224 	li	v0,2
1d013f60:	05008214 	bne	a0,v0,0x1d013f78
1d013f64:	00020224 	li	v0,512
1d013f68:	88bf033c 	lui	v1,0xbf88
1d013f6c:	a86162ac 	sw	v0,25000(v1)
1d013f70:	88bf033c 	lui	v1,0xbf88
1d013f74:	846162ac 	sw	v0,24964(v1)
1d013f78:	0800e003 	jr	ra
1d013f7c:	00000000 	nop
1d013f80:	00020224 	li	v0,512
1d013f84:	88bf033c 	lui	v1,0xbf88
1d013f88:	e86062ac 	sw	v0,24808(v1)
1d013f8c:	88bf033c 	lui	v1,0xbf88
1d013f90:	c46062ac 	sw	v0,24772(v1)
1d013f94:	0800e003 	jr	ra
1d013f98:	00000000 	nop
1d013f9c:	00010224 	li	v0,256
1d013fa0:	88bf033c 	lui	v1,0xbf88
1d013fa4:	686062ac 	sw	v0,24680(v1)
1d013fa8:	88bf033c 	lui	v1,0xbf88
1d013fac:	446062ac 	sw	v0,24644(v1)
1d013fb0:	0800e003 	jr	ra
1d013fb4:	00000000 	nop
1d013fb8:	03000224 	li	v0,3
1d013fbc:	15008210 	beq	a0,v0,0x1d014014
1d013fc0:	f8ffbd27 	addiu	sp,sp,-8
1d013fc4:	04000224 	li	v0,4
1d013fc8:	1d008210 	beq	a0,v0,0x1d014040
1d013fcc:	02000224 	li	v0,2
1d013fd0:	26008214 	bne	a0,v0,0x1d01406c
1d013fd4:	05000224 	li	v0,5
1d013fd8:	00020224 	li	v0,512
1d013fdc:	88bf033c 	lui	v1,0xbf88
1d013fe0:	a46162ac 	sw	v0,24996(v1)
1d013fe4:	88bf033c 	lui	v1,0xbf88
1d013fe8:	846162ac 	sw	v0,24964(v1)
1d013fec:	05000224 	li	v0,5
1d013ff0:	0000a2a3 	sb	v0,0(sp)
1d013ff4:	0100a5a3 	sb	a1,1(sp)
1d013ff8:	0200a6a3 	sb	a2,2(sp)
1d013ffc:	0300a7a3 	sb	a3,3(sp)
1d014000:	80bf063c 	lui	a2,0xbf80
1d014004:	105ac624 	addiu	a2,a2,23056
1d014008:	80bf053c 	lui	a1,0xbf80
1d01400c:	3550400b 	j	0x1d0140d4
1d014010:	205aa524 	addiu	a1,a1,23072
1d014014:	00020224 	li	v0,512
1d014018:	88bf033c 	lui	v1,0xbf88
1d01401c:	e46062ac 	sw	v0,24804(v1)
1d014020:	88bf033c 	lui	v1,0xbf88
1d014024:	c46062ac 	sw	v0,24772(v1)
1d014028:	05000224 	li	v0,5
1d01402c:	0000a2a3 	sb	v0,0(sp)
1d014030:	0100a5a3 	sb	a1,1(sp)
1d014034:	0200a6a3 	sb	a2,2(sp)
1d014038:	2850400b 	j	0x1d0140a0
1d01403c:	0300a7a3 	sb	a3,3(sp)
1d014040:	00010224 	li	v0,256
1d014044:	88bf033c 	lui	v1,0xbf88
1d014048:	646062ac 	sw	v0,24676(v1)
1d01404c:	88bf033c 	lui	v1,0xbf88
1d014050:	446062ac 	sw	v0,24644(v1)
1d014054:	05000224 	li	v0,5
1d014058:	0000a2a3 	sb	v0,0(sp)
1d01405c:	0100a5a3 	sb	a1,1(sp)
1d014060:	0200a6a3 	sb	a2,2(sp)
1d014064:	2d50400b 	j	0x1d0140b4
1d014068:	0300a7a3 	sb	a3,3(sp)
1d01406c:	0000a2a3 	sb	v0,0(sp)
1d014070:	0100a5a3 	sb	a1,1(sp)
1d014074:	0200a6a3 	sb	a2,2(sp)
1d014078:	03000224 	li	v0,3
1d01407c:	08008210 	beq	a0,v0,0x1d0140a0
1d014080:	0300a7a3 	sb	a3,3(sp)
1d014084:	04000224 	li	v0,4
1d014088:	0a008210 	beq	a0,v0,0x1d0140b4
1d01408c:	02000224 	li	v0,2
1d014090:	23008214 	bne	a0,v0,0x1d014120
1d014094:	03000224 	li	v0,3
1d014098:	3250400b 	j	0x1d0140c8
1d01409c:	80bf063c 	lui	a2,0xbf80
1d0140a0:	80bf063c 	lui	a2,0xbf80
1d0140a4:	1058c624 	addiu	a2,a2,22544
1d0140a8:	80bf053c 	lui	a1,0xbf80
1d0140ac:	3550400b 	j	0x1d0140d4
1d0140b0:	2058a524 	addiu	a1,a1,22560
1d0140b4:	80bf063c 	lui	a2,0xbf80
1d0140b8:	105cc624 	addiu	a2,a2,23568
1d0140bc:	80bf053c 	lui	a1,0xbf80
1d0140c0:	3550400b 	j	0x1d0140d4
1d0140c4:	205ca524 	addiu	a1,a1,23584
1d0140c8:	105ac624 	addiu	a2,a2,23056
1d0140cc:	80bf053c 	lui	a1,0xbf80
1d0140d0:	205aa524 	addiu	a1,a1,23072
1d0140d4:	2110a003 	move	v0,sp
1d0140d8:	0400a727 	addiu	a3,sp,4
1d0140dc:	01004224 	addiu	v0,v0,1
1d0140e0:	ffff4390 	lbu	v1,-1(v0)
1d0140e4:	0000a3ac 	sw	v1,0(a1)
1d0140e8:	fdff4714 	bne	v0,a3,0x1d0140e0
1d0140ec:	01004224 	addiu	v0,v0,1
1d0140f0:	001f073c 	lui	a3,0x1f00
1d0140f4:	0004033c 	lui	v1,0x400
1d0140f8:	0000c28c 	lw	v0,0(a2)
1d0140fc:	24104700 	and	v0,v0,a3
1d014100:	2b104300 	sltu	v0,v0,v1
1d014104:	fcff4014 	bnez	v0,0x1d0140f8
1d014108:	00000000 	nop
1d01410c:	0000a28c 	lw	v0,0(a1)
1d014110:	0000a28c 	lw	v0,0(a1)
1d014114:	0000a28c 	lw	v0,0(a1)
1d014118:	0000a28c 	lw	v0,0(a1)
1d01411c:	03000224 	li	v0,3
1d014120:	0c008210 	beq	a0,v0,0x1d014154
1d014124:	04000224 	li	v0,4
1d014128:	11008210 	beq	a0,v0,0x1d014170
1d01412c:	02000224 	li	v0,2
1d014130:	15008254 	bnel	a0,v0,0x1d014188
1d014134:	0800bd27 	addiu	sp,sp,8
1d014138:	00020224 	li	v0,512
1d01413c:	88bf033c 	lui	v1,0xbf88
1d014140:	a86162ac 	sw	v0,25000(v1)
1d014144:	88bf033c 	lui	v1,0xbf88
1d014148:	846162ac 	sw	v0,24964(v1)
1d01414c:	6250400b 	j	0x1d014188
1d014150:	0800bd27 	addiu	sp,sp,8
1d014154:	00020224 	li	v0,512
1d014158:	88bf033c 	lui	v1,0xbf88
1d01415c:	e86062ac 	sw	v0,24808(v1)
1d014160:	88bf033c 	lui	v1,0xbf88
1d014164:	c46062ac 	sw	v0,24772(v1)
1d014168:	6250400b 	j	0x1d014188
1d01416c:	0800bd27 	addiu	sp,sp,8
1d014170:	00010224 	li	v0,256
1d014174:	88bf033c 	lui	v1,0xbf88
1d014178:	686062ac 	sw	v0,24680(v1)
1d01417c:	88bf033c 	lui	v1,0xbf88
1d014180:	446062ac 	sw	v0,24644(v1)
1d014184:	0800bd27 	addiu	sp,sp,8
1d014188:	0800e003 	jr	ra
1d01418c:	00000000 	nop
1d014190:	f8ffbd27 	addiu	sp,sp,-8
1d014194:	1c00a893 	lbu	t0,28(sp)
1d014198:	21500001 	move	t2,t0
1d01419c:	0900082d 	sltiu	t0,t0,9
1d0141a0:	02000015 	bnez	t0,0x1d0141ac
1d0141a4:	1800a38f 	lw	v1,24(sp)
1d0141a8:	08000a24 	li	t2,8
1d0141ac:	03000224 	li	v0,3
1d0141b0:	0d008210 	beq	a0,v0,0x1d0141e8
1d0141b4:	ff004a31 	andi	t2,t2,0xff
1d0141b8:	04000224 	li	v0,4
1d0141bc:	11008210 	beq	a0,v0,0x1d014204
1d0141c0:	02000224 	li	v0,2
1d0141c4:	15008254 	bnel	a0,v0,0x1d01421c
1d0141c8:	0300a530 	andi	a1,a1,0x3
1d0141cc:	00020224 	li	v0,512
1d0141d0:	88bf083c 	lui	t0,0xbf88
1d0141d4:	a46102ad 	sw	v0,24996(t0)
1d0141d8:	88bf083c 	lui	t0,0xbf88
1d0141dc:	846102ad 	sw	v0,24964(t0)
1d0141e0:	8750400b 	j	0x1d01421c
1d0141e4:	0300a530 	andi	a1,a1,0x3
1d0141e8:	00020224 	li	v0,512
1d0141ec:	88bf083c 	lui	t0,0xbf88
1d0141f0:	e46002ad 	sw	v0,24804(t0)
1d0141f4:	88bf083c 	lui	t0,0xbf88
1d0141f8:	c46002ad 	sw	v0,24772(t0)
1d0141fc:	8750400b 	j	0x1d01421c
1d014200:	0300a530 	andi	a1,a1,0x3
1d014204:	00010224 	li	v0,256
1d014208:	88bf083c 	lui	t0,0xbf88
1d01420c:	646002ad 	sw	v0,24676(t0)
1d014210:	88bf083c 	lui	t0,0xbf88
1d014214:	446002ad 	sw	v0,24644(t0)
1d014218:	0300a530 	andi	a1,a1,0x3
1d01421c:	40280500 	sll	a1,a1,0x1
1d014220:	4000a534 	ori	a1,a1,0x40
1d014224:	0d00e010 	beqz	a3,0x1d01425c
1d014228:	0000a5a3 	sb	a1,0(sp)
1d01422c:	42150600 	srl	v0,a2,0x15
1d014230:	0100a2a3 	sb	v0,1(sp)
1d014234:	422b0600 	srl	a1,a2,0xd
1d014238:	0420057c 	ins	a1,zero,0x0,0x5
1d01423c:	000cc27c 	ext	v0,a2,0x10,0x2
1d014240:	2510a200 	or	v0,a1,v0
1d014244:	08004234 	ori	v0,v0,0x8
1d014248:	0200a2a3 	sb	v0,2(sp)
1d01424c:	02120600 	srl	v0,a2,0x8
1d014250:	0300a2a3 	sb	v0,3(sp)
1d014254:	9d50400b 	j	0x1d014274
1d014258:	0400a6a3 	sb	a2,4(sp)
1d01425c:	c2100600 	srl	v0,a2,0x3
1d014260:	0100a2a3 	sb	v0,1(sp)
1d014264:	40310600 	sll	a2,a2,0x5
1d014268:	0200a6a3 	sb	a2,2(sp)
1d01426c:	0300a0a3 	sb	zero,3(sp)
1d014270:	0400a0a3 	sb	zero,4(sp)
1d014274:	03000224 	li	v0,3
1d014278:	10008210 	beq	a0,v0,0x1d0142bc
1d01427c:	0500aaa3 	sb	t2,5(sp)
1d014280:	04000224 	li	v0,4
1d014284:	08008210 	beq	a0,v0,0x1d0142a8
1d014288:	02000224 	li	v0,2
1d01428c:	24008214 	bne	a0,v0,0x1d014320
1d014290:	03000224 	li	v0,3
1d014294:	80bf073c 	lui	a3,0xbf80
1d014298:	105ae724 	addiu	a3,a3,23056
1d01429c:	80bf063c 	lui	a2,0xbf80
1d0142a0:	b350400b 	j	0x1d0142cc
1d0142a4:	205ac624 	addiu	a2,a2,23072
1d0142a8:	80bf073c 	lui	a3,0xbf80
1d0142ac:	105ce724 	addiu	a3,a3,23568
1d0142b0:	80bf063c 	lui	a2,0xbf80
1d0142b4:	b350400b 	j	0x1d0142cc
1d0142b8:	205cc624 	addiu	a2,a2,23584
1d0142bc:	80bf073c 	lui	a3,0xbf80
1d0142c0:	1058e724 	addiu	a3,a3,22544
1d0142c4:	80bf063c 	lui	a2,0xbf80
1d0142c8:	2058c624 	addiu	a2,a2,22560
1d0142cc:	2110a003 	move	v0,sp
1d0142d0:	0600a827 	addiu	t0,sp,6
1d0142d4:	01004224 	addiu	v0,v0,1
1d0142d8:	ffff4590 	lbu	a1,-1(v0)
1d0142dc:	0000c5ac 	sw	a1,0(a2)
1d0142e0:	fdff4854 	bnel	v0,t0,0x1d0142d8
1d0142e4:	01004224 	addiu	v0,v0,1
1d0142e8:	001f093c 	lui	t1,0x1f00
1d0142ec:	0006083c 	lui	t0,0x600
1d0142f0:	0000e58c 	lw	a1,0(a3)
1d0142f4:	2428a900 	and	a1,a1,t1
1d0142f8:	2b28a800 	sltu	a1,a1,t0
1d0142fc:	fcffa014 	bnez	a1,0x1d0142f0
1d014300:	00000000 	nop
1d014304:	0000c28c 	lw	v0,0(a2)
1d014308:	0000c28c 	lw	v0,0(a2)
1d01430c:	0000c28c 	lw	v0,0(a2)
1d014310:	0000c28c 	lw	v0,0(a2)
1d014314:	0000c28c 	lw	v0,0(a2)
1d014318:	0000c28c 	lw	v0,0(a2)
1d01431c:	03000224 	li	v0,3
1d014320:	10008210 	beq	a0,v0,0x1d014364
1d014324:	21484001 	move	t1,t2
1d014328:	04000224 	li	v0,4
1d01432c:	08008210 	beq	a0,v0,0x1d014350
1d014330:	02000224 	li	v0,2
1d014334:	31008214 	bne	a0,v0,0x1d0143fc
1d014338:	03000224 	li	v0,3
1d01433c:	80bf083c 	lui	t0,0xbf80
1d014340:	105a0825 	addiu	t0,t0,23056
1d014344:	80bf053c 	lui	a1,0xbf80
1d014348:	dd50400b 	j	0x1d014374
1d01434c:	205aa524 	addiu	a1,a1,23072
1d014350:	80bf083c 	lui	t0,0xbf80
1d014354:	105c0825 	addiu	t0,t0,23568
1d014358:	80bf053c 	lui	a1,0xbf80
1d01435c:	dd50400b 	j	0x1d014374
1d014360:	205ca524 	addiu	a1,a1,23584
1d014364:	80bf083c 	lui	t0,0xbf80
1d014368:	10580825 	addiu	t0,t0,22544
1d01436c:	80bf053c 	lui	a1,0xbf80
1d014370:	2058a524 	addiu	a1,a1,22560
1d014374:	05006014 	bnez	v1,0x1d01438c
1d014378:	ffff4225 	addiu	v0,t2,-1
1d01437c:	0c002015 	bnez	t1,0x1d0143b0
1d014380:	ffff0324 	li	v1,-1
1d014384:	f150400b 	j	0x1d0143c4
1d014388:	003e0a00 	sll	a3,t2,0x18
1d01438c:	0c002011 	beqz	t1,0x1d0143c0
1d014390:	21386a00 	addu	a3,v1,t2
1d014394:	01006324 	addiu	v1,v1,1
1d014398:	ffff6690 	lbu	a2,-1(v1)
1d01439c:	0000a6ac 	sw	a2,0(a1)
1d0143a0:	fdff6714 	bne	v1,a3,0x1d014398
1d0143a4:	01006324 	addiu	v1,v1,1
1d0143a8:	f150400b 	j	0x1d0143c4
1d0143ac:	003e0a00 	sll	a3,t2,0x18
1d0143b0:	0000a0ac 	sw	zero,0(a1)
1d0143b4:	ffff4224 	addiu	v0,v0,-1
1d0143b8:	fdff4314 	bne	v0,v1,0x1d0143b0
1d0143bc:	00000000 	nop
1d0143c0:	003e0a00 	sll	a3,t2,0x18
1d0143c4:	001f063c 	lui	a2,0x1f00
1d0143c8:	0000038d 	lw	v1,0(t0)
1d0143cc:	24186600 	and	v1,v1,a2
1d0143d0:	2b186700 	sltu	v1,v1,a3
1d0143d4:	fcff6014 	bnez	v1,0x1d0143c8
1d0143d8:	00000000 	nop
1d0143dc:	06002011 	beqz	t1,0x1d0143f8
1d0143e0:	ffff4225 	addiu	v0,t2,-1
1d0143e4:	ffff0324 	li	v1,-1
1d0143e8:	0000a68c 	lw	a2,0(a1)
1d0143ec:	ffff4224 	addiu	v0,v0,-1
1d0143f0:	fdff4314 	bne	v0,v1,0x1d0143e8
1d0143f4:	00000000 	nop
1d0143f8:	03000224 	li	v0,3
1d0143fc:	0c008210 	beq	a0,v0,0x1d014430
1d014400:	04000224 	li	v0,4
1d014404:	11008210 	beq	a0,v0,0x1d01444c
1d014408:	02000224 	li	v0,2
1d01440c:	15008254 	bnel	a0,v0,0x1d014464
1d014410:	0800bd27 	addiu	sp,sp,8
1d014414:	00020224 	li	v0,512
1d014418:	88bf033c 	lui	v1,0xbf88
1d01441c:	a86162ac 	sw	v0,25000(v1)
1d014420:	88bf033c 	lui	v1,0xbf88
1d014424:	846162ac 	sw	v0,24964(v1)
1d014428:	1951400b 	j	0x1d014464
1d01442c:	0800bd27 	addiu	sp,sp,8
1d014430:	00020224 	li	v0,512
1d014434:	88bf033c 	lui	v1,0xbf88
1d014438:	e86062ac 	sw	v0,24808(v1)
1d01443c:	88bf033c 	lui	v1,0xbf88
1d014440:	c46062ac 	sw	v0,24772(v1)
1d014444:	1951400b 	j	0x1d014464
1d014448:	0800bd27 	addiu	sp,sp,8
1d01444c:	00010224 	li	v0,256
1d014450:	88bf033c 	lui	v1,0xbf88
1d014454:	686062ac 	sw	v0,24680(v1)
1d014458:	88bf033c 	lui	v1,0xbf88
1d01445c:	446062ac 	sw	v0,24644(v1)
1d014460:	0800bd27 	addiu	sp,sp,8
1d014464:	0800e003 	jr	ra
1d014468:	00000000 	nop
1d01446c:	f8ffbd27 	addiu	sp,sp,-8
1d014470:	1800a38f 	lw	v1,24(sp)
1d014474:	03000224 	li	v0,3
1d014478:	10008210 	beq	a0,v0,0x1d0144bc
1d01447c:	1c00ab8f 	lw	t3,28(sp)
1d014480:	04000224 	li	v0,4
1d014484:	16008210 	beq	a0,v0,0x1d0144e0
1d014488:	00010224 	li	v0,256
1d01448c:	02000224 	li	v0,2
1d014490:	1b008254 	bnel	a0,v0,0x1d014500
1d014494:	0100a230 	andi	v0,a1,0x1
1d014498:	00020224 	li	v0,512
1d01449c:	88bf083c 	lui	t0,0xbf88
1d0144a0:	a46102ad 	sw	v0,24996(t0)
1d0144a4:	88bf083c 	lui	t0,0xbf88
1d0144a8:	846102ad 	sw	v0,24964(t0)
1d0144ac:	0100a230 	andi	v0,a1,0x1
1d0144b0:	80100200 	sll	v0,v0,0x2
1d0144b4:	4951400b 	j	0x1d014524
1d0144b8:	90004234 	ori	v0,v0,0x90
1d0144bc:	00020224 	li	v0,512
1d0144c0:	88bf083c 	lui	t0,0xbf88
1d0144c4:	e46002ad 	sw	v0,24804(t0)
1d0144c8:	88bf083c 	lui	t0,0xbf88
1d0144cc:	c46002ad 	sw	v0,24772(t0)
1d0144d0:	0100a230 	andi	v0,a1,0x1
1d0144d4:	80100200 	sll	v0,v0,0x2
1d0144d8:	5751400b 	j	0x1d01455c
1d0144dc:	90004234 	ori	v0,v0,0x90
1d0144e0:	88bf083c 	lui	t0,0xbf88
1d0144e4:	646002ad 	sw	v0,24676(t0)
1d0144e8:	88bf083c 	lui	t0,0xbf88
1d0144ec:	446002ad 	sw	v0,24644(t0)
1d0144f0:	0100a230 	andi	v0,a1,0x1
1d0144f4:	80100200 	sll	v0,v0,0x2
1d0144f8:	6251400b 	j	0x1d014588
1d0144fc:	90004234 	ori	v0,v0,0x90
1d014500:	80100200 	sll	v0,v0,0x2
1d014504:	03000524 	li	a1,3
1d014508:	14008510 	beq	a0,a1,0x1d01455c
1d01450c:	90004234 	ori	v0,v0,0x90
1d014510:	04000524 	li	a1,4
1d014514:	1c008510 	beq	a0,a1,0x1d014588
1d014518:	02000524 	li	a1,2
1d01451c:	25008554 	bnel	a0,a1,0x1d0145b4
1d014520:	03000224 	li	v0,3
1d014524:	80bf053c 	lui	a1,0xbf80
1d014528:	205aa2ac 	sw	v0,23072(a1)
1d01452c:	80bf083c 	lui	t0,0xbf80
1d014530:	001f053c 	lui	a1,0x1f00
1d014534:	105a028d 	lw	v0,23056(t0)
1d014538:	24104500 	and	v0,v0,a1
1d01453c:	fdff4010 	beqz	v0,0x1d014534
1d014540:	00000000 	nop
1d014544:	80bf083c 	lui	t0,0xbf80
1d014548:	205a028d 	lw	v0,23072(t0)
1d01454c:	80bf053c 	lui	a1,0xbf80
1d014550:	105aa524 	addiu	a1,a1,23056
1d014554:	8151400b 	j	0x1d014604
1d014558:	205a0825 	addiu	t0,t0,23072
1d01455c:	80bf053c 	lui	a1,0xbf80
1d014560:	2058a2ac 	sw	v0,22560(a1)
1d014564:	80bf083c 	lui	t0,0xbf80
1d014568:	001f053c 	lui	a1,0x1f00
1d01456c:	1058028d 	lw	v0,22544(t0)
1d014570:	24104500 	and	v0,v0,a1
1d014574:	fdff4010 	beqz	v0,0x1d01456c
1d014578:	80bf023c 	lui	v0,0xbf80
1d01457c:	2058428c 	lw	v0,22560(v0)
1d014580:	7651400b 	j	0x1d0145d8
1d014584:	80bf053c 	lui	a1,0xbf80
1d014588:	80bf053c 	lui	a1,0xbf80
1d01458c:	205ca2ac 	sw	v0,23584(a1)
1d014590:	80bf083c 	lui	t0,0xbf80
1d014594:	001f053c 	lui	a1,0x1f00
1d014598:	105c028d 	lw	v0,23568(t0)
1d01459c:	24104500 	and	v0,v0,a1
1d0145a0:	fdff4010 	beqz	v0,0x1d014598
1d0145a4:	80bf023c 	lui	v0,0xbf80
1d0145a8:	205c428c 	lw	v0,23584(v0)
1d0145ac:	7b51400b 	j	0x1d0145ec
1d0145b0:	80bf053c 	lui	a1,0xbf80
1d0145b4:	07008210 	beq	a0,v0,0x1d0145d4
1d0145b8:	04000224 	li	v0,4
1d0145bc:	0a008210 	beq	a0,v0,0x1d0145e8
1d0145c0:	02000224 	li	v0,2
1d0145c4:	20008214 	bne	a0,v0,0x1d014648
1d0145c8:	80bf053c 	lui	a1,0xbf80
1d0145cc:	7f51400b 	j	0x1d0145fc
1d0145d0:	105aa524 	addiu	a1,a1,23056
1d0145d4:	80bf053c 	lui	a1,0xbf80
1d0145d8:	1058a524 	addiu	a1,a1,22544
1d0145dc:	80bf083c 	lui	t0,0xbf80
1d0145e0:	8151400b 	j	0x1d014604
1d0145e4:	20580825 	addiu	t0,t0,22560
1d0145e8:	80bf053c 	lui	a1,0xbf80
1d0145ec:	105ca524 	addiu	a1,a1,23568
1d0145f0:	80bf083c 	lui	t0,0xbf80
1d0145f4:	8151400b 	j	0x1d014604
1d0145f8:	205c0825 	addiu	t0,t0,23584
1d0145fc:	80bf083c 	lui	t0,0xbf80
1d014600:	205a0825 	addiu	t0,t0,23072
1d014604:	000000ad 	sw	zero,0(t0)
1d014608:	000000ad 	sw	zero,0(t0)
1d01460c:	000000ad 	sw	zero,0(t0)
1d014610:	000000ad 	sw	zero,0(t0)
1d014614:	000000ad 	sw	zero,0(t0)
1d014618:	001f0a3c 	lui	t2,0x1f00
1d01461c:	0005093c 	lui	t1,0x500
1d014620:	0000a28c 	lw	v0,0(a1)
1d014624:	24104a00 	and	v0,v0,t2
1d014628:	2b104900 	sltu	v0,v0,t1
1d01462c:	fcff4014 	bnez	v0,0x1d014620
1d014630:	2110a003 	move	v0,sp
1d014634:	0500a927 	addiu	t1,sp,5
1d014638:	01004224 	addiu	v0,v0,1
1d01463c:	0000058d 	lw	a1,0(t0)
1d014640:	fdff4914 	bne	v0,t1,0x1d014638
1d014644:	ffff45a0 	sb	a1,-1(v0)
1d014648:	1e00c050 	beqzl	a2,0x1d0146c4
1d01464c:	0400a693 	lbu	a2,4(sp)
1d014650:	0100a293 	lbu	v0,1(sp)
1d014654:	08004530 	andi	a1,v0,0x8
1d014658:	ff00a530 	andi	a1,a1,0xff
1d01465c:	1100a010 	beqz	a1,0x1d0146a4
1d014660:	0200a893 	lbu	t0,2(sp)
1d014664:	00420800 	sll	t0,t0,0x8
1d014668:	0000a593 	lbu	a1,0(sp)
1d01466c:	402d0500 	sll	a1,a1,0x15
1d014670:	25400501 	or	t0,t0,a1
1d014674:	0300a593 	lbu	a1,3(sp)
1d014678:	25400501 	or	t0,t0,a1
1d01467c:	03004530 	andi	a1,v0,0x3
1d014680:	002c0500 	sll	a1,a1,0x10
1d014684:	25280501 	or	a1,t0,a1
1d014688:	e0004230 	andi	v0,v0,0xe0
1d01468c:	40130200 	sll	v0,v0,0xd
1d014690:	0a00e010 	beqz	a3,0x1d0146bc
1d014694:	2510a200 	or	v0,a1,v0
1d014698:	01000524 	li	a1,1
1d01469c:	af51400b 	j	0x1d0146bc
1d0146a0:	0000e5a0 	sb	a1,0(a3)
1d0146a4:	0100e054 	bnezl	a3,0x1d0146ac
1d0146a8:	0000e0a0 	sb	zero,0(a3)
1d0146ac:	42110200 	srl	v0,v0,0x5
1d0146b0:	0000a593 	lbu	a1,0(sp)
1d0146b4:	c0280500 	sll	a1,a1,0x3
1d0146b8:	25104500 	or	v0,v0,a1
1d0146bc:	0000c2ac 	sw	v0,0(a2)
1d0146c0:	0400a693 	lbu	a2,4(sp)
1d0146c4:	0f00c630 	andi	a2,a2,0xf
1d0146c8:	0900c528 	slti	a1,a2,9
1d0146cc:	08000224 	li	v0,8
1d0146d0:	0a304500 	movz	a2,v0,a1
1d0146d4:	02006011 	beqz	t3,0x1d0146e0
1d0146d8:	ff00c230 	andi	v0,a2,0xff
1d0146dc:	000062a1 	sb	v0,0(t3)
1d0146e0:	03000224 	li	v0,3
1d0146e4:	10008210 	beq	a0,v0,0x1d014728
1d0146e8:	ff00ca30 	andi	t2,a2,0xff
1d0146ec:	04000224 	li	v0,4
1d0146f0:	08008210 	beq	a0,v0,0x1d014714
1d0146f4:	02000224 	li	v0,2
1d0146f8:	31008214 	bne	a0,v0,0x1d0147c0
1d0146fc:	03000224 	li	v0,3
1d014700:	80bf083c 	lui	t0,0xbf80
1d014704:	105a0825 	addiu	t0,t0,23056
1d014708:	80bf053c 	lui	a1,0xbf80
1d01470c:	ce51400b 	j	0x1d014738
1d014710:	205aa524 	addiu	a1,a1,23072
1d014714:	80bf083c 	lui	t0,0xbf80
1d014718:	105c0825 	addiu	t0,t0,23568
1d01471c:	80bf053c 	lui	a1,0xbf80
1d014720:	ce51400b 	j	0x1d014738
1d014724:	205ca524 	addiu	a1,a1,23584
1d014728:	80bf083c 	lui	t0,0xbf80
1d01472c:	10580825 	addiu	t0,t0,22544
1d014730:	80bf053c 	lui	a1,0xbf80
1d014734:	2058a524 	addiu	a1,a1,22560
1d014738:	07004011 	beqz	t2,0x1d014758
1d01473c:	ffff4925 	addiu	t1,t2,-1
1d014740:	21102001 	move	v0,t1
1d014744:	ffff0624 	li	a2,-1
1d014748:	0000a0ac 	sw	zero,0(a1)
1d01474c:	ffff4224 	addiu	v0,v0,-1
1d014750:	fdff4614 	bne	v0,a2,0x1d014748
1d014754:	00000000 	nop
1d014758:	003e0a00 	sll	a3,t2,0x18
1d01475c:	001f063c 	lui	a2,0x1f00
1d014760:	0000028d 	lw	v0,0(t0)
1d014764:	24104600 	and	v0,v0,a2
1d014768:	2b104700 	sltu	v0,v0,a3
1d01476c:	fcff4014 	bnez	v0,0x1d014760
1d014770:	00000000 	nop
1d014774:	05006014 	bnez	v1,0x1d01478c
1d014778:	00000000 	nop
1d01477c:	0b004015 	bnez	t2,0x1d0147ac
1d014780:	ffff0224 	li	v0,-1
1d014784:	f051400b 	j	0x1d0147c0
1d014788:	03000224 	li	v0,3
1d01478c:	0b004011 	beqz	t2,0x1d0147bc
1d014790:	21306a00 	addu	a2,v1,t2
1d014794:	01006324 	addiu	v1,v1,1
1d014798:	0000a28c 	lw	v0,0(a1)
1d01479c:	fdff6614 	bne	v1,a2,0x1d014794
1d0147a0:	ffff62a0 	sb	v0,-1(v1)
1d0147a4:	f051400b 	j	0x1d0147c0
1d0147a8:	03000224 	li	v0,3
1d0147ac:	0000a38c 	lw	v1,0(a1)
1d0147b0:	ffff2925 	addiu	t1,t1,-1
1d0147b4:	fdff2215 	bne	t1,v0,0x1d0147ac
1d0147b8:	00000000 	nop
1d0147bc:	03000224 	li	v0,3
1d0147c0:	0c008210 	beq	a0,v0,0x1d0147f4
1d0147c4:	04000224 	li	v0,4
1d0147c8:	11008210 	beq	a0,v0,0x1d014810
1d0147cc:	02000224 	li	v0,2
1d0147d0:	15008254 	bnel	a0,v0,0x1d014828
1d0147d4:	0800bd27 	addiu	sp,sp,8
1d0147d8:	00020224 	li	v0,512
1d0147dc:	88bf033c 	lui	v1,0xbf88
1d0147e0:	a86162ac 	sw	v0,25000(v1)
1d0147e4:	88bf033c 	lui	v1,0xbf88
1d0147e8:	846162ac 	sw	v0,24964(v1)
1d0147ec:	0a52400b 	j	0x1d014828
1d0147f0:	0800bd27 	addiu	sp,sp,8
1d0147f4:	00020224 	li	v0,512
1d0147f8:	88bf033c 	lui	v1,0xbf88
1d0147fc:	e86062ac 	sw	v0,24808(v1)
1d014800:	88bf033c 	lui	v1,0xbf88
1d014804:	c46062ac 	sw	v0,24772(v1)
1d014808:	0a52400b 	j	0x1d014828
1d01480c:	0800bd27 	addiu	sp,sp,8
1d014810:	00010224 	li	v0,256
1d014814:	88bf033c 	lui	v1,0xbf88
1d014818:	686062ac 	sw	v0,24680(v1)
1d01481c:	88bf033c 	lui	v1,0xbf88
1d014820:	446062ac 	sw	v0,24644(v1)
1d014824:	0800bd27 	addiu	sp,sp,8
1d014828:	0800e003 	jr	ra
1d01482c:	00000000 	nop
1d014830:	e0ffbd27 	addiu	sp,sp,-32
1d014834:	1c00bfaf 	sw	ra,28(sp)
1d014838:	1000a0a3 	sb	zero,16(sp)
1d01483c:	0e000524 	li	a1,14
1d014840:	1000a627 	addiu	a2,sp,16
1d014844:	bc4c400f 	jal	0x1d0132f0
1d014848:	01000724 	li	a3,1
1d01484c:	1000a293 	lbu	v0,16(sp)
1d014850:	42110200 	srl	v0,v0,0x5
1d014854:	1c00bf8f 	lw	ra,28(sp)
1d014858:	0800e003 	jr	ra
1d01485c:	2000bd27 	addiu	sp,sp,32
1d014860:	e0ffbd27 	addiu	sp,sp,-32
1d014864:	1c00bfaf 	sw	ra,28(sp)
1d014868:	1800b1af 	sw	s1,24(sp)
1d01486c:	1400b0af 	sw	s0,20(sp)
1d014870:	21888000 	move	s1,a0
1d014874:	2180a000 	move	s0,a1
1d014878:	40390500 	sll	a3,a1,0x5
1d01487c:	0f000524 	li	a1,15
1d014880:	e0000624 	li	a2,224
1d014884:	ee4f400f 	jal	0x1d013fb8
1d014888:	e000e730 	andi	a3,a3,0xe0
1d01488c:	fa4d400f 	jal	0x1d0137e8
1d014890:	21202002 	move	a0,s1
1d014894:	0c52400f 	jal	0x1d014830
1d014898:	21202002 	move	a0,s1
1d01489c:	26105000 	xor	v0,v0,s0
1d0148a0:	0100422c 	sltiu	v0,v0,1
1d0148a4:	1c00bf8f 	lw	ra,28(sp)
1d0148a8:	1800b18f 	lw	s1,24(sp)
1d0148ac:	1400b08f 	lw	s0,20(sp)
1d0148b0:	0800e003 	jr	ra
1d0148b4:	2000bd27 	addiu	sp,sp,32
1d0148b8:	e0ffbd27 	addiu	sp,sp,-32
1d0148bc:	2110a000 	move	v0,a1
1d0148c0:	0600a52c 	sltiu	a1,a1,6
1d0148c4:	0200a014 	bnez	a1,0x1d0148d0
1d0148c8:	1c00bfaf 	sw	ra,28(sp)
1d0148cc:	05000224 	li	v0,5
1d0148d0:	0d00e010 	beqz	a3,0x1d014908
1d0148d4:	ff004230 	andi	v0,v0,0xff
1d0148d8:	421d0600 	srl	v1,a2,0x15
1d0148dc:	1000a3a3 	sb	v1,16(sp)
1d0148e0:	421b0600 	srl	v1,a2,0xd
1d0148e4:	0420037c 	ins	v1,zero,0x0,0x5
1d0148e8:	000cc57c 	ext	a1,a2,0x10,0x2
1d0148ec:	25186500 	or	v1,v1,a1
1d0148f0:	08006334 	ori	v1,v1,0x8
1d0148f4:	1100a3a3 	sb	v1,17(sp)
1d0148f8:	021a0600 	srl	v1,a2,0x8
1d0148fc:	1200a3a3 	sb	v1,18(sp)
1d014900:	4852400b 	j	0x1d014920
1d014904:	1300a6a3 	sb	a2,19(sp)
1d014908:	c2180600 	srl	v1,a2,0x3
1d01490c:	1000a3a3 	sb	v1,16(sp)
1d014910:	40310600 	sll	a2,a2,0x5
1d014914:	1100a6a3 	sb	a2,17(sp)
1d014918:	1200a0a3 	sb	zero,18(sp)
1d01491c:	1300a0a3 	sb	zero,19(sp)
1d014920:	029d033c 	lui	v1,0x9d02
1d014924:	b42c6324 	addiu	v1,v1,11444
1d014928:	21104300 	addu	v0,v0,v1
1d01492c:	00004590 	lbu	a1,0(v0)
1d014930:	1000a627 	addiu	a2,sp,16
1d014934:	5b4d400f 	jal	0x1d01356c
1d014938:	04000724 	li	a3,4
1d01493c:	1c00bf8f 	lw	ra,28(sp)
1d014940:	0800e003 	jr	ra
1d014944:	2000bd27 	addiu	sp,sp,32
1d014948:	e0ffbd27 	addiu	sp,sp,-32
1d01494c:	1c00bfaf 	sw	ra,28(sp)
1d014950:	c2100600 	srl	v0,a2,0x3
1d014954:	1000a2a3 	sb	v0,16(sp)
1d014958:	40310600 	sll	a2,a2,0x5
1d01495c:	1100a6a3 	sb	a2,17(sp)
1d014960:	1200a0a3 	sb	zero,18(sp)
1d014964:	2110a000 	move	v0,a1
1d014968:	202c057c 	seb	a1,a1
1d01496c:	0200a010 	beqz	a1,0x1d014978
1d014970:	1300a0a3 	sb	zero,19(sp)
1d014974:	01000224 	li	v0,1
1d014978:	ff004230 	andi	v0,v0,0xff
1d01497c:	029d033c 	lui	v1,0x9d02
1d014980:	b02c6324 	addiu	v1,v1,11440
1d014984:	21104300 	addu	v0,v0,v1
1d014988:	00004590 	lbu	a1,0(v0)
1d01498c:	1000a627 	addiu	a2,sp,16
1d014990:	5b4d400f 	jal	0x1d01356c
1d014994:	04000724 	li	a3,4
1d014998:	1c00bf8f 	lw	ra,28(sp)
1d01499c:	0800e003 	jr	ra
1d0149a0:	2000bd27 	addiu	sp,sp,32
1d0149a4:	d8ffbd27 	addiu	sp,sp,-40
1d0149a8:	2400bfaf 	sw	ra,36(sp)
1d0149ac:	2000b2af 	sw	s2,32(sp)
1d0149b0:	1c00b1af 	sw	s1,28(sp)
1d0149b4:	1800b0af 	sw	s0,24(sp)
1d0149b8:	21888000 	move	s1,a0
1d0149bc:	2190a000 	move	s2,a1
1d0149c0:	0100053c 	lui	a1,0x1
1d0149c4:	6002a524 	addiu	a1,a1,608
1d0149c8:	fd85400f 	jal	0x1d0217f4
1d0149cc:	04000624 	li	a2,4
1d0149d0:	874e400f 	jal	0x1d013a1c
1d0149d4:	21202002 	move	a0,s1
1d0149d8:	e0808227 	addiu	v0,gp,-32544
1d0149dc:	21105100 	addu	v0,v0,s1
1d0149e0:	000040a0 	sb	zero,0(v0)
1d0149e4:	0b001024 	li	s0,11
1d0149e8:	21202002 	move	a0,s1
1d0149ec:	1852400f 	jal	0x1d014860
1d0149f0:	04000524 	li	a1,4
1d0149f4:	05004014 	bnez	v0,0x1d014a0c
1d0149f8:	ffff1026 	addiu	s0,s0,-1
1d0149fc:	fbff0016 	bnez	s0,0x1d0149ec
1d014a00:	21202002 	move	a0,s1
1d014a04:	fb52400b 	j	0x1d014bec
1d014a08:	2400bf8f 	lw	ra,36(sp)
1d014a0c:	77004012 	beqz	s2,0x1d014bec
1d014a10:	2400bf8f 	lw	ra,36(sp)
1d014a14:	21202002 	move	a0,s1
1d014a18:	29000524 	li	a1,41
1d014a1c:	40000624 	li	a2,64
1d014a20:	ee4f400f 	jal	0x1d013fb8
1d014a24:	40000724 	li	a3,64
1d014a28:	21202002 	move	a0,s1
1d014a2c:	29000524 	li	a1,41
1d014a30:	80000624 	li	a2,128
1d014a34:	ee4f400f 	jal	0x1d013fb8
1d014a38:	80000724 	li	a3,128
1d014a3c:	00911200 	sll	s2,s2,0x4
1d014a40:	7a00023c 	lui	v0,0x7a
1d014a44:	00124224 	addiu	v0,v0,4608
1d014a48:	1b005200 	divu	zero,v0,s2
1d014a4c:	f4014002 	teq	s2,zero,0x7
1d014a50:	12380000 	mflo	a3
1d014a54:	ffffe724 	addiu	a3,a3,-1
1d014a58:	21202002 	move	a0,s1
1d014a5c:	2a000524 	li	a1,42
1d014a60:	3f000624 	li	a2,63
1d014a64:	ee4f400f 	jal	0x1d013fb8
1d014a68:	ff00e730 	andi	a3,a3,0xff
1d014a6c:	21202002 	move	a0,s1
1d014a70:	2a000524 	li	a1,42
1d014a74:	c0000624 	li	a2,192
1d014a78:	ee4f400f 	jal	0x1d013fb8
1d014a7c:	40000724 	li	a3,64
1d014a80:	21202002 	move	a0,s1
1d014a84:	29000524 	li	a1,41
1d014a88:	07000624 	li	a2,7
1d014a8c:	ee4f400f 	jal	0x1d013fb8
1d014a90:	02000724 	li	a3,2
1d014a94:	21202002 	move	a0,s1
1d014a98:	29000524 	li	a1,41
1d014a9c:	38000624 	li	a2,56
1d014aa0:	ee4f400f 	jal	0x1d013fb8
1d014aa4:	08000724 	li	a3,8
1d014aa8:	21202002 	move	a0,s1
1d014aac:	28000524 	li	a1,40
1d014ab0:	07000624 	li	a2,7
1d014ab4:	ee4f400f 	jal	0x1d013fb8
1d014ab8:	01000724 	li	a3,1
1d014abc:	04000224 	li	v0,4
1d014ac0:	1000a2a3 	sb	v0,16(sp)
1d014ac4:	21202002 	move	a0,s1
1d014ac8:	60000524 	li	a1,96
1d014acc:	1000a627 	addiu	a2,sp,16
1d014ad0:	5b4d400f 	jal	0x1d01356c
1d014ad4:	01000724 	li	a3,1
1d014ad8:	1000a0a3 	sb	zero,16(sp)
1d014adc:	21202002 	move	a0,s1
1d014ae0:	70000524 	li	a1,112
1d014ae4:	1000a627 	addiu	a2,sp,16
1d014ae8:	5b4d400f 	jal	0x1d01356c
1d014aec:	01000724 	li	a3,1
1d014af0:	21202002 	move	a0,s1
1d014af4:	2b000524 	li	a1,43
1d014af8:	03000624 	li	a2,3
1d014afc:	ee4f400f 	jal	0x1d013fb8
1d014b00:	03000724 	li	a3,3
1d014b04:	21202002 	move	a0,s1
1d014b08:	0c000524 	li	a1,12
1d014b0c:	3f000624 	li	a2,63
1d014b10:	ee4f400f 	jal	0x1d013fb8
1d014b14:	0f000724 	li	a3,15
1d014b18:	21202002 	move	a0,s1
1d014b1c:	21280000 	move	a1,zero
1d014b20:	5252400f 	jal	0x1d014948
1d014b24:	21300000 	move	a2,zero
1d014b28:	21202002 	move	a0,s1
1d014b2c:	21280000 	move	a1,zero
1d014b30:	21300000 	move	a2,zero
1d014b34:	2e52400f 	jal	0x1d0148b8
1d014b38:	21380000 	move	a3,zero
1d014b3c:	21202002 	move	a0,s1
1d014b40:	01000524 	li	a1,1
1d014b44:	21300000 	move	a2,zero
1d014b48:	2e52400f 	jal	0x1d0148b8
1d014b4c:	01000724 	li	a3,1
1d014b50:	21202002 	move	a0,s1
1d014b54:	01000524 	li	a1,1
1d014b58:	5252400f 	jal	0x1d014948
1d014b5c:	21300000 	move	a2,zero
1d014b60:	21202002 	move	a0,s1
1d014b64:	02000524 	li	a1,2
1d014b68:	21300000 	move	a2,zero
1d014b6c:	2e52400f 	jal	0x1d0148b8
1d014b70:	21380000 	move	a3,zero
1d014b74:	21202002 	move	a0,s1
1d014b78:	03000524 	li	a1,3
1d014b7c:	21300000 	move	a2,zero
1d014b80:	2e52400f 	jal	0x1d0148b8
1d014b84:	21380000 	move	a3,zero
1d014b88:	21202002 	move	a0,s1
1d014b8c:	04000524 	li	a1,4
1d014b90:	21300000 	move	a2,zero
1d014b94:	2e52400f 	jal	0x1d0148b8
1d014b98:	01000724 	li	a3,1
1d014b9c:	21202002 	move	a0,s1
1d014ba0:	05000524 	li	a1,5
1d014ba4:	21300000 	move	a2,zero
1d014ba8:	2e52400f 	jal	0x1d0148b8
1d014bac:	01000724 	li	a3,1
1d014bb0:	0b001024 	li	s0,11
1d014bb4:	21202002 	move	a0,s1
1d014bb8:	1852400f 	jal	0x1d014860
1d014bbc:	21280000 	move	a1,zero
1d014bc0:	05004014 	bnez	v0,0x1d014bd8
1d014bc4:	ffff1026 	addiu	s0,s0,-1
1d014bc8:	fbff0016 	bnez	s0,0x1d014bb8
1d014bcc:	21202002 	move	a0,s1
1d014bd0:	fb52400b 	j	0x1d014bec
1d014bd4:	2400bf8f 	lw	ra,36(sp)
1d014bd8:	e0808327 	addiu	v1,gp,-32544
1d014bdc:	21887100 	addu	s1,v1,s1
1d014be0:	01000324 	li	v1,1
1d014be4:	000023a2 	sb	v1,0(s1)
1d014be8:	2400bf8f 	lw	ra,36(sp)
1d014bec:	2000b28f 	lw	s2,32(sp)
1d014bf0:	1c00b18f 	lw	s1,28(sp)
1d014bf4:	1800b08f 	lw	s0,24(sp)
1d014bf8:	0800e003 	jr	ra
1d014bfc:	2800bd27 	addiu	sp,sp,40
1d014c00:	e0ffbd27 	addiu	sp,sp,-32
1d014c04:	1c00bfaf 	sw	ra,28(sp)
1d014c08:	1c000524 	li	a1,28
1d014c0c:	1000a627 	addiu	a2,sp,16
1d014c10:	bc4c400f 	jal	0x1d0132f0
1d014c14:	01000724 	li	a3,1
1d014c18:	1000a293 	lbu	v0,16(sp)
1d014c1c:	1c00bf8f 	lw	ra,28(sp)
1d014c20:	0800e003 	jr	ra
1d014c24:	2000bd27 	addiu	sp,sp,32
1d014c28:	e0ffbd27 	addiu	sp,sp,-32
1d014c2c:	1c00bfaf 	sw	ra,28(sp)
1d014c30:	1d000524 	li	a1,29
1d014c34:	1000a627 	addiu	a2,sp,16
1d014c38:	bc4c400f 	jal	0x1d0132f0
1d014c3c:	01000724 	li	a3,1
1d014c40:	1000a293 	lbu	v0,16(sp)
1d014c44:	1c00bf8f 	lw	ra,28(sp)
1d014c48:	0800e003 	jr	ra
1d014c4c:	2000bd27 	addiu	sp,sp,32
1d014c50:	d8ffbd27 	addiu	sp,sp,-40
1d014c54:	2400bfaf 	sw	ra,36(sp)
1d014c58:	2000b1af 	sw	s1,32(sp)
1d014c5c:	1c00b0af 	sw	s0,28(sp)
1d014c60:	2180a000 	move	s0,a1
1d014c64:	2188c000 	move	s1,a2
1d014c68:	1000a0a3 	sb	zero,16(sp)
1d014c6c:	1100a0a3 	sb	zero,17(sp)
1d014c70:	1c000524 	li	a1,28
1d014c74:	1000a627 	addiu	a2,sp,16
1d014c78:	bc4c400f 	jal	0x1d0132f0
1d014c7c:	02000724 	li	a3,2
1d014c80:	1000a293 	lbu	v0,16(sp)
1d014c84:	000022a2 	sb	v0,0(s1)
1d014c88:	1100a293 	lbu	v0,17(sp)
1d014c8c:	000002a2 	sb	v0,0(s0)
1d014c90:	2400bf8f 	lw	ra,36(sp)
1d014c94:	2000b18f 	lw	s1,32(sp)
1d014c98:	1c00b08f 	lw	s0,28(sp)
1d014c9c:	0800e003 	jr	ra
1d014ca0:	2800bd27 	addiu	sp,sp,40
1d014ca4:	d0ffbd27 	addiu	sp,sp,-48
1d014ca8:	2c00bfaf 	sw	ra,44(sp)
1d014cac:	2800b3af 	sw	s3,40(sp)
1d014cb0:	2400b2af 	sw	s2,36(sp)
1d014cb4:	2000b1af 	sw	s1,32(sp)
1d014cb8:	1c00b0af 	sw	s0,28(sp)
1d014cbc:	21808000 	move	s0,a0
1d014cc0:	e0808227 	addiu	v0,gp,-32544
1d014cc4:	21104400 	addu	v0,v0,a0
1d014cc8:	00004390 	lbu	v1,0(v0)
1d014ccc:	54006010 	beqz	v1,0x1d014e20
1d014cd0:	21100000 	move	v0,zero
1d014cd4:	2190a000 	move	s2,a1
1d014cd8:	2188c000 	move	s1,a2
1d014cdc:	02000224 	li	v0,2
1d014ce0:	06008210 	beq	a0,v0,0x1d014cfc
1d014ce4:	2198e000 	move	s3,a3
1d014ce8:	03000224 	li	v0,3
1d014cec:	0a008250 	beql	a0,v0,0x1d014d18
1d014cf0:	88bf023c 	lui	v0,0xbf88
1d014cf4:	5453400b 	j	0x1d014d50
1d014cf8:	02000224 	li	v0,2
1d014cfc:	88bf023c 	lui	v0,0xbf88
1d014d00:	1061428c 	lw	v0,24848(v0)
1d014d04:	20004230 	andi	v0,v0,0x20
1d014d08:	18004054 	bnezl	v0,0x1d014d6c
1d014d0c:	88bf023c 	lui	v0,0xbf88
1d014d10:	4b53400b 	j	0x1d014d2c
1d014d14:	1000b3af 	sw	s3,16(sp)
1d014d18:	d060428c 	lw	v0,24784(v0)
1d014d1c:	01004230 	andi	v0,v0,0x1
1d014d20:	16004054 	bnezl	v0,0x1d014d7c
1d014d24:	88bf023c 	lui	v0,0xbf88
1d014d28:	1000b3af 	sw	s3,16(sp)
1d014d2c:	4000a28f 	lw	v0,64(sp)
1d014d30:	1400a2af 	sw	v0,20(sp)
1d014d34:	21200002 	move	a0,s0
1d014d38:	21280000 	move	a1,zero
1d014d3c:	21304002 	move	a2,s2
1d014d40:	1b51400f 	jal	0x1d01446c
1d014d44:	21382002 	move	a3,s1
1d014d48:	8853400b 	j	0x1d014e20
1d014d4c:	01000224 	li	v0,1
1d014d50:	06008210 	beq	a0,v0,0x1d014d6c
1d014d54:	88bf023c 	lui	v0,0xbf88
1d014d58:	03000224 	li	v0,3
1d014d5c:	07008250 	beql	a0,v0,0x1d014d7c
1d014d60:	88bf023c 	lui	v0,0xbf88
1d014d64:	6253400b 	j	0x1d014d88
1d014d68:	21100000 	move	v0,zero
1d014d6c:	1061428c 	lw	v0,24848(v0)
1d014d70:	40004238 	xori	v0,v0,0x40
1d014d74:	6253400b 	j	0x1d014d88
1d014d78:	8001427c 	ext	v0,v0,0x6,0x1
1d014d7c:	d060428c 	lw	v0,24784(v0)
1d014d80:	00084238 	xori	v0,v0,0x800
1d014d84:	c002427c 	ext	v0,v0,0xb,0x1
1d014d88:	0a004010 	beqz	v0,0x1d014db4
1d014d8c:	21200002 	move	a0,s0
1d014d90:	1000b3af 	sw	s3,16(sp)
1d014d94:	4000a28f 	lw	v0,64(sp)
1d014d98:	1400a2af 	sw	v0,20(sp)
1d014d9c:	01000524 	li	a1,1
1d014da0:	21304002 	move	a2,s2
1d014da4:	1b51400f 	jal	0x1d01446c
1d014da8:	21382002 	move	a3,s1
1d014dac:	8853400b 	j	0x1d014e20
1d014db0:	02000224 	li	v0,2
1d014db4:	fa4d400f 	jal	0x1d0137e8
1d014db8:	21200002 	move	a0,s0
1d014dbc:	01004330 	andi	v1,v0,0x1
1d014dc0:	0b006050 	beqzl	v1,0x1d014df0
1d014dc4:	02004230 	andi	v0,v0,0x2
1d014dc8:	1000b3af 	sw	s3,16(sp)
1d014dcc:	4000a28f 	lw	v0,64(sp)
1d014dd0:	1400a2af 	sw	v0,20(sp)
1d014dd4:	21200002 	move	a0,s0
1d014dd8:	21280000 	move	a1,zero
1d014ddc:	21304002 	move	a2,s2
1d014de0:	1b51400f 	jal	0x1d01446c
1d014de4:	21382002 	move	a3,s1
1d014de8:	8853400b 	j	0x1d014e20
1d014dec:	01000224 	li	v0,1
1d014df0:	ff004230 	andi	v0,v0,0xff
1d014df4:	0b004010 	beqz	v0,0x1d014e24
1d014df8:	2c00bf8f 	lw	ra,44(sp)
1d014dfc:	1000b3af 	sw	s3,16(sp)
1d014e00:	4000a28f 	lw	v0,64(sp)
1d014e04:	1400a2af 	sw	v0,20(sp)
1d014e08:	21200002 	move	a0,s0
1d014e0c:	01000524 	li	a1,1
1d014e10:	21304002 	move	a2,s2
1d014e14:	1b51400f 	jal	0x1d01446c
1d014e18:	21382002 	move	a3,s1
1d014e1c:	02000224 	li	v0,2
1d014e20:	2c00bf8f 	lw	ra,44(sp)
1d014e24:	2800b38f 	lw	s3,40(sp)
1d014e28:	2400b28f 	lw	s2,36(sp)
1d014e2c:	2000b18f 	lw	s1,32(sp)
1d014e30:	1c00b08f 	lw	s0,28(sp)
1d014e34:	0800e003 	jr	ra
1d014e38:	3000bd27 	addiu	sp,sp,48

Disassembly of section .sec69:

1d014e3c <.sec69>:
1d014e3c:	00210400 	sll	a0,a0,0x4
1d014e40:	029d023c 	lui	v0,0x9d02
1d014e44:	740a4224 	addiu	v0,v0,2676
1d014e48:	21108200 	addu	v0,a0,v0
1d014e4c:	0800428c 	lw	v0,8(v0)
1d014e50:	07004324 	addiu	v1,v0,7
1d014e54:	00004628 	slti	a2,v0,0
1d014e58:	0b106600 	movn	v0,v1,a2
1d014e5c:	c3300200 	sra	a2,v0,0x3
1d014e60:	079d033c 	lui	v1,0x9d07
1d014e64:	80ff6334 	ori	v1,v1,0xff80
1d014e68:	2130c300 	addu	a2,a2,v1
1d014e6c:	8000c724 	addiu	a3,a2,128
1d014e70:	2b10c700 	sltu	v0,a2,a3
1d014e74:	14004010 	beqz	v0,0x1d014ec8
1d014e78:	00000000 	nop
1d014e7c:	21100000 	move	v0,zero
1d014e80:	0000c590 	lbu	a1,0(a2)
1d014e84:	ff00a530 	andi	a1,a1,0xff
1d014e88:	0100a330 	andi	v1,a1,0x1
1d014e8c:	10006050 	beqzl	v1,0x1d014ed0
1d014e90:	01004224 	addiu	v0,v0,1
1d014e94:	0800e003 	jr	ra
1d014e98:	00000000 	nop
1d014e9c:	24206500 	and	a0,v1,a1
1d014ea0:	fcff8014 	bnez	a0,0x1d014e94
1d014ea4:	40180300 	sll	v1,v1,0x1
1d014ea8:	ff006330 	andi	v1,v1,0xff
1d014eac:	fbff6014 	bnez	v1,0x1d014e9c
1d014eb0:	01004224 	addiu	v0,v0,1
1d014eb4:	0100c624 	addiu	a2,a2,1
1d014eb8:	f1ffe614 	bne	a3,a2,0x1d014e80
1d014ebc:	00000000 	nop
1d014ec0:	0800e003 	jr	ra
1d014ec4:	00000000 	nop
1d014ec8:	0800e003 	jr	ra
1d014ecc:	21100000 	move	v0,zero
1d014ed0:	a753400b 	j	0x1d014e9c
1d014ed4:	02000324 	li	v1,2
1d014ed8:	2f008010 	beqz	a0,0x1d014f98
1d014edc:	00000000 	nop
1d014ee0:	d8ffbd27 	addiu	sp,sp,-40
1d014ee4:	2400bfaf 	sw	ra,36(sp)
1d014ee8:	2000b3af 	sw	s3,32(sp)
1d014eec:	1c00b2af 	sw	s2,28(sp)
1d014ef0:	1800b1af 	sw	s1,24(sp)
1d014ef4:	1400b0af 	sw	s0,20(sp)
1d014ef8:	2198a000 	move	s3,a1
1d014efc:	2190c000 	move	s2,a2
1d014f00:	2180e000 	move	s0,a3
1d014f04:	3489400f 	jal	0x1d0224d0
1d014f08:	2128c000 	move	a1,a2
1d014f0c:	04006012 	beqz	s3,0x1d014f20
1d014f10:	21884000 	move	s1,v0
1d014f14:	2b986202 	sltu	s3,s3,v0
1d014f18:	21006056 	bnezl	s3,0x1d014fa0
1d014f1c:	21100000 	move	v0,zero
1d014f20:	1f002012 	beqz	s1,0x1d014fa0
1d014f24:	21100000 	move	v0,zero
1d014f28:	f884400f 	jal	0x1d0213e0
1d014f2c:	21204002 	move	a0,s2
1d014f30:	1b000012 	beqz	s0,0x1d014fa0
1d014f34:	21102202 	addu	v0,s1,v0
1d014f38:	000000ae 	sw	zero,0(s0)
1d014f3c:	5f000624 	li	a2,95
1d014f40:	d453400b 	j	0x1d014f50
1d014f44:	2c000724 	li	a3,44
1d014f48:	01008424 	addiu	a0,a0,1
1d014f4c:	000004ae 	sw	a0,0(s0)
1d014f50:	0000048e 	lw	a0,0(s0)
1d014f54:	21184400 	addu	v1,v0,a0
1d014f58:	00006390 	lbu	v1,0(v1)
1d014f5c:	faff6610 	beq	v1,a2,0x1d014f48
1d014f60:	d1ff6524 	addiu	a1,v1,-47
1d014f64:	ff00a530 	andi	a1,a1,0xff
1d014f68:	0c00a52c 	sltiu	a1,a1,12
1d014f6c:	f7ffa054 	bnezl	a1,0x1d014f4c
1d014f70:	01008424 	addiu	a0,a0,1
1d014f74:	f4ff6710 	beq	v1,a3,0x1d014f48
1d014f78:	4429037c 	ins	v1,zero,0x5,0x1
1d014f7c:	bfff6324 	addiu	v1,v1,-65
1d014f80:	ff006330 	andi	v1,v1,0xff
1d014f84:	1a00632c 	sltiu	v1,v1,26
1d014f88:	efff6014 	bnez	v1,0x1d014f48
1d014f8c:	2400bf8f 	lw	ra,36(sp)
1d014f90:	ea53400b 	j	0x1d014fa8
1d014f94:	2000b38f 	lw	s3,32(sp)
1d014f98:	0800e003 	jr	ra
1d014f9c:	21100000 	move	v0,zero
1d014fa0:	2400bf8f 	lw	ra,36(sp)
1d014fa4:	2000b38f 	lw	s3,32(sp)
1d014fa8:	1c00b28f 	lw	s2,28(sp)
1d014fac:	1800b18f 	lw	s1,24(sp)
1d014fb0:	1400b08f 	lw	s0,20(sp)
1d014fb4:	0800e003 	jr	ra
1d014fb8:	2800bd27 	addiu	sp,sp,40
1d014fbc:	d8ffbd27 	addiu	sp,sp,-40
1d014fc0:	2400bfaf 	sw	ra,36(sp)
1d014fc4:	2000b1af 	sw	s1,32(sp)
1d014fc8:	1c00b0af 	sw	s0,28(sp)
1d014fcc:	2188c000 	move	s1,a2
1d014fd0:	1000a0af 	sw	zero,16(sp)
1d014fd4:	029d063c 	lui	a2,0x9d02
1d014fd8:	b808c624 	addiu	a2,a2,2232
1d014fdc:	b653400f 	jal	0x1d014ed8
1d014fe0:	1000a727 	addiu	a3,sp,16
1d014fe4:	10004010 	beqz	v0,0x1d015028
1d014fe8:	21804000 	move	s0,v0
1d014fec:	f884400f 	jal	0x1d0213e0
1d014ff0:	21202002 	move	a0,s1
1d014ff4:	11000424 	li	a0,17
1d014ff8:	0c004414 	bne	v0,a0,0x1d01502c
1d014ffc:	21180000 	move	v1,zero
1d015000:	11000224 	li	v0,17
1d015004:	1000a48f 	lw	a0,16(sp)
1d015008:	09008214 	bne	a0,v0,0x1d015030
1d01500c:	21106000 	move	v0,v1
1d015010:	21202002 	move	a0,s1
1d015014:	21280002 	move	a1,s0
1d015018:	d789400f 	jal	0x1d02275c
1d01501c:	11000624 	li	a2,17
1d015020:	0b54400b 	j	0x1d01502c
1d015024:	0100432c 	sltiu	v1,v0,1
1d015028:	01000324 	li	v1,1
1d01502c:	21106000 	move	v0,v1
1d015030:	2400bf8f 	lw	ra,36(sp)
1d015034:	2000b18f 	lw	s1,32(sp)
1d015038:	1c00b08f 	lw	s0,28(sp)
1d01503c:	0800e003 	jr	ra
1d015040:	2800bd27 	addiu	sp,sp,40
1d015044:	d0ffbd27 	addiu	sp,sp,-48
1d015048:	2c00bfaf 	sw	ra,44(sp)
1d01504c:	2800b3af 	sw	s3,40(sp)
1d015050:	2400b2af 	sw	s2,36(sp)
1d015054:	2000b1af 	sw	s1,32(sp)
1d015058:	1c00b0af 	sw	s0,28(sp)
1d01505c:	2190c000 	move	s2,a2
1d015060:	1000a0af 	sw	zero,16(sp)
1d015064:	029d063c 	lui	a2,0x9d02
1d015068:	c008c624 	addiu	a2,a2,2240
1d01506c:	b653400f 	jal	0x1d014ed8
1d015070:	1000a727 	addiu	a3,sp,16
1d015074:	1e004010 	beqz	v0,0x1d0150f0
1d015078:	21804000 	move	s0,v0
1d01507c:	f884400f 	jal	0x1d0213e0
1d015080:	21204002 	move	a0,s2
1d015084:	21180000 	move	v1,zero
1d015088:	11000424 	li	a0,17
1d01508c:	12004410 	beq	v0,a0,0x1d0150d8
1d015090:	2c001324 	li	s3,44
1d015094:	4054400b 	j	0x1d015100
1d015098:	21106000 	move	v0,v1
1d01509c:	21280002 	move	a1,s0
1d0150a0:	d789400f 	jal	0x1d02275c
1d0150a4:	11000624 	li	a2,17
1d0150a8:	13004010 	beqz	v0,0x1d0150f8
1d0150ac:	11000326 	addiu	v1,s0,17
1d0150b0:	efff2226 	addiu	v0,s1,-17
1d0150b4:	07004010 	beqz	v0,0x1d0150d4
1d0150b8:	1000a2af 	sw	v0,16(sp)
1d0150bc:	11000292 	lbu	v0,17(s0)
1d0150c0:	05005354 	bnel	v0,s3,0x1d0150d8
1d0150c4:	21806000 	move	s0,v1
1d0150c8:	12000326 	addiu	v1,s0,18
1d0150cc:	eeff3126 	addiu	s1,s1,-18
1d0150d0:	1000b1af 	sw	s1,16(sp)
1d0150d4:	21806000 	move	s0,v1
1d0150d8:	1000b18f 	lw	s1,16(sp)
1d0150dc:	1100222e 	sltiu	v0,s1,17
1d0150e0:	eeff4010 	beqz	v0,0x1d01509c
1d0150e4:	21204002 	move	a0,s2
1d0150e8:	3f54400b 	j	0x1d0150fc
1d0150ec:	21180000 	move	v1,zero
1d0150f0:	3f54400b 	j	0x1d0150fc
1d0150f4:	01000324 	li	v1,1
1d0150f8:	01000324 	li	v1,1
1d0150fc:	21106000 	move	v0,v1
1d015100:	2c00bf8f 	lw	ra,44(sp)
1d015104:	2800b38f 	lw	s3,40(sp)
1d015108:	2400b28f 	lw	s2,36(sp)
1d01510c:	2000b18f 	lw	s1,32(sp)
1d015110:	1c00b08f 	lw	s0,28(sp)
1d015114:	0800e003 	jr	ra
1d015118:	3000bd27 	addiu	sp,sp,48
1d01511c:	d8ffbd27 	addiu	sp,sp,-40
1d015120:	2400bfaf 	sw	ra,36(sp)
1d015124:	2000b1af 	sw	s1,32(sp)
1d015128:	1c00b0af 	sw	s0,28(sp)
1d01512c:	2188c000 	move	s1,a2
1d015130:	1000a0af 	sw	zero,16(sp)
1d015134:	029d063c 	lui	a2,0x9d02
1d015138:	c808c624 	addiu	a2,a2,2248
1d01513c:	b653400f 	jal	0x1d014ed8
1d015140:	1000a727 	addiu	a3,sp,16
1d015144:	12004010 	beqz	v0,0x1d015190
1d015148:	21804000 	move	s0,v0
1d01514c:	01000224 	li	v0,1
1d015150:	508082a3 	sb	v0,-32688(gp)
1d015154:	f884400f 	jal	0x1d0213e0
1d015158:	21202002 	move	a0,s1
1d01515c:	11000424 	li	a0,17
1d015160:	0c004414 	bne	v0,a0,0x1d015194
1d015164:	21180000 	move	v1,zero
1d015168:	11000224 	li	v0,17
1d01516c:	1000a48f 	lw	a0,16(sp)
1d015170:	09008214 	bne	a0,v0,0x1d015198
1d015174:	21106000 	move	v0,v1
1d015178:	21202002 	move	a0,s1
1d01517c:	21280002 	move	a1,s0
1d015180:	d789400f 	jal	0x1d02275c
1d015184:	11000624 	li	a2,17
1d015188:	6554400b 	j	0x1d015194
1d01518c:	0100432c 	sltiu	v1,v0,1
1d015190:	01000324 	li	v1,1
1d015194:	21106000 	move	v0,v1
1d015198:	2400bf8f 	lw	ra,36(sp)
1d01519c:	2000b18f 	lw	s1,32(sp)
1d0151a0:	1c00b08f 	lw	s0,28(sp)
1d0151a4:	0800e003 	jr	ra
1d0151a8:	2800bd27 	addiu	sp,sp,40
1d0151ac:	d0ffbd27 	addiu	sp,sp,-48
1d0151b0:	2c00bfaf 	sw	ra,44(sp)
1d0151b4:	2800b3af 	sw	s3,40(sp)
1d0151b8:	2400b2af 	sw	s2,36(sp)
1d0151bc:	2000b1af 	sw	s1,32(sp)
1d0151c0:	1c00b0af 	sw	s0,28(sp)
1d0151c4:	2190c000 	move	s2,a2
1d0151c8:	1000a0af 	sw	zero,16(sp)
1d0151cc:	029d063c 	lui	a2,0x9d02
1d0151d0:	d008c624 	addiu	a2,a2,2256
1d0151d4:	b653400f 	jal	0x1d014ed8
1d0151d8:	1000a727 	addiu	a3,sp,16
1d0151dc:	20004010 	beqz	v0,0x1d015260
1d0151e0:	21804000 	move	s0,v0
1d0151e4:	01000224 	li	v0,1
1d0151e8:	508082a3 	sb	v0,-32688(gp)
1d0151ec:	f884400f 	jal	0x1d0213e0
1d0151f0:	21204002 	move	a0,s2
1d0151f4:	21180000 	move	v1,zero
1d0151f8:	11000424 	li	a0,17
1d0151fc:	12004410 	beq	v0,a0,0x1d015248
1d015200:	2c001324 	li	s3,44
1d015204:	9c54400b 	j	0x1d015270
1d015208:	21106000 	move	v0,v1
1d01520c:	21280002 	move	a1,s0
1d015210:	d789400f 	jal	0x1d02275c
1d015214:	11000624 	li	a2,17
1d015218:	13004010 	beqz	v0,0x1d015268
1d01521c:	11000326 	addiu	v1,s0,17
1d015220:	efff2226 	addiu	v0,s1,-17
1d015224:	07004010 	beqz	v0,0x1d015244
1d015228:	1000a2af 	sw	v0,16(sp)
1d01522c:	11000292 	lbu	v0,17(s0)
1d015230:	05005354 	bnel	v0,s3,0x1d015248
1d015234:	21806000 	move	s0,v1
1d015238:	12000326 	addiu	v1,s0,18
1d01523c:	eeff3126 	addiu	s1,s1,-18
1d015240:	1000b1af 	sw	s1,16(sp)
1d015244:	21806000 	move	s0,v1
1d015248:	1000b18f 	lw	s1,16(sp)
1d01524c:	1100222e 	sltiu	v0,s1,17
1d015250:	eeff4010 	beqz	v0,0x1d01520c
1d015254:	21204002 	move	a0,s2
1d015258:	9b54400b 	j	0x1d01526c
1d01525c:	21180000 	move	v1,zero
1d015260:	9b54400b 	j	0x1d01526c
1d015264:	01000324 	li	v1,1
1d015268:	01000324 	li	v1,1
1d01526c:	21106000 	move	v0,v1
1d015270:	2c00bf8f 	lw	ra,44(sp)
1d015274:	2800b38f 	lw	s3,40(sp)
1d015278:	2400b28f 	lw	s2,36(sp)
1d01527c:	2000b18f 	lw	s1,32(sp)
1d015280:	1c00b08f 	lw	s0,28(sp)
1d015284:	0800e003 	jr	ra
1d015288:	3000bd27 	addiu	sp,sp,48
1d01528c:	0800e003 	jr	ra
1d015290:	4f808293 	lbu	v0,-32689(gp)
1d015294:	0800e003 	jr	ra
1d015298:	4e808293 	lbu	v0,-32690(gp)
1d01529c:	0800e003 	jr	ra
1d0152a0:	4d808293 	lbu	v0,-32691(gp)
1d0152a4:	0800e003 	jr	ra
1d0152a8:	0100822c 	sltiu	v0,a0,1
1d0152ac:	03008014 	bnez	a0,0x1d0152bc
1d0152b0:	21100000 	move	v0,zero
1d0152b4:	01a0023c 	lui	v0,0xa001
1d0152b8:	543b4290 	lbu	v0,15188(v0)
1d0152bc:	0800e003 	jr	ra
1d0152c0:	00000000 	nop
1d0152c4:	03008014 	bnez	a0,0x1d0152d4
1d0152c8:	21100000 	move	v0,zero
1d0152cc:	01a0023c 	lui	v0,0xa001
1d0152d0:	553b4290 	lbu	v0,15189(v0)
1d0152d4:	0800e003 	jr	ra
1d0152d8:	00000000 	nop
1d0152dc:	03008014 	bnez	a0,0x1d0152ec
1d0152e0:	21100000 	move	v0,zero
1d0152e4:	01a0023c 	lui	v0,0xa001
1d0152e8:	583b428c 	lw	v0,15192(v0)
1d0152ec:	0800e003 	jr	ra
1d0152f0:	00000000 	nop
1d0152f4:	03008014 	bnez	a0,0x1d015304
1d0152f8:	21100000 	move	v0,zero
1d0152fc:	01a0023c 	lui	v0,0xa001
1d015300:	5c3b428c 	lw	v0,15196(v0)
1d015304:	0800e003 	jr	ra
1d015308:	00000000 	nop
1d01530c:	03008050 	beqzl	a0,0x1d01531c
1d015310:	029d023c 	lui	v0,0x9d02
1d015314:	0800e003 	jr	ra
1d015318:	21100000 	move	v0,zero
1d01531c:	0800e003 	jr	ra
1d015320:	d8084224 	addiu	v0,v0,2264
1d015324:	03008050 	beqzl	a0,0x1d015334
1d015328:	029d023c 	lui	v0,0x9d02
1d01532c:	0800e003 	jr	ra
1d015330:	21100000 	move	v0,zero
1d015334:	0800e003 	jr	ra
1d015338:	e0084224 	addiu	v0,v0,2272
1d01533c:	01a0023c 	lui	v0,0xa001
1d015340:	0800e003 	jr	ra
1d015344:	543b4290 	lbu	v0,15188(v0)
1d015348:	89bf023c 	lui	v0,0xbf89
1d01534c:	20934290 	lbu	v0,-27872(v0)
1d015350:	0800e003 	jr	ra
1d015354:	ff004230 	andi	v0,v0,0xff
1d015358:	89bf023c 	lui	v0,0xbf89
1d01535c:	21934290 	lbu	v0,-27871(v0)
1d015360:	0800e003 	jr	ra
1d015364:	ff004230 	andi	v0,v0,0xff
1d015368:	89bf023c 	lui	v0,0xbf89
1d01536c:	10934290 	lbu	v0,-27888(v0)
1d015370:	0800e003 	jr	ra
1d015374:	ff004230 	andi	v0,v0,0xff
1d015378:	89bf023c 	lui	v0,0xbf89
1d01537c:	11934290 	lbu	v0,-27887(v0)
1d015380:	0800e003 	jr	ra
1d015384:	ff004230 	andi	v0,v0,0xff
1d015388:	89bf023c 	lui	v0,0xbf89
1d01538c:	00934290 	lbu	v0,-27904(v0)
1d015390:	0800e003 	jr	ra
1d015394:	ff004230 	andi	v0,v0,0xff
1d015398:	89bf023c 	lui	v0,0xbf89
1d01539c:	01934290 	lbu	v0,-27903(v0)
1d0153a0:	0800e003 	jr	ra
1d0153a4:	ff004230 	andi	v0,v0,0xff
1d0153a8:	01a0023c 	lui	v0,0xa001
1d0153ac:	2c3b4290 	lbu	v0,15148(v0)
1d0153b0:	7f004054 	bnezl	v0,0x1d0155b0
1d0153b4:	01a0023c 	lui	v0,0xa001
1d0153b8:	89bf023c 	lui	v0,0xbf89
1d0153bc:	20934290 	lbu	v0,-27872(v0)
1d0153c0:	0019427c 	ext	v0,v0,0x4,0x4
1d0153c4:	0a00442c 	sltiu	a0,v0,10
1d0153c8:	30004324 	addiu	v1,v0,48
1d0153cc:	37004224 	addiu	v0,v0,55
1d0153d0:	0b106400 	movn	v0,v1,a0
1d0153d4:	01a0033c 	lui	v1,0xa001
1d0153d8:	2c3b62a0 	sb	v0,15148(v1)
1d0153dc:	89bf023c 	lui	v0,0xbf89
1d0153e0:	20934290 	lbu	v0,-27872(v0)
1d0153e4:	0f004230 	andi	v0,v0,0xf
1d0153e8:	0a00442c 	sltiu	a0,v0,10
1d0153ec:	30004324 	addiu	v1,v0,48
1d0153f0:	37004224 	addiu	v0,v0,55
1d0153f4:	0b106400 	movn	v0,v1,a0
1d0153f8:	01a0033c 	lui	v1,0xa001
1d0153fc:	2c3b6324 	addiu	v1,v1,15148
1d015400:	010062a0 	sb	v0,1(v1)
1d015404:	3a000224 	li	v0,58
1d015408:	020062a0 	sb	v0,2(v1)
1d01540c:	89bf023c 	lui	v0,0xbf89
1d015410:	21934290 	lbu	v0,-27871(v0)
1d015414:	0019427c 	ext	v0,v0,0x4,0x4
1d015418:	0a00442c 	sltiu	a0,v0,10
1d01541c:	30004324 	addiu	v1,v0,48
1d015420:	37004224 	addiu	v0,v0,55
1d015424:	0b106400 	movn	v0,v1,a0
1d015428:	01a0033c 	lui	v1,0xa001
1d01542c:	2f3b62a0 	sb	v0,15151(v1)
1d015430:	89bf023c 	lui	v0,0xbf89
1d015434:	21934290 	lbu	v0,-27871(v0)
1d015438:	0f004230 	andi	v0,v0,0xf
1d01543c:	0a00442c 	sltiu	a0,v0,10
1d015440:	30004324 	addiu	v1,v0,48
1d015444:	37004224 	addiu	v0,v0,55
1d015448:	0b106400 	movn	v0,v1,a0
1d01544c:	01a0033c 	lui	v1,0xa001
1d015450:	2c3b6324 	addiu	v1,v1,15148
1d015454:	040062a0 	sb	v0,4(v1)
1d015458:	3a000224 	li	v0,58
1d01545c:	050062a0 	sb	v0,5(v1)
1d015460:	89bf023c 	lui	v0,0xbf89
1d015464:	10934290 	lbu	v0,-27888(v0)
1d015468:	0019427c 	ext	v0,v0,0x4,0x4
1d01546c:	0a00442c 	sltiu	a0,v0,10
1d015470:	30004324 	addiu	v1,v0,48
1d015474:	37004224 	addiu	v0,v0,55
1d015478:	0b106400 	movn	v0,v1,a0
1d01547c:	01a0033c 	lui	v1,0xa001
1d015480:	323b62a0 	sb	v0,15154(v1)
1d015484:	89bf023c 	lui	v0,0xbf89
1d015488:	10934290 	lbu	v0,-27888(v0)
1d01548c:	0f004230 	andi	v0,v0,0xf
1d015490:	0a00442c 	sltiu	a0,v0,10
1d015494:	30004324 	addiu	v1,v0,48
1d015498:	37004224 	addiu	v0,v0,55
1d01549c:	0b106400 	movn	v0,v1,a0
1d0154a0:	01a0033c 	lui	v1,0xa001
1d0154a4:	2c3b6324 	addiu	v1,v1,15148
1d0154a8:	070062a0 	sb	v0,7(v1)
1d0154ac:	3a000224 	li	v0,58
1d0154b0:	080062a0 	sb	v0,8(v1)
1d0154b4:	89bf023c 	lui	v0,0xbf89
1d0154b8:	11934290 	lbu	v0,-27887(v0)
1d0154bc:	0019427c 	ext	v0,v0,0x4,0x4
1d0154c0:	0a00442c 	sltiu	a0,v0,10
1d0154c4:	30004324 	addiu	v1,v0,48
1d0154c8:	37004224 	addiu	v0,v0,55
1d0154cc:	0b106400 	movn	v0,v1,a0
1d0154d0:	01a0033c 	lui	v1,0xa001
1d0154d4:	353b62a0 	sb	v0,15157(v1)
1d0154d8:	89bf023c 	lui	v0,0xbf89
1d0154dc:	11934290 	lbu	v0,-27887(v0)
1d0154e0:	0f004230 	andi	v0,v0,0xf
1d0154e4:	0a00442c 	sltiu	a0,v0,10
1d0154e8:	30004324 	addiu	v1,v0,48
1d0154ec:	37004224 	addiu	v0,v0,55
1d0154f0:	0b106400 	movn	v0,v1,a0
1d0154f4:	01a0033c 	lui	v1,0xa001
1d0154f8:	2c3b6324 	addiu	v1,v1,15148
1d0154fc:	0a0062a0 	sb	v0,10(v1)
1d015500:	3a000224 	li	v0,58
1d015504:	0b0062a0 	sb	v0,11(v1)
1d015508:	89bf023c 	lui	v0,0xbf89
1d01550c:	00934290 	lbu	v0,-27904(v0)
1d015510:	0019427c 	ext	v0,v0,0x4,0x4
1d015514:	0a00442c 	sltiu	a0,v0,10
1d015518:	30004324 	addiu	v1,v0,48
1d01551c:	37004224 	addiu	v0,v0,55
1d015520:	0b106400 	movn	v0,v1,a0
1d015524:	01a0033c 	lui	v1,0xa001
1d015528:	383b62a0 	sb	v0,15160(v1)
1d01552c:	89bf023c 	lui	v0,0xbf89
1d015530:	00934290 	lbu	v0,-27904(v0)
1d015534:	0f004230 	andi	v0,v0,0xf
1d015538:	0a00442c 	sltiu	a0,v0,10
1d01553c:	30004324 	addiu	v1,v0,48
1d015540:	37004224 	addiu	v0,v0,55
1d015544:	0b106400 	movn	v0,v1,a0
1d015548:	01a0033c 	lui	v1,0xa001
1d01554c:	2c3b6324 	addiu	v1,v1,15148
1d015550:	0d0062a0 	sb	v0,13(v1)
1d015554:	3a000224 	li	v0,58
1d015558:	0e0062a0 	sb	v0,14(v1)
1d01555c:	89bf023c 	lui	v0,0xbf89
1d015560:	01934290 	lbu	v0,-27903(v0)
1d015564:	0019427c 	ext	v0,v0,0x4,0x4
1d015568:	0a00442c 	sltiu	a0,v0,10
1d01556c:	30004324 	addiu	v1,v0,48
1d015570:	37004224 	addiu	v0,v0,55
1d015574:	0b106400 	movn	v0,v1,a0
1d015578:	01a0033c 	lui	v1,0xa001
1d01557c:	3b3b62a0 	sb	v0,15163(v1)
1d015580:	89bf023c 	lui	v0,0xbf89
1d015584:	01934290 	lbu	v0,-27903(v0)
1d015588:	0f004230 	andi	v0,v0,0xf
1d01558c:	0a00442c 	sltiu	a0,v0,10
1d015590:	30004324 	addiu	v1,v0,48
1d015594:	37004224 	addiu	v0,v0,55
1d015598:	0b106400 	movn	v0,v1,a0
1d01559c:	01a0033c 	lui	v1,0xa001
1d0155a0:	2c3b6324 	addiu	v1,v1,15148
1d0155a4:	100062a0 	sb	v0,16(v1)
1d0155a8:	110060a0 	sb	zero,17(v1)
1d0155ac:	01a0023c 	lui	v0,0xa001
1d0155b0:	0800e003 	jr	ra
1d0155b4:	2c3b4224 	addiu	v0,v0,15148
1d0155b8:	01a0023c 	lui	v0,0xa001
1d0155bc:	0800e003 	jr	ra
1d0155c0:	183b4224 	addiu	v0,v0,15128
1d0155c4:	e8ffbd27 	addiu	sp,sp,-24
1d0155c8:	1400bfaf 	sw	ra,20(sp)
1d0155cc:	21288000 	move	a1,a0
1d0155d0:	01a0043c 	lui	a0,0xa001
1d0155d4:	183b8424 	addiu	a0,a0,15128
1d0155d8:	ba89400f 	jal	0x1d0226e8
1d0155dc:	11000624 	li	a2,17
1d0155e0:	1400bf8f 	lw	ra,20(sp)
1d0155e4:	0800e003 	jr	ra
1d0155e8:	1800bd27 	addiu	sp,sp,24
1d0155ec:	01a0023c 	lui	v0,0xa001
1d0155f0:	0800e003 	jr	ra
1d0155f4:	0c3b4224 	addiu	v0,v0,15116
1d0155f8:	e8ffbd27 	addiu	sp,sp,-24
1d0155fc:	1400bfaf 	sw	ra,20(sp)
1d015600:	21288000 	move	a1,a0
1d015604:	00008390 	lbu	v1,0(a0)
1d015608:	01a0023c 	lui	v0,0xa001
1d01560c:	0c3b4290 	lbu	v0,15116(v0)
1d015610:	2b206200 	sltu	a0,v1,v0
1d015614:	15008014 	bnez	a0,0x1d01566c
1d015618:	2b104300 	sltu	v0,v0,v1
1d01561c:	0f004014 	bnez	v0,0x1d01565c
1d015620:	01000224 	li	v0,1
1d015624:	01a0043c 	lui	a0,0xa001
1d015628:	0c3b8424 	addiu	a0,a0,15116
1d01562c:	0a000824 	li	t0,10
1d015630:	2118a200 	addu	v1,a1,v0
1d015634:	00006690 	lbu	a2,0(v1)
1d015638:	21188200 	addu	v1,a0,v0
1d01563c:	00006390 	lbu	v1,0(v1)
1d015640:	2b38c300 	sltu	a3,a2,v1
1d015644:	0900e014 	bnez	a3,0x1d01566c
1d015648:	2b186600 	sltu	v1,v1,a2
1d01564c:	03006014 	bnez	v1,0x1d01565c
1d015650:	01004224 	addiu	v0,v0,1
1d015654:	f7ff4814 	bne	v0,t0,0x1d015634
1d015658:	2118a200 	addu	v1,a1,v0
1d01565c:	01a0043c 	lui	a0,0xa001
1d015660:	0c3b8424 	addiu	a0,a0,15116
1d015664:	ba89400f 	jal	0x1d0226e8
1d015668:	0a000624 	li	a2,10
1d01566c:	1400bf8f 	lw	ra,20(sp)
1d015670:	0800e003 	jr	ra
1d015674:	1800bd27 	addiu	sp,sp,24
1d015678:	e0ffbd27 	addiu	sp,sp,-32
1d01567c:	1c00bfaf 	sw	ra,28(sp)
1d015680:	1000a0af 	sw	zero,16(sp)
1d015684:	029d063c 	lui	a2,0x9d02
1d015688:	f408c624 	addiu	a2,a2,2292
1d01568c:	b653400f 	jal	0x1d014ed8
1d015690:	1000a727 	addiu	a3,sp,16
1d015694:	4b004010 	beqz	v0,0x1d0157c4
1d015698:	0a000324 	li	v1,10
1d01569c:	1000a48f 	lw	a0,16(sp)
1d0156a0:	45008354 	bnel	a0,v1,0x1d0157b8
1d0156a4:	01000224 	li	v0,1
1d0156a8:	04004490 	lbu	a0,4(v0)
1d0156ac:	2f000324 	li	v1,47
1d0156b0:	4b008314 	bne	a0,v1,0x1d0157e0
1d0156b4:	00000000 	nop
1d0156b8:	07004490 	lbu	a0,7(v0)
1d0156bc:	48008314 	bne	a0,v1,0x1d0157e0
1d0156c0:	00000000 	nop
1d0156c4:	00004390 	lbu	v1,0(v0)
1d0156c8:	d0ff6324 	addiu	v1,v1,-48
1d0156cc:	ff006330 	andi	v1,v1,0xff
1d0156d0:	0a00652c 	sltiu	a1,v1,10
1d0156d4:	0a180500 	movz	v1,zero,a1
1d0156d8:	002f0300 	sll	a1,v1,0x1c
1d0156dc:	01004390 	lbu	v1,1(v0)
1d0156e0:	d0ff6324 	addiu	v1,v1,-48
1d0156e4:	ff006330 	andi	v1,v1,0xff
1d0156e8:	0a00642c 	sltiu	a0,v1,10
1d0156ec:	0a180400 	movz	v1,zero,a0
1d0156f0:	00260300 	sll	a0,v1,0x18
1d0156f4:	21208500 	addu	a0,a0,a1
1d0156f8:	02004390 	lbu	v1,2(v0)
1d0156fc:	d0ff6324 	addiu	v1,v1,-48
1d015700:	ff006330 	andi	v1,v1,0xff
1d015704:	0a00652c 	sltiu	a1,v1,10
1d015708:	0a180500 	movz	v1,zero,a1
1d01570c:	001d0300 	sll	v1,v1,0x14
1d015710:	21208300 	addu	a0,a0,v1
1d015714:	03004390 	lbu	v1,3(v0)
1d015718:	d0ff6324 	addiu	v1,v1,-48
1d01571c:	ff006330 	andi	v1,v1,0xff
1d015720:	0a00652c 	sltiu	a1,v1,10
1d015724:	0a180500 	movz	v1,zero,a1
1d015728:	001c0300 	sll	v1,v1,0x10
1d01572c:	21208300 	addu	a0,a0,v1
1d015730:	05004390 	lbu	v1,5(v0)
1d015734:	d0ff6324 	addiu	v1,v1,-48
1d015738:	ff006330 	andi	v1,v1,0xff
1d01573c:	0a00652c 	sltiu	a1,v1,10
1d015740:	0a180500 	movz	v1,zero,a1
1d015744:	001b0300 	sll	v1,v1,0xc
1d015748:	21208300 	addu	a0,a0,v1
1d01574c:	06004390 	lbu	v1,6(v0)
1d015750:	d0ff6324 	addiu	v1,v1,-48
1d015754:	ff006330 	andi	v1,v1,0xff
1d015758:	0a00652c 	sltiu	a1,v1,10
1d01575c:	0a180500 	movz	v1,zero,a1
1d015760:	001a0300 	sll	v1,v1,0x8
1d015764:	21208300 	addu	a0,a0,v1
1d015768:	08004390 	lbu	v1,8(v0)
1d01576c:	d0ff6324 	addiu	v1,v1,-48
1d015770:	ff006330 	andi	v1,v1,0xff
1d015774:	0a00652c 	sltiu	a1,v1,10
1d015778:	0a180500 	movz	v1,zero,a1
1d01577c:	00190300 	sll	v1,v1,0x4
1d015780:	21208300 	addu	a0,a0,v1
1d015784:	09004390 	lbu	v1,9(v0)
1d015788:	d0ff6324 	addiu	v1,v1,-48
1d01578c:	ff006330 	andi	v1,v1,0xff
1d015790:	0a00652c 	sltiu	a1,v1,10
1d015794:	0a180500 	movz	v1,zero,a1
1d015798:	21188300 	addu	v1,a0,v1
1d01579c:	1920043c 	lui	a0,0x2019
1d0157a0:	13088424 	addiu	a0,a0,2067
1d0157a4:	2b186400 	sltu	v1,v1,a0
1d0157a8:	0d006014 	bnez	v1,0x1d0157e0
1d0157ac:	01a0043c 	lui	a0,0xa001
1d0157b0:	f355400b 	j	0x1d0157cc
1d0157b4:	003b8424 	addiu	a0,a0,15104
1d0157b8:	4d8082a3 	sb	v0,-32691(gp)
1d0157bc:	fc55400b 	j	0x1d0157f0
1d0157c0:	21100000 	move	v0,zero
1d0157c4:	fc55400b 	j	0x1d0157f0
1d0157c8:	01000224 	li	v0,1
1d0157cc:	21284000 	move	a1,v0
1d0157d0:	ba89400f 	jal	0x1d0226e8
1d0157d4:	0a000624 	li	a2,10
1d0157d8:	fc55400b 	j	0x1d0157f0
1d0157dc:	01000224 	li	v0,1
1d0157e0:	7e55400f 	jal	0x1d0155f8
1d0157e4:	21204000 	move	a0,v0
1d0157e8:	ee55400b 	j	0x1d0157b8
1d0157ec:	01000224 	li	v0,1
1d0157f0:	1c00bf8f 	lw	ra,28(sp)
1d0157f4:	0800e003 	jr	ra
1d0157f8:	2000bd27 	addiu	sp,sp,32
1d0157fc:	079d023c 	lui	v0,0x9d07
1d015800:	00f04234 	ori	v0,v0,0xf000
1d015804:	00004290 	lbu	v0,0(v0)
1d015808:	ff004230 	andi	v0,v0,0xff
1d01580c:	03004010 	beqz	v0,0x1d01581c
1d015810:	ff000324 	li	v1,255
1d015814:	04004354 	bnel	v0,v1,0x1d015828
1d015818:	079d023c 	lui	v0,0x9d07
1d01581c:	029d023c 	lui	v0,0x9d02
1d015820:	0800e003 	jr	ra
1d015824:	fc084224 	addiu	v0,v0,2300
1d015828:	0800e003 	jr	ra
1d01582c:	00f04234 	ori	v0,v0,0xf000
1d015830:	b0ffbd27 	addiu	sp,sp,-80
1d015834:	4c00bfaf 	sw	ra,76(sp)
1d015838:	4800beaf 	sw	s8,72(sp)
1d01583c:	4400b7af 	sw	s7,68(sp)
1d015840:	4000b6af 	sw	s6,64(sp)
1d015844:	3c00b5af 	sw	s5,60(sp)
1d015848:	3800b4af 	sw	s4,56(sp)
1d01584c:	3400b3af 	sw	s3,52(sp)
1d015850:	3000b2af 	sw	s2,48(sp)
1d015854:	2c00b1af 	sw	s1,44(sp)
1d015858:	2800b0af 	sw	s0,40(sp)
1d01585c:	01a0023c 	lui	v0,0xa001
1d015860:	403b40ac 	sw	zero,15168(v0)
1d015864:	403b4224 	addiu	v0,v0,15168
1d015868:	040040ac 	sw	zero,4(v0)
1d01586c:	080040ac 	sw	zero,8(v0)
1d015870:	0c0040ac 	sw	zero,12(v0)
1d015874:	100040a4 	sh	zero,16(v0)
1d015878:	508080a3 	sb	zero,-32688(gp)
1d01587c:	ff55400f 	jal	0x1d0157fc
1d015880:	4d8080a3 	sb	zero,-32691(gp)
1d015884:	21804000 	move	s0,v0
1d015888:	029d1e3c 	lui	s8,0x9d02
1d01588c:	3409de27 	addiu	s8,s8,2356
1d015890:	029d113c 	lui	s1,0x9d02
1d015894:	74093126 	addiu	s1,s1,2420
1d015898:	029d023c 	lui	v0,0x9d02
1d01589c:	4c094224 	addiu	v0,v0,2380
1d0158a0:	7f57400b 	j	0x1d015dfc
1d0158a4:	2000a2af 	sw	v0,32(sp)
1d0158a8:	54010052 	beqzl	s0,0x1d015dfc
1d0158ac:	0b807302 	movn	s0,s3,s3
1d0158b0:	21200002 	move	a0,s0
1d0158b4:	3489400f 	jal	0x1d0224d0
1d0158b8:	2128c003 	move	a1,s8
1d0158bc:	03006012 	beqz	s3,0x1d0158cc
1d0158c0:	2b186202 	sltu	v1,s3,v0
1d0158c4:	4d016054 	bnezl	v1,0x1d015dfc
1d0158c8:	0b807302 	movn	s0,s3,s3
1d0158cc:	4a014010 	beqz	v0,0x1d015df8
1d0158d0:	0a005424 	addiu	s4,v0,10
1d0158d4:	1800a0a7 	sh	zero,24(sp)
1d0158d8:	0a004390 	lbu	v1,10(v0)
1d0158dc:	19006010 	beqz	v1,0x1d015944
1d0158e0:	23909202 	subu	s2,s4,s2
1d0158e4:	1a005724 	addiu	s7,v0,26
1d0158e8:	21b00000 	move	s6,zero
1d0158ec:	21a80000 	move	s5,zero
1d0158f0:	01009426 	addiu	s4,s4,1
1d0158f4:	1800a3a3 	sb	v1,24(sp)
1d0158f8:	02171600 	srl	v0,s6,0x1c
1d0158fc:	00a91500 	sll	s5,s5,0x4
1d015900:	25a85500 	or	s5,v0,s5
1d015904:	00b11600 	sll	s6,s6,0x4
1d015908:	1800a427 	addiu	a0,sp,24
1d01590c:	21280000 	move	a1,zero
1d015910:	0c83400f 	jal	0x1d020c30
1d015914:	10000624 	li	a2,16
1d015918:	c31f0200 	sra	v1,v0,0x1f
1d01591c:	21b05600 	addu	s6,v0,s6
1d015920:	2b10c202 	sltu	v0,s6,v0
1d015924:	21a87500 	addu	s5,v1,s5
1d015928:	00008392 	lbu	v1,0(s4)
1d01592c:	07006010 	beqz	v1,0x1d01594c
1d015930:	21a85500 	addu	s5,v0,s5
1d015934:	efff9756 	bnel	s4,s7,0x1d0158f4
1d015938:	01009426 	addiu	s4,s4,1
1d01593c:	5456400b 	j	0x1d015950
1d015940:	1000b6af 	sw	s6,16(sp)
1d015944:	21b00000 	move	s6,zero
1d015948:	21a80000 	move	s5,zero
1d01594c:	1000b6af 	sw	s6,16(sp)
1d015950:	1400b5af 	sw	s5,20(sp)
1d015954:	00000792 	lbu	a3,0(s0)
1d015958:	21280000 	move	a1,zero
1d01595c:	0200462e 	sltiu	a2,s2,2
1d015960:	f8ff0824 	li	t0,-8
1d015964:	2310e500 	subu	v0,a3,a1
1d015968:	ff004230 	andi	v0,v0,0xff
1d01596c:	21105100 	addu	v0,v0,s1
1d015970:	0900c014 	bnez	a2,0x1d015998
1d015974:	00004390 	lbu	v1,0(v0)
1d015978:	01000224 	li	v0,1
1d01597c:	21200202 	addu	a0,s0,v0
1d015980:	00008490 	lbu	a0,0(a0)
1d015984:	26186400 	xor	v1,v1,a0
1d015988:	21187100 	addu	v1,v1,s1
1d01598c:	01004224 	addiu	v0,v0,1
1d015990:	faff4216 	bne	s2,v0,0x1d01597c
1d015994:	00006390 	lbu	v1,0(v1)
1d015998:	1000a427 	addiu	a0,sp,16
1d01599c:	21108500 	addu	v0,a0,a1
1d0159a0:	07004290 	lbu	v0,7(v0)
1d0159a4:	14014314 	bne	v0,v1,0x1d015df8
1d0159a8:	ffffa524 	addiu	a1,a1,-1
1d0159ac:	eeffa814 	bne	a1,t0,0x1d015968
1d0159b0:	2310e500 	subu	v0,a3,a1
1d0159b4:	c957400b 	j	0x1d015f24
1d0159b8:	1800a0af 	sw	zero,24(sp)
1d0159bc:	1800a48f 	lw	a0,24(sp)
1d0159c0:	4b018314 	bne	a0,v1,0x1d015ef0
1d0159c4:	21200002 	move	a0,s0
1d0159c8:	029d043c 	lui	a0,0x9d02
1d0159cc:	40098424 	addiu	a0,a0,2368
1d0159d0:	21284000 	move	a1,v0
1d0159d4:	d789400f 	jal	0x1d02275c
1d0159d8:	08000624 	li	a2,8
1d0159dc:	44014014 	bnez	v0,0x1d015ef0
1d0159e0:	21200002 	move	a0,s0
1d0159e4:	b257400b 	j	0x1d015ec8
1d0159e8:	00000000 	nop
1d0159ec:	ea54400f 	jal	0x1d0153a8
1d0159f0:	00000000 	nop
1d0159f4:	21200002 	move	a0,s0
1d0159f8:	21286002 	move	a1,s3
1d0159fc:	1154400f 	jal	0x1d015044
1d015a00:	21304000 	move	a2,v0
1d015a04:	fd004050 	beqzl	v0,0x1d015dfc
1d015a08:	0b807302 	movn	s0,s3,s3
1d015a0c:	21200002 	move	a0,s0
1d015a10:	21286002 	move	a1,s3
1d015a14:	01a0023c 	lui	v0,0xa001
1d015a18:	4754400f 	jal	0x1d01511c
1d015a1c:	183b4624 	addiu	a2,v0,15128
1d015a20:	f6004050 	beqzl	v0,0x1d015dfc
1d015a24:	0b807302 	movn	s0,s3,s3
1d015a28:	21200002 	move	a0,s0
1d015a2c:	21286002 	move	a1,s3
1d015a30:	01a0023c 	lui	v0,0xa001
1d015a34:	6b54400f 	jal	0x1d0151ac
1d015a38:	183b4624 	addiu	a2,v0,15128
1d015a3c:	ef004050 	beqzl	v0,0x1d015dfc
1d015a40:	0b807302 	movn	s0,s3,s3
1d015a44:	1800a0af 	sw	zero,24(sp)
1d015a48:	21200002 	move	a0,s0
1d015a4c:	21286002 	move	a1,s3
1d015a50:	2000a68f 	lw	a2,32(sp)
1d015a54:	b653400f 	jal	0x1d014ed8
1d015a58:	1800a727 	addiu	a3,sp,24
1d015a5c:	2a014010 	beqz	v0,0x1d015f08
1d015a60:	21904000 	move	s2,v0
1d015a64:	01a0043c 	lui	a0,0xa001
1d015a68:	f884400f 	jal	0x1d0213e0
1d015a6c:	403b8424 	addiu	a0,a0,15168
1d015a70:	1800a38f 	lw	v1,24(sp)
1d015a74:	e1004354 	bnel	v0,v1,0x1d015dfc
1d015a78:	0b807302 	movn	s0,s3,s3
1d015a7c:	01a0043c 	lui	a0,0xa001
1d015a80:	403b8424 	addiu	a0,a0,15168
1d015a84:	21284002 	move	a1,s2
1d015a88:	d789400f 	jal	0x1d02275c
1d015a8c:	21304000 	move	a2,v0
1d015a90:	da004054 	bnezl	v0,0x1d015dfc
1d015a94:	0b807302 	movn	s0,s3,s3
1d015a98:	c357400b 	j	0x1d015f0c
1d015a9c:	21200002 	move	a0,s0
1d015aa0:	21200002 	move	a0,s0
1d015aa4:	21286002 	move	a1,s3
1d015aa8:	029d063c 	lui	a2,0x9d02
1d015aac:	5409c624 	addiu	a2,a2,2388
1d015ab0:	b653400f 	jal	0x1d014ed8
1d015ab4:	1c00a727 	addiu	a3,sp,28
1d015ab8:	cf004010 	beqz	v0,0x1d015df8
1d015abc:	04000324 	li	v1,4
1d015ac0:	1c00a48f 	lw	a0,28(sp)
1d015ac4:	cd008354 	bnel	a0,v1,0x1d015dfc
1d015ac8:	0b807302 	movn	s0,s3,s3
1d015acc:	029d043c 	lui	a0,0x9d02
1d015ad0:	d8088424 	addiu	a0,a0,2264
1d015ad4:	21284000 	move	a1,v0
1d015ad8:	d789400f 	jal	0x1d02275c
1d015adc:	04000624 	li	a2,4
1d015ae0:	c6004054 	bnezl	v0,0x1d015dfc
1d015ae4:	0b807302 	movn	s0,s3,s3
1d015ae8:	1800a0af 	sw	zero,24(sp)
1d015aec:	21200002 	move	a0,s0
1d015af0:	21286002 	move	a1,s3
1d015af4:	029d063c 	lui	a2,0x9d02
1d015af8:	6009c624 	addiu	a2,a2,2400
1d015afc:	b653400f 	jal	0x1d014ed8
1d015b00:	1800a727 	addiu	a3,sp,24
1d015b04:	62004010 	beqz	v0,0x1d015c90
1d015b08:	01a0033c 	lui	v1,0xa001
1d015b0c:	543b6390 	lbu	v1,15188(v1)
1d015b10:	64006014 	bnez	v1,0x1d015ca4
1d015b14:	01000324 	li	v1,1
1d015b18:	01000424 	li	a0,1
1d015b1c:	01a0033c 	lui	v1,0xa001
1d015b20:	553b64a0 	sb	a0,15189(v1)
1d015b24:	bc88400f 	jal	0x1d0222f0
1d015b28:	21204000 	move	a0,v0
1d015b2c:	b2004018 	blez	v0,0x1d015df8
1d015b30:	21904000 	move	s2,v0
1d015b34:	01a0023c 	lui	v0,0xa001
1d015b38:	583b428c 	lw	v0,15192(v0)
1d015b3c:	06004014 	bnez	v0,0x1d015b58
1d015b40:	01a0023c 	lui	v0,0xa001
1d015b44:	8f53400f 	jal	0x1d014e3c
1d015b48:	21200000 	move	a0,zero
1d015b4c:	01a0033c 	lui	v1,0xa001
1d015b50:	583b62ac 	sw	v0,15192(v1)
1d015b54:	01a0023c 	lui	v0,0xa001
1d015b58:	583b428c 	lw	v0,15192(v0)
1d015b5c:	23904202 	subu	s2,s2,v0
1d015b60:	a500401a 	blez	s2,0x1d015df8
1d015b64:	079d023c 	lui	v0,0x9d07
1d015b68:	80ff4234 	ori	v0,v0,0xff80
1d015b6c:	089d053c 	lui	a1,0x9d08
1d015b70:	00004490 	lbu	a0,0(v0)
1d015b74:	ff008430 	andi	a0,a0,0xff
1d015b78:	01008330 	andi	v1,a0,0x1
1d015b7c:	07006014 	bnez	v1,0x1d015b9c
1d015b80:	01000324 	li	v1,1
1d015b84:	02000324 	li	v1,2
1d015b88:	24306400 	and	a2,v1,a0
1d015b8c:	2e00c050 	beqzl	a2,0x1d015c48
1d015b90:	40180300 	sll	v1,v1,0x1
1d015b94:	e856400b 	j	0x1d015ba0
1d015b98:	27180300 	nor	v1,zero,v1
1d015b9c:	27180300 	nor	v1,zero,v1
1d015ba0:	21204000 	move	a0,v0
1d015ba4:	03004230 	andi	v0,v0,0x3
1d015ba8:	01000524 	li	a1,1
1d015bac:	11004510 	beq	v0,a1,0x1d015bf4
1d015bb0:	ff006330 	andi	v1,v1,0xff
1d015bb4:	02004528 	slti	a1,v0,2
1d015bb8:	0500a050 	beqzl	a1,0x1d015bd0
1d015bbc:	02000524 	li	a1,2
1d015bc0:	0a004050 	beqzl	v0,0x1d015bec
1d015bc4:	00ff0524 	li	a1,-256
1d015bc8:	0957400b 	j	0x1d015c24
1d015bcc:	21280000 	move	a1,zero
1d015bd0:	0d004550 	beql	v0,a1,0x1d015c08
1d015bd4:	001c0300 	sll	v1,v1,0x10
1d015bd8:	03000524 	li	a1,3
1d015bdc:	0e004550 	beql	v0,a1,0x1d015c18
1d015be0:	001e0300 	sll	v1,v1,0x18
1d015be4:	0957400b 	j	0x1d015c24
1d015be8:	21280000 	move	a1,zero
1d015bec:	0957400b 	j	0x1d015c24
1d015bf0:	25286500 	or	a1,v1,a1
1d015bf4:	001a0300 	sll	v1,v1,0x8
1d015bf8:	ffff023c 	lui	v0,0xffff
1d015bfc:	ff004224 	addiu	v0,v0,255
1d015c00:	0957400b 	j	0x1d015c24
1d015c04:	25286200 	or	a1,v1,v0
1d015c08:	00ff023c 	lui	v0,0xff00
1d015c0c:	ffff4234 	ori	v0,v0,0xffff
1d015c10:	0957400b 	j	0x1d015c24
1d015c14:	25286200 	or	a1,v1,v0
1d015c18:	ff00023c 	lui	v0,0xff
1d015c1c:	ffff4234 	ori	v0,v0,0xffff
1d015c20:	25286200 	or	a1,v1,v0
1d015c24:	ffff0224 	li	v0,-1
1d015c28:	0f00a210 	beq	a1,v0,0x1d015c68
1d015c2c:	0408047c 	ins	a0,zero,0x0,0x2
1d015c30:	c48a400f 	jal	0x1d022b10
1d015c34:	00000000 	nop
1d015c38:	0c004010 	beqz	v0,0x1d015c6c
1d015c3c:	01a0023c 	lui	v0,0xa001
1d015c40:	7f57400b 	j	0x1d015dfc
1d015c44:	0b807302 	movn	s0,s3,s3
1d015c48:	ff006330 	andi	v1,v1,0xff
1d015c4c:	cfff6014 	bnez	v1,0x1d015b8c
1d015c50:	24306400 	and	a2,v1,a0
1d015c54:	01004224 	addiu	v0,v0,1
1d015c58:	c5ff4514 	bne	v0,a1,0x1d015b70
1d015c5c:	00000000 	nop
1d015c60:	7f57400b 	j	0x1d015dfc
1d015c64:	0b807302 	movn	s0,s3,s3
1d015c68:	01a0023c 	lui	v0,0xa001
1d015c6c:	583b428c 	lw	v0,15192(v0)
1d015c70:	04004010 	beqz	v0,0x1d015c84
1d015c74:	ffff5226 	addiu	s2,s2,-1
1d015c78:	01004224 	addiu	v0,v0,1
1d015c7c:	01a0033c 	lui	v1,0xa001
1d015c80:	583b62ac 	sw	v0,15192(v1)
1d015c84:	01a0023c 	lui	v0,0xa001
1d015c88:	2857400b 	j	0x1d015ca0
1d015c8c:	5c3b52ac 	sw	s2,15196(v0)
1d015c90:	01a0023c 	lui	v0,0xa001
1d015c94:	543b4224 	addiu	v0,v0,15188
1d015c98:	010040a0 	sb	zero,1(v0)
1d015c9c:	080040ac 	sw	zero,8(v0)
1d015ca0:	01000324 	li	v1,1
1d015ca4:	01a0023c 	lui	v0,0xa001
1d015ca8:	543b43a0 	sb	v1,15188(v0)
1d015cac:	01a0043c 	lui	a0,0xa001
1d015cb0:	7e55400f 	jal	0x1d0155f8
1d015cb4:	003b8424 	addiu	a0,a0,15104
1d015cb8:	7f57400b 	j	0x1d015dfc
1d015cbc:	0b807302 	movn	s0,s3,s3
1d015cc0:	4e006054 	bnezl	v1,0x1d015dfc
1d015cc4:	0b807302 	movn	s0,s3,s3
1d015cc8:	4c004050 	beqzl	v0,0x1d015dfc
1d015ccc:	0b807302 	movn	s0,s3,s3
1d015cd0:	ea54400f 	jal	0x1d0153a8
1d015cd4:	00000000 	nop
1d015cd8:	21200002 	move	a0,s0
1d015cdc:	21286002 	move	a1,s3
1d015ce0:	ef53400f 	jal	0x1d014fbc
1d015ce4:	21304000 	move	a2,v0
1d015ce8:	44004050 	beqzl	v0,0x1d015dfc
1d015cec:	0b807302 	movn	s0,s3,s3
1d015cf0:	ea54400f 	jal	0x1d0153a8
1d015cf4:	00000000 	nop
1d015cf8:	21200002 	move	a0,s0
1d015cfc:	21286002 	move	a1,s3
1d015d00:	1154400f 	jal	0x1d015044
1d015d04:	21304000 	move	a2,v0
1d015d08:	3c004050 	beqzl	v0,0x1d015dfc
1d015d0c:	0b807302 	movn	s0,s3,s3
1d015d10:	21200002 	move	a0,s0
1d015d14:	21286002 	move	a1,s3
1d015d18:	01a0023c 	lui	v0,0xa001
1d015d1c:	4754400f 	jal	0x1d01511c
1d015d20:	183b4624 	addiu	a2,v0,15128
1d015d24:	35004050 	beqzl	v0,0x1d015dfc
1d015d28:	0b807302 	movn	s0,s3,s3
1d015d2c:	21200002 	move	a0,s0
1d015d30:	21286002 	move	a1,s3
1d015d34:	01a0023c 	lui	v0,0xa001
1d015d38:	6b54400f 	jal	0x1d0151ac
1d015d3c:	183b4624 	addiu	a2,v0,15128
1d015d40:	2e004050 	beqzl	v0,0x1d015dfc
1d015d44:	0b807302 	movn	s0,s3,s3
1d015d48:	21200002 	move	a0,s0
1d015d4c:	9e55400f 	jal	0x1d015678
1d015d50:	21286002 	move	a1,s3
1d015d54:	29004050 	beqzl	v0,0x1d015dfc
1d015d58:	0b807302 	movn	s0,s3,s3
1d015d5c:	1800a0af 	sw	zero,24(sp)
1d015d60:	21200002 	move	a0,s0
1d015d64:	21286002 	move	a1,s3
1d015d68:	2000a68f 	lw	a2,32(sp)
1d015d6c:	b653400f 	jal	0x1d014ed8
1d015d70:	1800a727 	addiu	a3,sp,24
1d015d74:	20004010 	beqz	v0,0x1d015df8
1d015d78:	21904000 	move	s2,v0
1d015d7c:	21200002 	move	a0,s0
1d015d80:	029d023c 	lui	v0,0x9d02
1d015d84:	3489400f 	jal	0x1d0224d0
1d015d88:	68094524 	addiu	a1,v0,2408
1d015d8c:	03006012 	beqz	s3,0x1d015d9c
1d015d90:	2b186202 	sltu	v1,s3,v0
1d015d94:	6d006014 	bnez	v1,0x1d015f4c
1d015d98:	21200002 	move	a0,s0
1d015d9c:	17004054 	bnezl	v0,0x1d015dfc
1d015da0:	0b807302 	movn	s0,s3,s3
1d015da4:	21200002 	move	a0,s0
1d015da8:	029d053c 	lui	a1,0x9d02
1d015dac:	3489400f 	jal	0x1d0224d0
1d015db0:	5409a524 	addiu	a1,a1,2388
1d015db4:	03006012 	beqz	s3,0x1d015dc4
1d015db8:	2b186202 	sltu	v1,s3,v0
1d015dbc:	04006014 	bnez	v1,0x1d015dd0
1d015dc0:	1800a68f 	lw	a2,24(sp)
1d015dc4:	0d004054 	bnezl	v0,0x1d015dfc
1d015dc8:	0b807302 	movn	s0,s3,s3
1d015dcc:	1800a68f 	lw	a2,24(sp)
1d015dd0:	1200c22c 	sltiu	v0,a2,18
1d015dd4:	09004050 	beqzl	v0,0x1d015dfc
1d015dd8:	0b807302 	movn	s0,s3,s3
1d015ddc:	01a0043c 	lui	a0,0xa001
1d015de0:	403b8424 	addiu	a0,a0,15168
1d015de4:	ba89400f 	jal	0x1d0226e8
1d015de8:	21284002 	move	a1,s2
1d015dec:	01a0043c 	lui	a0,0xa001
1d015df0:	7e55400f 	jal	0x1d0155f8
1d015df4:	003b8424 	addiu	a0,a0,15104
1d015df8:	0b807302 	movn	s0,s3,s3
1d015dfc:	00000292 	lbu	v0,0(s0)
1d015e00:	ffff4324 	addiu	v1,v0,-1
1d015e04:	ff006330 	andi	v1,v1,0xff
1d015e08:	7e00632c 	sltiu	v1,v1,126
1d015e0c:	13006010 	beqz	v1,0x1d015e5c
1d015e10:	0a000324 	li	v1,10
1d015e14:	21980002 	move	s3,s0
1d015e18:	07004314 	bne	v0,v1,0x1d015e38
1d015e1c:	0a000424 	li	a0,10
1d015e20:	9857400b 	j	0x1d015e60
1d015e24:	01007326 	addiu	s3,s3,1
1d015e28:	04004414 	bne	v0,a0,0x1d015e3c
1d015e2c:	01007326 	addiu	s3,s3,1
1d015e30:	9957400b 	j	0x1d015e64
1d015e34:	21900002 	move	s2,s0
1d015e38:	01007326 	addiu	s3,s3,1
1d015e3c:	00006292 	lbu	v0,0(s3)
1d015e40:	ffff4324 	addiu	v1,v0,-1
1d015e44:	ff006330 	andi	v1,v1,0xff
1d015e48:	7e00632c 	sltiu	v1,v1,126
1d015e4c:	f6ff6014 	bnez	v1,0x1d015e28
1d015e50:	21900002 	move	s2,s0
1d015e54:	9957400b 	j	0x1d015e64
1d015e58:	00000000 	nop
1d015e5c:	21980002 	move	s3,s0
1d015e60:	21900002 	move	s2,s0
1d015e64:	90fe7016 	bne	s3,s0,0x1d0158a8
1d015e68:	01a0023c 	lui	v0,0xa001
1d015e6c:	183b4290 	lbu	v0,15128(v0)
1d015e70:	05004014 	bnez	v0,0x1d015e88
1d015e74:	01000224 	li	v0,1
1d015e78:	50808293 	lbu	v0,-32688(gp)
1d015e7c:	04004054 	bnezl	v0,0x1d015e90
1d015e80:	4e8080a3 	sb	zero,-32690(gp)
1d015e84:	01000224 	li	v0,1
1d015e88:	4f8082a3 	sb	v0,-32689(gp)
1d015e8c:	4e8080a3 	sb	zero,-32690(gp)
1d015e90:	01a0023c 	lui	v0,0xa001
1d015e94:	583b428c 	lw	v0,15192(v0)
1d015e98:	06004014 	bnez	v0,0x1d015eb4
1d015e9c:	01a0023c 	lui	v0,0xa001
1d015ea0:	8f53400f 	jal	0x1d014e3c
1d015ea4:	21200000 	move	a0,zero
1d015ea8:	01a0033c 	lui	v1,0xa001
1d015eac:	583b62ac 	sw	v0,15192(v1)
1d015eb0:	01a0023c 	lui	v0,0xa001
1d015eb4:	553b4390 	lbu	v1,15189(v0)
1d015eb8:	4e808293 	lbu	v0,-32690(gp)
1d015ebc:	25106200 	or	v0,v1,v0
1d015ec0:	d857400b 	j	0x1d015f60
1d015ec4:	4e8082a3 	sb	v0,-32690(gp)
1d015ec8:	ea54400f 	jal	0x1d0153a8
1d015ecc:	00000000 	nop
1d015ed0:	21200002 	move	a0,s0
1d015ed4:	21286002 	move	a1,s3
1d015ed8:	ef53400f 	jal	0x1d014fbc
1d015edc:	21304000 	move	a2,v0
1d015ee0:	c6ff4050 	beqzl	v0,0x1d015dfc
1d015ee4:	0b807302 	movn	s0,s3,s3
1d015ee8:	7b56400b 	j	0x1d0159ec
1d015eec:	00000000 	nop
1d015ef0:	3489400f 	jal	0x1d0224d0
1d015ef4:	2000a58f 	lw	a1,32(sp)
1d015ef8:	71ff6016 	bnez	s3,0x1d015cc0
1d015efc:	2b186202 	sltu	v1,s3,v0
1d015f00:	3257400b 	j	0x1d015cc8
1d015f04:	00000000 	nop
1d015f08:	21200002 	move	a0,s0
1d015f0c:	9e55400f 	jal	0x1d015678
1d015f10:	21286002 	move	a1,s3
1d015f14:	b9ff4050 	beqzl	v0,0x1d015dfc
1d015f18:	0b807302 	movn	s0,s3,s3
1d015f1c:	a856400b 	j	0x1d015aa0
1d015f20:	1c00a0af 	sw	zero,28(sp)
1d015f24:	21200002 	move	a0,s0
1d015f28:	21286002 	move	a1,s3
1d015f2c:	029d023c 	lui	v0,0x9d02
1d015f30:	68094624 	addiu	a2,v0,2408
1d015f34:	b653400f 	jal	0x1d014ed8
1d015f38:	1800a727 	addiu	a3,sp,24
1d015f3c:	9ffe4014 	bnez	v0,0x1d0159bc
1d015f40:	08000324 	li	v1,8
1d015f44:	bc57400b 	j	0x1d015ef0
1d015f48:	21200002 	move	a0,s0
1d015f4c:	029d053c 	lui	a1,0x9d02
1d015f50:	3489400f 	jal	0x1d0224d0
1d015f54:	5409a524 	addiu	a1,a1,2388
1d015f58:	6f57400b 	j	0x1d015dbc
1d015f5c:	2b186202 	sltu	v1,s3,v0
1d015f60:	4c00bf8f 	lw	ra,76(sp)
1d015f64:	4800be8f 	lw	s8,72(sp)
1d015f68:	4400b78f 	lw	s7,68(sp)
1d015f6c:	4000b68f 	lw	s6,64(sp)
1d015f70:	3c00b58f 	lw	s5,60(sp)
1d015f74:	3800b48f 	lw	s4,56(sp)
1d015f78:	3400b38f 	lw	s3,52(sp)
1d015f7c:	3000b28f 	lw	s2,48(sp)
1d015f80:	2c00b18f 	lw	s1,44(sp)
1d015f84:	2800b08f 	lw	s0,40(sp)
1d015f88:	0800e003 	jr	ra
1d015f8c:	5000bd27 	addiu	sp,sp,80
1d015f90:	c0ffbd27 	addiu	sp,sp,-64
1d015f94:	3c00bfaf 	sw	ra,60(sp)
1d015f98:	3800beaf 	sw	s8,56(sp)
1d015f9c:	3400b7af 	sw	s7,52(sp)
1d015fa0:	3000b6af 	sw	s6,48(sp)
1d015fa4:	2c00b5af 	sw	s5,44(sp)
1d015fa8:	2800b4af 	sw	s4,40(sp)
1d015fac:	2400b3af 	sw	s3,36(sp)
1d015fb0:	2000b2af 	sw	s2,32(sp)
1d015fb4:	1c00b1af 	sw	s1,28(sp)
1d015fb8:	1800b0af 	sw	s0,24(sp)
1d015fbc:	21b8a000 	move	s7,a1
1d015fc0:	810fa22c 	sltiu	v0,a1,3969
1d015fc4:	de004010 	beqz	v0,0x1d016340
1d015fc8:	21180000 	move	v1,zero
1d015fcc:	21808000 	move	s0,a0
1d015fd0:	21b0a000 	move	s6,a1
1d015fd4:	079d023c 	lui	v0,0x9d07
1d015fd8:	80ff4234 	ori	v0,v0,0xff80
1d015fdc:	01a0033c 	lui	v1,0xa001
1d015fe0:	803a6324 	addiu	v1,v1,14976
1d015fe4:	089d043c 	lui	a0,0x9d08
1d015fe8:	0000488c 	lw	t0,0(v0)
1d015fec:	0400478c 	lw	a3,4(v0)
1d015ff0:	0800468c 	lw	a2,8(v0)
1d015ff4:	0c00458c 	lw	a1,12(v0)
1d015ff8:	000068ac 	sw	t0,0(v1)
1d015ffc:	040067ac 	sw	a3,4(v1)
1d016000:	080066ac 	sw	a2,8(v1)
1d016004:	0c0065ac 	sw	a1,12(v1)
1d016008:	10004224 	addiu	v0,v0,16
1d01600c:	f6ff4414 	bne	v0,a0,0x1d015fe8
1d016010:	10006324 	addiu	v1,v1,16
1d016014:	c073400f 	jal	0x1d01cf00
1d016018:	00000000 	nop
1d01601c:	c8004014 	bnez	v0,0x1d016340
1d016020:	21180000 	move	v1,zero
1d016024:	079d123c 	lui	s2,0x9d07
1d016028:	e68a400f 	jal	0x1d022b98
1d01602c:	00f04436 	ori	a0,s2,0xf000
1d016030:	01005e2c 	sltiu	s8,v0,1
1d016034:	21980000 	move	s3,zero
1d016038:	80ff5236 	ori	s2,s2,0xff80
1d01603c:	01a0113c 	lui	s1,0xa001
1d016040:	803a3126 	addiu	s1,s1,14976
1d016044:	ffff1524 	li	s5,-1
1d016048:	01a0143c 	lui	s4,0xa001
1d01604c:	003b9426 	addiu	s4,s4,15104
1d016050:	0000258e 	lw	a1,0(s1)
1d016054:	0300b510 	beq	a1,s5,0x1d016064
1d016058:	21100000 	move	v0,zero
1d01605c:	c48a400f 	jal	0x1d022b10
1d016060:	21204002 	move	a0,s2
1d016064:	25986202 	or	s3,s3,v0
1d016068:	04003126 	addiu	s1,s1,4
1d01606c:	f8ff3416 	bne	s1,s4,0x1d016050
1d016070:	04005226 	addiu	s2,s2,4
1d016074:	079d043c 	lui	a0,0x9d07
1d016078:	7cff8434 	ori	a0,a0,0xff7c
1d01607c:	ff00053c 	lui	a1,0xff
1d016080:	c48a400f 	jal	0x1d022b10
1d016084:	ffffa534 	ori	a1,a1,0xffff
1d016088:	0100732e 	sltiu	s3,s3,1
1d01608c:	0100422c 	sltiu	v0,v0,1
1d016090:	24986202 	and	s3,s3,v0
1d016094:	2498d303 	and	s3,s8,s3
1d016098:	a000c012 	beqz	s6,0x1d01631c
1d01609c:	1000b3af 	sw	s3,16(sp)
1d0160a0:	03000232 	andi	v0,s0,0x3
1d0160a4:	37004010 	beqz	v0,0x1d016184
1d0160a8:	2198e002 	move	s3,s7
1d0160ac:	21900000 	move	s2,zero
1d0160b0:	079d113c 	lui	s1,0x9d07
1d0160b4:	00f03136 	ori	s1,s1,0xf000
1d0160b8:	01001524 	li	s5,1
1d0160bc:	ffff1e3c 	lui	s8,0xffff
1d0160c0:	ff00de27 	addiu	s8,s8,255
1d0160c4:	00ff163c 	lui	s6,0xff00
1d0160c8:	ffffd636 	ori	s6,s6,0xffff
1d0160cc:	01001026 	addiu	s0,s0,1
1d0160d0:	ffff0592 	lbu	a1,-1(s0)
1d0160d4:	01003126 	addiu	s1,s1,1
1d0160d8:	ffff2426 	addiu	a0,s1,-1
1d0160dc:	03008230 	andi	v0,a0,0x3
1d0160e0:	10005510 	beq	v0,s5,0x1d016124
1d0160e4:	21a02002 	move	s4,s1
1d0160e8:	02004328 	slti	v1,v0,2
1d0160ec:	05006010 	beqz	v1,0x1d016104
1d0160f0:	02000324 	li	v1,2
1d0160f4:	09004050 	beqzl	v0,0x1d01611c
1d0160f8:	00ff0224 	li	v0,-256
1d0160fc:	5258400b 	j	0x1d016148
1d016100:	21280000 	move	a1,zero
1d016104:	0a004310 	beq	v0,v1,0x1d016130
1d016108:	03000324 	li	v1,3
1d01610c:	0b004350 	beql	v0,v1,0x1d01613c
1d016110:	002e0500 	sll	a1,a1,0x18
1d016114:	5258400b 	j	0x1d016148
1d016118:	21280000 	move	a1,zero
1d01611c:	5258400b 	j	0x1d016148
1d016120:	2528a200 	or	a1,a1,v0
1d016124:	002a0500 	sll	a1,a1,0x8
1d016128:	5258400b 	j	0x1d016148
1d01612c:	2528be00 	or	a1,a1,s8
1d016130:	002c0500 	sll	a1,a1,0x10
1d016134:	5258400b 	j	0x1d016148
1d016138:	2528b600 	or	a1,a1,s6
1d01613c:	ff00023c 	lui	v0,0xff
1d016140:	ffff4234 	ori	v0,v0,0xffff
1d016144:	2528a200 	or	a1,a1,v0
1d016148:	ffff0324 	li	v1,-1
1d01614c:	0300a310 	beq	a1,v1,0x1d01615c
1d016150:	21100000 	move	v0,zero
1d016154:	c48a400f 	jal	0x1d022b10
1d016158:	0408047c 	ins	a0,zero,0x0,0x2
1d01615c:	2b100200 	sltu	v0,zero,v0
1d016160:	ffff7326 	addiu	s3,s3,-1
1d016164:	22006012 	beqz	s3,0x1d0161f0
1d016168:	25904202 	or	s2,s2,v0
1d01616c:	25a01402 	or	s4,s0,s4
1d016170:	03009432 	andi	s4,s4,0x3
1d016174:	d6ff8056 	bnezl	s4,0x1d0160d0
1d016178:	01001026 	addiu	s0,s0,1
1d01617c:	6558400b 	j	0x1d016194
1d016180:	0400622e 	sltiu	v0,s3,4
1d016184:	21900000 	move	s2,zero
1d016188:	079d113c 	lui	s1,0x9d07
1d01618c:	00f03136 	ori	s1,s1,0xf000
1d016190:	0400622e 	sltiu	v0,s3,4
1d016194:	17004054 	bnezl	v0,0x1d0161f4
1d016198:	02000224 	li	v0,2
1d01619c:	21a86002 	move	s5,s3
1d0161a0:	21b02002 	move	s6,s1
1d0161a4:	21a00002 	move	s4,s0
1d0161a8:	ffff1e24 	li	s8,-1
1d0161ac:	0000858e 	lw	a1,0(s4)
1d0161b0:	0300be10 	beq	a1,s8,0x1d0161c0
1d0161b4:	21100000 	move	v0,zero
1d0161b8:	c48a400f 	jal	0x1d022b10
1d0161bc:	2120c002 	move	a0,s6
1d0161c0:	25904202 	or	s2,s2,v0
1d0161c4:	0400d626 	addiu	s6,s6,4
1d0161c8:	fcffb526 	addiu	s5,s5,-4
1d0161cc:	0400a22e 	sltiu	v0,s5,4
1d0161d0:	f6ff4010 	beqz	v0,0x1d0161ac
1d0161d4:	04009426 	addiu	s4,s4,4
1d0161d8:	fcff6226 	addiu	v0,s3,-4
1d0161dc:	0408027c 	ins	v0,zero,0x0,0x2
1d0161e0:	04004224 	addiu	v0,v0,4
1d0161e4:	21882202 	addu	s1,s1,v0
1d0161e8:	21800202 	addu	s0,s0,v0
1d0161ec:	03007332 	andi	s3,s3,0x3
1d0161f0:	02000224 	li	v0,2
1d0161f4:	12006252 	beql	s3,v0,0x1d016240
1d0161f8:	0000058e 	lw	a1,0(s0)
1d0161fc:	03000224 	li	v0,3
1d016200:	06006252 	beql	s3,v0,0x1d01621c
1d016204:	0000058e 	lw	a1,0(s0)
1d016208:	01000224 	li	v0,1
1d01620c:	1e006256 	bnel	s3,v0,0x1d016288
1d016210:	0100522e 	sltiu	s2,s2,1
1d016214:	9958400b 	j	0x1d016264
1d016218:	0000058e 	lw	a1,0(s0)
1d01621c:	00ff023c 	lui	v0,0xff00
1d016220:	2528a200 	or	a1,a1,v0
1d016224:	ffff0324 	li	v1,-1
1d016228:	0300a310 	beq	a1,v1,0x1d016238
1d01622c:	21100000 	move	v0,zero
1d016230:	c48a400f 	jal	0x1d022b10
1d016234:	21202002 	move	a0,s1
1d016238:	a158400b 	j	0x1d016284
1d01623c:	25904202 	or	s2,s2,v0
1d016240:	ffff023c 	lui	v0,0xffff
1d016244:	2528a200 	or	a1,a1,v0
1d016248:	ffff0324 	li	v1,-1
1d01624c:	0300a310 	beq	a1,v1,0x1d01625c
1d016250:	21100000 	move	v0,zero
1d016254:	c48a400f 	jal	0x1d022b10
1d016258:	21202002 	move	a0,s1
1d01625c:	a158400b 	j	0x1d016284
1d016260:	25904202 	or	s2,s2,v0
1d016264:	00ff0224 	li	v0,-256
1d016268:	2528a200 	or	a1,a1,v0
1d01626c:	ffff0324 	li	v1,-1
1d016270:	0300a310 	beq	a1,v1,0x1d016280
1d016274:	21100000 	move	v0,zero
1d016278:	c48a400f 	jal	0x1d022b10
1d01627c:	21202002 	move	a0,s1
1d016280:	25904202 	or	s2,s2,v0
1d016284:	0100522e 	sltiu	s2,s2,1
1d016288:	1000a28f 	lw	v0,16(sp)
1d01628c:	24905200 	and	s2,v0,s2
1d016290:	800fe22a 	slti	v0,s7,3968
1d016294:	2a004010 	beqz	v0,0x1d016340
1d016298:	21184002 	move	v1,s2
1d01629c:	079d023c 	lui	v0,0x9d07
1d0162a0:	00f04234 	ori	v0,v0,0xf000
1d0162a4:	21b8e202 	addu	s7,s7,v0
1d0162a8:	0300e232 	andi	v0,s7,0x3
1d0162ac:	01000324 	li	v1,1
1d0162b0:	1f004310 	beq	v0,v1,0x1d016330
1d0162b4:	ffff053c 	lui	a1,0xffff
1d0162b8:	02004328 	slti	v1,v0,2
1d0162bc:	05006010 	beqz	v1,0x1d0162d4
1d0162c0:	02000324 	li	v1,2
1d0162c4:	1b004010 	beqz	v0,0x1d016334
1d0162c8:	00ff0524 	li	a1,-256
1d0162cc:	c058400b 	j	0x1d016300
1d0162d0:	fcff0224 	li	v0,-4
1d0162d4:	06004310 	beq	v0,v1,0x1d0162f0
1d0162d8:	00ff053c 	lui	a1,0xff00
1d0162dc:	03000324 	li	v1,3
1d0162e0:	05004310 	beq	v0,v1,0x1d0162f8
1d0162e4:	ff00053c 	lui	a1,0xff
1d0162e8:	c058400b 	j	0x1d016300
1d0162ec:	fcff0224 	li	v0,-4
1d0162f0:	cd58400b 	j	0x1d016334
1d0162f4:	ffffa534 	ori	a1,a1,0xffff
1d0162f8:	cd58400b 	j	0x1d016334
1d0162fc:	ffffa534 	ori	a1,a1,0xffff
1d016300:	2420e202 	and	a0,s7,v0
1d016304:	21280000 	move	a1,zero
1d016308:	c48a400f 	jal	0x1d022b10
1d01630c:	00000000 	nop
1d016310:	0100422c 	sltiu	v0,v0,1
1d016314:	d058400b 	j	0x1d016340
1d016318:	24184202 	and	v1,s2,v0
1d01631c:	2198e002 	move	s3,s7
1d016320:	21900000 	move	s2,zero
1d016324:	079d113c 	lui	s1,0x9d07
1d016328:	7c58400b 	j	0x1d0161f0
1d01632c:	00f03136 	ori	s1,s1,0xf000
1d016330:	ff00a524 	addiu	a1,a1,255
1d016334:	fcff0224 	li	v0,-4
1d016338:	c258400b 	j	0x1d016308
1d01633c:	2420e202 	and	a0,s7,v0
1d016340:	21106000 	move	v0,v1
1d016344:	3c00bf8f 	lw	ra,60(sp)
1d016348:	3800be8f 	lw	s8,56(sp)
1d01634c:	3400b78f 	lw	s7,52(sp)
1d016350:	3000b68f 	lw	s6,48(sp)
1d016354:	2c00b58f 	lw	s5,44(sp)
1d016358:	2800b48f 	lw	s4,40(sp)
1d01635c:	2400b38f 	lw	s3,36(sp)
1d016360:	2000b28f 	lw	s2,32(sp)
1d016364:	1c00b18f 	lw	s1,28(sp)
1d016368:	1800b08f 	lw	s0,24(sp)
1d01636c:	0800e003 	jr	ra
1d016370:	4000bd27 	addiu	sp,sp,64
1d016374:	e8ffbd27 	addiu	sp,sp,-24
1d016378:	1400bfaf 	sw	ra,20(sp)
1d01637c:	1000b0af 	sw	s0,16(sp)
1d016380:	f884400f 	jal	0x1d0213e0
1d016384:	21808000 	move	s0,a0
1d016388:	21200002 	move	a0,s0
1d01638c:	e457400f 	jal	0x1d015f90
1d016390:	01004524 	addiu	a1,v0,1
1d016394:	1400bf8f 	lw	ra,20(sp)
1d016398:	1000b08f 	lw	s0,16(sp)
1d01639c:	0800e003 	jr	ra
1d0163a0:	1800bd27 	addiu	sp,sp,24
1d0163a4:	80100400 	sll	v0,a0,0x2
1d0163a8:	00190400 	sll	v1,a0,0x4
1d0163ac:	23106200 	subu	v0,v1,v0
1d0163b0:	23104400 	subu	v0,v0,a0
1d0163b4:	80100200 	sll	v0,v0,0x2
1d0163b8:	01a0033c 	lui	v1,0xa001
1d0163bc:	c8366324 	addiu	v1,v1,14024
1d0163c0:	21104300 	addu	v0,v0,v1
1d0163c4:	0800438c 	lw	v1,8(v0)
1d0163c8:	0800632c 	sltiu	v1,v1,8
1d0163cc:	e3016010 	beqz	v1,0x1d016b5c
1d0163d0:	ff00a630 	andi	a2,a1,0xff
1d0163d4:	0800438c 	lw	v1,8(v0)
1d0163d8:	80180300 	sll	v1,v1,0x2
1d0163dc:	019d023c 	lui	v0,0x9d01
1d0163e0:	f4634224 	addiu	v0,v0,25588
1d0163e4:	21104300 	addu	v0,v0,v1
1d0163e8:	0000428c 	lw	v0,0(v0)
1d0163ec:	08004000 	jr	v0
1d0163f0:	00000000 	nop
1d0163f4:	1464019d 	0x9d016414
1d0163f8:	2065019d 	0x9d016520
1d0163fc:	6065019d 	0x9d016560
1d016400:	6066019d 	0x9d016660
1d016404:	5c67019d 	0x9d01675c
1d016408:	5c68019d 	0x9d01685c
1d01640c:	5c69019d 	0x9d01695c
1d016410:	5c6a019d 	0x9d016a5c
1d016414:	2138a000 	move	a3,a1
1d016418:	0c00832c 	sltiu	v1,a0,12
1d01641c:	d0016010 	beqz	v1,0x1d016b60
1d016420:	21100000 	move	v0,zero
1d016424:	80180400 	sll	v1,a0,0x2
1d016428:	00110400 	sll	v0,a0,0x4
1d01642c:	23184300 	subu	v1,v0,v1
1d016430:	23186400 	subu	v1,v1,a0
1d016434:	80180300 	sll	v1,v1,0x2
1d016438:	01a0023c 	lui	v0,0xa001
1d01643c:	c8364224 	addiu	v0,v0,14024
1d016440:	21104300 	addu	v0,v0,v1
1d016444:	1400438c 	lw	v1,20(v0)
1d016448:	33006010 	beqz	v1,0x1d016518
1d01644c:	80300400 	sll	a2,a0,0x2
1d016450:	00110400 	sll	v0,a0,0x4
1d016454:	23304600 	subu	a2,v0,a2
1d016458:	2330c400 	subu	a2,a2,a0
1d01645c:	80300600 	sll	a2,a2,0x2
1d016460:	01a0023c 	lui	v0,0xa001
1d016464:	c8364224 	addiu	v0,v0,14024
1d016468:	2110c200 	addu	v0,a2,v0
1d01646c:	1000488c 	lw	t0,16(v0)
1d016470:	1d000011 	beqz	t0,0x1d0164e8
1d016474:	01a0023c 	lui	v0,0xa001
1d016478:	0000628c 	lw	v0,0(v1)
1d01647c:	16004554 	bnel	v0,a1,0x1d0164d8
1d016480:	21100000 	move	v0,zero
1d016484:	2759400b 	j	0x1d01649c
1d016488:	80100400 	sll	v0,a0,0x2
1d01648c:	0000668c 	lw	a2,0(v1)
1d016490:	1200c754 	bnel	a2,a3,0x1d0164dc
1d016494:	01004224 	addiu	v0,v0,1
1d016498:	80100400 	sll	v0,a0,0x2
1d01649c:	00190400 	sll	v1,a0,0x4
1d0164a0:	23106200 	subu	v0,v1,v0
1d0164a4:	23304400 	subu	a2,v0,a0
1d0164a8:	80300600 	sll	a2,a2,0x2
1d0164ac:	01a0033c 	lui	v1,0xa001
1d0164b0:	cc366324 	addiu	v1,v1,14028
1d0164b4:	21186600 	addu	v1,v1,a2
1d0164b8:	180065ac 	sw	a1,24(v1)
1d0164bc:	01a0033c 	lui	v1,0xa001
1d0164c0:	c8366324 	addiu	v1,v1,14024
1d0164c4:	2110c300 	addu	v0,a2,v1
1d0164c8:	01000324 	li	v1,1
1d0164cc:	180043a0 	sb	v1,24(v0)
1d0164d0:	0800e003 	jr	ra
1d0164d4:	01000224 	li	v0,1
1d0164d8:	01004224 	addiu	v0,v0,1
1d0164dc:	ebff4814 	bne	v0,t0,0x1d01648c
1d0164e0:	08006324 	addiu	v1,v1,8
1d0164e4:	01a0023c 	lui	v0,0xa001
1d0164e8:	c8364224 	addiu	v0,v0,14024
1d0164ec:	80180400 	sll	v1,a0,0x2
1d0164f0:	00290400 	sll	a1,a0,0x4
1d0164f4:	2318a300 	subu	v1,a1,v1
1d0164f8:	23286400 	subu	a1,v1,a0
1d0164fc:	80280500 	sll	a1,a1,0x2
1d016500:	21284500 	addu	a1,v0,a1
1d016504:	2800a68c 	lw	a2,40(a1)
1d016508:	1c00a6ac 	sw	a2,28(a1)
1d01650c:	1800a0a0 	sb	zero,24(a1)
1d016510:	0800e003 	jr	ra
1d016514:	21100000 	move	v0,zero
1d016518:	0800e003 	jr	ra
1d01651c:	21100000 	move	v0,zero
1d016520:	0c00832c 	sltiu	v1,a0,12
1d016524:	8e016010 	beqz	v1,0x1d016b60
1d016528:	21100000 	move	v0,zero
1d01652c:	80100400 	sll	v0,a0,0x2
1d016530:	00190400 	sll	v1,a0,0x4
1d016534:	23186200 	subu	v1,v1,v0
1d016538:	23286400 	subu	a1,v1,a0
1d01653c:	80280500 	sll	a1,a1,0x2
1d016540:	01a0023c 	lui	v0,0xa001
1d016544:	c8364224 	addiu	v0,v0,14024
1d016548:	2128a200 	addu	a1,a1,v0
1d01654c:	1c00a6a0 	sb	a2,28(a1)
1d016550:	01000324 	li	v1,1
1d016554:	1800a3a0 	sb	v1,24(a1)
1d016558:	0800e003 	jr	ra
1d01655c:	01000224 	li	v0,1
1d016560:	0c00832c 	sltiu	v1,a0,12
1d016564:	7e016010 	beqz	v1,0x1d016b60
1d016568:	21100000 	move	v0,zero
1d01656c:	2034067c 	seb	a2,a2
1d016570:	80180400 	sll	v1,a0,0x2
1d016574:	00110400 	sll	v0,a0,0x4
1d016578:	23184300 	subu	v1,v0,v1
1d01657c:	23186400 	subu	v1,v1,a0
1d016580:	80180300 	sll	v1,v1,0x2
1d016584:	01a0023c 	lui	v0,0xa001
1d016588:	c8364224 	addiu	v0,v0,14024
1d01658c:	21106200 	addu	v0,v1,v0
1d016590:	20004280 	lb	v0,32(v0)
1d016594:	2a18c200 	slt	v1,a2,v0
1d016598:	0d006010 	beqz	v1,0x1d0165d0
1d01659c:	80180400 	sll	v1,a0,0x2
1d0165a0:	00290400 	sll	a1,a0,0x4
1d0165a4:	2328a300 	subu	a1,a1,v1
1d0165a8:	2330a400 	subu	a2,a1,a0
1d0165ac:	80300600 	sll	a2,a2,0x2
1d0165b0:	01a0033c 	lui	v1,0xa001
1d0165b4:	c8366324 	addiu	v1,v1,14024
1d0165b8:	2130c300 	addu	a2,a2,v1
1d0165bc:	1c00c2a0 	sb	v0,28(a2)
1d0165c0:	01000224 	li	v0,1
1d0165c4:	1800c2a0 	sb	v0,24(a2)
1d0165c8:	0800e003 	jr	ra
1d0165cc:	21100000 	move	v0,zero
1d0165d0:	00110400 	sll	v0,a0,0x4
1d0165d4:	23184300 	subu	v1,v0,v1
1d0165d8:	23186400 	subu	v1,v1,a0
1d0165dc:	80180300 	sll	v1,v1,0x2
1d0165e0:	01a0023c 	lui	v0,0xa001
1d0165e4:	c8364224 	addiu	v0,v0,14024
1d0165e8:	21106200 	addu	v0,v1,v0
1d0165ec:	24004280 	lb	v0,36(v0)
1d0165f0:	2a184600 	slt	v1,v0,a2
1d0165f4:	0e006050 	beqzl	v1,0x1d016630
1d0165f8:	80100400 	sll	v0,a0,0x2
1d0165fc:	80180400 	sll	v1,a0,0x2
1d016600:	00290400 	sll	a1,a0,0x4
1d016604:	2328a300 	subu	a1,a1,v1
1d016608:	2330a400 	subu	a2,a1,a0
1d01660c:	80300600 	sll	a2,a2,0x2
1d016610:	01a0033c 	lui	v1,0xa001
1d016614:	c8366324 	addiu	v1,v1,14024
1d016618:	2130c300 	addu	a2,a2,v1
1d01661c:	1c00c2a0 	sb	v0,28(a2)
1d016620:	01000224 	li	v0,1
1d016624:	1800c2a0 	sb	v0,24(a2)
1d016628:	0800e003 	jr	ra
1d01662c:	21100000 	move	v0,zero
1d016630:	00190400 	sll	v1,a0,0x4
1d016634:	23186200 	subu	v1,v1,v0
1d016638:	23286400 	subu	a1,v1,a0
1d01663c:	80280500 	sll	a1,a1,0x2
1d016640:	01a0023c 	lui	v0,0xa001
1d016644:	c8364224 	addiu	v0,v0,14024
1d016648:	2128a200 	addu	a1,a1,v0
1d01664c:	1c00a6a0 	sb	a2,28(a1)
1d016650:	01000324 	li	v1,1
1d016654:	1800a3a0 	sb	v1,24(a1)
1d016658:	0800e003 	jr	ra
1d01665c:	01000224 	li	v0,1
1d016660:	0c00832c 	sltiu	v1,a0,12
1d016664:	3e016010 	beqz	v1,0x1d016b60
1d016668:	21100000 	move	v0,zero
1d01666c:	80180400 	sll	v1,a0,0x2
1d016670:	00110400 	sll	v0,a0,0x4
1d016674:	23184300 	subu	v1,v0,v1
1d016678:	23186400 	subu	v1,v1,a0
1d01667c:	80180300 	sll	v1,v1,0x2
1d016680:	01a0023c 	lui	v0,0xa001
1d016684:	c8364224 	addiu	v0,v0,14024
1d016688:	21106200 	addu	v0,v1,v0
1d01668c:	20004290 	lbu	v0,32(v0)
1d016690:	2b18c200 	sltu	v1,a2,v0
1d016694:	0d006010 	beqz	v1,0x1d0166cc
1d016698:	80180400 	sll	v1,a0,0x2
1d01669c:	00290400 	sll	a1,a0,0x4
1d0166a0:	2328a300 	subu	a1,a1,v1
1d0166a4:	2330a400 	subu	a2,a1,a0
1d0166a8:	80300600 	sll	a2,a2,0x2
1d0166ac:	01a0033c 	lui	v1,0xa001
1d0166b0:	c8366324 	addiu	v1,v1,14024
1d0166b4:	2130c300 	addu	a2,a2,v1
1d0166b8:	1c00c2a0 	sb	v0,28(a2)
1d0166bc:	01000224 	li	v0,1
1d0166c0:	1800c2a0 	sb	v0,24(a2)
1d0166c4:	0800e003 	jr	ra
1d0166c8:	21100000 	move	v0,zero
1d0166cc:	00110400 	sll	v0,a0,0x4
1d0166d0:	23184300 	subu	v1,v0,v1
1d0166d4:	23186400 	subu	v1,v1,a0
1d0166d8:	80180300 	sll	v1,v1,0x2
1d0166dc:	01a0023c 	lui	v0,0xa001
1d0166e0:	c8364224 	addiu	v0,v0,14024
1d0166e4:	21106200 	addu	v0,v1,v0
1d0166e8:	24004290 	lbu	v0,36(v0)
1d0166ec:	2b184600 	sltu	v1,v0,a2
1d0166f0:	0e006050 	beqzl	v1,0x1d01672c
1d0166f4:	80100400 	sll	v0,a0,0x2
1d0166f8:	80180400 	sll	v1,a0,0x2
1d0166fc:	00290400 	sll	a1,a0,0x4
1d016700:	2328a300 	subu	a1,a1,v1
1d016704:	2330a400 	subu	a2,a1,a0
1d016708:	80300600 	sll	a2,a2,0x2
1d01670c:	01a0033c 	lui	v1,0xa001
1d016710:	c8366324 	addiu	v1,v1,14024
1d016714:	2130c300 	addu	a2,a2,v1
1d016718:	1c00c2a0 	sb	v0,28(a2)
1d01671c:	01000224 	li	v0,1
1d016720:	1800c2a0 	sb	v0,24(a2)
1d016724:	0800e003 	jr	ra
1d016728:	21100000 	move	v0,zero
1d01672c:	00190400 	sll	v1,a0,0x4
1d016730:	23186200 	subu	v1,v1,v0
1d016734:	23286400 	subu	a1,v1,a0
1d016738:	80280500 	sll	a1,a1,0x2
1d01673c:	01a0023c 	lui	v0,0xa001
1d016740:	c8364224 	addiu	v0,v0,14024
1d016744:	2128a200 	addu	a1,a1,v0
1d016748:	1c00a6a0 	sb	a2,28(a1)
1d01674c:	01000324 	li	v1,1
1d016750:	1800a3a0 	sb	v1,24(a1)
1d016754:	0800e003 	jr	ra
1d016758:	01000224 	li	v0,1
1d01675c:	202e057c 	seh	a1,a1
1d016760:	0c00832c 	sltiu	v1,a0,12
1d016764:	fe006010 	beqz	v1,0x1d016b60
1d016768:	21100000 	move	v0,zero
1d01676c:	80180400 	sll	v1,a0,0x2
1d016770:	00110400 	sll	v0,a0,0x4
1d016774:	23184300 	subu	v1,v0,v1
1d016778:	23186400 	subu	v1,v1,a0
1d01677c:	80180300 	sll	v1,v1,0x2
1d016780:	01a0023c 	lui	v0,0xa001
1d016784:	c8364224 	addiu	v0,v0,14024
1d016788:	21106200 	addu	v0,v1,v0
1d01678c:	20004284 	lh	v0,32(v0)
1d016790:	2a18a200 	slt	v1,a1,v0
1d016794:	0d006010 	beqz	v1,0x1d0167cc
1d016798:	80180400 	sll	v1,a0,0x2
1d01679c:	00290400 	sll	a1,a0,0x4
1d0167a0:	2328a300 	subu	a1,a1,v1
1d0167a4:	2330a400 	subu	a2,a1,a0
1d0167a8:	80300600 	sll	a2,a2,0x2
1d0167ac:	01a0033c 	lui	v1,0xa001
1d0167b0:	c8366324 	addiu	v1,v1,14024
1d0167b4:	2130c300 	addu	a2,a2,v1
1d0167b8:	1c00c2a4 	sh	v0,28(a2)
1d0167bc:	01000224 	li	v0,1
1d0167c0:	1800c2a0 	sb	v0,24(a2)
1d0167c4:	0800e003 	jr	ra
1d0167c8:	21100000 	move	v0,zero
1d0167cc:	00110400 	sll	v0,a0,0x4
1d0167d0:	23184300 	subu	v1,v0,v1
1d0167d4:	23186400 	subu	v1,v1,a0
1d0167d8:	80180300 	sll	v1,v1,0x2
1d0167dc:	01a0023c 	lui	v0,0xa001
1d0167e0:	c8364224 	addiu	v0,v0,14024
1d0167e4:	21106200 	addu	v0,v1,v0
1d0167e8:	24004284 	lh	v0,36(v0)
1d0167ec:	2a184500 	slt	v1,v0,a1
1d0167f0:	0e006050 	beqzl	v1,0x1d01682c
1d0167f4:	80100400 	sll	v0,a0,0x2
1d0167f8:	80180400 	sll	v1,a0,0x2
1d0167fc:	00290400 	sll	a1,a0,0x4
1d016800:	2328a300 	subu	a1,a1,v1
1d016804:	2330a400 	subu	a2,a1,a0
1d016808:	80300600 	sll	a2,a2,0x2
1d01680c:	01a0033c 	lui	v1,0xa001
1d016810:	c8366324 	addiu	v1,v1,14024
1d016814:	2130c300 	addu	a2,a2,v1
1d016818:	1c00c2a4 	sh	v0,28(a2)
1d01681c:	01000224 	li	v0,1
1d016820:	1800c2a0 	sb	v0,24(a2)
1d016824:	0800e003 	jr	ra
1d016828:	21100000 	move	v0,zero
1d01682c:	00190400 	sll	v1,a0,0x4
1d016830:	23186200 	subu	v1,v1,v0
1d016834:	23306400 	subu	a2,v1,a0
1d016838:	80300600 	sll	a2,a2,0x2
1d01683c:	01a0023c 	lui	v0,0xa001
1d016840:	c8364224 	addiu	v0,v0,14024
1d016844:	2130c200 	addu	a2,a2,v0
1d016848:	1c00c5a4 	sh	a1,28(a2)
1d01684c:	01000324 	li	v1,1
1d016850:	1800c3a0 	sb	v1,24(a2)
1d016854:	0800e003 	jr	ra
1d016858:	01000224 	li	v0,1
1d01685c:	ffffa530 	andi	a1,a1,0xffff
1d016860:	0c00832c 	sltiu	v1,a0,12
1d016864:	be006010 	beqz	v1,0x1d016b60
1d016868:	21100000 	move	v0,zero
1d01686c:	80180400 	sll	v1,a0,0x2
1d016870:	00110400 	sll	v0,a0,0x4
1d016874:	23184300 	subu	v1,v0,v1
1d016878:	23186400 	subu	v1,v1,a0
1d01687c:	80180300 	sll	v1,v1,0x2
1d016880:	01a0023c 	lui	v0,0xa001
1d016884:	c8364224 	addiu	v0,v0,14024
1d016888:	21106200 	addu	v0,v1,v0
1d01688c:	20004294 	lhu	v0,32(v0)
1d016890:	2b18a200 	sltu	v1,a1,v0
1d016894:	0d006010 	beqz	v1,0x1d0168cc
1d016898:	80180400 	sll	v1,a0,0x2
1d01689c:	00290400 	sll	a1,a0,0x4
1d0168a0:	2328a300 	subu	a1,a1,v1
1d0168a4:	2330a400 	subu	a2,a1,a0
1d0168a8:	80300600 	sll	a2,a2,0x2
1d0168ac:	01a0033c 	lui	v1,0xa001
1d0168b0:	c8366324 	addiu	v1,v1,14024
1d0168b4:	2130c300 	addu	a2,a2,v1
1d0168b8:	1c00c2a4 	sh	v0,28(a2)
1d0168bc:	01000224 	li	v0,1
1d0168c0:	1800c2a0 	sb	v0,24(a2)
1d0168c4:	0800e003 	jr	ra
1d0168c8:	21100000 	move	v0,zero
1d0168cc:	00110400 	sll	v0,a0,0x4
1d0168d0:	23184300 	subu	v1,v0,v1
1d0168d4:	23186400 	subu	v1,v1,a0
1d0168d8:	80180300 	sll	v1,v1,0x2
1d0168dc:	01a0023c 	lui	v0,0xa001
1d0168e0:	c8364224 	addiu	v0,v0,14024
1d0168e4:	21106200 	addu	v0,v1,v0
1d0168e8:	24004294 	lhu	v0,36(v0)
1d0168ec:	2b184500 	sltu	v1,v0,a1
1d0168f0:	0e006050 	beqzl	v1,0x1d01692c
1d0168f4:	80100400 	sll	v0,a0,0x2
1d0168f8:	80180400 	sll	v1,a0,0x2
1d0168fc:	00290400 	sll	a1,a0,0x4
1d016900:	2328a300 	subu	a1,a1,v1
1d016904:	2330a400 	subu	a2,a1,a0
1d016908:	80300600 	sll	a2,a2,0x2
1d01690c:	01a0033c 	lui	v1,0xa001
1d016910:	c8366324 	addiu	v1,v1,14024
1d016914:	2130c300 	addu	a2,a2,v1
1d016918:	1c00c2a4 	sh	v0,28(a2)
1d01691c:	01000224 	li	v0,1
1d016920:	1800c2a0 	sb	v0,24(a2)
1d016924:	0800e003 	jr	ra
1d016928:	21100000 	move	v0,zero
1d01692c:	00190400 	sll	v1,a0,0x4
1d016930:	23186200 	subu	v1,v1,v0
1d016934:	23306400 	subu	a2,v1,a0
1d016938:	80300600 	sll	a2,a2,0x2
1d01693c:	01a0023c 	lui	v0,0xa001
1d016940:	c8364224 	addiu	v0,v0,14024
1d016944:	2130c200 	addu	a2,a2,v0
1d016948:	1c00c5a4 	sh	a1,28(a2)
1d01694c:	01000324 	li	v1,1
1d016950:	1800c3a0 	sb	v1,24(a2)
1d016954:	0800e003 	jr	ra
1d016958:	01000224 	li	v0,1
1d01695c:	0c00832c 	sltiu	v1,a0,12
1d016960:	7f006010 	beqz	v1,0x1d016b60
1d016964:	21100000 	move	v0,zero
1d016968:	80180400 	sll	v1,a0,0x2
1d01696c:	00110400 	sll	v0,a0,0x4
1d016970:	23184300 	subu	v1,v0,v1
1d016974:	23186400 	subu	v1,v1,a0
1d016978:	80180300 	sll	v1,v1,0x2
1d01697c:	01a0023c 	lui	v0,0xa001
1d016980:	c8364224 	addiu	v0,v0,14024
1d016984:	21106200 	addu	v0,v1,v0
1d016988:	2000428c 	lw	v0,32(v0)
1d01698c:	2a18a200 	slt	v1,a1,v0
1d016990:	0e006050 	beqzl	v1,0x1d0169cc
1d016994:	80100400 	sll	v0,a0,0x2
1d016998:	01a0033c 	lui	v1,0xa001
1d01699c:	c8366324 	addiu	v1,v1,14024
1d0169a0:	80280400 	sll	a1,a0,0x2
1d0169a4:	00310400 	sll	a2,a0,0x4
1d0169a8:	2328c500 	subu	a1,a2,a1
1d0169ac:	2330a400 	subu	a2,a1,a0
1d0169b0:	80300600 	sll	a2,a2,0x2
1d0169b4:	21306600 	addu	a2,v1,a2
1d0169b8:	1c00c2ac 	sw	v0,28(a2)
1d0169bc:	01000224 	li	v0,1
1d0169c0:	1800c2a0 	sb	v0,24(a2)
1d0169c4:	0800e003 	jr	ra
1d0169c8:	21100000 	move	v0,zero
1d0169cc:	00190400 	sll	v1,a0,0x4
1d0169d0:	23106200 	subu	v0,v1,v0
1d0169d4:	23104400 	subu	v0,v0,a0
1d0169d8:	80100200 	sll	v0,v0,0x2
1d0169dc:	01a0033c 	lui	v1,0xa001
1d0169e0:	c8366324 	addiu	v1,v1,14024
1d0169e4:	21106200 	addu	v0,v1,v0
1d0169e8:	2400428c 	lw	v0,36(v0)
1d0169ec:	2a184500 	slt	v1,v0,a1
1d0169f0:	0e006050 	beqzl	v1,0x1d016a2c
1d0169f4:	01a0023c 	lui	v0,0xa001
1d0169f8:	01a0033c 	lui	v1,0xa001
1d0169fc:	c8366324 	addiu	v1,v1,14024
1d016a00:	80280400 	sll	a1,a0,0x2
1d016a04:	00310400 	sll	a2,a0,0x4
1d016a08:	2328c500 	subu	a1,a2,a1
1d016a0c:	2330a400 	subu	a2,a1,a0
1d016a10:	80300600 	sll	a2,a2,0x2
1d016a14:	21306600 	addu	a2,v1,a2
1d016a18:	1c00c2ac 	sw	v0,28(a2)
1d016a1c:	01000224 	li	v0,1
1d016a20:	1800c2a0 	sb	v0,24(a2)
1d016a24:	0800e003 	jr	ra
1d016a28:	21100000 	move	v0,zero
1d016a2c:	c8364224 	addiu	v0,v0,14024
1d016a30:	80180400 	sll	v1,a0,0x2
1d016a34:	00310400 	sll	a2,a0,0x4
1d016a38:	2318c300 	subu	v1,a2,v1
1d016a3c:	23306400 	subu	a2,v1,a0
1d016a40:	80300600 	sll	a2,a2,0x2
1d016a44:	21304600 	addu	a2,v0,a2
1d016a48:	1c00c5ac 	sw	a1,28(a2)
1d016a4c:	01000324 	li	v1,1
1d016a50:	1800c3a0 	sb	v1,24(a2)
1d016a54:	0800e003 	jr	ra
1d016a58:	01000224 	li	v0,1
1d016a5c:	0c00832c 	sltiu	v1,a0,12
1d016a60:	3f006010 	beqz	v1,0x1d016b60
1d016a64:	21100000 	move	v0,zero
1d016a68:	80180400 	sll	v1,a0,0x2
1d016a6c:	00110400 	sll	v0,a0,0x4
1d016a70:	23184300 	subu	v1,v0,v1
1d016a74:	23186400 	subu	v1,v1,a0
1d016a78:	80180300 	sll	v1,v1,0x2
1d016a7c:	01a0023c 	lui	v0,0xa001
1d016a80:	c8364224 	addiu	v0,v0,14024
1d016a84:	21106200 	addu	v0,v1,v0
1d016a88:	2000428c 	lw	v0,32(v0)
1d016a8c:	2b18a200 	sltu	v1,a1,v0
1d016a90:	0e006050 	beqzl	v1,0x1d016acc
1d016a94:	80100400 	sll	v0,a0,0x2
1d016a98:	01a0033c 	lui	v1,0xa001
1d016a9c:	c8366324 	addiu	v1,v1,14024
1d016aa0:	80280400 	sll	a1,a0,0x2
1d016aa4:	00310400 	sll	a2,a0,0x4
1d016aa8:	2328c500 	subu	a1,a2,a1
1d016aac:	2330a400 	subu	a2,a1,a0
1d016ab0:	80300600 	sll	a2,a2,0x2
1d016ab4:	21306600 	addu	a2,v1,a2
1d016ab8:	1c00c2ac 	sw	v0,28(a2)
1d016abc:	01000224 	li	v0,1
1d016ac0:	1800c2a0 	sb	v0,24(a2)
1d016ac4:	0800e003 	jr	ra
1d016ac8:	21100000 	move	v0,zero
1d016acc:	00190400 	sll	v1,a0,0x4
1d016ad0:	23106200 	subu	v0,v1,v0
1d016ad4:	23104400 	subu	v0,v0,a0
1d016ad8:	80100200 	sll	v0,v0,0x2
1d016adc:	01a0033c 	lui	v1,0xa001
1d016ae0:	c8366324 	addiu	v1,v1,14024
1d016ae4:	21106200 	addu	v0,v1,v0
1d016ae8:	2400428c 	lw	v0,36(v0)
1d016aec:	2b184500 	sltu	v1,v0,a1
1d016af0:	0e006050 	beqzl	v1,0x1d016b2c
1d016af4:	01a0023c 	lui	v0,0xa001
1d016af8:	01a0033c 	lui	v1,0xa001
1d016afc:	c8366324 	addiu	v1,v1,14024
1d016b00:	80280400 	sll	a1,a0,0x2
1d016b04:	00310400 	sll	a2,a0,0x4
1d016b08:	2328c500 	subu	a1,a2,a1
1d016b0c:	2330a400 	subu	a2,a1,a0
1d016b10:	80300600 	sll	a2,a2,0x2
1d016b14:	21306600 	addu	a2,v1,a2
1d016b18:	1c00c2ac 	sw	v0,28(a2)
1d016b1c:	01000224 	li	v0,1
1d016b20:	1800c2a0 	sb	v0,24(a2)
1d016b24:	0800e003 	jr	ra
1d016b28:	21100000 	move	v0,zero
1d016b2c:	c8364224 	addiu	v0,v0,14024
1d016b30:	80180400 	sll	v1,a0,0x2
1d016b34:	00310400 	sll	a2,a0,0x4
1d016b38:	2318c300 	subu	v1,a2,v1
1d016b3c:	23306400 	subu	a2,v1,a0
1d016b40:	80300600 	sll	a2,a2,0x2
1d016b44:	21304600 	addu	a2,v0,a2
1d016b48:	1c00c5ac 	sw	a1,28(a2)
1d016b4c:	01000324 	li	v1,1
1d016b50:	1800c3a0 	sb	v1,24(a2)
1d016b54:	0800e003 	jr	ra
1d016b58:	01000224 	li	v0,1
1d016b5c:	21100000 	move	v0,zero
1d016b60:	0800e003 	jr	ra
1d016b64:	00000000 	nop
1d016b68:	a8ffbd27 	addiu	sp,sp,-88
1d016b6c:	5400bfaf 	sw	ra,84(sp)
1d016b70:	5000b0af 	sw	s0,80(sp)
1d016b74:	21808000 	move	s0,a0
1d016b78:	0c00842c 	sltiu	a0,a0,12
1d016b7c:	21100000 	move	v0,zero
1d016b80:	48008010 	beqz	a0,0x1d016ca4
1d016b84:	21180000 	move	v1,zero
1d016b88:	c0181000 	sll	v1,s0,0x3
1d016b8c:	01a0023c 	lui	v0,0xa001
1d016b90:	603b4224 	addiu	v0,v0,15200
1d016b94:	21186200 	addu	v1,v1,v0
1d016b98:	0000628c 	lw	v0,0(v1)
1d016b9c:	0400638c 	lw	v1,4(v1)
1d016ba0:	25104300 	or	v0,v0,v1
1d016ba4:	3a004054 	bnezl	v0,0x1d016c90
1d016ba8:	c0801000 	sll	s0,s0,0x3
1d016bac:	80181000 	sll	v1,s0,0x2
1d016bb0:	00111000 	sll	v0,s0,0x4
1d016bb4:	23184300 	subu	v1,v0,v1
1d016bb8:	23187000 	subu	v1,v1,s0
1d016bbc:	80180300 	sll	v1,v1,0x2
1d016bc0:	01a0023c 	lui	v0,0xa001
1d016bc4:	c8364224 	addiu	v0,v0,14024
1d016bc8:	21106200 	addu	v0,v1,v0
1d016bcc:	0800438c 	lw	v1,8(v0)
1d016bd0:	1000a3af 	sw	v1,16(sp)
1d016bd4:	0c00438c 	lw	v1,12(v0)
1d016bd8:	1400a3af 	sw	v1,20(sp)
1d016bdc:	1800a427 	addiu	a0,sp,24
1d016be0:	0000458c 	lw	a1,0(v0)
1d016be4:	ba89400f 	jal	0x1d0226e8
1d016be8:	30000624 	li	a2,48
1d016bec:	f884400f 	jal	0x1d0213e0
1d016bf0:	1800a427 	addiu	a0,sp,24
1d016bf4:	08004924 	addiu	t1,v0,8
1d016bf8:	21200000 	move	a0,zero
1d016bfc:	21280000 	move	a1,zero
1d016c00:	4800a4af 	sw	a0,72(sp)
1d016c04:	4c00a5af 	sw	a1,76(sp)
1d016c08:	1000aa93 	lbu	t2,16(sp)
1d016c0c:	21380000 	move	a3,zero
1d016c10:	029d053c 	lui	a1,0x9d02
1d016c14:	c0d2a524 	addiu	a1,a1,-11584
1d016c18:	0200292d 	sltiu	t1,t1,2
1d016c1c:	1800a327 	addiu	v1,sp,24
1d016c20:	21306200 	addu	a2,v1,v0
1d016c24:	08000824 	li	t0,8
1d016c28:	21104701 	addu	v0,t2,a3
1d016c2c:	ff004230 	andi	v0,v0,0xff
1d016c30:	21104500 	addu	v0,v0,a1
1d016c34:	08002015 	bnez	t1,0x1d016c58
1d016c38:	00004390 	lbu	v1,0(v0)
1d016c3c:	1100a227 	addiu	v0,sp,17
1d016c40:	00004490 	lbu	a0,0(v0)
1d016c44:	26186400 	xor	v1,v1,a0
1d016c48:	21186500 	addu	v1,v1,a1
1d016c4c:	01004224 	addiu	v0,v0,1
1d016c50:	fbff4614 	bne	v0,a2,0x1d016c40
1d016c54:	00006390 	lbu	v1,0(v1)
1d016c58:	4800a427 	addiu	a0,sp,72
1d016c5c:	21108700 	addu	v0,a0,a3
1d016c60:	0100e724 	addiu	a3,a3,1
1d016c64:	f0ffe814 	bne	a3,t0,0x1d016c28
1d016c68:	000043a0 	sb	v1,0(v0)
1d016c6c:	c0201000 	sll	a0,s0,0x3
1d016c70:	01a0023c 	lui	v0,0xa001
1d016c74:	603b4224 	addiu	v0,v0,15200
1d016c78:	21208200 	addu	a0,a0,v0
1d016c7c:	4800a28f 	lw	v0,72(sp)
1d016c80:	4c00a38f 	lw	v1,76(sp)
1d016c84:	000082ac 	sw	v0,0(a0)
1d016c88:	040083ac 	sw	v1,4(a0)
1d016c8c:	c0801000 	sll	s0,s0,0x3
1d016c90:	01a0023c 	lui	v0,0xa001
1d016c94:	603b4224 	addiu	v0,v0,15200
1d016c98:	21800202 	addu	s0,s0,v0
1d016c9c:	0000028e 	lw	v0,0(s0)
1d016ca0:	0400038e 	lw	v1,4(s0)
1d016ca4:	5400bf8f 	lw	ra,84(sp)
1d016ca8:	5000b08f 	lw	s0,80(sp)
1d016cac:	0800e003 	jr	ra
1d016cb0:	5800bd27 	addiu	sp,sp,88
1d016cb4:	c8ffbd27 	addiu	sp,sp,-56
1d016cb8:	3400bfaf 	sw	ra,52(sp)
1d016cbc:	3000b6af 	sw	s6,48(sp)
1d016cc0:	2c00b5af 	sw	s5,44(sp)
1d016cc4:	2800b4af 	sw	s4,40(sp)
1d016cc8:	2400b3af 	sw	s3,36(sp)
1d016ccc:	2000b2af 	sw	s2,32(sp)
1d016cd0:	1c00b1af 	sw	s1,28(sp)
1d016cd4:	1800b0af 	sw	s0,24(sp)
1d016cd8:	079d043c 	lui	a0,0x9d07
1d016cdc:	e68a400f 	jal	0x1d022b98
1d016ce0:	00e08434 	ori	a0,a0,0xe000
1d016ce4:	2c004014 	bnez	v0,0x1d016d98
1d016ce8:	21180000 	move	v1,zero
1d016cec:	585b400b 	j	0x1d016d60
1d016cf0:	079d043c 	lui	a0,0x9d07
1d016cf4:	da5a400f 	jal	0x1d016b68
1d016cf8:	21202002 	move	a0,s1
1d016cfc:	1000a2af 	sw	v0,16(sp)
1d016d00:	1400a3af 	sw	v1,20(sp)
1d016d04:	0000558e 	lw	s5,0(s2)
1d016d08:	21200002 	move	a0,s0
1d016d0c:	c48a400f 	jal	0x1d022b10
1d016d10:	21284000 	move	a1,v0
1d016d14:	21984000 	move	s3,v0
1d016d18:	04000426 	addiu	a0,s0,4
1d016d1c:	c48a400f 	jal	0x1d022b10
1d016d20:	1400a58f 	lw	a1,20(sp)
1d016d24:	21a04000 	move	s4,v0
1d016d28:	08000426 	addiu	a0,s0,8
1d016d2c:	c48a400f 	jal	0x1d022b10
1d016d30:	2128a002 	move	a1,s5
1d016d34:	25989302 	or	s3,s4,s3
1d016d38:	0100732e 	sltiu	s3,s3,1
1d016d3c:	0100422c 	sltiu	v0,v0,1
1d016d40:	24186202 	and	v1,s3,v0
1d016d44:	14006010 	beqz	v1,0x1d016d98
1d016d48:	0c001026 	addiu	s0,s0,12
1d016d4c:	01003126 	addiu	s1,s1,1
1d016d50:	e8ff1616 	bne	s0,s6,0x1d016cf4
1d016d54:	2c005226 	addiu	s2,s2,44
1d016d58:	675b400b 	j	0x1d016d9c
1d016d5c:	21106000 	move	v0,v1
1d016d60:	00e08434 	ori	a0,a0,0xe000
1d016d64:	7fe3053c 	lui	a1,0xe37f
1d016d68:	c48a400f 	jal	0x1d022b10
1d016d6c:	53c1a534 	ori	a1,a1,0xc153
1d016d70:	09004014 	bnez	v0,0x1d016d98
1d016d74:	21180000 	move	v1,zero
1d016d78:	01a0123c 	lui	s2,0xa001
1d016d7c:	e4365226 	addiu	s2,s2,14052
1d016d80:	21880000 	move	s1,zero
1d016d84:	079d103c 	lui	s0,0x9d07
1d016d88:	04e01036 	ori	s0,s0,0xe004
1d016d8c:	079d163c 	lui	s6,0x9d07
1d016d90:	3d5b400b 	j	0x1d016cf4
1d016d94:	94e0d636 	ori	s6,s6,0xe094
1d016d98:	21106000 	move	v0,v1
1d016d9c:	3400bf8f 	lw	ra,52(sp)
1d016da0:	3000b68f 	lw	s6,48(sp)
1d016da4:	2c00b58f 	lw	s5,44(sp)
1d016da8:	2800b48f 	lw	s4,40(sp)
1d016dac:	2400b38f 	lw	s3,36(sp)
1d016db0:	2000b28f 	lw	s2,32(sp)
1d016db4:	1c00b18f 	lw	s1,28(sp)
1d016db8:	1800b08f 	lw	s0,24(sp)
1d016dbc:	0800e003 	jr	ra
1d016dc0:	3800bd27 	addiu	sp,sp,56
1d016dc4:	01a0023c 	lui	v0,0xa001
1d016dc8:	c8364224 	addiu	v0,v0,14024
1d016dcc:	1c004290 	lbu	v0,28(v0)
1d016dd0:	0800e003 	jr	ra
1d016dd4:	ff004230 	andi	v0,v0,0xff
1d016dd8:	01a0023c 	lui	v0,0xa001
1d016ddc:	c8364224 	addiu	v0,v0,14024
1d016de0:	48004294 	lhu	v0,72(v0)
1d016de4:	0800e003 	jr	ra
1d016de8:	ffff4230 	andi	v0,v0,0xffff
1d016dec:	01a0023c 	lui	v0,0xa001
1d016df0:	c8364224 	addiu	v0,v0,14024
1d016df4:	74004290 	lbu	v0,116(v0)
1d016df8:	0800e003 	jr	ra
1d016dfc:	ff004230 	andi	v0,v0,0xff
1d016e00:	01a0023c 	lui	v0,0xa001
1d016e04:	c8364224 	addiu	v0,v0,14024
1d016e08:	a0004290 	lbu	v0,160(v0)
1d016e0c:	0800e003 	jr	ra
1d016e10:	ff004230 	andi	v0,v0,0xff
1d016e14:	01a0023c 	lui	v0,0xa001
1d016e18:	c8364224 	addiu	v0,v0,14024
1d016e1c:	cc004290 	lbu	v0,204(v0)
1d016e20:	0800e003 	jr	ra
1d016e24:	ff004230 	andi	v0,v0,0xff
1d016e28:	01a0023c 	lui	v0,0xa001
1d016e2c:	c8364224 	addiu	v0,v0,14024
1d016e30:	f8004290 	lbu	v0,248(v0)
1d016e34:	0800e003 	jr	ra
1d016e38:	ff004230 	andi	v0,v0,0xff
1d016e3c:	01a0023c 	lui	v0,0xa001
1d016e40:	c8364224 	addiu	v0,v0,14024
1d016e44:	24014294 	lhu	v0,292(v0)
1d016e48:	0800e003 	jr	ra
1d016e4c:	ffff4230 	andi	v0,v0,0xffff
1d016e50:	01a0023c 	lui	v0,0xa001
1d016e54:	c8364224 	addiu	v0,v0,14024
1d016e58:	50014294 	lhu	v0,336(v0)
1d016e5c:	0800e003 	jr	ra
1d016e60:	ffff4230 	andi	v0,v0,0xffff
1d016e64:	01a0023c 	lui	v0,0xa001
1d016e68:	c8364224 	addiu	v0,v0,14024
1d016e6c:	7c014294 	lhu	v0,380(v0)
1d016e70:	0800e003 	jr	ra
1d016e74:	ffff4230 	andi	v0,v0,0xffff
1d016e78:	01a0023c 	lui	v0,0xa001
1d016e7c:	c8364224 	addiu	v0,v0,14024
1d016e80:	a8014294 	lhu	v0,424(v0)
1d016e84:	0800e003 	jr	ra
1d016e88:	ffff4230 	andi	v0,v0,0xffff
1d016e8c:	01a0023c 	lui	v0,0xa001
1d016e90:	c8364224 	addiu	v0,v0,14024
1d016e94:	d4014294 	lhu	v0,468(v0)
1d016e98:	0800e003 	jr	ra
1d016e9c:	ffff4230 	andi	v0,v0,0xffff
1d016ea0:	01a0023c 	lui	v0,0xa001
1d016ea4:	c8364224 	addiu	v0,v0,14024
1d016ea8:	00024294 	lhu	v0,512(v0)
1d016eac:	0800e003 	jr	ra
1d016eb0:	ffff4230 	andi	v0,v0,0xffff
1d016eb4:	01a0023c 	lui	v0,0xa001
1d016eb8:	c8364224 	addiu	v0,v0,14024
1d016ebc:	2800438c 	lw	v1,40(v0)
1d016ec0:	1c0043ac 	sw	v1,28(v0)
1d016ec4:	0800e003 	jr	ra
1d016ec8:	180040a0 	sb	zero,24(v0)
1d016ecc:	01a0023c 	lui	v0,0xa001
1d016ed0:	c8364224 	addiu	v0,v0,14024
1d016ed4:	5400438c 	lw	v1,84(v0)
1d016ed8:	480043ac 	sw	v1,72(v0)
1d016edc:	0800e003 	jr	ra
1d016ee0:	440040a0 	sb	zero,68(v0)
1d016ee4:	01a0023c 	lui	v0,0xa001
1d016ee8:	c8364224 	addiu	v0,v0,14024
1d016eec:	8000438c 	lw	v1,128(v0)
1d016ef0:	740043ac 	sw	v1,116(v0)
1d016ef4:	0800e003 	jr	ra
1d016ef8:	700040a0 	sb	zero,112(v0)
1d016efc:	01a0023c 	lui	v0,0xa001
1d016f00:	c8364224 	addiu	v0,v0,14024
1d016f04:	ac00438c 	lw	v1,172(v0)
1d016f08:	a00043ac 	sw	v1,160(v0)
1d016f0c:	0800e003 	jr	ra
1d016f10:	9c0040a0 	sb	zero,156(v0)
1d016f14:	01a0023c 	lui	v0,0xa001
1d016f18:	c8364224 	addiu	v0,v0,14024
1d016f1c:	d800438c 	lw	v1,216(v0)
1d016f20:	cc0043ac 	sw	v1,204(v0)
1d016f24:	0800e003 	jr	ra
1d016f28:	c80040a0 	sb	zero,200(v0)
1d016f2c:	01a0023c 	lui	v0,0xa001
1d016f30:	c8364224 	addiu	v0,v0,14024
1d016f34:	0401438c 	lw	v1,260(v0)
1d016f38:	f80043ac 	sw	v1,248(v0)
1d016f3c:	0800e003 	jr	ra
1d016f40:	f40040a0 	sb	zero,244(v0)
1d016f44:	01a0023c 	lui	v0,0xa001
1d016f48:	c8364224 	addiu	v0,v0,14024
1d016f4c:	3001438c 	lw	v1,304(v0)
1d016f50:	240143ac 	sw	v1,292(v0)
1d016f54:	0800e003 	jr	ra
1d016f58:	200140a0 	sb	zero,288(v0)
1d016f5c:	01a0023c 	lui	v0,0xa001
1d016f60:	c8364224 	addiu	v0,v0,14024
1d016f64:	5c01438c 	lw	v1,348(v0)
1d016f68:	500143ac 	sw	v1,336(v0)
1d016f6c:	0800e003 	jr	ra
1d016f70:	4c0140a0 	sb	zero,332(v0)
1d016f74:	01a0023c 	lui	v0,0xa001
1d016f78:	c8364224 	addiu	v0,v0,14024
1d016f7c:	8801438c 	lw	v1,392(v0)
1d016f80:	7c0143ac 	sw	v1,380(v0)
1d016f84:	0800e003 	jr	ra
1d016f88:	780140a0 	sb	zero,376(v0)
1d016f8c:	01a0023c 	lui	v0,0xa001
1d016f90:	c8364224 	addiu	v0,v0,14024
1d016f94:	b401438c 	lw	v1,436(v0)
1d016f98:	a80143ac 	sw	v1,424(v0)
1d016f9c:	0800e003 	jr	ra
1d016fa0:	a40140a0 	sb	zero,420(v0)
1d016fa4:	01a0023c 	lui	v0,0xa001
1d016fa8:	c8364224 	addiu	v0,v0,14024
1d016fac:	e001438c 	lw	v1,480(v0)
1d016fb0:	d40143ac 	sw	v1,468(v0)
1d016fb4:	0800e003 	jr	ra
1d016fb8:	d00140a0 	sb	zero,464(v0)
1d016fbc:	01a0023c 	lui	v0,0xa001
1d016fc0:	c8364224 	addiu	v0,v0,14024
1d016fc4:	0c02438c 	lw	v1,524(v0)
1d016fc8:	000243ac 	sw	v1,512(v0)
1d016fcc:	0800e003 	jr	ra
1d016fd0:	fc0140a0 	sb	zero,508(v0)
1d016fd4:	e8ffbd27 	addiu	sp,sp,-24
1d016fd8:	1400bfaf 	sw	ra,20(sp)
1d016fdc:	21280000 	move	a1,zero
1d016fe0:	0438857c 	ins	a1,a0,0x0,0x8
1d016fe4:	e958400f 	jal	0x1d0163a4
1d016fe8:	21200000 	move	a0,zero
1d016fec:	1400bf8f 	lw	ra,20(sp)
1d016ff0:	0800e003 	jr	ra
1d016ff4:	1800bd27 	addiu	sp,sp,24
1d016ff8:	e8ffbd27 	addiu	sp,sp,-24
1d016ffc:	1400bfaf 	sw	ra,20(sp)
1d017000:	21280000 	move	a1,zero
1d017004:	0478857c 	ins	a1,a0,0x0,0x10
1d017008:	e958400f 	jal	0x1d0163a4
1d01700c:	01000424 	li	a0,1
1d017010:	1400bf8f 	lw	ra,20(sp)
1d017014:	0800e003 	jr	ra
1d017018:	1800bd27 	addiu	sp,sp,24
1d01701c:	e8ffbd27 	addiu	sp,sp,-24
1d017020:	1400bfaf 	sw	ra,20(sp)
1d017024:	21280000 	move	a1,zero
1d017028:	0438857c 	ins	a1,a0,0x0,0x8
1d01702c:	e958400f 	jal	0x1d0163a4
1d017030:	02000424 	li	a0,2
1d017034:	1400bf8f 	lw	ra,20(sp)
1d017038:	0800e003 	jr	ra
1d01703c:	1800bd27 	addiu	sp,sp,24
1d017040:	e8ffbd27 	addiu	sp,sp,-24
1d017044:	1400bfaf 	sw	ra,20(sp)
1d017048:	21280000 	move	a1,zero
1d01704c:	0438857c 	ins	a1,a0,0x0,0x8
1d017050:	e958400f 	jal	0x1d0163a4
1d017054:	03000424 	li	a0,3
1d017058:	1400bf8f 	lw	ra,20(sp)
1d01705c:	0800e003 	jr	ra
1d017060:	1800bd27 	addiu	sp,sp,24
1d017064:	e8ffbd27 	addiu	sp,sp,-24
1d017068:	1400bfaf 	sw	ra,20(sp)
1d01706c:	21280000 	move	a1,zero
1d017070:	0438857c 	ins	a1,a0,0x0,0x8
1d017074:	e958400f 	jal	0x1d0163a4
1d017078:	04000424 	li	a0,4
1d01707c:	1400bf8f 	lw	ra,20(sp)
1d017080:	0800e003 	jr	ra
1d017084:	1800bd27 	addiu	sp,sp,24
1d017088:	e8ffbd27 	addiu	sp,sp,-24
1d01708c:	1400bfaf 	sw	ra,20(sp)
1d017090:	21280000 	move	a1,zero
1d017094:	0438857c 	ins	a1,a0,0x0,0x8
1d017098:	e958400f 	jal	0x1d0163a4
1d01709c:	05000424 	li	a0,5
1d0170a0:	1400bf8f 	lw	ra,20(sp)
1d0170a4:	0800e003 	jr	ra
1d0170a8:	1800bd27 	addiu	sp,sp,24
1d0170ac:	e8ffbd27 	addiu	sp,sp,-24
1d0170b0:	1400bfaf 	sw	ra,20(sp)
1d0170b4:	21280000 	move	a1,zero
1d0170b8:	0478857c 	ins	a1,a0,0x0,0x10
1d0170bc:	e958400f 	jal	0x1d0163a4
1d0170c0:	06000424 	li	a0,6
1d0170c4:	1400bf8f 	lw	ra,20(sp)
1d0170c8:	0800e003 	jr	ra
1d0170cc:	1800bd27 	addiu	sp,sp,24
1d0170d0:	e8ffbd27 	addiu	sp,sp,-24
1d0170d4:	1400bfaf 	sw	ra,20(sp)
1d0170d8:	21280000 	move	a1,zero
1d0170dc:	0478857c 	ins	a1,a0,0x0,0x10
1d0170e0:	e958400f 	jal	0x1d0163a4
1d0170e4:	07000424 	li	a0,7
1d0170e8:	1400bf8f 	lw	ra,20(sp)
1d0170ec:	0800e003 	jr	ra
1d0170f0:	1800bd27 	addiu	sp,sp,24
1d0170f4:	e8ffbd27 	addiu	sp,sp,-24
1d0170f8:	1400bfaf 	sw	ra,20(sp)
1d0170fc:	21280000 	move	a1,zero
1d017100:	0478857c 	ins	a1,a0,0x0,0x10
1d017104:	e958400f 	jal	0x1d0163a4
1d017108:	08000424 	li	a0,8
1d01710c:	1400bf8f 	lw	ra,20(sp)
1d017110:	0800e003 	jr	ra
1d017114:	1800bd27 	addiu	sp,sp,24
1d017118:	e8ffbd27 	addiu	sp,sp,-24
1d01711c:	1400bfaf 	sw	ra,20(sp)
1d017120:	21280000 	move	a1,zero
1d017124:	0478857c 	ins	a1,a0,0x0,0x10
1d017128:	e958400f 	jal	0x1d0163a4
1d01712c:	09000424 	li	a0,9
1d017130:	1400bf8f 	lw	ra,20(sp)
1d017134:	0800e003 	jr	ra
1d017138:	1800bd27 	addiu	sp,sp,24
1d01713c:	e8ffbd27 	addiu	sp,sp,-24
1d017140:	1400bfaf 	sw	ra,20(sp)
1d017144:	21280000 	move	a1,zero
1d017148:	0478857c 	ins	a1,a0,0x0,0x10
1d01714c:	e958400f 	jal	0x1d0163a4
1d017150:	0a000424 	li	a0,10
1d017154:	1400bf8f 	lw	ra,20(sp)
1d017158:	0800e003 	jr	ra
1d01715c:	1800bd27 	addiu	sp,sp,24
1d017160:	e8ffbd27 	addiu	sp,sp,-24
1d017164:	1400bfaf 	sw	ra,20(sp)
1d017168:	21280000 	move	a1,zero
1d01716c:	0478857c 	ins	a1,a0,0x0,0x10
1d017170:	e958400f 	jal	0x1d0163a4
1d017174:	0b000424 	li	a0,11
1d017178:	1400bf8f 	lw	ra,20(sp)
1d01717c:	0800e003 	jr	ra
1d017180:	1800bd27 	addiu	sp,sp,24
1d017184:	01a0023c 	lui	v0,0xa001
1d017188:	e4364224 	addiu	v0,v0,14052
1d01718c:	01a0043c 	lui	a0,0xa001
1d017190:	f4388424 	addiu	a0,a0,14580
1d017194:	0c00438c 	lw	v1,12(v0)
1d017198:	000043ac 	sw	v1,0(v0)
1d01719c:	fcff40a0 	sb	zero,-4(v0)
1d0171a0:	2c004224 	addiu	v0,v0,44
1d0171a4:	fcff4454 	bnel	v0,a0,0x1d017198
1d0171a8:	0c00438c 	lw	v1,12(v0)
1d0171ac:	079d023c 	lui	v0,0x9d07
1d0171b0:	00e04234 	ori	v0,v0,0xe000
1d0171b4:	0000438c 	lw	v1,0(v0)
1d0171b8:	7fe3023c 	lui	v0,0xe37f
1d0171bc:	53c14234 	ori	v0,v0,0xc153
1d0171c0:	37006214 	bne	v1,v0,0x1d0172a0
1d0171c4:	00000000 	nop
1d0171c8:	c0ffbd27 	addiu	sp,sp,-64
1d0171cc:	3c00bfaf 	sw	ra,60(sp)
1d0171d0:	3800b6af 	sw	s6,56(sp)
1d0171d4:	3400b5af 	sw	s5,52(sp)
1d0171d8:	3000b4af 	sw	s4,48(sp)
1d0171dc:	2c00b3af 	sw	s3,44(sp)
1d0171e0:	2800b2af 	sw	s2,40(sp)
1d0171e4:	2400b1af 	sw	s1,36(sp)
1d0171e8:	2000b0af 	sw	s0,32(sp)
1d0171ec:	079d123c 	lui	s2,0x9d07
1d0171f0:	04e05236 	ori	s2,s2,0xe004
1d0171f4:	ffff1424 	li	s4,-1
1d0171f8:	0c001324 	li	s3,12
1d0171fc:	079d153c 	lui	s5,0x9d07
1d017200:	00f0b536 	ori	s5,s5,0xf000
1d017204:	0300518a 	lwl	s1,3(s2)
1d017208:	0000519a 	lwr	s1,0(s2)
1d01720c:	0700438a 	lwl	v1,7(s2)
1d017210:	0400439a 	lwr	v1,4(s2)
1d017214:	1000b1af 	sw	s1,16(sp)
1d017218:	1400a3af 	sw	v1,20(sp)
1d01721c:	08004226 	addiu	v0,s2,8
1d017220:	03004488 	lwl	a0,3(v0)
1d017224:	00004498 	lwr	a0,0(v0)
1d017228:	1800a4af 	sw	a0,24(sp)
1d01722c:	0c005226 	addiu	s2,s2,12
1d017230:	03003416 	bne	s1,s4,0x1d017240
1d017234:	21b06000 	move	s6,v1
1d017238:	11007410 	beq	v1,s4,0x1d017280
1d01723c:	3c00bf8f 	lw	ra,60(sp)
1d017240:	21800000 	move	s0,zero
1d017244:	da5a400f 	jal	0x1d016b68
1d017248:	21200002 	move	a0,s0
1d01724c:	07002256 	bnel	s1,v0,0x1d01726c
1d017250:	01001026 	addiu	s0,s0,1
1d017254:	0500c356 	bnel	s6,v1,0x1d01726c
1d017258:	01001026 	addiu	s0,s0,1
1d01725c:	21200002 	move	a0,s0
1d017260:	e958400f 	jal	0x1d0163a4
1d017264:	1800a58f 	lw	a1,24(sp)
1d017268:	01001026 	addiu	s0,s0,1
1d01726c:	f5ff1316 	bne	s0,s3,0x1d017244
1d017270:	00000000 	nop
1d017274:	e4ff5556 	bnel	s2,s5,0x1d017208
1d017278:	0300518a 	lwl	s1,3(s2)
1d01727c:	3c00bf8f 	lw	ra,60(sp)
1d017280:	3800b68f 	lw	s6,56(sp)
1d017284:	3400b58f 	lw	s5,52(sp)
1d017288:	3000b48f 	lw	s4,48(sp)
1d01728c:	2c00b38f 	lw	s3,44(sp)
1d017290:	2800b28f 	lw	s2,40(sp)
1d017294:	2400b18f 	lw	s1,36(sp)
1d017298:	2000b08f 	lw	s0,32(sp)
1d01729c:	4000bd27 	addiu	sp,sp,64
1d0172a0:	0800e003 	jr	ra
1d0172a4:	00000000 	nop
1d0172a8:	e0ffbd27 	addiu	sp,sp,-32
1d0172ac:	1c00bfaf 	sw	ra,28(sp)
1d0172b0:	1800b2af 	sw	s2,24(sp)
1d0172b4:	1400b1af 	sw	s1,20(sp)
1d0172b8:	1000b0af 	sw	s0,16(sp)
1d0172bc:	21888000 	move	s1,a0
1d0172c0:	00008390 	lbu	v1,0(a0)
1d0172c4:	60006324 	addiu	v1,v1,96
1d0172c8:	ff006330 	andi	v1,v1,0xff
1d0172cc:	1000632c 	sltiu	v1,v1,16
1d0172d0:	ef006010 	beqz	v1,0x1d017690
1d0172d4:	21100000 	move	v0,zero
1d0172d8:	2180a000 	move	s0,a1
1d0172dc:	2120a000 	move	a0,a1
1d0172e0:	21280000 	move	a1,zero
1d0172e4:	9288400f 	jal	0x1d022248
1d0172e8:	40000624 	li	a2,64
1d0172ec:	00002292 	lbu	v0,0(s1)
1d0172f0:	60004224 	addiu	v0,v0,96
1d0172f4:	ff004330 	andi	v1,v0,0xff
1d0172f8:	1000632c 	sltiu	v1,v1,16
1d0172fc:	e3006010 	beqz	v1,0x1d01768c
1d017300:	ff004230 	andi	v0,v0,0xff
1d017304:	80100200 	sll	v0,v0,0x2
1d017308:	019d033c 	lui	v1,0x9d01
1d01730c:	20736324 	addiu	v1,v1,29472
1d017310:	21106200 	addu	v0,v1,v0
1d017314:	0000428c 	lw	v0,0(v0)
1d017318:	08004000 	jr	v0
1d01731c:	00000000 	nop
1d017320:	6073019d 	0x9d017360
1d017324:	9473019d 	0x9d017394
1d017328:	ac73019d 	0x9d0173ac
1d01732c:	1874019d 	0x9d017418
1d017330:	7c74019d 	0x9d01747c
1d017334:	f074019d 	0x9d0174f0
1d017338:	4475019d 	0x9d017544
1d01733c:	b075019d 	0x9d0175b0
1d017340:	8c76019d 	0x9d01768c
1d017344:	8c76019d 	0x9d01768c
1d017348:	8c76019d 	0x9d01768c
1d01734c:	8c76019d 	0x9d01768c
1d017350:	8c76019d 	0x9d01768c
1d017354:	8c76019d 	0x9d01768c
1d017358:	8c76019d 	0x9d01768c
1d01735c:	4876019d 	0x9d017648
1d017360:	a0ff0224 	li	v0,-96
1d017364:	000002a2 	sb	v0,0(s0)
1d017368:	02000224 	li	v0,2
1d01736c:	020002a6 	sh	v0,2(s0)
1d017370:	040002a6 	sh	v0,4(s0)
1d017374:	060000a6 	sh	zero,6(s0)
1d017378:	08000426 	addiu	a0,s0,8
1d01737c:	029d053c 	lui	a1,0x9d02
1d017380:	b0d2a524 	addiu	a1,a1,-11600
1d017384:	ba89400f 	jal	0x1d0226e8
1d017388:	38000624 	li	a2,56
1d01738c:	a45d400b 	j	0x1d017690
1d017390:	01000224 	li	v0,1
1d017394:	a1ff0224 	li	v0,-95
1d017398:	000002a2 	sb	v0,0(s0)
1d01739c:	0c000224 	li	v0,12
1d0173a0:	020002a6 	sh	v0,2(s0)
1d0173a4:	a45d400b 	j	0x1d017690
1d0173a8:	01000224 	li	v0,1
1d0173ac:	a2ff0224 	li	v0,-94
1d0173b0:	000002a2 	sb	v0,0(s0)
1d0173b4:	02002296 	lhu	v0,2(s1)
1d0173b8:	020002a6 	sh	v0,2(s0)
1d0173bc:	80180200 	sll	v1,v0,0x2
1d0173c0:	00210200 	sll	a0,v0,0x4
1d0173c4:	23188300 	subu	v1,a0,v1
1d0173c8:	23106200 	subu	v0,v1,v0
1d0173cc:	80100200 	sll	v0,v0,0x2
1d0173d0:	01a0113c 	lui	s1,0xa001
1d0173d4:	c8363126 	addiu	s1,s1,14024
1d0173d8:	21105100 	addu	v0,v0,s1
1d0173dc:	05000426 	addiu	a0,s0,5
1d0173e0:	0000458c 	lw	a1,0(v0)
1d0173e4:	ba89400f 	jal	0x1d0226e8
1d0173e8:	30000624 	li	a2,48
1d0173ec:	02000296 	lhu	v0,2(s0)
1d0173f0:	80180200 	sll	v1,v0,0x2
1d0173f4:	00210200 	sll	a0,v0,0x4
1d0173f8:	23188300 	subu	v1,a0,v1
1d0173fc:	23106200 	subu	v0,v1,v0
1d017400:	80100200 	sll	v0,v0,0x2
1d017404:	21885100 	addu	s1,v0,s1
1d017408:	0800228e 	lw	v0,8(s1)
1d01740c:	040002a2 	sb	v0,4(s0)
1d017410:	a45d400b 	j	0x1d017690
1d017414:	01000224 	li	v0,1
1d017418:	a3ff0224 	li	v0,-93
1d01741c:	000002a2 	sb	v0,0(s0)
1d017420:	02002296 	lhu	v0,2(s1)
1d017424:	020002a6 	sh	v0,2(s0)
1d017428:	01a0043c 	lui	a0,0xa001
1d01742c:	c8368424 	addiu	a0,a0,14024
1d017430:	80180200 	sll	v1,v0,0x2
1d017434:	00290200 	sll	a1,v0,0x4
1d017438:	2328a300 	subu	a1,a1,v1
1d01743c:	2318a200 	subu	v1,a1,v0
1d017440:	80180300 	sll	v1,v1,0x2
1d017444:	21188300 	addu	v1,a0,v1
1d017448:	0c00668c 	lw	a2,12(v1)
1d01744c:	040006ae 	sw	a2,4(s0)
1d017450:	2800668c 	lw	a2,40(v1)
1d017454:	080006ae 	sw	a2,8(s0)
1d017458:	2000638c 	lw	v1,32(v1)
1d01745c:	0c0003ae 	sw	v1,12(s0)
1d017460:	2310a200 	subu	v0,a1,v0
1d017464:	80100200 	sll	v0,v0,0x2
1d017468:	21208200 	addu	a0,a0,v0
1d01746c:	2400828c 	lw	v0,36(a0)
1d017470:	100002ae 	sw	v0,16(s0)
1d017474:	a45d400b 	j	0x1d017690
1d017478:	01000224 	li	v0,1
1d01747c:	a4ff0224 	li	v0,-92
1d017480:	000002a2 	sb	v0,0(s0)
1d017484:	02002296 	lhu	v0,2(s1)
1d017488:	020002a6 	sh	v0,2(s0)
1d01748c:	01002392 	lbu	v1,1(s1)
1d017490:	010003a2 	sb	v1,1(s0)
1d017494:	80200300 	sll	a0,v1,0x2
1d017498:	80190300 	sll	v1,v1,0x6
1d01749c:	23886400 	subu	s1,v1,a0
1d0174a0:	80180200 	sll	v1,v0,0x2
1d0174a4:	00210200 	sll	a0,v0,0x4
1d0174a8:	23188300 	subu	v1,a0,v1
1d0174ac:	23106200 	subu	v0,v1,v0
1d0174b0:	80100200 	sll	v0,v0,0x2
1d0174b4:	01a0033c 	lui	v1,0xa001
1d0174b8:	c8366324 	addiu	v1,v1,14024
1d0174bc:	21106200 	addu	v0,v1,v0
1d0174c0:	0400528c 	lw	s2,4(v0)
1d0174c4:	f884400f 	jal	0x1d0213e0
1d0174c8:	21204002 	move	a0,s2
1d0174cc:	2b182202 	sltu	v1,s1,v0
1d0174d0:	6f006010 	beqz	v1,0x1d017690
1d0174d4:	01000224 	li	v0,1
1d0174d8:	04000426 	addiu	a0,s0,4
1d0174dc:	21285102 	addu	a1,s2,s1
1d0174e0:	ba89400f 	jal	0x1d0226e8
1d0174e4:	3c000624 	li	a2,60
1d0174e8:	a45d400b 	j	0x1d017690
1d0174ec:	01000224 	li	v0,1
1d0174f0:	a5ff0224 	li	v0,-91
1d0174f4:	000002a2 	sb	v0,0(s0)
1d0174f8:	02002296 	lhu	v0,2(s1)
1d0174fc:	020002a6 	sh	v0,2(s0)
1d017500:	01a0033c 	lui	v1,0xa001
1d017504:	c8366324 	addiu	v1,v1,14024
1d017508:	80200200 	sll	a0,v0,0x2
1d01750c:	00290200 	sll	a1,v0,0x4
1d017510:	2320a400 	subu	a0,a1,a0
1d017514:	23288200 	subu	a1,a0,v0
1d017518:	80280500 	sll	a1,a1,0x2
1d01751c:	21286500 	addu	a1,v1,a1
1d017520:	1c00a58c 	lw	a1,28(a1)
1d017524:	040005ae 	sw	a1,4(s0)
1d017528:	23108200 	subu	v0,a0,v0
1d01752c:	80100200 	sll	v0,v0,0x2
1d017530:	21184300 	addu	v1,v0,v1
1d017534:	18006290 	lbu	v0,24(v1)
1d017538:	010002a2 	sb	v0,1(s0)
1d01753c:	a45d400b 	j	0x1d017690
1d017540:	01000224 	li	v0,1
1d017544:	a6ff0224 	li	v0,-90
1d017548:	000002a2 	sb	v0,0(s0)
1d01754c:	02002296 	lhu	v0,2(s1)
1d017550:	020002a6 	sh	v0,2(s0)
1d017554:	02002496 	lhu	a0,2(s1)
1d017558:	e958400f 	jal	0x1d0163a4
1d01755c:	0400258e 	lw	a1,4(s1)
1d017560:	2d5b400f 	jal	0x1d016cb4
1d017564:	00000000 	nop
1d017568:	02000296 	lhu	v0,2(s0)
1d01756c:	01a0033c 	lui	v1,0xa001
1d017570:	c8366324 	addiu	v1,v1,14024
1d017574:	80200200 	sll	a0,v0,0x2
1d017578:	00290200 	sll	a1,v0,0x4
1d01757c:	2320a400 	subu	a0,a1,a0
1d017580:	23288200 	subu	a1,a0,v0
1d017584:	80280500 	sll	a1,a1,0x2
1d017588:	21286500 	addu	a1,v1,a1
1d01758c:	1c00a58c 	lw	a1,28(a1)
1d017590:	040005ae 	sw	a1,4(s0)
1d017594:	23108200 	subu	v0,a0,v0
1d017598:	80100200 	sll	v0,v0,0x2
1d01759c:	21184300 	addu	v1,v0,v1
1d0175a0:	18006290 	lbu	v0,24(v1)
1d0175a4:	010002a2 	sb	v0,1(s0)
1d0175a8:	a45d400b 	j	0x1d017690
1d0175ac:	01000224 	li	v0,1
1d0175b0:	a7ff0224 	li	v0,-89
1d0175b4:	000002a2 	sb	v0,0(s0)
1d0175b8:	02002296 	lhu	v0,2(s1)
1d0175bc:	020002a6 	sh	v0,2(s0)
1d0175c0:	02002296 	lhu	v0,2(s1)
1d0175c4:	0c00432c 	sltiu	v1,v0,12
1d0175c8:	0b006010 	beqz	v1,0x1d0175f8
1d0175cc:	01a0033c 	lui	v1,0xa001
1d0175d0:	c8366324 	addiu	v1,v1,14024
1d0175d4:	80200200 	sll	a0,v0,0x2
1d0175d8:	00290200 	sll	a1,v0,0x4
1d0175dc:	2320a400 	subu	a0,a1,a0
1d0175e0:	23288200 	subu	a1,a0,v0
1d0175e4:	80280500 	sll	a1,a1,0x2
1d0175e8:	21286500 	addu	a1,v1,a1
1d0175ec:	2800a68c 	lw	a2,40(a1)
1d0175f0:	1c00a6ac 	sw	a2,28(a1)
1d0175f4:	1800a0a0 	sb	zero,24(a1)
1d0175f8:	2d5b400f 	jal	0x1d016cb4
1d0175fc:	00000000 	nop
1d017600:	02000296 	lhu	v0,2(s0)
1d017604:	01a0033c 	lui	v1,0xa001
1d017608:	c8366324 	addiu	v1,v1,14024
1d01760c:	80200200 	sll	a0,v0,0x2
1d017610:	00290200 	sll	a1,v0,0x4
1d017614:	2320a400 	subu	a0,a1,a0
1d017618:	23288200 	subu	a1,a0,v0
1d01761c:	80280500 	sll	a1,a1,0x2
1d017620:	21286500 	addu	a1,v1,a1
1d017624:	1c00a58c 	lw	a1,28(a1)
1d017628:	040005ae 	sw	a1,4(s0)
1d01762c:	23108200 	subu	v0,a0,v0
1d017630:	80100200 	sll	v0,v0,0x2
1d017634:	21184300 	addu	v1,v0,v1
1d017638:	18006290 	lbu	v0,24(v1)
1d01763c:	010002a2 	sb	v0,1(s0)
1d017640:	a45d400b 	j	0x1d017690
1d017644:	01000224 	li	v0,1
1d017648:	01a0023c 	lui	v0,0xa001
1d01764c:	e4364224 	addiu	v0,v0,14052
1d017650:	01a0043c 	lui	a0,0xa001
1d017654:	f4388424 	addiu	a0,a0,14580
1d017658:	0c00438c 	lw	v1,12(v0)
1d01765c:	000043ac 	sw	v1,0(v0)
1d017660:	fcff40a0 	sb	zero,-4(v0)
1d017664:	2c004224 	addiu	v0,v0,44
1d017668:	fcff4454 	bnel	v0,a0,0x1d01765c
1d01766c:	0c00438c 	lw	v1,12(v0)
1d017670:	079d043c 	lui	a0,0x9d07
1d017674:	e68a400f 	jal	0x1d022b98
1d017678:	00e08434 	ori	a0,a0,0xe000
1d01767c:	afff0224 	li	v0,-81
1d017680:	000002a2 	sb	v0,0(s0)
1d017684:	a45d400b 	j	0x1d017690
1d017688:	01000224 	li	v0,1
1d01768c:	21100000 	move	v0,zero
1d017690:	1c00bf8f 	lw	ra,28(sp)
1d017694:	1800b28f 	lw	s2,24(sp)
1d017698:	1400b18f 	lw	s1,20(sp)
1d01769c:	1000b08f 	lw	s0,16(sp)
1d0176a0:	0800e003 	jr	ra
1d0176a4:	2000bd27 	addiu	sp,sp,32

Disassembly of section .sec70:

1d0176a8 <.sec70>:
1d0176a8:	d0ffbd27 	addiu	sp,sp,-48
1d0176ac:	2c00bfaf 	sw	ra,44(sp)
1d0176b0:	2800b1af 	sw	s1,40(sp)
1d0176b4:	2400b0af 	sw	s0,36(sp)
1d0176b8:	e880828f 	lw	v0,-32536(gp)
1d0176bc:	20004230 	andi	v0,v0,0x20
1d0176c0:	3a004010 	beqz	v0,0x1d0177ac
1d0176c4:	21888000 	move	s1,a0
1d0176c8:	00a0023c 	lui	v0,0xa000
1d0176cc:	a80e4324 	addiu	v1,v0,3752
1d0176d0:	0400638c 	lw	v1,4(v1)
1d0176d4:	ff0f6330 	andi	v1,v1,0xfff
1d0176d8:	a80e448c 	lw	a0,3752(v0)
1d0176dc:	ff0f8430 	andi	a0,a0,0xfff
1d0176e0:	01006224 	addiu	v0,v1,1
1d0176e4:	ff0f4230 	andi	v0,v0,0xfff
1d0176e8:	30008210 	beq	a0,v0,0x1d0177ac
1d0176ec:	00190300 	sll	v1,v1,0x4
1d0176f0:	08006324 	addiu	v1,v1,8
1d0176f4:	00a0023c 	lui	v0,0xa000
1d0176f8:	a80e4224 	addiu	v0,v0,3752
1d0176fc:	21184300 	addu	v1,v0,v1
1d017700:	0400228e 	lw	v0,4(s1)
1d017704:	0007467c 	ext	a2,v0,0x1c,0x1
1d017708:	0800c010 	beqz	a2,0x1d01772c
1d01770c:	0f004530 	andi	a1,v0,0xf
1d017710:	0000248e 	lw	a0,0(s1)
1d017714:	ff078430 	andi	a0,a0,0x7ff
1d017718:	80240400 	sll	a0,a0,0x12
1d01771c:	0400228e 	lw	v0,4(s1)
1d017720:	808a427c 	ext	v0,v0,0xa,0x12
1d017724:	cd5d400b 	j	0x1d017734
1d017728:	25108200 	or	v0,a0,v0
1d01772c:	0000228e 	lw	v0,0(s1)
1d017730:	ff074230 	andi	v0,v0,0x7ff
1d017734:	0400648c 	lw	a0,4(v1)
1d017738:	04e0447c 	ins	a0,v0,0x0,0x1d
1d01773c:	44efc47c 	ins	a0,a2,0x1d,0x1
1d017740:	0000628c 	lw	v0,0(v1)
1d017744:	84ffa27c 	ins	v0,a1,0x1e,0x2
1d017748:	82280500 	srl	a1,a1,0x2
1d01774c:	84ffa47c 	ins	a0,a1,0x1e,0x2
1d017750:	040064ac 	sw	a0,4(v1)
1d017754:	05000424 	li	a0,5
1d017758:	c4ee827c 	ins	v0,a0,0x1b,0x3
1d01775c:	ec80848f 	lw	a0,-32532(gp)
1d017760:	04d0827c 	ins	v0,a0,0x0,0x1b
1d017764:	000062ac 	sw	v0,0(v1)
1d017768:	08002226 	addiu	v0,s1,8
1d01776c:	03004488 	lwl	a0,3(v0)
1d017770:	00004498 	lwr	a0,0(v0)
1d017774:	07004588 	lwl	a1,7(v0)
1d017778:	04004598 	lwr	a1,4(v0)
1d01777c:	080064ac 	sw	a0,8(v1)
1d017780:	0c0065ac 	sw	a1,12(v1)
1d017784:	00a0023c 	lui	v0,0xa000
1d017788:	a80e4324 	addiu	v1,v0,3752
1d01778c:	0400638c 	lw	v1,4(v1)
1d017790:	01006324 	addiu	v1,v1,1
1d017794:	ff0f6330 	andi	v1,v1,0xfff
1d017798:	a80e428c 	lw	v0,3752(v0)
1d01779c:	ff0f4230 	andi	v0,v0,0xfff
1d0177a0:	02004310 	beq	v0,v1,0x1d0177ac
1d0177a4:	00a0023c 	lui	v0,0xa000
1d0177a8:	ac0e43ac 	sw	v1,3756(v0)
1d0177ac:	125e400b 	j	0x1d017848
1d0177b0:	00a0103c 	lui	s0,0xa000
1d0177b4:	3f004230 	andi	v0,v0,0x3f
1d0177b8:	9c0a0326 	addiu	v1,s0,2716
1d0177bc:	0400638c 	lw	v1,4(v1)
1d0177c0:	3f006330 	andi	v1,v1,0x3f
1d0177c4:	20004310 	beq	v0,v1,0x1d017848
1d0177c8:	01004224 	addiu	v0,v0,1
1d0177cc:	3f004230 	andi	v0,v0,0x3f
1d0177d0:	125e400b 	j	0x1d017848
1d0177d4:	9c0a02ae 	sw	v0,2716(s0)
1d0177d8:	9c0a6424 	addiu	a0,v1,2716
1d0177dc:	0400858c 	lw	a1,4(a0)
1d0177e0:	3f00a530 	andi	a1,a1,0x3f
1d0177e4:	0100a424 	addiu	a0,a1,1
1d0177e8:	3f008430 	andi	a0,a0,0x3f
1d0177ec:	9c0a638c 	lw	v1,2716(v1)
1d0177f0:	3f006330 	andi	v1,v1,0x3f
1d0177f4:	0f006410 	beq	v1,a0,0x1d017834
1d0177f8:	00a0033c 	lui	v1,0xa000
1d0177fc:	00110500 	sll	v0,a1,0x4
1d017800:	9c0a6324 	addiu	v1,v1,2716
1d017804:	21104300 	addu	v0,v0,v1
1d017808:	0000288e 	lw	t0,0(s1)
1d01780c:	0400278e 	lw	a3,4(s1)
1d017810:	0800268e 	lw	a2,8(s1)
1d017814:	0c00258e 	lw	a1,12(s1)
1d017818:	0c0048ac 	sw	t0,12(v0)
1d01781c:	100047ac 	sw	a3,16(v0)
1d017820:	140046ac 	sw	a2,20(v0)
1d017824:	180045ac 	sw	a1,24(v0)
1d017828:	040064ac 	sw	a0,4(v1)
1d01782c:	495e400b 	j	0x1d017924
1d017830:	01000224 	li	v0,1
1d017834:	9c0a6324 	addiu	v1,v1,2716
1d017838:	0800648c 	lw	a0,8(v1)
1d01783c:	01008424 	addiu	a0,a0,1
1d017840:	495e400b 	j	0x1d017924
1d017844:	080064ac 	sw	a0,8(v1)
1d017848:	9c0a028e 	lw	v0,2716(s0)
1d01784c:	3f004230 	andi	v0,v0,0x3f
1d017850:	9c0a0326 	addiu	v1,s0,2716
1d017854:	0400638c 	lw	v1,4(v1)
1d017858:	3f006330 	andi	v1,v1,0x3f
1d01785c:	2d004310 	beq	v0,v1,0x1d017914
1d017860:	00110200 	sll	v0,v0,0x4
1d017864:	9c0a0326 	addiu	v1,s0,2716
1d017868:	21104300 	addu	v0,v0,v1
1d01786c:	0c00458c 	lw	a1,12(v0)
1d017870:	1000448c 	lw	a0,16(v0)
1d017874:	1400438c 	lw	v1,20(v0)
1d017878:	1800428c 	lw	v0,24(v0)
1d01787c:	1000a5af 	sw	a1,16(sp)
1d017880:	1400a4af 	sw	a0,20(sp)
1d017884:	1800a3af 	sw	v1,24(sp)
1d017888:	1c00a2af 	sw	v0,28(sp)
1d01788c:	7364400f 	jal	0x1d0191cc
1d017890:	1000a427 	addiu	a0,sp,16
1d017894:	c7ff4054 	bnezl	v0,0x1d0177b4
1d017898:	9c0a028e 	lw	v0,2716(s0)
1d01789c:	f65d400b 	j	0x1d0177d8
1d0178a0:	00a0033c 	lui	v1,0xa000
1d0178a4:	9c0a6424 	addiu	a0,v1,2716
1d0178a8:	0400858c 	lw	a1,4(a0)
1d0178ac:	3f00a530 	andi	a1,a1,0x3f
1d0178b0:	0100a424 	addiu	a0,a1,1
1d0178b4:	3f008430 	andi	a0,a0,0x3f
1d0178b8:	9c0a638c 	lw	v1,2716(v1)
1d0178bc:	3f006330 	andi	v1,v1,0x3f
1d0178c0:	0f006410 	beq	v1,a0,0x1d017900
1d0178c4:	00a0033c 	lui	v1,0xa000
1d0178c8:	00110500 	sll	v0,a1,0x4
1d0178cc:	9c0a6324 	addiu	v1,v1,2716
1d0178d0:	21104300 	addu	v0,v0,v1
1d0178d4:	0000288e 	lw	t0,0(s1)
1d0178d8:	0400278e 	lw	a3,4(s1)
1d0178dc:	0800268e 	lw	a2,8(s1)
1d0178e0:	0c00258e 	lw	a1,12(s1)
1d0178e4:	0c0048ac 	sw	t0,12(v0)
1d0178e8:	100047ac 	sw	a3,16(v0)
1d0178ec:	140046ac 	sw	a2,20(v0)
1d0178f0:	180045ac 	sw	a1,24(v0)
1d0178f4:	040064ac 	sw	a0,4(v1)
1d0178f8:	495e400b 	j	0x1d017924
1d0178fc:	01000224 	li	v0,1
1d017900:	9c0a6324 	addiu	v1,v1,2716
1d017904:	0800648c 	lw	a0,8(v1)
1d017908:	01008424 	addiu	a0,a0,1
1d01790c:	495e400b 	j	0x1d017924
1d017910:	080064ac 	sw	a0,8(v1)
1d017914:	7364400f 	jal	0x1d0191cc
1d017918:	21202002 	move	a0,s1
1d01791c:	e1ff4010 	beqz	v0,0x1d0178a4
1d017920:	00a0033c 	lui	v1,0xa000
1d017924:	2c00bf8f 	lw	ra,44(sp)
1d017928:	2800b18f 	lw	s1,40(sp)
1d01792c:	2400b08f 	lw	s0,36(sp)
1d017930:	0800e003 	jr	ra
1d017934:	3000bd27 	addiu	sp,sp,48
1d017938:	d0ffbd27 	addiu	sp,sp,-48
1d01793c:	2c00bfaf 	sw	ra,44(sp)
1d017940:	2800b1af 	sw	s1,40(sp)
1d017944:	2400b0af 	sw	s0,36(sp)
1d017948:	e880828f 	lw	v0,-32536(gp)
1d01794c:	80004230 	andi	v0,v0,0x80
1d017950:	3a004010 	beqz	v0,0x1d017a3c
1d017954:	21888000 	move	s1,a0
1d017958:	00a0023c 	lui	v0,0xa000
1d01795c:	a80e4324 	addiu	v1,v0,3752
1d017960:	0400638c 	lw	v1,4(v1)
1d017964:	ff0f6330 	andi	v1,v1,0xfff
1d017968:	a80e448c 	lw	a0,3752(v0)
1d01796c:	ff0f8430 	andi	a0,a0,0xfff
1d017970:	01006224 	addiu	v0,v1,1
1d017974:	ff0f4230 	andi	v0,v0,0xfff
1d017978:	30008210 	beq	a0,v0,0x1d017a3c
1d01797c:	00190300 	sll	v1,v1,0x4
1d017980:	08006324 	addiu	v1,v1,8
1d017984:	00a0023c 	lui	v0,0xa000
1d017988:	a80e4224 	addiu	v0,v0,3752
1d01798c:	21184300 	addu	v1,v0,v1
1d017990:	0400228e 	lw	v0,4(s1)
1d017994:	0007467c 	ext	a2,v0,0x1c,0x1
1d017998:	0800c010 	beqz	a2,0x1d0179bc
1d01799c:	0f004530 	andi	a1,v0,0xf
1d0179a0:	0000248e 	lw	a0,0(s1)
1d0179a4:	ff078430 	andi	a0,a0,0x7ff
1d0179a8:	80240400 	sll	a0,a0,0x12
1d0179ac:	0400228e 	lw	v0,4(s1)
1d0179b0:	808a427c 	ext	v0,v0,0xa,0x12
1d0179b4:	715e400b 	j	0x1d0179c4
1d0179b8:	25108200 	or	v0,a0,v0
1d0179bc:	0000228e 	lw	v0,0(s1)
1d0179c0:	ff074230 	andi	v0,v0,0x7ff
1d0179c4:	0400648c 	lw	a0,4(v1)
1d0179c8:	04e0447c 	ins	a0,v0,0x0,0x1d
1d0179cc:	44efc47c 	ins	a0,a2,0x1d,0x1
1d0179d0:	0000628c 	lw	v0,0(v1)
1d0179d4:	84ffa27c 	ins	v0,a1,0x1e,0x2
1d0179d8:	82280500 	srl	a1,a1,0x2
1d0179dc:	84ffa47c 	ins	a0,a1,0x1e,0x2
1d0179e0:	040064ac 	sw	a0,4(v1)
1d0179e4:	07000424 	li	a0,7
1d0179e8:	c4ee827c 	ins	v0,a0,0x1b,0x3
1d0179ec:	ec80848f 	lw	a0,-32532(gp)
1d0179f0:	04d0827c 	ins	v0,a0,0x0,0x1b
1d0179f4:	000062ac 	sw	v0,0(v1)
1d0179f8:	08002226 	addiu	v0,s1,8
1d0179fc:	03004488 	lwl	a0,3(v0)
1d017a00:	00004498 	lwr	a0,0(v0)
1d017a04:	07004588 	lwl	a1,7(v0)
1d017a08:	04004598 	lwr	a1,4(v0)
1d017a0c:	080064ac 	sw	a0,8(v1)
1d017a10:	0c0065ac 	sw	a1,12(v1)
1d017a14:	00a0023c 	lui	v0,0xa000
1d017a18:	a80e4324 	addiu	v1,v0,3752
1d017a1c:	0400638c 	lw	v1,4(v1)
1d017a20:	01006324 	addiu	v1,v1,1
1d017a24:	ff0f6330 	andi	v1,v1,0xfff
1d017a28:	a80e428c 	lw	v0,3752(v0)
1d017a2c:	ff0f4230 	andi	v0,v0,0xfff
1d017a30:	02004310 	beq	v0,v1,0x1d017a3c
1d017a34:	00a0023c 	lui	v0,0xa000
1d017a38:	ac0e43ac 	sw	v1,3756(v0)
1d017a3c:	b65e400b 	j	0x1d017ad8
1d017a40:	00a0103c 	lui	s0,0xa000
1d017a44:	3f004230 	andi	v0,v0,0x3f
1d017a48:	90060326 	addiu	v1,s0,1680
1d017a4c:	0400638c 	lw	v1,4(v1)
1d017a50:	3f006330 	andi	v1,v1,0x3f
1d017a54:	20004310 	beq	v0,v1,0x1d017ad8
1d017a58:	01004224 	addiu	v0,v0,1
1d017a5c:	3f004230 	andi	v0,v0,0x3f
1d017a60:	b65e400b 	j	0x1d017ad8
1d017a64:	900602ae 	sw	v0,1680(s0)
1d017a68:	90066424 	addiu	a0,v1,1680
1d017a6c:	0400858c 	lw	a1,4(a0)
1d017a70:	3f00a530 	andi	a1,a1,0x3f
1d017a74:	0100a424 	addiu	a0,a1,1
1d017a78:	3f008430 	andi	a0,a0,0x3f
1d017a7c:	9006638c 	lw	v1,1680(v1)
1d017a80:	3f006330 	andi	v1,v1,0x3f
1d017a84:	0f006410 	beq	v1,a0,0x1d017ac4
1d017a88:	00a0033c 	lui	v1,0xa000
1d017a8c:	00110500 	sll	v0,a1,0x4
1d017a90:	90066324 	addiu	v1,v1,1680
1d017a94:	21104300 	addu	v0,v0,v1
1d017a98:	0000288e 	lw	t0,0(s1)
1d017a9c:	0400278e 	lw	a3,4(s1)
1d017aa0:	0800268e 	lw	a2,8(s1)
1d017aa4:	0c00258e 	lw	a1,12(s1)
1d017aa8:	0c0048ac 	sw	t0,12(v0)
1d017aac:	100047ac 	sw	a3,16(v0)
1d017ab0:	140046ac 	sw	a2,20(v0)
1d017ab4:	180045ac 	sw	a1,24(v0)
1d017ab8:	040064ac 	sw	a0,4(v1)
1d017abc:	ed5e400b 	j	0x1d017bb4
1d017ac0:	01000224 	li	v0,1
1d017ac4:	90066324 	addiu	v1,v1,1680
1d017ac8:	0800648c 	lw	a0,8(v1)
1d017acc:	01008424 	addiu	a0,a0,1
1d017ad0:	ed5e400b 	j	0x1d017bb4
1d017ad4:	080064ac 	sw	a0,8(v1)
1d017ad8:	9006028e 	lw	v0,1680(s0)
1d017adc:	3f004230 	andi	v0,v0,0x3f
1d017ae0:	90060326 	addiu	v1,s0,1680
1d017ae4:	0400638c 	lw	v1,4(v1)
1d017ae8:	3f006330 	andi	v1,v1,0x3f
1d017aec:	2d004310 	beq	v0,v1,0x1d017ba4
1d017af0:	00110200 	sll	v0,v0,0x4
1d017af4:	90060326 	addiu	v1,s0,1680
1d017af8:	21104300 	addu	v0,v0,v1
1d017afc:	0c00458c 	lw	a1,12(v0)
1d017b00:	1000448c 	lw	a0,16(v0)
1d017b04:	1400438c 	lw	v1,20(v0)
1d017b08:	1800428c 	lw	v0,24(v0)
1d017b0c:	1000a5af 	sw	a1,16(sp)
1d017b10:	1400a4af 	sw	a0,20(sp)
1d017b14:	1800a3af 	sw	v1,24(sp)
1d017b18:	1c00a2af 	sw	v0,28(sp)
1d017b1c:	3765400f 	jal	0x1d0194dc
1d017b20:	1000a427 	addiu	a0,sp,16
1d017b24:	c7ff4054 	bnezl	v0,0x1d017a44
1d017b28:	9006028e 	lw	v0,1680(s0)
1d017b2c:	9a5e400b 	j	0x1d017a68
1d017b30:	00a0033c 	lui	v1,0xa000
1d017b34:	90066424 	addiu	a0,v1,1680
1d017b38:	0400858c 	lw	a1,4(a0)
1d017b3c:	3f00a530 	andi	a1,a1,0x3f
1d017b40:	0100a424 	addiu	a0,a1,1
1d017b44:	3f008430 	andi	a0,a0,0x3f
1d017b48:	9006638c 	lw	v1,1680(v1)
1d017b4c:	3f006330 	andi	v1,v1,0x3f
1d017b50:	0f006410 	beq	v1,a0,0x1d017b90
1d017b54:	00a0033c 	lui	v1,0xa000
1d017b58:	00110500 	sll	v0,a1,0x4
1d017b5c:	90066324 	addiu	v1,v1,1680
1d017b60:	21104300 	addu	v0,v0,v1
1d017b64:	0000288e 	lw	t0,0(s1)
1d017b68:	0400278e 	lw	a3,4(s1)
1d017b6c:	0800268e 	lw	a2,8(s1)
1d017b70:	0c00258e 	lw	a1,12(s1)
1d017b74:	0c0048ac 	sw	t0,12(v0)
1d017b78:	100047ac 	sw	a3,16(v0)
1d017b7c:	140046ac 	sw	a2,20(v0)
1d017b80:	180045ac 	sw	a1,24(v0)
1d017b84:	040064ac 	sw	a0,4(v1)
1d017b88:	ed5e400b 	j	0x1d017bb4
1d017b8c:	01000224 	li	v0,1
1d017b90:	90066324 	addiu	v1,v1,1680
1d017b94:	0800648c 	lw	a0,8(v1)
1d017b98:	01008424 	addiu	a0,a0,1
1d017b9c:	ed5e400b 	j	0x1d017bb4
1d017ba0:	080064ac 	sw	a0,8(v1)
1d017ba4:	3765400f 	jal	0x1d0194dc
1d017ba8:	21202002 	move	a0,s1
1d017bac:	e1ff4010 	beqz	v0,0x1d017b34
1d017bb0:	00a0033c 	lui	v1,0xa000
1d017bb4:	2c00bf8f 	lw	ra,44(sp)
1d017bb8:	2800b18f 	lw	s1,40(sp)
1d017bbc:	2400b08f 	lw	s0,36(sp)
1d017bc0:	0800e003 	jr	ra
1d017bc4:	3000bd27 	addiu	sp,sp,48
1d017bc8:	e8ffbd27 	addiu	sp,sp,-24
1d017bcc:	1400bfaf 	sw	ra,20(sp)
1d017bd0:	e880828f 	lw	v0,-32536(gp)
1d017bd4:	02004230 	andi	v0,v0,0x2
1d017bd8:	39004010 	beqz	v0,0x1d017cc0
1d017bdc:	00a0023c 	lui	v0,0xa000
1d017be0:	a80e4324 	addiu	v1,v0,3752
1d017be4:	0400638c 	lw	v1,4(v1)
1d017be8:	ff0f6330 	andi	v1,v1,0xfff
1d017bec:	a80e458c 	lw	a1,3752(v0)
1d017bf0:	ff0fa530 	andi	a1,a1,0xfff
1d017bf4:	01006224 	addiu	v0,v1,1
1d017bf8:	ff0f4230 	andi	v0,v0,0xfff
1d017bfc:	3000a210 	beq	a1,v0,0x1d017cc0
1d017c00:	00190300 	sll	v1,v1,0x4
1d017c04:	08006324 	addiu	v1,v1,8
1d017c08:	00a0023c 	lui	v0,0xa000
1d017c0c:	a80e4224 	addiu	v0,v0,3752
1d017c10:	21184300 	addu	v1,v0,v1
1d017c14:	0400828c 	lw	v0,4(a0)
1d017c18:	0007477c 	ext	a3,v0,0x1c,0x1
1d017c1c:	0800e010 	beqz	a3,0x1d017c40
1d017c20:	0f004630 	andi	a2,v0,0xf
1d017c24:	0000858c 	lw	a1,0(a0)
1d017c28:	ff07a530 	andi	a1,a1,0x7ff
1d017c2c:	802c0500 	sll	a1,a1,0x12
1d017c30:	0400828c 	lw	v0,4(a0)
1d017c34:	808a427c 	ext	v0,v0,0xa,0x12
1d017c38:	125f400b 	j	0x1d017c48
1d017c3c:	2510a200 	or	v0,a1,v0
1d017c40:	0000828c 	lw	v0,0(a0)
1d017c44:	ff074230 	andi	v0,v0,0x7ff
1d017c48:	0400658c 	lw	a1,4(v1)
1d017c4c:	04e0457c 	ins	a1,v0,0x0,0x1d
1d017c50:	44efe57c 	ins	a1,a3,0x1d,0x1
1d017c54:	0000628c 	lw	v0,0(v1)
1d017c58:	84ffc27c 	ins	v0,a2,0x1e,0x2
1d017c5c:	82300600 	srl	a2,a2,0x2
1d017c60:	84ffc57c 	ins	a1,a2,0x1e,0x2
1d017c64:	040065ac 	sw	a1,4(v1)
1d017c68:	01000524 	li	a1,1
1d017c6c:	c4eea27c 	ins	v0,a1,0x1b,0x3
1d017c70:	ec80858f 	lw	a1,-32532(gp)
1d017c74:	04d0a27c 	ins	v0,a1,0x0,0x1b
1d017c78:	000062ac 	sw	v0,0(v1)
1d017c7c:	08008224 	addiu	v0,a0,8
1d017c80:	03004588 	lwl	a1,3(v0)
1d017c84:	00004598 	lwr	a1,0(v0)
1d017c88:	07004688 	lwl	a2,7(v0)
1d017c8c:	04004698 	lwr	a2,4(v0)
1d017c90:	080065ac 	sw	a1,8(v1)
1d017c94:	0c0066ac 	sw	a2,12(v1)
1d017c98:	00a0023c 	lui	v0,0xa000
1d017c9c:	a80e4324 	addiu	v1,v0,3752
1d017ca0:	0400638c 	lw	v1,4(v1)
1d017ca4:	01006324 	addiu	v1,v1,1
1d017ca8:	ff0f6330 	andi	v1,v1,0xfff
1d017cac:	a80e428c 	lw	v0,3752(v0)
1d017cb0:	ff0f4230 	andi	v0,v0,0xfff
1d017cb4:	02004310 	beq	v0,v1,0x1d017cc0
1d017cb8:	00a0023c 	lui	v0,0xa000
1d017cbc:	ac0e43ac 	sw	v1,3756(v0)
1d017cc0:	7262400f 	jal	0x1d0189c8
1d017cc4:	00000000 	nop
1d017cc8:	1400bf8f 	lw	ra,20(sp)
1d017ccc:	0800e003 	jr	ra
1d017cd0:	1800bd27 	addiu	sp,sp,24
1d017cd4:	e8ffbd27 	addiu	sp,sp,-24
1d017cd8:	1400bfaf 	sw	ra,20(sp)
1d017cdc:	e880828f 	lw	v0,-32536(gp)
1d017ce0:	08004230 	andi	v0,v0,0x8
1d017ce4:	39004010 	beqz	v0,0x1d017dcc
1d017ce8:	00a0023c 	lui	v0,0xa000
1d017cec:	a80e4324 	addiu	v1,v0,3752
1d017cf0:	0400638c 	lw	v1,4(v1)
1d017cf4:	ff0f6330 	andi	v1,v1,0xfff
1d017cf8:	a80e458c 	lw	a1,3752(v0)
1d017cfc:	ff0fa530 	andi	a1,a1,0xfff
1d017d00:	01006224 	addiu	v0,v1,1
1d017d04:	ff0f4230 	andi	v0,v0,0xfff
1d017d08:	3000a210 	beq	a1,v0,0x1d017dcc
1d017d0c:	00190300 	sll	v1,v1,0x4
1d017d10:	08006324 	addiu	v1,v1,8
1d017d14:	00a0023c 	lui	v0,0xa000
1d017d18:	a80e4224 	addiu	v0,v0,3752
1d017d1c:	21184300 	addu	v1,v0,v1
1d017d20:	0400828c 	lw	v0,4(a0)
1d017d24:	0007477c 	ext	a3,v0,0x1c,0x1
1d017d28:	0800e010 	beqz	a3,0x1d017d4c
1d017d2c:	0f004630 	andi	a2,v0,0xf
1d017d30:	0000858c 	lw	a1,0(a0)
1d017d34:	ff07a530 	andi	a1,a1,0x7ff
1d017d38:	802c0500 	sll	a1,a1,0x12
1d017d3c:	0400828c 	lw	v0,4(a0)
1d017d40:	808a427c 	ext	v0,v0,0xa,0x12
1d017d44:	555f400b 	j	0x1d017d54
1d017d48:	2510a200 	or	v0,a1,v0
1d017d4c:	0000828c 	lw	v0,0(a0)
1d017d50:	ff074230 	andi	v0,v0,0x7ff
1d017d54:	0400658c 	lw	a1,4(v1)
1d017d58:	04e0457c 	ins	a1,v0,0x0,0x1d
1d017d5c:	44efe57c 	ins	a1,a3,0x1d,0x1
1d017d60:	0000628c 	lw	v0,0(v1)
1d017d64:	84ffc27c 	ins	v0,a2,0x1e,0x2
1d017d68:	82300600 	srl	a2,a2,0x2
1d017d6c:	84ffc57c 	ins	a1,a2,0x1e,0x2
1d017d70:	040065ac 	sw	a1,4(v1)
1d017d74:	03000524 	li	a1,3
1d017d78:	c4eea27c 	ins	v0,a1,0x1b,0x3
1d017d7c:	ec80858f 	lw	a1,-32532(gp)
1d017d80:	04d0a27c 	ins	v0,a1,0x0,0x1b
1d017d84:	000062ac 	sw	v0,0(v1)
1d017d88:	08008224 	addiu	v0,a0,8
1d017d8c:	03004588 	lwl	a1,3(v0)
1d017d90:	00004598 	lwr	a1,0(v0)
1d017d94:	07004688 	lwl	a2,7(v0)
1d017d98:	04004698 	lwr	a2,4(v0)
1d017d9c:	080065ac 	sw	a1,8(v1)
1d017da0:	0c0066ac 	sw	a2,12(v1)
1d017da4:	00a0023c 	lui	v0,0xa000
1d017da8:	a80e4324 	addiu	v1,v0,3752
1d017dac:	0400638c 	lw	v1,4(v1)
1d017db0:	01006324 	addiu	v1,v1,1
1d017db4:	ff0f6330 	andi	v1,v1,0xfff
1d017db8:	a80e428c 	lw	v0,3752(v0)
1d017dbc:	ff0f4230 	andi	v0,v0,0xfff
1d017dc0:	02004310 	beq	v0,v1,0x1d017dcc
1d017dc4:	00a0023c 	lui	v0,0xa000
1d017dc8:	ac0e43ac 	sw	v1,3756(v0)
1d017dcc:	a663400f 	jal	0x1d018e98
1d017dd0:	00000000 	nop
1d017dd4:	1400bf8f 	lw	ra,20(sp)
1d017dd8:	0800e003 	jr	ra
1d017ddc:	1800bd27 	addiu	sp,sp,24
1d017de0:	e8ffbd27 	addiu	sp,sp,-24
1d017de4:	1400bfaf 	sw	ra,20(sp)
1d017de8:	1000b0af 	sw	s0,16(sp)
1d017dec:	21808000 	move	s0,a0
1d017df0:	2c80828f 	lw	v0,-32724(gp)
1d017df4:	ec80858f 	lw	a1,-32532(gp)
1d017df8:	2328a200 	subu	a1,a1,v0
1d017dfc:	ba62400f 	jal	0x1d018ae8
1d017e00:	d007a52c 	sltiu	a1,a1,2000
1d017e04:	43004010 	beqz	v0,0x1d017f14
1d017e08:	1400bf8f 	lw	ra,20(sp)
1d017e0c:	e880828f 	lw	v0,-32536(gp)
1d017e10:	01004230 	andi	v0,v0,0x1
1d017e14:	38004010 	beqz	v0,0x1d017ef8
1d017e18:	00a0023c 	lui	v0,0xa000
1d017e1c:	a80e4324 	addiu	v1,v0,3752
1d017e20:	0400638c 	lw	v1,4(v1)
1d017e24:	ff0f6330 	andi	v1,v1,0xfff
1d017e28:	a80e448c 	lw	a0,3752(v0)
1d017e2c:	ff0f8430 	andi	a0,a0,0xfff
1d017e30:	01006224 	addiu	v0,v1,1
1d017e34:	ff0f4230 	andi	v0,v0,0xfff
1d017e38:	2f008210 	beq	a0,v0,0x1d017ef8
1d017e3c:	00190300 	sll	v1,v1,0x4
1d017e40:	08006224 	addiu	v0,v1,8
1d017e44:	00a0033c 	lui	v1,0xa000
1d017e48:	a80e6324 	addiu	v1,v1,3752
1d017e4c:	21186200 	addu	v1,v1,v0
1d017e50:	0400028e 	lw	v0,4(s0)
1d017e54:	0007467c 	ext	a2,v0,0x1c,0x1
1d017e58:	0800c010 	beqz	a2,0x1d017e7c
1d017e5c:	0f004530 	andi	a1,v0,0xf
1d017e60:	0000048e 	lw	a0,0(s0)
1d017e64:	ff078430 	andi	a0,a0,0x7ff
1d017e68:	80240400 	sll	a0,a0,0x12
1d017e6c:	0400028e 	lw	v0,4(s0)
1d017e70:	808a427c 	ext	v0,v0,0xa,0x12
1d017e74:	a15f400b 	j	0x1d017e84
1d017e78:	25108200 	or	v0,a0,v0
1d017e7c:	0000028e 	lw	v0,0(s0)
1d017e80:	ff074230 	andi	v0,v0,0x7ff
1d017e84:	0400648c 	lw	a0,4(v1)
1d017e88:	04e0447c 	ins	a0,v0,0x0,0x1d
1d017e8c:	44efc47c 	ins	a0,a2,0x1d,0x1
1d017e90:	0000628c 	lw	v0,0(v1)
1d017e94:	84ffa27c 	ins	v0,a1,0x1e,0x2
1d017e98:	82280500 	srl	a1,a1,0x2
1d017e9c:	84ffa47c 	ins	a0,a1,0x1e,0x2
1d017ea0:	040064ac 	sw	a0,4(v1)
1d017ea4:	c4ee027c 	ins	v0,zero,0x1b,0x3
1d017ea8:	ec80848f 	lw	a0,-32532(gp)
1d017eac:	04d0827c 	ins	v0,a0,0x0,0x1b
1d017eb0:	000062ac 	sw	v0,0(v1)
1d017eb4:	08000226 	addiu	v0,s0,8
1d017eb8:	03004488 	lwl	a0,3(v0)
1d017ebc:	00004498 	lwr	a0,0(v0)
1d017ec0:	07004588 	lwl	a1,7(v0)
1d017ec4:	04004598 	lwr	a1,4(v0)
1d017ec8:	080064ac 	sw	a0,8(v1)
1d017ecc:	0c0065ac 	sw	a1,12(v1)
1d017ed0:	00a0023c 	lui	v0,0xa000
1d017ed4:	a80e4324 	addiu	v1,v0,3752
1d017ed8:	0400638c 	lw	v1,4(v1)
1d017edc:	01006324 	addiu	v1,v1,1
1d017ee0:	ff0f6330 	andi	v1,v1,0xfff
1d017ee4:	a80e428c 	lw	v0,3752(v0)
1d017ee8:	ff0f4230 	andi	v0,v0,0xfff
1d017eec:	02004310 	beq	v0,v1,0x1d017ef8
1d017ef0:	00a0023c 	lui	v0,0xa000
1d017ef4:	ac0e43ac 	sw	v1,3756(v0)
1d017ef8:	21200000 	move	a0,zero
1d017efc:	4177400f 	jal	0x1d01dd04
1d017f00:	21280002 	move	a1,s0
1d017f04:	0400028e 	lw	v0,4(s0)
1d017f08:	0f004230 	andi	v0,v0,0xf
1d017f0c:	0f004228 	slti	v0,v0,15
1d017f10:	1400bf8f 	lw	ra,20(sp)
1d017f14:	1000b08f 	lw	s0,16(sp)
1d017f18:	0800e003 	jr	ra
1d017f1c:	1800bd27 	addiu	sp,sp,24
1d017f20:	e8ffbd27 	addiu	sp,sp,-24
1d017f24:	1400bfaf 	sw	ra,20(sp)
1d017f28:	1000b0af 	sw	s0,16(sp)
1d017f2c:	21808000 	move	s0,a0
1d017f30:	2c80828f 	lw	v0,-32724(gp)
1d017f34:	ec80858f 	lw	a1,-32532(gp)
1d017f38:	2328a200 	subu	a1,a1,v0
1d017f3c:	ee63400f 	jal	0x1d018fb8
1d017f40:	d007a52c 	sltiu	a1,a1,2000
1d017f44:	44004010 	beqz	v0,0x1d018058
1d017f48:	1400bf8f 	lw	ra,20(sp)
1d017f4c:	e880828f 	lw	v0,-32536(gp)
1d017f50:	04004230 	andi	v0,v0,0x4
1d017f54:	39004010 	beqz	v0,0x1d01803c
1d017f58:	00a0023c 	lui	v0,0xa000
1d017f5c:	a80e4324 	addiu	v1,v0,3752
1d017f60:	0400638c 	lw	v1,4(v1)
1d017f64:	ff0f6330 	andi	v1,v1,0xfff
1d017f68:	a80e448c 	lw	a0,3752(v0)
1d017f6c:	ff0f8430 	andi	a0,a0,0xfff
1d017f70:	01006224 	addiu	v0,v1,1
1d017f74:	ff0f4230 	andi	v0,v0,0xfff
1d017f78:	30008210 	beq	a0,v0,0x1d01803c
1d017f7c:	00190300 	sll	v1,v1,0x4
1d017f80:	08006224 	addiu	v0,v1,8
1d017f84:	00a0033c 	lui	v1,0xa000
1d017f88:	a80e6324 	addiu	v1,v1,3752
1d017f8c:	21186200 	addu	v1,v1,v0
1d017f90:	0400028e 	lw	v0,4(s0)
1d017f94:	0007467c 	ext	a2,v0,0x1c,0x1
1d017f98:	0800c010 	beqz	a2,0x1d017fbc
1d017f9c:	0f004530 	andi	a1,v0,0xf
1d017fa0:	0000048e 	lw	a0,0(s0)
1d017fa4:	ff078430 	andi	a0,a0,0x7ff
1d017fa8:	80240400 	sll	a0,a0,0x12
1d017fac:	0400028e 	lw	v0,4(s0)
1d017fb0:	808a427c 	ext	v0,v0,0xa,0x12
1d017fb4:	f15f400b 	j	0x1d017fc4
1d017fb8:	25108200 	or	v0,a0,v0
1d017fbc:	0000028e 	lw	v0,0(s0)
1d017fc0:	ff074230 	andi	v0,v0,0x7ff
1d017fc4:	0400648c 	lw	a0,4(v1)
1d017fc8:	04e0447c 	ins	a0,v0,0x0,0x1d
1d017fcc:	44efc47c 	ins	a0,a2,0x1d,0x1
1d017fd0:	0000628c 	lw	v0,0(v1)
1d017fd4:	84ffa27c 	ins	v0,a1,0x1e,0x2
1d017fd8:	82280500 	srl	a1,a1,0x2
1d017fdc:	84ffa47c 	ins	a0,a1,0x1e,0x2
1d017fe0:	040064ac 	sw	a0,4(v1)
1d017fe4:	02000424 	li	a0,2
1d017fe8:	c4ee827c 	ins	v0,a0,0x1b,0x3
1d017fec:	ec80848f 	lw	a0,-32532(gp)
1d017ff0:	04d0827c 	ins	v0,a0,0x0,0x1b
1d017ff4:	000062ac 	sw	v0,0(v1)
1d017ff8:	08000226 	addiu	v0,s0,8
1d017ffc:	03004488 	lwl	a0,3(v0)
1d018000:	00004498 	lwr	a0,0(v0)
1d018004:	07004588 	lwl	a1,7(v0)
1d018008:	04004598 	lwr	a1,4(v0)
1d01800c:	080064ac 	sw	a0,8(v1)
1d018010:	0c0065ac 	sw	a1,12(v1)
1d018014:	00a0023c 	lui	v0,0xa000
1d018018:	a80e4324 	addiu	v1,v0,3752
1d01801c:	0400638c 	lw	v1,4(v1)
1d018020:	01006324 	addiu	v1,v1,1
1d018024:	ff0f6330 	andi	v1,v1,0xfff
1d018028:	a80e428c 	lw	v0,3752(v0)
1d01802c:	ff0f4230 	andi	v0,v0,0xfff
1d018030:	02004310 	beq	v0,v1,0x1d01803c
1d018034:	00a0023c 	lui	v0,0xa000
1d018038:	ac0e43ac 	sw	v1,3756(v0)
1d01803c:	01000424 	li	a0,1
1d018040:	4177400f 	jal	0x1d01dd04
1d018044:	21280002 	move	a1,s0
1d018048:	0400028e 	lw	v0,4(s0)
1d01804c:	0f004230 	andi	v0,v0,0xf
1d018050:	0f004228 	slti	v0,v0,15
1d018054:	1400bf8f 	lw	ra,20(sp)
1d018058:	1000b08f 	lw	s0,16(sp)
1d01805c:	0800e003 	jr	ra
1d018060:	1800bd27 	addiu	sp,sp,24
1d018064:	e8ffbd27 	addiu	sp,sp,-24
1d018068:	1400bfaf 	sw	ra,20(sp)
1d01806c:	1000b0af 	sw	s0,16(sp)
1d018070:	21808000 	move	s0,a0
1d018074:	2c80828f 	lw	v0,-32724(gp)
1d018078:	ec80858f 	lw	a1,-32532(gp)
1d01807c:	2328a200 	subu	a1,a1,v0
1d018080:	a064400f 	jal	0x1d019280
1d018084:	d007a52c 	sltiu	a1,a1,2000
1d018088:	44004010 	beqz	v0,0x1d01819c
1d01808c:	1400bf8f 	lw	ra,20(sp)
1d018090:	e880828f 	lw	v0,-32536(gp)
1d018094:	10004230 	andi	v0,v0,0x10
1d018098:	39004010 	beqz	v0,0x1d018180
1d01809c:	00a0023c 	lui	v0,0xa000
1d0180a0:	a80e4324 	addiu	v1,v0,3752
1d0180a4:	0400638c 	lw	v1,4(v1)
1d0180a8:	ff0f6330 	andi	v1,v1,0xfff
1d0180ac:	a80e448c 	lw	a0,3752(v0)
1d0180b0:	ff0f8430 	andi	a0,a0,0xfff
1d0180b4:	01006224 	addiu	v0,v1,1
1d0180b8:	ff0f4230 	andi	v0,v0,0xfff
1d0180bc:	30008210 	beq	a0,v0,0x1d018180
1d0180c0:	00190300 	sll	v1,v1,0x4
1d0180c4:	08006224 	addiu	v0,v1,8
1d0180c8:	00a0033c 	lui	v1,0xa000
1d0180cc:	a80e6324 	addiu	v1,v1,3752
1d0180d0:	21186200 	addu	v1,v1,v0
1d0180d4:	0400028e 	lw	v0,4(s0)
1d0180d8:	0007467c 	ext	a2,v0,0x1c,0x1
1d0180dc:	0800c010 	beqz	a2,0x1d018100
1d0180e0:	0f004530 	andi	a1,v0,0xf
1d0180e4:	0000048e 	lw	a0,0(s0)
1d0180e8:	ff078430 	andi	a0,a0,0x7ff
1d0180ec:	80240400 	sll	a0,a0,0x12
1d0180f0:	0400028e 	lw	v0,4(s0)
1d0180f4:	808a427c 	ext	v0,v0,0xa,0x12
1d0180f8:	4260400b 	j	0x1d018108
1d0180fc:	25108200 	or	v0,a0,v0
1d018100:	0000028e 	lw	v0,0(s0)
1d018104:	ff074230 	andi	v0,v0,0x7ff
1d018108:	0400648c 	lw	a0,4(v1)
1d01810c:	04e0447c 	ins	a0,v0,0x0,0x1d
1d018110:	44efc47c 	ins	a0,a2,0x1d,0x1
1d018114:	0000628c 	lw	v0,0(v1)
1d018118:	84ffa27c 	ins	v0,a1,0x1e,0x2
1d01811c:	82280500 	srl	a1,a1,0x2
1d018120:	84ffa47c 	ins	a0,a1,0x1e,0x2
1d018124:	040064ac 	sw	a0,4(v1)
1d018128:	04000424 	li	a0,4
1d01812c:	c4ee827c 	ins	v0,a0,0x1b,0x3
1d018130:	ec80848f 	lw	a0,-32532(gp)
1d018134:	04d0827c 	ins	v0,a0,0x0,0x1b
1d018138:	000062ac 	sw	v0,0(v1)
1d01813c:	08000226 	addiu	v0,s0,8
1d018140:	03004488 	lwl	a0,3(v0)
1d018144:	00004498 	lwr	a0,0(v0)
1d018148:	07004588 	lwl	a1,7(v0)
1d01814c:	04004598 	lwr	a1,4(v0)
1d018150:	080064ac 	sw	a0,8(v1)
1d018154:	0c0065ac 	sw	a1,12(v1)
1d018158:	00a0023c 	lui	v0,0xa000
1d01815c:	a80e4324 	addiu	v1,v0,3752
1d018160:	0400638c 	lw	v1,4(v1)
1d018164:	01006324 	addiu	v1,v1,1
1d018168:	ff0f6330 	andi	v1,v1,0xfff
1d01816c:	a80e428c 	lw	v0,3752(v0)
1d018170:	ff0f4230 	andi	v0,v0,0xfff
1d018174:	02004310 	beq	v0,v1,0x1d018180
1d018178:	00a0023c 	lui	v0,0xa000
1d01817c:	ac0e43ac 	sw	v1,3756(v0)
1d018180:	02000424 	li	a0,2
1d018184:	4177400f 	jal	0x1d01dd04
1d018188:	21280002 	move	a1,s0
1d01818c:	0400028e 	lw	v0,4(s0)
1d018190:	0f004230 	andi	v0,v0,0xf
1d018194:	0f004228 	slti	v0,v0,15
1d018198:	1400bf8f 	lw	ra,20(sp)
1d01819c:	1000b08f 	lw	s0,16(sp)
1d0181a0:	0800e003 	jr	ra
1d0181a4:	1800bd27 	addiu	sp,sp,24
1d0181a8:	e8ffbd27 	addiu	sp,sp,-24
1d0181ac:	1400bfaf 	sw	ra,20(sp)
1d0181b0:	1000b0af 	sw	s0,16(sp)
1d0181b4:	21808000 	move	s0,a0
1d0181b8:	2c80828f 	lw	v0,-32724(gp)
1d0181bc:	ec80858f 	lw	a1,-32532(gp)
1d0181c0:	2328a200 	subu	a1,a1,v0
1d0181c4:	6465400f 	jal	0x1d019590
1d0181c8:	d007a52c 	sltiu	a1,a1,2000
1d0181cc:	44004010 	beqz	v0,0x1d0182e0
1d0181d0:	1400bf8f 	lw	ra,20(sp)
1d0181d4:	e880828f 	lw	v0,-32536(gp)
1d0181d8:	40004230 	andi	v0,v0,0x40
1d0181dc:	39004010 	beqz	v0,0x1d0182c4
1d0181e0:	00a0023c 	lui	v0,0xa000
1d0181e4:	a80e4324 	addiu	v1,v0,3752
1d0181e8:	0400638c 	lw	v1,4(v1)
1d0181ec:	ff0f6330 	andi	v1,v1,0xfff
1d0181f0:	a80e448c 	lw	a0,3752(v0)
1d0181f4:	ff0f8430 	andi	a0,a0,0xfff
1d0181f8:	01006224 	addiu	v0,v1,1
1d0181fc:	ff0f4230 	andi	v0,v0,0xfff
1d018200:	30008210 	beq	a0,v0,0x1d0182c4
1d018204:	00190300 	sll	v1,v1,0x4
1d018208:	08006224 	addiu	v0,v1,8
1d01820c:	00a0033c 	lui	v1,0xa000
1d018210:	a80e6324 	addiu	v1,v1,3752
1d018214:	21186200 	addu	v1,v1,v0
1d018218:	0400028e 	lw	v0,4(s0)
1d01821c:	0007467c 	ext	a2,v0,0x1c,0x1
1d018220:	0800c010 	beqz	a2,0x1d018244
1d018224:	0f004530 	andi	a1,v0,0xf
1d018228:	0000048e 	lw	a0,0(s0)
1d01822c:	ff078430 	andi	a0,a0,0x7ff
1d018230:	80240400 	sll	a0,a0,0x12
1d018234:	0400028e 	lw	v0,4(s0)
1d018238:	808a427c 	ext	v0,v0,0xa,0x12
1d01823c:	9360400b 	j	0x1d01824c
1d018240:	25108200 	or	v0,a0,v0
1d018244:	0000028e 	lw	v0,0(s0)
1d018248:	ff074230 	andi	v0,v0,0x7ff
1d01824c:	0400648c 	lw	a0,4(v1)
1d018250:	04e0447c 	ins	a0,v0,0x0,0x1d
1d018254:	44efc47c 	ins	a0,a2,0x1d,0x1
1d018258:	0000628c 	lw	v0,0(v1)
1d01825c:	84ffa27c 	ins	v0,a1,0x1e,0x2
1d018260:	82280500 	srl	a1,a1,0x2
1d018264:	84ffa47c 	ins	a0,a1,0x1e,0x2
1d018268:	040064ac 	sw	a0,4(v1)
1d01826c:	06000424 	li	a0,6
1d018270:	c4ee827c 	ins	v0,a0,0x1b,0x3
1d018274:	ec80848f 	lw	a0,-32532(gp)
1d018278:	04d0827c 	ins	v0,a0,0x0,0x1b
1d01827c:	000062ac 	sw	v0,0(v1)
1d018280:	08000226 	addiu	v0,s0,8
1d018284:	03004488 	lwl	a0,3(v0)
1d018288:	00004498 	lwr	a0,0(v0)
1d01828c:	07004588 	lwl	a1,7(v0)
1d018290:	04004598 	lwr	a1,4(v0)
1d018294:	080064ac 	sw	a0,8(v1)
1d018298:	0c0065ac 	sw	a1,12(v1)
1d01829c:	00a0023c 	lui	v0,0xa000
1d0182a0:	a80e4324 	addiu	v1,v0,3752
1d0182a4:	0400638c 	lw	v1,4(v1)
1d0182a8:	01006324 	addiu	v1,v1,1
1d0182ac:	ff0f6330 	andi	v1,v1,0xfff
1d0182b0:	a80e428c 	lw	v0,3752(v0)
1d0182b4:	ff0f4230 	andi	v0,v0,0xfff
1d0182b8:	02004310 	beq	v0,v1,0x1d0182c4
1d0182bc:	00a0023c 	lui	v0,0xa000
1d0182c0:	ac0e43ac 	sw	v1,3756(v0)
1d0182c4:	03000424 	li	a0,3
1d0182c8:	4177400f 	jal	0x1d01dd04
1d0182cc:	21280002 	move	a1,s0
1d0182d0:	0400028e 	lw	v0,4(s0)
1d0182d4:	0f004230 	andi	v0,v0,0xf
1d0182d8:	0f004228 	slti	v0,v0,15
1d0182dc:	1400bf8f 	lw	ra,20(sp)
1d0182e0:	1000b08f 	lw	s0,16(sp)
1d0182e4:	0800e003 	jr	ra
1d0182e8:	1800bd27 	addiu	sp,sp,24
1d0182ec:	ec80838f 	lw	v1,-32532(gp)
1d0182f0:	01006224 	addiu	v0,v1,1
1d0182f4:	ec8082af 	sw	v0,-32532(gp)
1d0182f8:	2c80848f 	lw	a0,-32724(gp)
1d0182fc:	23104400 	subu	v0,v0,a0
1d018300:	d007422c 	sltiu	v0,v0,2000
1d018304:	07004014 	bnez	v0,0x1d018324
1d018308:	e1b16324 	addiu	v1,v1,-19999
1d01830c:	e88080af 	sw	zero,-32536(gp)
1d018310:	2c8083af 	sw	v1,-32724(gp)
1d018314:	00a0023c 	lui	v0,0xa000
1d018318:	a80e40ac 	sw	zero,3752(v0)
1d01831c:	a80e4224 	addiu	v0,v0,3752
1d018320:	040040ac 	sw	zero,4(v0)
1d018324:	0800e003 	jr	ra
1d018328:	00000000 	nop
1d01832c:	d8ffbd27 	addiu	sp,sp,-40
1d018330:	2400bfaf 	sw	ra,36(sp)
1d018334:	2000b0af 	sw	s0,32(sp)
1d018338:	da60400b 	j	0x1d018368
1d01833c:	00a0103c 	lui	s0,0xa000
1d018340:	f960400b 	j	0x1d0183e4
1d018344:	00a0103c 	lui	s0,0xa000
1d018348:	3f004230 	andi	v0,v0,0x3f
1d01834c:	9c0a0326 	addiu	v1,s0,2716
1d018350:	0400638c 	lw	v1,4(v1)
1d018354:	3f006330 	andi	v1,v1,0x3f
1d018358:	03004310 	beq	v0,v1,0x1d018368
1d01835c:	01004224 	addiu	v0,v0,1
1d018360:	3f004230 	andi	v0,v0,0x3f
1d018364:	9c0a02ae 	sw	v0,2716(s0)
1d018368:	9c0a028e 	lw	v0,2716(s0)
1d01836c:	3f004230 	andi	v0,v0,0x3f
1d018370:	9c0a0326 	addiu	v1,s0,2716
1d018374:	0400638c 	lw	v1,4(v1)
1d018378:	3f006330 	andi	v1,v1,0x3f
1d01837c:	f0ff4310 	beq	v0,v1,0x1d018340
1d018380:	00110200 	sll	v0,v0,0x4
1d018384:	9c0a0326 	addiu	v1,s0,2716
1d018388:	21104300 	addu	v0,v0,v1
1d01838c:	0c00458c 	lw	a1,12(v0)
1d018390:	1000448c 	lw	a0,16(v0)
1d018394:	1400438c 	lw	v1,20(v0)
1d018398:	1800428c 	lw	v0,24(v0)
1d01839c:	1000a5af 	sw	a1,16(sp)
1d0183a0:	1400a4af 	sw	a0,20(sp)
1d0183a4:	1800a3af 	sw	v1,24(sp)
1d0183a8:	1c00a2af 	sw	v0,28(sp)
1d0183ac:	7364400f 	jal	0x1d0191cc
1d0183b0:	1000a427 	addiu	a0,sp,16
1d0183b4:	e4ff4014 	bnez	v0,0x1d018348
1d0183b8:	9c0a028e 	lw	v0,2716(s0)
1d0183bc:	f960400b 	j	0x1d0183e4
1d0183c0:	00a0103c 	lui	s0,0xa000
1d0183c4:	3f004230 	andi	v0,v0,0x3f
1d0183c8:	90060326 	addiu	v1,s0,1680
1d0183cc:	0400638c 	lw	v1,4(v1)
1d0183d0:	3f006330 	andi	v1,v1,0x3f
1d0183d4:	03004310 	beq	v0,v1,0x1d0183e4
1d0183d8:	01004224 	addiu	v0,v0,1
1d0183dc:	3f004230 	andi	v0,v0,0x3f
1d0183e0:	900602ae 	sw	v0,1680(s0)
1d0183e4:	9006028e 	lw	v0,1680(s0)
1d0183e8:	3f004230 	andi	v0,v0,0x3f
1d0183ec:	90060326 	addiu	v1,s0,1680
1d0183f0:	0400638c 	lw	v1,4(v1)
1d0183f4:	3f006330 	andi	v1,v1,0x3f
1d0183f8:	0f004310 	beq	v0,v1,0x1d018438
1d0183fc:	00110200 	sll	v0,v0,0x4
1d018400:	90060326 	addiu	v1,s0,1680
1d018404:	21104300 	addu	v0,v0,v1
1d018408:	0c00458c 	lw	a1,12(v0)
1d01840c:	1000448c 	lw	a0,16(v0)
1d018410:	1400438c 	lw	v1,20(v0)
1d018414:	1800428c 	lw	v0,24(v0)
1d018418:	1000a5af 	sw	a1,16(sp)
1d01841c:	1400a4af 	sw	a0,20(sp)
1d018420:	1800a3af 	sw	v1,24(sp)
1d018424:	1c00a2af 	sw	v0,28(sp)
1d018428:	3765400f 	jal	0x1d0194dc
1d01842c:	1000a427 	addiu	a0,sp,16
1d018430:	e4ff4014 	bnez	v0,0x1d0183c4
1d018434:	9006028e 	lw	v0,1680(s0)
1d018438:	2400bf8f 	lw	ra,36(sp)
1d01843c:	2000b08f 	lw	s0,32(sp)
1d018440:	0800e003 	jr	ra
1d018444:	2800bd27 	addiu	sp,sp,40
1d018448:	e0ffbd27 	addiu	sp,sp,-32
1d01844c:	1c00bfaf 	sw	ra,28(sp)
1d018450:	1800b1af 	sw	s1,24(sp)
1d018454:	1400b0af 	sw	s0,20(sp)
1d018458:	21888000 	move	s1,a0
1d01845c:	2180a000 	move	s0,a1
1d018460:	2120a000 	move	a0,a1
1d018464:	21280000 	move	a1,zero
1d018468:	9288400f 	jal	0x1d022248
1d01846c:	40000624 	li	a2,64
1d018470:	00002292 	lbu	v0,0(s1)
1d018474:	000002a2 	sb	v0,0(s0)
1d018478:	00002292 	lbu	v0,0(s1)
1d01847c:	05004010 	beqz	v0,0x1d018494
1d018480:	01000324 	li	v1,1
1d018484:	11004310 	beq	v0,v1,0x1d0184cc
1d018488:	21100000 	move	v0,zero
1d01848c:	3661400b 	j	0x1d0184d8
1d018490:	1c00bf8f 	lw	ra,28(sp)
1d018494:	02000224 	li	v0,2
1d018498:	020002a6 	sh	v0,2(s0)
1d01849c:	040002a6 	sh	v0,4(s0)
1d0184a0:	060000a6 	sh	zero,6(s0)
1d0184a4:	080000a2 	sb	zero,8(s0)
1d0184a8:	03000224 	li	v0,3
1d0184ac:	090002a2 	sb	v0,9(s0)
1d0184b0:	10000426 	addiu	a0,s0,16
1d0184b4:	029d053c 	lui	a1,0x9d02
1d0184b8:	a02ca524 	addiu	a1,a1,11424
1d0184bc:	ba89400f 	jal	0x1d0226e8
1d0184c0:	30000624 	li	a2,48
1d0184c4:	3561400b 	j	0x1d0184d4
1d0184c8:	40000224 	li	v0,64
1d0184cc:	9a89400f 	jal	0x1d022668
1d0184d0:	00000000 	nop
1d0184d4:	1c00bf8f 	lw	ra,28(sp)
1d0184d8:	1800b18f 	lw	s1,24(sp)
1d0184dc:	1400b08f 	lw	s0,20(sp)
1d0184e0:	0800e003 	jr	ra
1d0184e4:	2000bd27 	addiu	sp,sp,32
1d0184e8:	00008290 	lbu	v0,0(a0)
1d0184ec:	03004010 	beqz	v0,0x1d0184fc
1d0184f0:	e88082af 	sw	v0,-32536(gp)
1d0184f4:	ec80828f 	lw	v0,-32532(gp)
1d0184f8:	2c8082af 	sw	v0,-32724(gp)
1d0184fc:	0800e003 	jr	ra
1d018500:	00000000 	nop
1d018504:	00a0033c 	lui	v1,0xa000
1d018508:	a80e628c 	lw	v0,3752(v1)
1d01850c:	ff0f4230 	andi	v0,v0,0xfff
1d018510:	a80e6324 	addiu	v1,v1,3752
1d018514:	0400638c 	lw	v1,4(v1)
1d018518:	ff0f6330 	andi	v1,v1,0xfff
1d01851c:	a4004310 	beq	v0,v1,0x1d0187b0
1d018520:	00000000 	nop
1d018524:	0c008010 	beqz	a0,0x1d018558
1d018528:	00190200 	sll	v1,v0,0x4
1d01852c:	00a0053c 	lui	a1,0xa000
1d018530:	a80ea524 	addiu	a1,a1,3752
1d018534:	21186500 	addu	v1,v1,a1
1d018538:	0800678c 	lw	a3,8(v1)
1d01853c:	0c00668c 	lw	a2,12(v1)
1d018540:	1000658c 	lw	a1,16(v1)
1d018544:	1400638c 	lw	v1,20(v1)
1d018548:	000087ac 	sw	a3,0(a0)
1d01854c:	040086ac 	sw	a2,4(a0)
1d018550:	080085ac 	sw	a1,8(a0)
1d018554:	0c0083ac 	sw	v1,12(a0)
1d018558:	00a0033c 	lui	v1,0xa000
1d01855c:	01004224 	addiu	v0,v0,1
1d018560:	ff0f4230 	andi	v0,v0,0xfff
1d018564:	a80e62ac 	sw	v0,3752(v1)
1d018568:	0000858c 	lw	a1,0(a0)
1d01856c:	1cd3023c 	lui	v0,0xd31c
1d018570:	66f14234 	ori	v0,v0,0xf166
1d018574:	2610a200 	xor	v0,a1,v0
1d018578:	000082ac 	sw	v0,0(a0)
1d01857c:	0400858c 	lw	a1,4(a0)
1d018580:	a343023c 	lui	v0,0x43a3
1d018584:	58624224 	addiu	v0,v0,25176
1d018588:	2610a200 	xor	v0,a1,v0
1d01858c:	040082ac 	sw	v0,4(a0)
1d018590:	0800858c 	lw	a1,8(a0)
1d018594:	daac023c 	lui	v0,0xacda
1d018598:	1ca14234 	ori	v0,v0,0xa11c
1d01859c:	2610a200 	xor	v0,a1,v0
1d0185a0:	080082ac 	sw	v0,8(a0)
1d0185a4:	0c00858c 	lw	a1,12(a0)
1d0185a8:	87a4023c 	lui	v0,0xa487
1d0185ac:	6a6c4224 	addiu	v0,v0,27754
1d0185b0:	2610a200 	xor	v0,a1,v0
1d0185b4:	0c0082ac 	sw	v0,12(a0)
1d0185b8:	a80e628c 	lw	v0,3752(v1)
1d0185bc:	ff0f4230 	andi	v0,v0,0xfff
1d0185c0:	a80e6324 	addiu	v1,v1,3752
1d0185c4:	0400638c 	lw	v1,4(v1)
1d0185c8:	ff0f6330 	andi	v1,v1,0xfff
1d0185cc:	7a004310 	beq	v0,v1,0x1d0187b8
1d0185d0:	10008524 	addiu	a1,a0,16
1d0185d4:	0c00a010 	beqz	a1,0x1d018608
1d0185d8:	00290200 	sll	a1,v0,0x4
1d0185dc:	00a0063c 	lui	a2,0xa000
1d0185e0:	a80ec624 	addiu	a2,a2,3752
1d0185e4:	2128a600 	addu	a1,a1,a2
1d0185e8:	0800a88c 	lw	t0,8(a1)
1d0185ec:	0c00a78c 	lw	a3,12(a1)
1d0185f0:	1000a68c 	lw	a2,16(a1)
1d0185f4:	1400a58c 	lw	a1,20(a1)
1d0185f8:	100088ac 	sw	t0,16(a0)
1d0185fc:	140087ac 	sw	a3,20(a0)
1d018600:	180086ac 	sw	a2,24(a0)
1d018604:	1c0085ac 	sw	a1,28(a0)
1d018608:	01004224 	addiu	v0,v0,1
1d01860c:	ff0f4630 	andi	a2,v0,0xfff
1d018610:	00a0053c 	lui	a1,0xa000
1d018614:	a80ea6ac 	sw	a2,3752(a1)
1d018618:	1000868c 	lw	a2,16(a0)
1d01861c:	b3ec053c 	lui	a1,0xecb3
1d018620:	1d67a524 	addiu	a1,a1,26397
1d018624:	2628c500 	xor	a1,a2,a1
1d018628:	100085ac 	sw	a1,16(a0)
1d01862c:	1400868c 	lw	a2,20(a0)
1d018630:	538f053c 	lui	a1,0x8f53
1d018634:	bceaa534 	ori	a1,a1,0xeabc
1d018638:	2628c500 	xor	a1,a2,a1
1d01863c:	140085ac 	sw	a1,20(a0)
1d018640:	1800868c 	lw	a2,24(a0)
1d018644:	8e9d053c 	lui	a1,0x9d8e
1d018648:	ae2ca524 	addiu	a1,a1,11438
1d01864c:	2628c500 	xor	a1,a2,a1
1d018650:	180085ac 	sw	a1,24(a0)
1d018654:	1c00868c 	lw	a2,28(a0)
1d018658:	5e23053c 	lui	a1,0x235e
1d01865c:	98cda534 	ori	a1,a1,0xcd98
1d018660:	2628c500 	xor	a1,a2,a1
1d018664:	ff0f4230 	andi	v0,v0,0xfff
1d018668:	55006210 	beq	v1,v0,0x1d0187c0
1d01866c:	1c0085ac 	sw	a1,28(a0)
1d018670:	20008524 	addiu	a1,a0,32
1d018674:	0c00a010 	beqz	a1,0x1d0186a8
1d018678:	00290200 	sll	a1,v0,0x4
1d01867c:	00a0063c 	lui	a2,0xa000
1d018680:	a80ec624 	addiu	a2,a2,3752
1d018684:	2128a600 	addu	a1,a1,a2
1d018688:	0800a88c 	lw	t0,8(a1)
1d01868c:	0c00a78c 	lw	a3,12(a1)
1d018690:	1000a68c 	lw	a2,16(a1)
1d018694:	1400a58c 	lw	a1,20(a1)
1d018698:	200088ac 	sw	t0,32(a0)
1d01869c:	240087ac 	sw	a3,36(a0)
1d0186a0:	280086ac 	sw	a2,40(a0)
1d0186a4:	2c0085ac 	sw	a1,44(a0)
1d0186a8:	01004224 	addiu	v0,v0,1
1d0186ac:	ff0f4630 	andi	a2,v0,0xfff
1d0186b0:	00a0053c 	lui	a1,0xa000
1d0186b4:	a80ea6ac 	sw	a2,3752(a1)
1d0186b8:	2000868c 	lw	a2,32(a0)
1d0186bc:	6257053c 	lui	a1,0x5762
1d0186c0:	dc33a524 	addiu	a1,a1,13276
1d0186c4:	2628c500 	xor	a1,a2,a1
1d0186c8:	200085ac 	sw	a1,32(a0)
1d0186cc:	2400868c 	lw	a2,36(a0)
1d0186d0:	282c053c 	lui	a1,0x2c28
1d0186d4:	4a11a524 	addiu	a1,a1,4426
1d0186d8:	2628c500 	xor	a1,a2,a1
1d0186dc:	240085ac 	sw	a1,36(a0)
1d0186e0:	2800868c 	lw	a2,40(a0)
1d0186e4:	ad65053c 	lui	a1,0x65ad
1d0186e8:	9746a524 	addiu	a1,a1,18071
1d0186ec:	2628c500 	xor	a1,a2,a1
1d0186f0:	280085ac 	sw	a1,40(a0)
1d0186f4:	2c00868c 	lw	a2,44(a0)
1d0186f8:	b582053c 	lui	a1,0x82b5
1d0186fc:	67f4a534 	ori	a1,a1,0xf467
1d018700:	2628c500 	xor	a1,a2,a1
1d018704:	ff0f4230 	andi	v0,v0,0xfff
1d018708:	2f006210 	beq	v1,v0,0x1d0187c8
1d01870c:	2c0085ac 	sw	a1,44(a0)
1d018710:	30008324 	addiu	v1,a0,48
1d018714:	0c006010 	beqz	v1,0x1d018748
1d018718:	00190200 	sll	v1,v0,0x4
1d01871c:	00a0053c 	lui	a1,0xa000
1d018720:	a80ea524 	addiu	a1,a1,3752
1d018724:	21186500 	addu	v1,v1,a1
1d018728:	0800678c 	lw	a3,8(v1)
1d01872c:	0c00668c 	lw	a2,12(v1)
1d018730:	1000658c 	lw	a1,16(v1)
1d018734:	1400638c 	lw	v1,20(v1)
1d018738:	300087ac 	sw	a3,48(a0)
1d01873c:	340086ac 	sw	a2,52(a0)
1d018740:	380085ac 	sw	a1,56(a0)
1d018744:	3c0083ac 	sw	v1,60(a0)
1d018748:	01004224 	addiu	v0,v0,1
1d01874c:	ff0f4330 	andi	v1,v0,0xfff
1d018750:	00a0023c 	lui	v0,0xa000
1d018754:	a80e43ac 	sw	v1,3752(v0)
1d018758:	3000838c 	lw	v1,48(a0)
1d01875c:	f3fc023c 	lui	v0,0xfcf3
1d018760:	286b4224 	addiu	v0,v0,27432
1d018764:	26106200 	xor	v0,v1,v0
1d018768:	300082ac 	sw	v0,48(a0)
1d01876c:	3400838c 	lw	v1,52(a0)
1d018770:	4ee5023c 	lui	v0,0xe54e
1d018774:	a1264224 	addiu	v0,v0,9889
1d018778:	26106200 	xor	v0,v1,v0
1d01877c:	340082ac 	sw	v0,52(a0)
1d018780:	3800838c 	lw	v1,56(a0)
1d018784:	81ba023c 	lui	v0,0xba81
1d018788:	b7ec4234 	ori	v0,v0,0xecb7
1d01878c:	26106200 	xor	v0,v1,v0
1d018790:	380082ac 	sw	v0,56(a0)
1d018794:	3c00838c 	lw	v1,60(a0)
1d018798:	8dc1023c 	lui	v0,0xc18d
1d01879c:	f1ae4234 	ori	v0,v0,0xaef1
1d0187a0:	26106200 	xor	v0,v1,v0
1d0187a4:	3c0082ac 	sw	v0,60(a0)
1d0187a8:	0800e003 	jr	ra
1d0187ac:	40000224 	li	v0,64
1d0187b0:	0800e003 	jr	ra
1d0187b4:	21100000 	move	v0,zero
1d0187b8:	0800e003 	jr	ra
1d0187bc:	10000224 	li	v0,16
1d0187c0:	0800e003 	jr	ra
1d0187c4:	20000224 	li	v0,32
1d0187c8:	0800e003 	jr	ra
1d0187cc:	30000224 	li	v0,48
1d0187d0:	c0ffbd27 	addiu	sp,sp,-64
1d0187d4:	3c00bfaf 	sw	ra,60(sp)
1d0187d8:	3800b1af 	sw	s1,56(sp)
1d0187dc:	3400b0af 	sw	s0,52(sp)
1d0187e0:	21888000 	move	s1,a0
1d0187e4:	21200000 	move	a0,zero
1d0187e8:	dc7f400f 	jal	0x1d01ff70
1d0187ec:	01000524 	li	a1,1
1d0187f0:	21200000 	move	a0,zero
1d0187f4:	cb7f400f 	jal	0x1d01ff2c
1d0187f8:	04000524 	li	a1,4
1d0187fc:	04001024 	li	s0,4
1d018800:	c47f400f 	jal	0x1d01ff10
1d018804:	21200000 	move	a0,zero
1d018808:	fdff5014 	bne	v0,s0,0x1d018800
1d01880c:	00000000 	nop
1d018810:	06002016 	bnez	s1,0x1d01882c
1d018814:	02000224 	li	v0,2
1d018818:	21200000 	move	a0,zero
1d01881c:	dc7f400f 	jal	0x1d01ff70
1d018820:	21280000 	move	a1,zero
1d018824:	5262400b 	j	0x1d018948
1d018828:	3c00bf8f 	lw	ra,60(sp)
1d01882c:	1c00a2af 	sw	v0,28(sp)
1d018830:	1800a2af 	sw	v0,24(sp)
1d018834:	2000a2af 	sw	v0,32(sp)
1d018838:	01001024 	li	s0,1
1d01883c:	2800b0af 	sw	s0,40(sp)
1d018840:	2c00b0af 	sw	s0,44(sp)
1d018844:	2400b0af 	sw	s0,36(sp)
1d018848:	21200000 	move	a0,zero
1d01884c:	1800a527 	addiu	a1,sp,24
1d018850:	6202063c 	lui	a2,0x262
1d018854:	005ac624 	addiu	a2,a2,23040
1d018858:	6d7f400f 	jal	0x1d01fdb4
1d01885c:	21382002 	move	a3,s1
1d018860:	21200000 	move	a0,zero
1d018864:	01a0053c 	lui	a1,0xa001
1d018868:	f016a524 	addiu	a1,a1,5872
1d01886c:	d47f400f 	jal	0x1d01ff50
1d018870:	40080624 	li	a2,2112
1d018874:	21200000 	move	a0,zero
1d018878:	21280000 	move	a1,zero
1d01887c:	40000624 	li	a2,64
1d018880:	7888400f 	jal	0x1d0221e0
1d018884:	01000724 	li	a3,1
1d018888:	1000b0af 	sw	s0,16(sp)
1d01888c:	21200000 	move	a0,zero
1d018890:	01000524 	li	a1,1
1d018894:	40000624 	li	a2,64
1d018898:	d983400f 	jal	0x1d020f64
1d01889c:	01000724 	li	a3,1
1d0188a0:	03000224 	li	v0,3
1d0188a4:	1000a2af 	sw	v0,16(sp)
1d0188a8:	21200000 	move	a0,zero
1d0188ac:	02000524 	li	a1,2
1d0188b0:	04000624 	li	a2,4
1d0188b4:	d983400f 	jal	0x1d020f64
1d0188b8:	01000724 	li	a3,1
1d0188bc:	1000b0af 	sw	s0,16(sp)
1d0188c0:	21200000 	move	a0,zero
1d0188c4:	21280000 	move	a1,zero
1d0188c8:	21300000 	move	a2,zero
1d0188cc:	b080400f 	jal	0x1d0202c0
1d0188d0:	01000724 	li	a3,1
1d0188d4:	21200000 	move	a0,zero
1d0188d8:	21280000 	move	a1,zero
1d0188dc:	21300000 	move	a2,zero
1d0188e0:	da80400f 	jal	0x1d020368
1d0188e4:	01000724 	li	a3,1
1d0188e8:	21200000 	move	a0,zero
1d0188ec:	21280000 	move	a1,zero
1d0188f0:	21300000 	move	a2,zero
1d0188f4:	2d81400f 	jal	0x1d0204b4
1d0188f8:	21380000 	move	a3,zero
1d0188fc:	21200000 	move	a0,zero
1d018900:	21280000 	move	a1,zero
1d018904:	fb80400f 	jal	0x1d0203ec
1d018908:	01000624 	li	a2,1
1d01890c:	21200000 	move	a0,zero
1d018910:	03000524 	li	a1,3
1d018914:	d885400f 	jal	0x1d021760
1d018918:	01000624 	li	a2,1
1d01891c:	21200000 	move	a0,zero
1d018920:	08080524 	li	a1,2056
1d018924:	d885400f 	jal	0x1d021760
1d018928:	21300000 	move	a2,zero
1d01892c:	21200000 	move	a0,zero
1d018930:	cb7f400f 	jal	0x1d01ff2c
1d018934:	21280000 	move	a1,zero
1d018938:	c47f400f 	jal	0x1d01ff10
1d01893c:	21200000 	move	a0,zero
1d018940:	fdff4014 	bnez	v0,0x1d018938
1d018944:	3c00bf8f 	lw	ra,60(sp)
1d018948:	3800b18f 	lw	s1,56(sp)
1d01894c:	3400b08f 	lw	s0,52(sp)
1d018950:	0800e003 	jr	ra
1d018954:	4000bd27 	addiu	sp,sp,64
1d018958:	e8ffbd27 	addiu	sp,sp,-24
1d01895c:	1400bfaf 	sw	ra,20(sp)
1d018960:	1000b0af 	sw	s0,16(sp)
1d018964:	21200000 	move	a0,zero
1d018968:	dc7f400f 	jal	0x1d01ff70
1d01896c:	01000524 	li	a1,1
1d018970:	21200000 	move	a0,zero
1d018974:	cb7f400f 	jal	0x1d01ff2c
1d018978:	04000524 	li	a1,4
1d01897c:	04001024 	li	s0,4
1d018980:	c47f400f 	jal	0x1d01ff10
1d018984:	21200000 	move	a0,zero
1d018988:	fdff5014 	bne	v0,s0,0x1d018980
1d01898c:	21200000 	move	a0,zero
1d018990:	dc7f400f 	jal	0x1d01ff70
1d018994:	21280000 	move	a1,zero
1d018998:	1400bf8f 	lw	ra,20(sp)
1d01899c:	1000b08f 	lw	s0,16(sp)
1d0189a0:	0800e003 	jr	ra
1d0189a4:	1800bd27 	addiu	sp,sp,24
1d0189a8:	e8ffbd27 	addiu	sp,sp,-24
1d0189ac:	1400bfaf 	sw	ra,20(sp)
1d0189b0:	ea7f400f 	jal	0x1d01ffa8
1d0189b4:	21200000 	move	a0,zero
1d0189b8:	2b100200 	sltu	v0,zero,v0
1d0189bc:	1400bf8f 	lw	ra,20(sp)
1d0189c0:	0800e003 	jr	ra
1d0189c4:	1800bd27 	addiu	sp,sp,24
1d0189c8:	e8ffbd27 	addiu	sp,sp,-24
1d0189cc:	1400bfaf 	sw	ra,20(sp)
1d0189d0:	1000b0af 	sw	s0,16(sp)
1d0189d4:	21808000 	move	s0,a0
1d0189d8:	21200000 	move	a0,zero
1d0189dc:	2d84400f 	jal	0x1d0210b4
1d0189e0:	01000524 	li	a1,1
1d0189e4:	18004050 	beqzl	v0,0x1d018a48
1d0189e8:	21100000 	move	v0,zero
1d0189ec:	0300068a 	lwl	a2,3(s0)
1d0189f0:	0000069a 	lwr	a2,0(s0)
1d0189f4:	0700058a 	lwl	a1,7(s0)
1d0189f8:	0400059a 	lwr	a1,4(s0)
1d0189fc:	0b00048a 	lwl	a0,11(s0)
1d018a00:	0800049a 	lwr	a0,8(s0)
1d018a04:	0f00038a 	lwl	v1,15(s0)
1d018a08:	0c00039a 	lwr	v1,12(s0)
1d018a0c:	030046a8 	swl	a2,3(v0)
1d018a10:	000046b8 	swr	a2,0(v0)
1d018a14:	070045a8 	swl	a1,7(v0)
1d018a18:	040045b8 	swr	a1,4(v0)
1d018a1c:	0b0044a8 	swl	a0,11(v0)
1d018a20:	080044b8 	swr	a0,8(v0)
1d018a24:	0f0043a8 	swl	v1,15(v0)
1d018a28:	0c0043b8 	swr	v1,12(v0)
1d018a2c:	21200000 	move	a0,zero
1d018a30:	6e88400f 	jal	0x1d0221b8
1d018a34:	01000524 	li	a1,1
1d018a38:	21200000 	move	a0,zero
1d018a3c:	1a84400f 	jal	0x1d021068
1d018a40:	01000524 	li	a1,1
1d018a44:	01000224 	li	v0,1
1d018a48:	1400bf8f 	lw	ra,20(sp)
1d018a4c:	1000b08f 	lw	s0,16(sp)
1d018a50:	0800e003 	jr	ra
1d018a54:	1800bd27 	addiu	sp,sp,24
1d018a58:	e8ffbd27 	addiu	sp,sp,-24
1d018a5c:	1400bfaf 	sw	ra,20(sp)
1d018a60:	1000b0af 	sw	s0,16(sp)
1d018a64:	21808000 	move	s0,a0
1d018a68:	21200000 	move	a0,zero
1d018a6c:	2d84400f 	jal	0x1d0210b4
1d018a70:	02000524 	li	a1,2
1d018a74:	18004050 	beqzl	v0,0x1d018ad8
1d018a78:	21100000 	move	v0,zero
1d018a7c:	0300068a 	lwl	a2,3(s0)
1d018a80:	0000069a 	lwr	a2,0(s0)
1d018a84:	0700058a 	lwl	a1,7(s0)
1d018a88:	0400059a 	lwr	a1,4(s0)
1d018a8c:	0b00048a 	lwl	a0,11(s0)
1d018a90:	0800049a 	lwr	a0,8(s0)
1d018a94:	0f00038a 	lwl	v1,15(s0)
1d018a98:	0c00039a 	lwr	v1,12(s0)
1d018a9c:	030046a8 	swl	a2,3(v0)
1d018aa0:	000046b8 	swr	a2,0(v0)
1d018aa4:	070045a8 	swl	a1,7(v0)
1d018aa8:	040045b8 	swr	a1,4(v0)
1d018aac:	0b0044a8 	swl	a0,11(v0)
1d018ab0:	080044b8 	swr	a0,8(v0)
1d018ab4:	0f0043a8 	swl	v1,15(v0)
1d018ab8:	0c0043b8 	swr	v1,12(v0)
1d018abc:	21200000 	move	a0,zero
1d018ac0:	6e88400f 	jal	0x1d0221b8
1d018ac4:	02000524 	li	a1,2
1d018ac8:	21200000 	move	a0,zero
1d018acc:	1a84400f 	jal	0x1d021068
1d018ad0:	02000524 	li	a1,2
1d018ad4:	01000224 	li	v0,1
1d018ad8:	1400bf8f 	lw	ra,20(sp)
1d018adc:	1000b08f 	lw	s0,16(sp)
1d018ae0:	0800e003 	jr	ra
1d018ae4:	1800bd27 	addiu	sp,sp,24
1d018ae8:	d8ffbd27 	addiu	sp,sp,-40
1d018aec:	2400bfaf 	sw	ra,36(sp)
1d018af0:	2000b3af 	sw	s3,32(sp)
1d018af4:	1c00b2af 	sw	s2,28(sp)
1d018af8:	1800b1af 	sw	s1,24(sp)
1d018afc:	1400b0af 	sw	s0,20(sp)
1d018b00:	21808000 	move	s0,a0
1d018b04:	2188a000 	move	s1,a1
1d018b08:	21200000 	move	a0,zero
1d018b0c:	5d88400f 	jal	0x1d022174
1d018b10:	21280000 	move	a1,zero
1d018b14:	16004010 	beqz	v0,0x1d018b70
1d018b18:	00000000 	nop
1d018b1c:	03004588 	lwl	a1,3(v0)
1d018b20:	00004598 	lwr	a1,0(v0)
1d018b24:	07004488 	lwl	a0,7(v0)
1d018b28:	04004498 	lwr	a0,4(v0)
1d018b2c:	0b004388 	lwl	v1,11(v0)
1d018b30:	08004398 	lwr	v1,8(v0)
1d018b34:	0f004688 	lwl	a2,15(v0)
1d018b38:	0c004698 	lwr	a2,12(v0)
1d018b3c:	030005aa 	swl	a1,3(s0)
1d018b40:	000005ba 	swr	a1,0(s0)
1d018b44:	070004aa 	swl	a0,7(s0)
1d018b48:	040004ba 	swr	a0,4(s0)
1d018b4c:	0b0003aa 	swl	v1,11(s0)
1d018b50:	080003ba 	swr	v1,8(s0)
1d018b54:	0f0006aa 	swl	a2,15(s0)
1d018b58:	0c0006ba 	swr	a2,12(s0)
1d018b5c:	21200000 	move	a0,zero
1d018b60:	6e88400f 	jal	0x1d0221b8
1d018b64:	21280000 	move	a1,zero
1d018b68:	1163400b 	j	0x1d018c44
1d018b6c:	01000224 	li	v0,1
1d018b70:	34002012 	beqz	s1,0x1d018c44
1d018b74:	21100000 	move	v0,zero
1d018b78:	098a400f 	jal	0x1d022824
1d018b7c:	21200000 	move	a0,zero
1d018b80:	21904000 	move	s2,v0
1d018b84:	108a400f 	jal	0x1d022840
1d018b88:	21200000 	move	a0,zero
1d018b8c:	21884000 	move	s1,v0
1d018b90:	a880938f 	lw	s3,-32600(gp)
1d018b94:	2b986202 	sltu	s3,s3,v0
1d018b98:	ac80828f 	lw	v0,-32596(gp)
1d018b9c:	2b105200 	sltu	v0,v0,s2
1d018ba0:	10004054 	bnezl	v0,0x1d018be4
1d018ba4:	21200002 	move	a0,s0
1d018ba8:	0b006052 	beqzl	s3,0x1d018bd8
1d018bac:	ac8092af 	sw	s2,-32596(gp)
1d018bb0:	0763400b 	j	0x1d018c1c
1d018bb4:	21200002 	move	a0,s0
1d018bb8:	05006012 	beqz	s3,0x1d018bd0
1d018bbc:	a880848f 	lw	a0,-32600(gp)
1d018bc0:	23186400 	subu	v1,v1,a0
1d018bc4:	0b0003a2 	sb	v1,11(s0)
1d018bc8:	f562400b 	j	0x1d018bd4
1d018bcc:	21984000 	move	s3,v0
1d018bd0:	21984000 	move	s3,v0
1d018bd4:	ac8092af 	sw	s2,-32596(gp)
1d018bd8:	a88091af 	sw	s1,-32600(gp)
1d018bdc:	1163400b 	j	0x1d018c44
1d018be0:	21106002 	move	v0,s3
1d018be4:	21280000 	move	a1,zero
1d018be8:	9288400f 	jal	0x1d022248
1d018bec:	10000624 	li	a2,16
1d018bf0:	0f000224 	li	v0,15
1d018bf4:	040002ae 	sw	v0,4(s0)
1d018bf8:	ff004232 	andi	v0,s2,0xff
1d018bfc:	080002a2 	sb	v0,8(s0)
1d018c00:	ff002332 	andi	v1,s1,0xff
1d018c04:	090003a2 	sb	v1,9(s0)
1d018c08:	ac80848f 	lw	a0,-32596(gp)
1d018c0c:	23104400 	subu	v0,v0,a0
1d018c10:	0a0002a2 	sb	v0,10(s0)
1d018c14:	ee62400b 	j	0x1d018bb8
1d018c18:	01000224 	li	v0,1
1d018c1c:	21280000 	move	a1,zero
1d018c20:	9288400f 	jal	0x1d022248
1d018c24:	10000624 	li	a2,16
1d018c28:	0f000224 	li	v0,15
1d018c2c:	040002ae 	sw	v0,4(s0)
1d018c30:	080012a2 	sb	s2,8(s0)
1d018c34:	ff002332 	andi	v1,s1,0xff
1d018c38:	090003a2 	sb	v1,9(s0)
1d018c3c:	ee62400b 	j	0x1d018bb8
1d018c40:	21106002 	move	v0,s3
1d018c44:	2400bf8f 	lw	ra,36(sp)
1d018c48:	2000b38f 	lw	s3,32(sp)
1d018c4c:	1c00b28f 	lw	s2,28(sp)
1d018c50:	1800b18f 	lw	s1,24(sp)
1d018c54:	1400b08f 	lw	s0,20(sp)
1d018c58:	0800e003 	jr	ra
1d018c5c:	2800bd27 	addiu	sp,sp,40
1d018c60:	e8ffbd27 	addiu	sp,sp,-24
1d018c64:	1400bfaf 	sw	ra,20(sp)
1d018c68:	108a400f 	jal	0x1d022840
1d018c6c:	21200000 	move	a0,zero
1d018c70:	ff004230 	andi	v0,v0,0xff
1d018c74:	1400bf8f 	lw	ra,20(sp)
1d018c78:	0800e003 	jr	ra
1d018c7c:	1800bd27 	addiu	sp,sp,24
1d018c80:	e8ffbd27 	addiu	sp,sp,-24
1d018c84:	1400bfaf 	sw	ra,20(sp)
1d018c88:	098a400f 	jal	0x1d022824
1d018c8c:	21200000 	move	a0,zero
1d018c90:	ff004230 	andi	v0,v0,0xff
1d018c94:	1400bf8f 	lw	ra,20(sp)
1d018c98:	0800e003 	jr	ra
1d018c9c:	1800bd27 	addiu	sp,sp,24
1d018ca0:	c0ffbd27 	addiu	sp,sp,-64
1d018ca4:	3c00bfaf 	sw	ra,60(sp)
1d018ca8:	3800b1af 	sw	s1,56(sp)
1d018cac:	3400b0af 	sw	s0,52(sp)
1d018cb0:	21888000 	move	s1,a0
1d018cb4:	01000424 	li	a0,1
1d018cb8:	dc7f400f 	jal	0x1d01ff70
1d018cbc:	01000524 	li	a1,1
1d018cc0:	01000424 	li	a0,1
1d018cc4:	cb7f400f 	jal	0x1d01ff2c
1d018cc8:	04000524 	li	a1,4
1d018ccc:	04001024 	li	s0,4
1d018cd0:	c47f400f 	jal	0x1d01ff10
1d018cd4:	01000424 	li	a0,1
1d018cd8:	fdff5014 	bne	v0,s0,0x1d018cd0
1d018cdc:	00000000 	nop
1d018ce0:	06002016 	bnez	s1,0x1d018cfc
1d018ce4:	02000224 	li	v0,2
1d018ce8:	01000424 	li	a0,1
1d018cec:	dc7f400f 	jal	0x1d01ff70
1d018cf0:	21280000 	move	a1,zero
1d018cf4:	8663400b 	j	0x1d018e18
1d018cf8:	3c00bf8f 	lw	ra,60(sp)
1d018cfc:	1c00a2af 	sw	v0,28(sp)
1d018d00:	1800a2af 	sw	v0,24(sp)
1d018d04:	2000a2af 	sw	v0,32(sp)
1d018d08:	01001024 	li	s0,1
1d018d0c:	2800b0af 	sw	s0,40(sp)
1d018d10:	2c00b0af 	sw	s0,44(sp)
1d018d14:	2400b0af 	sw	s0,36(sp)
1d018d18:	01000424 	li	a0,1
1d018d1c:	1800a527 	addiu	a1,sp,24
1d018d20:	6202063c 	lui	a2,0x262
1d018d24:	005ac624 	addiu	a2,a2,23040
1d018d28:	6d7f400f 	jal	0x1d01fdb4
1d018d2c:	21382002 	move	a3,s1
1d018d30:	01000424 	li	a0,1
1d018d34:	01a0053c 	lui	a1,0xa001
1d018d38:	b00ea524 	addiu	a1,a1,3760
1d018d3c:	d47f400f 	jal	0x1d01ff50
1d018d40:	40080624 	li	a2,2112
1d018d44:	01000424 	li	a0,1
1d018d48:	21280000 	move	a1,zero
1d018d4c:	40000624 	li	a2,64
1d018d50:	7888400f 	jal	0x1d0221e0
1d018d54:	01000724 	li	a3,1
1d018d58:	1000b0af 	sw	s0,16(sp)
1d018d5c:	01000424 	li	a0,1
1d018d60:	01000524 	li	a1,1
1d018d64:	40000624 	li	a2,64
1d018d68:	d983400f 	jal	0x1d020f64
1d018d6c:	01000724 	li	a3,1
1d018d70:	03000224 	li	v0,3
1d018d74:	1000a2af 	sw	v0,16(sp)
1d018d78:	01000424 	li	a0,1
1d018d7c:	02000524 	li	a1,2
1d018d80:	04000624 	li	a2,4
1d018d84:	d983400f 	jal	0x1d020f64
1d018d88:	01000724 	li	a3,1
1d018d8c:	1000b0af 	sw	s0,16(sp)
1d018d90:	01000424 	li	a0,1
1d018d94:	21280000 	move	a1,zero
1d018d98:	21300000 	move	a2,zero
1d018d9c:	b080400f 	jal	0x1d0202c0
1d018da0:	01000724 	li	a3,1
1d018da4:	01000424 	li	a0,1
1d018da8:	21280000 	move	a1,zero
1d018dac:	21300000 	move	a2,zero
1d018db0:	da80400f 	jal	0x1d020368
1d018db4:	01000724 	li	a3,1
1d018db8:	01000424 	li	a0,1
1d018dbc:	21280000 	move	a1,zero
1d018dc0:	21300000 	move	a2,zero
1d018dc4:	2d81400f 	jal	0x1d0204b4
1d018dc8:	21380000 	move	a3,zero
1d018dcc:	01000424 	li	a0,1
1d018dd0:	21280000 	move	a1,zero
1d018dd4:	fb80400f 	jal	0x1d0203ec
1d018dd8:	01000624 	li	a2,1
1d018ddc:	01000424 	li	a0,1
1d018de0:	03000524 	li	a1,3
1d018de4:	d885400f 	jal	0x1d021760
1d018de8:	01000624 	li	a2,1
1d018dec:	01000424 	li	a0,1
1d018df0:	08080524 	li	a1,2056
1d018df4:	d885400f 	jal	0x1d021760
1d018df8:	21300000 	move	a2,zero
1d018dfc:	01000424 	li	a0,1
1d018e00:	cb7f400f 	jal	0x1d01ff2c
1d018e04:	21280000 	move	a1,zero
1d018e08:	c47f400f 	jal	0x1d01ff10
1d018e0c:	01000424 	li	a0,1
1d018e10:	fdff4014 	bnez	v0,0x1d018e08
1d018e14:	3c00bf8f 	lw	ra,60(sp)
1d018e18:	3800b18f 	lw	s1,56(sp)
1d018e1c:	3400b08f 	lw	s0,52(sp)
1d018e20:	0800e003 	jr	ra
1d018e24:	4000bd27 	addiu	sp,sp,64
1d018e28:	e8ffbd27 	addiu	sp,sp,-24
1d018e2c:	1400bfaf 	sw	ra,20(sp)
1d018e30:	1000b0af 	sw	s0,16(sp)
1d018e34:	01000424 	li	a0,1
1d018e38:	dc7f400f 	jal	0x1d01ff70
1d018e3c:	01000524 	li	a1,1
1d018e40:	01000424 	li	a0,1
1d018e44:	cb7f400f 	jal	0x1d01ff2c
1d018e48:	04000524 	li	a1,4
1d018e4c:	04001024 	li	s0,4
1d018e50:	c47f400f 	jal	0x1d01ff10
1d018e54:	01000424 	li	a0,1
1d018e58:	fdff5014 	bne	v0,s0,0x1d018e50
1d018e5c:	01000424 	li	a0,1
1d018e60:	dc7f400f 	jal	0x1d01ff70
1d018e64:	21280000 	move	a1,zero
1d018e68:	1400bf8f 	lw	ra,20(sp)
1d018e6c:	1000b08f 	lw	s0,16(sp)
1d018e70:	0800e003 	jr	ra
1d018e74:	1800bd27 	addiu	sp,sp,24
1d018e78:	e8ffbd27 	addiu	sp,sp,-24
1d018e7c:	1400bfaf 	sw	ra,20(sp)
1d018e80:	ea7f400f 	jal	0x1d01ffa8
1d018e84:	01000424 	li	a0,1
1d018e88:	2b100200 	sltu	v0,zero,v0
1d018e8c:	1400bf8f 	lw	ra,20(sp)
1d018e90:	0800e003 	jr	ra
1d018e94:	1800bd27 	addiu	sp,sp,24
1d018e98:	e8ffbd27 	addiu	sp,sp,-24
1d018e9c:	1400bfaf 	sw	ra,20(sp)
1d018ea0:	1000b0af 	sw	s0,16(sp)
1d018ea4:	21808000 	move	s0,a0
1d018ea8:	01000424 	li	a0,1
1d018eac:	2d84400f 	jal	0x1d0210b4
1d018eb0:	01000524 	li	a1,1
1d018eb4:	18004050 	beqzl	v0,0x1d018f18
1d018eb8:	21100000 	move	v0,zero
1d018ebc:	0300068a 	lwl	a2,3(s0)
1d018ec0:	0000069a 	lwr	a2,0(s0)
1d018ec4:	0700058a 	lwl	a1,7(s0)
1d018ec8:	0400059a 	lwr	a1,4(s0)
1d018ecc:	0b00048a 	lwl	a0,11(s0)
1d018ed0:	0800049a 	lwr	a0,8(s0)
1d018ed4:	0f00038a 	lwl	v1,15(s0)
1d018ed8:	0c00039a 	lwr	v1,12(s0)
1d018edc:	030046a8 	swl	a2,3(v0)
1d018ee0:	000046b8 	swr	a2,0(v0)
1d018ee4:	070045a8 	swl	a1,7(v0)
1d018ee8:	040045b8 	swr	a1,4(v0)
1d018eec:	0b0044a8 	swl	a0,11(v0)
1d018ef0:	080044b8 	swr	a0,8(v0)
1d018ef4:	0f0043a8 	swl	v1,15(v0)
1d018ef8:	0c0043b8 	swr	v1,12(v0)
1d018efc:	01000424 	li	a0,1
1d018f00:	6e88400f 	jal	0x1d0221b8
1d018f04:	01000524 	li	a1,1
1d018f08:	01000424 	li	a0,1
1d018f0c:	1a84400f 	jal	0x1d021068
1d018f10:	01000524 	li	a1,1
1d018f14:	01000224 	li	v0,1
1d018f18:	1400bf8f 	lw	ra,20(sp)
1d018f1c:	1000b08f 	lw	s0,16(sp)
1d018f20:	0800e003 	jr	ra
1d018f24:	1800bd27 	addiu	sp,sp,24
1d018f28:	e8ffbd27 	addiu	sp,sp,-24
1d018f2c:	1400bfaf 	sw	ra,20(sp)
1d018f30:	1000b0af 	sw	s0,16(sp)
1d018f34:	21808000 	move	s0,a0
1d018f38:	01000424 	li	a0,1
1d018f3c:	2d84400f 	jal	0x1d0210b4
1d018f40:	02000524 	li	a1,2
1d018f44:	18004050 	beqzl	v0,0x1d018fa8
1d018f48:	21100000 	move	v0,zero
1d018f4c:	0300068a 	lwl	a2,3(s0)
1d018f50:	0000069a 	lwr	a2,0(s0)
1d018f54:	0700058a 	lwl	a1,7(s0)
1d018f58:	0400059a 	lwr	a1,4(s0)
1d018f5c:	0b00048a 	lwl	a0,11(s0)
1d018f60:	0800049a 	lwr	a0,8(s0)
1d018f64:	0f00038a 	lwl	v1,15(s0)
1d018f68:	0c00039a 	lwr	v1,12(s0)
1d018f6c:	030046a8 	swl	a2,3(v0)
1d018f70:	000046b8 	swr	a2,0(v0)
1d018f74:	070045a8 	swl	a1,7(v0)
1d018f78:	040045b8 	swr	a1,4(v0)
1d018f7c:	0b0044a8 	swl	a0,11(v0)
1d018f80:	080044b8 	swr	a0,8(v0)
1d018f84:	0f0043a8 	swl	v1,15(v0)
1d018f88:	0c0043b8 	swr	v1,12(v0)
1d018f8c:	01000424 	li	a0,1
1d018f90:	6e88400f 	jal	0x1d0221b8
1d018f94:	02000524 	li	a1,2
1d018f98:	01000424 	li	a0,1
1d018f9c:	1a84400f 	jal	0x1d021068
1d018fa0:	02000524 	li	a1,2
1d018fa4:	01000224 	li	v0,1
1d018fa8:	1400bf8f 	lw	ra,20(sp)
1d018fac:	1000b08f 	lw	s0,16(sp)
1d018fb0:	0800e003 	jr	ra
1d018fb4:	1800bd27 	addiu	sp,sp,24
1d018fb8:	d8ffbd27 	addiu	sp,sp,-40
1d018fbc:	2400bfaf 	sw	ra,36(sp)
1d018fc0:	2000b3af 	sw	s3,32(sp)
1d018fc4:	1c00b2af 	sw	s2,28(sp)
1d018fc8:	1800b1af 	sw	s1,24(sp)
1d018fcc:	1400b0af 	sw	s0,20(sp)
1d018fd0:	21808000 	move	s0,a0
1d018fd4:	2188a000 	move	s1,a1
1d018fd8:	01000424 	li	a0,1
1d018fdc:	5d88400f 	jal	0x1d022174
1d018fe0:	21280000 	move	a1,zero
1d018fe4:	16004010 	beqz	v0,0x1d019040
1d018fe8:	00000000 	nop
1d018fec:	03004588 	lwl	a1,3(v0)
1d018ff0:	00004598 	lwr	a1,0(v0)
1d018ff4:	07004488 	lwl	a0,7(v0)
1d018ff8:	04004498 	lwr	a0,4(v0)
1d018ffc:	0b004388 	lwl	v1,11(v0)
1d019000:	08004398 	lwr	v1,8(v0)
1d019004:	0f004688 	lwl	a2,15(v0)
1d019008:	0c004698 	lwr	a2,12(v0)
1d01900c:	030005aa 	swl	a1,3(s0)
1d019010:	000005ba 	swr	a1,0(s0)
1d019014:	070004aa 	swl	a0,7(s0)
1d019018:	040004ba 	swr	a0,4(s0)
1d01901c:	0b0003aa 	swl	v1,11(s0)
1d019020:	080003ba 	swr	v1,8(s0)
1d019024:	0f0006aa 	swl	a2,15(s0)
1d019028:	0c0006ba 	swr	a2,12(s0)
1d01902c:	01000424 	li	a0,1
1d019030:	6e88400f 	jal	0x1d0221b8
1d019034:	21280000 	move	a1,zero
1d019038:	4564400b 	j	0x1d019114
1d01903c:	01000224 	li	v0,1
1d019040:	34002012 	beqz	s1,0x1d019114
1d019044:	21100000 	move	v0,zero
1d019048:	098a400f 	jal	0x1d022824
1d01904c:	01000424 	li	a0,1
1d019050:	21904000 	move	s2,v0
1d019054:	108a400f 	jal	0x1d022840
1d019058:	01000424 	li	a0,1
1d01905c:	21884000 	move	s1,v0
1d019060:	a080938f 	lw	s3,-32608(gp)
1d019064:	2b986202 	sltu	s3,s3,v0
1d019068:	a480828f 	lw	v0,-32604(gp)
1d01906c:	2b105200 	sltu	v0,v0,s2
1d019070:	10004054 	bnezl	v0,0x1d0190b4
1d019074:	21200002 	move	a0,s0
1d019078:	0b006052 	beqzl	s3,0x1d0190a8
1d01907c:	a48092af 	sw	s2,-32604(gp)
1d019080:	3b64400b 	j	0x1d0190ec
1d019084:	21200002 	move	a0,s0
1d019088:	05006012 	beqz	s3,0x1d0190a0
1d01908c:	a080848f 	lw	a0,-32608(gp)
1d019090:	23186400 	subu	v1,v1,a0
1d019094:	0b0003a2 	sb	v1,11(s0)
1d019098:	2964400b 	j	0x1d0190a4
1d01909c:	21984000 	move	s3,v0
1d0190a0:	21984000 	move	s3,v0
1d0190a4:	a48092af 	sw	s2,-32604(gp)
1d0190a8:	a08091af 	sw	s1,-32608(gp)
1d0190ac:	4564400b 	j	0x1d019114
1d0190b0:	21106002 	move	v0,s3
1d0190b4:	21280000 	move	a1,zero
1d0190b8:	9288400f 	jal	0x1d022248
1d0190bc:	10000624 	li	a2,16
1d0190c0:	0f000224 	li	v0,15
1d0190c4:	040002ae 	sw	v0,4(s0)
1d0190c8:	ff004232 	andi	v0,s2,0xff
1d0190cc:	080002a2 	sb	v0,8(s0)
1d0190d0:	ff002332 	andi	v1,s1,0xff
1d0190d4:	090003a2 	sb	v1,9(s0)
1d0190d8:	a480848f 	lw	a0,-32604(gp)
1d0190dc:	23104400 	subu	v0,v0,a0
1d0190e0:	0a0002a2 	sb	v0,10(s0)
1d0190e4:	2264400b 	j	0x1d019088
1d0190e8:	01000224 	li	v0,1
1d0190ec:	21280000 	move	a1,zero
1d0190f0:	9288400f 	jal	0x1d022248
1d0190f4:	10000624 	li	a2,16
1d0190f8:	0f000224 	li	v0,15
1d0190fc:	040002ae 	sw	v0,4(s0)
1d019100:	080012a2 	sb	s2,8(s0)
1d019104:	ff002332 	andi	v1,s1,0xff
1d019108:	090003a2 	sb	v1,9(s0)
1d01910c:	2264400b 	j	0x1d019088
1d019110:	21106002 	move	v0,s3
1d019114:	2400bf8f 	lw	ra,36(sp)
1d019118:	2000b38f 	lw	s3,32(sp)
1d01911c:	1c00b28f 	lw	s2,28(sp)
1d019120:	1800b18f 	lw	s1,24(sp)
1d019124:	1400b08f 	lw	s0,20(sp)
1d019128:	0800e003 	jr	ra
1d01912c:	2800bd27 	addiu	sp,sp,40
1d019130:	e8ffbd27 	addiu	sp,sp,-24
1d019134:	1400bfaf 	sw	ra,20(sp)
1d019138:	108a400f 	jal	0x1d022840
1d01913c:	01000424 	li	a0,1
1d019140:	ff004230 	andi	v0,v0,0xff
1d019144:	1400bf8f 	lw	ra,20(sp)
1d019148:	0800e003 	jr	ra
1d01914c:	1800bd27 	addiu	sp,sp,24
1d019150:	e8ffbd27 	addiu	sp,sp,-24
1d019154:	1400bfaf 	sw	ra,20(sp)
1d019158:	098a400f 	jal	0x1d022824
1d01915c:	01000424 	li	a0,1
1d019160:	ff004230 	andi	v0,v0,0xff
1d019164:	1400bf8f 	lw	ra,20(sp)
1d019168:	0800e003 	jr	ra
1d01916c:	1800bd27 	addiu	sp,sp,24
1d019170:	e8ffbd27 	addiu	sp,sp,-24
1d019174:	1400bfaf 	sw	ra,20(sp)
1d019178:	21288000 	move	a1,a0
1d01917c:	6952400f 	jal	0x1d0149a4
1d019180:	03000424 	li	a0,3
1d019184:	1400bf8f 	lw	ra,20(sp)
1d019188:	0800e003 	jr	ra
1d01918c:	1800bd27 	addiu	sp,sp,24
1d019190:	e8ffbd27 	addiu	sp,sp,-24
1d019194:	1400bfaf 	sw	ra,20(sp)
1d019198:	874e400f 	jal	0x1d013a1c
1d01919c:	03000424 	li	a0,3
1d0191a0:	01000224 	li	v0,1
1d0191a4:	1400bf8f 	lw	ra,20(sp)
1d0191a8:	0800e003 	jr	ra
1d0191ac:	1800bd27 	addiu	sp,sp,24
1d0191b0:	e8ffbd27 	addiu	sp,sp,-24
1d0191b4:	1400bfaf 	sw	ra,20(sp)
1d0191b8:	a84c400f 	jal	0x1d0132a0
1d0191bc:	03000424 	li	a0,3
1d0191c0:	1400bf8f 	lw	ra,20(sp)
1d0191c4:	0800e003 	jr	ra
1d0191c8:	1800bd27 	addiu	sp,sp,24
1d0191cc:	d8ffbd27 	addiu	sp,sp,-40
1d0191d0:	2400bfaf 	sw	ra,36(sp)
1d0191d4:	2000b1af 	sw	s1,32(sp)
1d0191d8:	1c00b0af 	sw	s0,28(sp)
1d0191dc:	21888000 	move	s1,a0
1d0191e0:	a84c400f 	jal	0x1d0132a0
1d0191e4:	03000424 	li	a0,3
1d0191e8:	1f004010 	beqz	v0,0x1d019268
1d0191ec:	21804000 	move	s0,v0
1d0191f0:	fa4d400f 	jal	0x1d0137e8
1d0191f4:	03000424 	li	a0,3
1d0191f8:	04004230 	andi	v0,v0,0x4
1d0191fc:	ff004230 	andi	v0,v0,0xff
1d019200:	19004054 	bnezl	v0,0x1d019268
1d019204:	21800000 	move	s0,zero
1d019208:	0400228e 	lw	v0,4(s1)
1d01920c:	0007477c 	ext	a3,v0,0x1c,0x1
1d019210:	0800e010 	beqz	a3,0x1d019234
1d019214:	0f004330 	andi	v1,v0,0xf
1d019218:	0000268e 	lw	a2,0(s1)
1d01921c:	ff07c630 	andi	a2,a2,0x7ff
1d019220:	80340600 	sll	a2,a2,0x12
1d019224:	0400228e 	lw	v0,4(s1)
1d019228:	808a427c 	ext	v0,v0,0xa,0x12
1d01922c:	8f64400b 	j	0x1d01923c
1d019230:	2530c200 	or	a2,a2,v0
1d019234:	0000268e 	lw	a2,0(s1)
1d019238:	ff07c630 	andi	a2,a2,0x7ff
1d01923c:	08003126 	addiu	s1,s1,8
1d019240:	1000b1af 	sw	s1,16(sp)
1d019244:	1400a3af 	sw	v1,20(sp)
1d019248:	03000424 	li	a0,3
1d01924c:	6450400f 	jal	0x1d014190
1d019250:	21280000 	move	a1,zero
1d019254:	03000424 	li	a0,3
1d019258:	804f400f 	jal	0x1d013e00
1d01925c:	21280000 	move	a1,zero
1d019260:	9b64400b 	j	0x1d01926c
1d019264:	21100002 	move	v0,s0
1d019268:	21100002 	move	v0,s0
1d01926c:	2400bf8f 	lw	ra,36(sp)
1d019270:	2000b18f 	lw	s1,32(sp)
1d019274:	1c00b08f 	lw	s0,28(sp)
1d019278:	0800e003 	jr	ra
1d01927c:	2800bd27 	addiu	sp,sp,40
1d019280:	c8ffbd27 	addiu	sp,sp,-56
1d019284:	3400bfaf 	sw	ra,52(sp)
1d019288:	3000b4af 	sw	s4,48(sp)
1d01928c:	2c00b3af 	sw	s3,44(sp)
1d019290:	2800b2af 	sw	s2,40(sp)
1d019294:	2400b1af 	sw	s1,36(sp)
1d019298:	2000b0af 	sw	s0,32(sp)
1d01929c:	21888000 	move	s1,a0
1d0192a0:	2190a000 	move	s2,a1
1d0192a4:	a84c400f 	jal	0x1d0132a0
1d0192a8:	03000424 	li	a0,3
1d0192ac:	5d004010 	beqz	v0,0x1d019424
1d0192b0:	21804000 	move	s0,v0
1d0192b4:	ac4c400f 	jal	0x1d0132b0
1d0192b8:	03000424 	li	a0,3
1d0192bc:	2a004010 	beqz	v0,0x1d019368
1d0192c0:	21984000 	move	s3,v0
1d0192c4:	1c00a227 	addiu	v0,sp,28
1d0192c8:	1000a2af 	sw	v0,16(sp)
1d0192cc:	03000424 	li	a0,3
1d0192d0:	1800a527 	addiu	a1,sp,24
1d0192d4:	1d00a627 	addiu	a2,sp,29
1d0192d8:	2953400f 	jal	0x1d014ca4
1d0192dc:	08002726 	addiu	a3,s1,8
1d0192e0:	21004010 	beqz	v0,0x1d019368
1d0192e4:	1800a28f 	lw	v0,24(sp)
1d0192e8:	1d00a493 	lbu	a0,29(sp)
1d0192ec:	1c00a393 	lbu	v1,28(sp)
1d0192f0:	000020ae 	sw	zero,0(s1)
1d0192f4:	0900652c 	sltiu	a1,v1,9
1d0192f8:	0500a010 	beqz	a1,0x1d019310
1d0192fc:	040020ae 	sw	zero,4(s1)
1d019300:	21280000 	move	a1,zero
1d019304:	0418657c 	ins	a1,v1,0x0,0x4
1d019308:	c864400b 	j	0x1d019320
1d01930c:	040025ae 	sw	a1,4(s1)
1d019310:	0400238e 	lw	v1,4(s1)
1d019314:	08000524 	li	a1,8
1d019318:	0418a37c 	ins	v1,a1,0x0,0x4
1d01931c:	040023ae 	sw	v1,4(s1)
1d019320:	0a008010 	beqz	a0,0x1d01934c
1d019324:	0400238e 	lw	v1,4(s1)
1d019328:	01000424 	li	a0,1
1d01932c:	04e7837c 	ins	v1,a0,0x1c,0x1
1d019330:	84da437c 	ins	v1,v0,0xa,0x12
1d019334:	040023ae 	sw	v1,4(s1)
1d019338:	82140200 	srl	v0,v0,0x12
1d01933c:	0000238e 	lw	v1,0(s1)
1d019340:	0450437c 	ins	v1,v0,0x0,0xb
1d019344:	d864400b 	j	0x1d019360
1d019348:	000023ae 	sw	v1,0(s1)
1d01934c:	04e7037c 	ins	v1,zero,0x1c,0x1
1d019350:	040023ae 	sw	v1,4(s1)
1d019354:	0000238e 	lw	v1,0(s1)
1d019358:	0450437c 	ins	v1,v0,0x0,0xb
1d01935c:	000023ae 	sw	v1,0(s1)
1d019360:	0965400b 	j	0x1d019424
1d019364:	21806002 	move	s0,s3
1d019368:	2e004052 	beqzl	s2,0x1d019424
1d01936c:	21800000 	move	s0,zero
1d019370:	03000424 	li	a0,3
1d019374:	1c00a527 	addiu	a1,sp,28
1d019378:	1453400f 	jal	0x1d014c50
1d01937c:	1800a627 	addiu	a2,sp,24
1d019380:	1c00b293 	lbu	s2,28(sp)
1d019384:	1800b393 	lbu	s3,24(sp)
1d019388:	9880828f 	lw	v0,-32616(gp)
1d01938c:	2ba05300 	sltu	s4,v0,s3
1d019390:	9c80828f 	lw	v0,-32612(gp)
1d019394:	2b105200 	sltu	v0,v0,s2
1d019398:	10004014 	bnez	v0,0x1d0193dc
1d01939c:	21202002 	move	a0,s1
1d0193a0:	0b008052 	beqzl	s4,0x1d0193d0
1d0193a4:	9c8092af 	sw	s2,-32612(gp)
1d0193a8:	0265400b 	j	0x1d019408
1d0193ac:	21280000 	move	a1,zero
1d0193b0:	04008012 	beqz	s4,0x1d0193c4
1d0193b4:	9880828f 	lw	v0,-32616(gp)
1d0193b8:	23106202 	subu	v0,s3,v0
1d0193bc:	f164400b 	j	0x1d0193c4
1d0193c0:	0b0022a2 	sb	v0,11(s1)
1d0193c4:	9c8092af 	sw	s2,-32612(gp)
1d0193c8:	0965400b 	j	0x1d019424
1d0193cc:	988093af 	sw	s3,-32616(gp)
1d0193d0:	988093af 	sw	s3,-32616(gp)
1d0193d4:	0965400b 	j	0x1d019424
1d0193d8:	21800000 	move	s0,zero
1d0193dc:	21280000 	move	a1,zero
1d0193e0:	9288400f 	jal	0x1d022248
1d0193e4:	10000624 	li	a2,16
1d0193e8:	0f000224 	li	v0,15
1d0193ec:	040022ae 	sw	v0,4(s1)
1d0193f0:	080032a2 	sb	s2,8(s1)
1d0193f4:	090033a2 	sb	s3,9(s1)
1d0193f8:	9c80828f 	lw	v0,-32612(gp)
1d0193fc:	23104202 	subu	v0,s2,v0
1d019400:	ec64400b 	j	0x1d0193b0
1d019404:	0a0022a2 	sb	v0,10(s1)
1d019408:	9288400f 	jal	0x1d022248
1d01940c:	10000624 	li	a2,16
1d019410:	0f000224 	li	v0,15
1d019414:	040022ae 	sw	v0,4(s1)
1d019418:	080032a2 	sb	s2,8(s1)
1d01941c:	ec64400b 	j	0x1d0193b0
1d019420:	090033a2 	sb	s3,9(s1)
1d019424:	21100002 	move	v0,s0
1d019428:	3400bf8f 	lw	ra,52(sp)
1d01942c:	3000b48f 	lw	s4,48(sp)
1d019430:	2c00b38f 	lw	s3,44(sp)
1d019434:	2800b28f 	lw	s2,40(sp)
1d019438:	2400b18f 	lw	s1,36(sp)
1d01943c:	2000b08f 	lw	s0,32(sp)
1d019440:	0800e003 	jr	ra
1d019444:	3800bd27 	addiu	sp,sp,56
1d019448:	e8ffbd27 	addiu	sp,sp,-24
1d01944c:	1400bfaf 	sw	ra,20(sp)
1d019450:	0053400f 	jal	0x1d014c00
1d019454:	03000424 	li	a0,3
1d019458:	1400bf8f 	lw	ra,20(sp)
1d01945c:	0800e003 	jr	ra
1d019460:	1800bd27 	addiu	sp,sp,24
1d019464:	e8ffbd27 	addiu	sp,sp,-24
1d019468:	1400bfaf 	sw	ra,20(sp)
1d01946c:	0a53400f 	jal	0x1d014c28
1d019470:	03000424 	li	a0,3
1d019474:	1400bf8f 	lw	ra,20(sp)
1d019478:	0800e003 	jr	ra
1d01947c:	1800bd27 	addiu	sp,sp,24
1d019480:	e8ffbd27 	addiu	sp,sp,-24
1d019484:	1400bfaf 	sw	ra,20(sp)
1d019488:	21288000 	move	a1,a0
1d01948c:	6952400f 	jal	0x1d0149a4
1d019490:	02000424 	li	a0,2
1d019494:	1400bf8f 	lw	ra,20(sp)
1d019498:	0800e003 	jr	ra
1d01949c:	1800bd27 	addiu	sp,sp,24
1d0194a0:	e8ffbd27 	addiu	sp,sp,-24
1d0194a4:	1400bfaf 	sw	ra,20(sp)
1d0194a8:	874e400f 	jal	0x1d013a1c
1d0194ac:	02000424 	li	a0,2
1d0194b0:	01000224 	li	v0,1
1d0194b4:	1400bf8f 	lw	ra,20(sp)
1d0194b8:	0800e003 	jr	ra
1d0194bc:	1800bd27 	addiu	sp,sp,24
1d0194c0:	e8ffbd27 	addiu	sp,sp,-24
1d0194c4:	1400bfaf 	sw	ra,20(sp)
1d0194c8:	a84c400f 	jal	0x1d0132a0
1d0194cc:	02000424 	li	a0,2
1d0194d0:	1400bf8f 	lw	ra,20(sp)
1d0194d4:	0800e003 	jr	ra
1d0194d8:	1800bd27 	addiu	sp,sp,24
1d0194dc:	d8ffbd27 	addiu	sp,sp,-40
1d0194e0:	2400bfaf 	sw	ra,36(sp)
1d0194e4:	2000b1af 	sw	s1,32(sp)
1d0194e8:	1c00b0af 	sw	s0,28(sp)
1d0194ec:	21888000 	move	s1,a0
1d0194f0:	a84c400f 	jal	0x1d0132a0
1d0194f4:	02000424 	li	a0,2
1d0194f8:	1f004010 	beqz	v0,0x1d019578
1d0194fc:	21804000 	move	s0,v0
1d019500:	fa4d400f 	jal	0x1d0137e8
1d019504:	02000424 	li	a0,2
1d019508:	04004230 	andi	v0,v0,0x4
1d01950c:	ff004230 	andi	v0,v0,0xff
1d019510:	19004054 	bnezl	v0,0x1d019578
1d019514:	21800000 	move	s0,zero
1d019518:	0400228e 	lw	v0,4(s1)
1d01951c:	0007477c 	ext	a3,v0,0x1c,0x1
1d019520:	0800e010 	beqz	a3,0x1d019544
1d019524:	0f004330 	andi	v1,v0,0xf
1d019528:	0000268e 	lw	a2,0(s1)
1d01952c:	ff07c630 	andi	a2,a2,0x7ff
1d019530:	80340600 	sll	a2,a2,0x12
1d019534:	0400228e 	lw	v0,4(s1)
1d019538:	808a427c 	ext	v0,v0,0xa,0x12
1d01953c:	5365400b 	j	0x1d01954c
1d019540:	2530c200 	or	a2,a2,v0
1d019544:	0000268e 	lw	a2,0(s1)
1d019548:	ff07c630 	andi	a2,a2,0x7ff
1d01954c:	08003126 	addiu	s1,s1,8
1d019550:	1000b1af 	sw	s1,16(sp)
1d019554:	1400a3af 	sw	v1,20(sp)
1d019558:	02000424 	li	a0,2
1d01955c:	6450400f 	jal	0x1d014190
1d019560:	21280000 	move	a1,zero
1d019564:	02000424 	li	a0,2
1d019568:	804f400f 	jal	0x1d013e00
1d01956c:	21280000 	move	a1,zero
1d019570:	5f65400b 	j	0x1d01957c
1d019574:	21100002 	move	v0,s0
1d019578:	21100002 	move	v0,s0
1d01957c:	2400bf8f 	lw	ra,36(sp)
1d019580:	2000b18f 	lw	s1,32(sp)
1d019584:	1c00b08f 	lw	s0,28(sp)
1d019588:	0800e003 	jr	ra
1d01958c:	2800bd27 	addiu	sp,sp,40
1d019590:	c8ffbd27 	addiu	sp,sp,-56
1d019594:	3400bfaf 	sw	ra,52(sp)
1d019598:	3000b4af 	sw	s4,48(sp)
1d01959c:	2c00b3af 	sw	s3,44(sp)
1d0195a0:	2800b2af 	sw	s2,40(sp)
1d0195a4:	2400b1af 	sw	s1,36(sp)
1d0195a8:	2000b0af 	sw	s0,32(sp)
1d0195ac:	21888000 	move	s1,a0
1d0195b0:	2190a000 	move	s2,a1
1d0195b4:	a84c400f 	jal	0x1d0132a0
1d0195b8:	02000424 	li	a0,2
1d0195bc:	5d004010 	beqz	v0,0x1d019734
1d0195c0:	21804000 	move	s0,v0
1d0195c4:	ac4c400f 	jal	0x1d0132b0
1d0195c8:	02000424 	li	a0,2
1d0195cc:	2a004010 	beqz	v0,0x1d019678
1d0195d0:	21984000 	move	s3,v0
1d0195d4:	1c00a227 	addiu	v0,sp,28
1d0195d8:	1000a2af 	sw	v0,16(sp)
1d0195dc:	02000424 	li	a0,2
1d0195e0:	1800a527 	addiu	a1,sp,24
1d0195e4:	1d00a627 	addiu	a2,sp,29
1d0195e8:	2953400f 	jal	0x1d014ca4
1d0195ec:	08002726 	addiu	a3,s1,8
1d0195f0:	21004010 	beqz	v0,0x1d019678
1d0195f4:	1800a28f 	lw	v0,24(sp)
1d0195f8:	1d00a493 	lbu	a0,29(sp)
1d0195fc:	1c00a393 	lbu	v1,28(sp)
1d019600:	000020ae 	sw	zero,0(s1)
1d019604:	0900652c 	sltiu	a1,v1,9
1d019608:	0500a010 	beqz	a1,0x1d019620
1d01960c:	040020ae 	sw	zero,4(s1)
1d019610:	21280000 	move	a1,zero
1d019614:	0418657c 	ins	a1,v1,0x0,0x4
1d019618:	8c65400b 	j	0x1d019630
1d01961c:	040025ae 	sw	a1,4(s1)
1d019620:	0400238e 	lw	v1,4(s1)
1d019624:	08000524 	li	a1,8
1d019628:	0418a37c 	ins	v1,a1,0x0,0x4
1d01962c:	040023ae 	sw	v1,4(s1)
1d019630:	0a008010 	beqz	a0,0x1d01965c
1d019634:	0400238e 	lw	v1,4(s1)
1d019638:	01000424 	li	a0,1
1d01963c:	04e7837c 	ins	v1,a0,0x1c,0x1
1d019640:	84da437c 	ins	v1,v0,0xa,0x12
1d019644:	040023ae 	sw	v1,4(s1)
1d019648:	82140200 	srl	v0,v0,0x12
1d01964c:	0000238e 	lw	v1,0(s1)
1d019650:	0450437c 	ins	v1,v0,0x0,0xb
1d019654:	9c65400b 	j	0x1d019670
1d019658:	000023ae 	sw	v1,0(s1)
1d01965c:	04e7037c 	ins	v1,zero,0x1c,0x1
1d019660:	040023ae 	sw	v1,4(s1)
1d019664:	0000238e 	lw	v1,0(s1)
1d019668:	0450437c 	ins	v1,v0,0x0,0xb
1d01966c:	000023ae 	sw	v1,0(s1)
1d019670:	cd65400b 	j	0x1d019734
1d019674:	21806002 	move	s0,s3
1d019678:	2e004052 	beqzl	s2,0x1d019734
1d01967c:	21800000 	move	s0,zero
1d019680:	02000424 	li	a0,2
1d019684:	1c00a527 	addiu	a1,sp,28
1d019688:	1453400f 	jal	0x1d014c50
1d01968c:	1800a627 	addiu	a2,sp,24
1d019690:	1c00b293 	lbu	s2,28(sp)
1d019694:	1800b393 	lbu	s3,24(sp)
1d019698:	9080828f 	lw	v0,-32624(gp)
1d01969c:	2ba05300 	sltu	s4,v0,s3
1d0196a0:	9480828f 	lw	v0,-32620(gp)
1d0196a4:	2b105200 	sltu	v0,v0,s2
1d0196a8:	10004014 	bnez	v0,0x1d0196ec
1d0196ac:	21202002 	move	a0,s1
1d0196b0:	0b008052 	beqzl	s4,0x1d0196e0
1d0196b4:	948092af 	sw	s2,-32620(gp)
1d0196b8:	c665400b 	j	0x1d019718
1d0196bc:	21280000 	move	a1,zero
1d0196c0:	04008012 	beqz	s4,0x1d0196d4
1d0196c4:	9080828f 	lw	v0,-32624(gp)
1d0196c8:	23106202 	subu	v0,s3,v0
1d0196cc:	b565400b 	j	0x1d0196d4
1d0196d0:	0b0022a2 	sb	v0,11(s1)
1d0196d4:	948092af 	sw	s2,-32620(gp)
1d0196d8:	cd65400b 	j	0x1d019734
1d0196dc:	908093af 	sw	s3,-32624(gp)
1d0196e0:	908093af 	sw	s3,-32624(gp)
1d0196e4:	cd65400b 	j	0x1d019734
1d0196e8:	21800000 	move	s0,zero
1d0196ec:	21280000 	move	a1,zero
1d0196f0:	9288400f 	jal	0x1d022248
1d0196f4:	10000624 	li	a2,16
1d0196f8:	0f000224 	li	v0,15
1d0196fc:	040022ae 	sw	v0,4(s1)
1d019700:	080032a2 	sb	s2,8(s1)
1d019704:	090033a2 	sb	s3,9(s1)
1d019708:	9480828f 	lw	v0,-32620(gp)
1d01970c:	23104202 	subu	v0,s2,v0
1d019710:	b065400b 	j	0x1d0196c0
1d019714:	0a0022a2 	sb	v0,10(s1)
1d019718:	9288400f 	jal	0x1d022248
1d01971c:	10000624 	li	a2,16
1d019720:	0f000224 	li	v0,15
1d019724:	040022ae 	sw	v0,4(s1)
1d019728:	080032a2 	sb	s2,8(s1)
1d01972c:	b065400b 	j	0x1d0196c0
1d019730:	090033a2 	sb	s3,9(s1)
1d019734:	21100002 	move	v0,s0
1d019738:	3400bf8f 	lw	ra,52(sp)
1d01973c:	3000b48f 	lw	s4,48(sp)
1d019740:	2c00b38f 	lw	s3,44(sp)
1d019744:	2800b28f 	lw	s2,40(sp)
1d019748:	2400b18f 	lw	s1,36(sp)
1d01974c:	2000b08f 	lw	s0,32(sp)
1d019750:	0800e003 	jr	ra
1d019754:	3800bd27 	addiu	sp,sp,56
1d019758:	e8ffbd27 	addiu	sp,sp,-24
1d01975c:	1400bfaf 	sw	ra,20(sp)
1d019760:	0053400f 	jal	0x1d014c00
1d019764:	02000424 	li	a0,2
1d019768:	1400bf8f 	lw	ra,20(sp)
1d01976c:	0800e003 	jr	ra
1d019770:	1800bd27 	addiu	sp,sp,24
1d019774:	e8ffbd27 	addiu	sp,sp,-24
1d019778:	1400bfaf 	sw	ra,20(sp)
1d01977c:	0a53400f 	jal	0x1d014c28
1d019780:	02000424 	li	a0,2
1d019784:	1400bf8f 	lw	ra,20(sp)
1d019788:	0800e003 	jr	ra
1d01978c:	1800bd27 	addiu	sp,sp,24

Disassembly of section .sec71:

1d019790 <.sec71>:
1d019790:	58ffbd27 	addiu	sp,sp,-168
1d019794:	a400bfaf 	sw	ra,164(sp)
1d019798:	a000beaf 	sw	s8,160(sp)
1d01979c:	9c00b7af 	sw	s7,156(sp)
1d0197a0:	9800b6af 	sw	s6,152(sp)
1d0197a4:	9400b5af 	sw	s5,148(sp)
1d0197a8:	9000b4af 	sw	s4,144(sp)
1d0197ac:	8c00b3af 	sw	s3,140(sp)
1d0197b0:	8800b2af 	sw	s2,136(sp)
1d0197b4:	8400b1af 	sw	s1,132(sp)
1d0197b8:	8000b0af 	sw	s0,128(sp)
1d0197bc:	21888000 	move	s1,a0
1d0197c0:	2190a000 	move	s2,a1
1d0197c4:	2180c000 	move	s0,a2
1d0197c8:	01a0023c 	lui	v0,0xa001
1d0197cc:	f438428c 	lw	v0,14580(v0)
1d0197d0:	04004010 	beqz	v0,0x1d0197e4
1d0197d4:	c000be8f 	lw	s8,192(sp)
1d0197d8:	ffff4224 	addiu	v0,v0,-1
1d0197dc:	01a0033c 	lui	v1,0xa001
1d0197e0:	f43862ac 	sw	v0,14580(v1)
1d0197e4:	01a0023c 	lui	v0,0xa001
1d0197e8:	f838428c 	lw	v0,14584(v0)
1d0197ec:	05004010 	beqz	v0,0x1d019804
1d0197f0:	01a0033c 	lui	v1,0xa001
1d0197f4:	ffff4224 	addiu	v0,v0,-1
1d0197f8:	01a0033c 	lui	v1,0xa001
1d0197fc:	f83862ac 	sw	v0,14584(v1)
1d019800:	01a0033c 	lui	v1,0xa001
1d019804:	d8386490 	lbu	a0,14552(v1)
1d019808:	01008424 	addiu	a0,a0,1
1d01980c:	6666053c 	lui	a1,0x6666
1d019810:	6766a524 	addiu	a1,a1,26215
1d019814:	18008500 	mult	a0,a1
1d019818:	10280000 	mfhi	a1
1d01981c:	c3280500 	sra	a1,a1,0x3
1d019820:	80100500 	sll	v0,a1,0x2
1d019824:	00290500 	sll	a1,a1,0x4
1d019828:	21104500 	addu	v0,v0,a1
1d01982c:	23108200 	subu	v0,a0,v0
1d019830:	ff004230 	andi	v0,v0,0xff
1d019834:	ee02e010 	beqz	a3,0x1d01a3f0
1d019838:	d83862a0 	sb	v0,14552(v1)
1d01983c:	3800a0af 	sw	zero,56(sp)
1d019840:	3c00a0af 	sw	zero,60(sp)
1d019844:	3000a0af 	sw	zero,48(sp)
1d019848:	3400a0af 	sw	zero,52(sp)
1d01984c:	2800a0af 	sw	zero,40(sp)
1d019850:	2c00a0af 	sw	zero,44(sp)
1d019854:	21980000 	move	s3,zero
1d019858:	2000a0af 	sw	zero,32(sp)
1d01985c:	01000324 	li	v1,1
1d019860:	27004310 	beq	v0,v1,0x1d019900
1d019864:	2400a0af 	sw	zero,36(sp)
1d019868:	05004010 	beqz	v0,0x1d019880
1d01986c:	02000324 	li	v1,2
1d019870:	c5004310 	beq	v0,v1,0x1d019b88
1d019874:	01a0023c 	lui	v0,0xa001
1d019878:	fd68400b 	j	0x1d01a3f4
1d01987c:	a400bf8f 	lw	ra,164(sp)
1d019880:	b800a38f 	lw	v1,184(sp)
1d019884:	0800628c 	lw	v0,8(v1)
1d019888:	06004010 	beqz	v0,0x1d0198a4
1d01988c:	bc00a28f 	lw	v0,188(sp)
1d019890:	0000638c 	lw	v1,0(v1)
1d019894:	0010637c 	ext	v1,v1,0x0,0x3
1d019898:	01a0023c 	lui	v0,0xa001
1d01989c:	2d66400b 	j	0x1d0198b4
1d0198a0:	eb3843a0 	sb	v1,14571(v0)
1d0198a4:	0000438c 	lw	v1,0(v0)
1d0198a8:	0010637c 	ext	v1,v1,0x0,0x3
1d0198ac:	01a0023c 	lui	v0,0xa001
1d0198b0:	eb3843a0 	sb	v1,14571(v0)
1d0198b4:	01a0023c 	lui	v0,0xa001
1d0198b8:	d8384224 	addiu	v0,v0,14552
1d0198bc:	c400a38f 	lw	v1,196(sp)
1d0198c0:	0800638c 	lw	v1,8(v1)
1d0198c4:	2b180300 	sltu	v1,zero,v1
1d0198c8:	170043a0 	sb	v1,23(v0)
1d0198cc:	cc00a38f 	lw	v1,204(sp)
1d0198d0:	07006390 	lbu	v1,7(v1)
1d0198d4:	4000637c 	ext	v1,v1,0x1,0x1
1d0198d8:	180043a0 	sb	v1,24(v0)
1d0198dc:	d000a38f 	lw	v1,208(sp)
1d0198e0:	07006390 	lbu	v1,7(v1)
1d0198e4:	4000637c 	ext	v1,v1,0x1,0x1
1d0198e8:	190043a0 	sb	v1,25(v0)
1d0198ec:	d800a48f 	lw	a0,216(sp)
1d0198f0:	07008390 	lbu	v1,7(a0)
1d0198f4:	4000637c 	ext	v1,v1,0x1,0x1
1d0198f8:	fc68400b 	j	0x1d01a3f0
1d0198fc:	1a0043a0 	sb	v1,26(v0)
1d019900:	01a0023c 	lui	v0,0xa001
1d019904:	d8384224 	addiu	v0,v0,14552
1d019908:	d800a58f 	lw	a1,216(sp)
1d01990c:	0400a490 	lbu	a0,4(a1)
1d019910:	0500a390 	lbu	v1,5(a1)
1d019914:	001a0300 	sll	v1,v1,0x8
1d019918:	25186400 	or	v1,v1,a0
1d01991c:	0a0043a4 	sh	v1,10(v0)
1d019920:	17004290 	lbu	v0,23(v0)
1d019924:	06004054 	bnezl	v0,0x1d019940
1d019928:	0400c28f 	lw	v0,4(s8)
1d01992c:	01a0023c 	lui	v0,0xa001
1d019930:	d8384224 	addiu	v0,v0,14552
1d019934:	120040a0 	sb	zero,18(v0)
1d019938:	110040a0 	sb	zero,17(v0)
1d01993c:	0400c28f 	lw	v0,4(s8)
1d019940:	10004330 	andi	v1,v0,0x10
1d019944:	07006010 	beqz	v1,0x1d019964
1d019948:	21200000 	move	a0,zero
1d01994c:	01a0033c 	lui	v1,0xa001
1d019950:	f0386390 	lbu	v1,14576(v1)
1d019954:	03006014 	bnez	v1,0x1d019964
1d019958:	01000424 	li	a0,1
1d01995c:	01a0033c 	lui	v1,0xa001
1d019960:	f1386490 	lbu	a0,14577(v1)
1d019964:	01a0033c 	lui	v1,0xa001
1d019968:	f838638c 	lw	v1,14584(v1)
1d01996c:	1f00632c 	sltiu	v1,v1,31
1d019970:	04006014 	bnez	v1,0x1d019984
1d019974:	21880000 	move	s1,zero
1d019978:	0800c38f 	lw	v1,8(s8)
1d01997c:	c000517c 	ext	s1,v0,0x3,0x1
1d019980:	0a880300 	movz	s1,zero,v1
1d019984:	21182002 	move	v1,s1
1d019988:	01a0023c 	lui	v0,0xa001
1d01998c:	d8384224 	addiu	v0,v0,14552
1d019990:	160051a0 	sb	s1,22(v0)
1d019994:	1a004290 	lbu	v0,26(v0)
1d019998:	04004014 	bnez	v0,0x1d0199ac
1d01999c:	21880000 	move	s1,zero
1d0199a0:	01008430 	andi	a0,a0,0x1
1d0199a4:	01007138 	xori	s1,v1,0x1
1d0199a8:	0b880400 	movn	s1,zero,a0
1d0199ac:	0800c28f 	lw	v0,8(s8)
1d0199b0:	5d004010 	beqz	v0,0x1d019b28
1d0199b4:	21280000 	move	a1,zero
1d0199b8:	3880828f 	lw	v0,-32712(gp)
1d0199bc:	000051a0 	sb	s1,0(v0)
1d0199c0:	0400c38f 	lw	v1,4(s8)
1d0199c4:	c000637c 	ext	v1,v1,0x3,0x1
1d0199c8:	3880828f 	lw	v0,-32712(gp)
1d0199cc:	010043a0 	sb	v1,1(v0)
1d0199d0:	3880938f 	lw	s3,-32712(gp)
1d0199d4:	0400c28f 	lw	v0,4(s8)
1d0199d8:	0000427c 	ext	v0,v0,0x0,0x1
1d0199dc:	9e5b400f 	jal	0x1d016e78
1d0199e0:	080062a2 	sb	v0,8(s3)
1d0199e4:	00130200 	sll	v0,v0,0xc
1d0199e8:	200062ae 	sw	v0,32(s3)
1d0199ec:	a35b400f 	jal	0x1d016e8c
1d0199f0:	3880938f 	lw	s3,-32712(gp)
1d0199f4:	00130200 	sll	v0,v0,0xc
1d0199f8:	1c0062ae 	sw	v0,28(s3)
1d0199fc:	0400c28f 	lw	v0,4(s8)
1d019a00:	01004230 	andi	v0,v0,0x1
1d019a04:	0f004010 	beqz	v0,0x1d019a44
1d019a08:	0200c287 	lh	v0,2(s8)
1d019a0c:	c32f0200 	sra	a1,v0,0x1f
1d019a10:	5766043c 	lui	a0,0x6657
1d019a14:	ee4c8424 	addiu	a0,a0,19694
1d019a18:	19004400 	multu	v0,a0
1d019a1c:	12100000 	mflo	v0
1d019a20:	10180000 	mfhi	v1
1d019a24:	0230a470 	mul	a2,a1,a0
1d019a28:	2118c300 	addu	v1,a2,v1
1d019a2c:	001a0300 	sll	v1,v1,0x8
1d019a30:	02160200 	srl	v0,v0,0x18
1d019a34:	25106200 	or	v0,v1,v0
1d019a38:	3880838f 	lw	v1,-32712(gp)
1d019a3c:	9e66400b 	j	0x1d019a78
1d019a40:	040062ac 	sw	v0,4(v1)
1d019a44:	c32f0200 	sra	a1,v0,0x1f
1d019a48:	8941043c 	lui	a0,0x4189
1d019a4c:	33338424 	addiu	a0,a0,13107
1d019a50:	19004400 	multu	v0,a0
1d019a54:	12100000 	mflo	v0
1d019a58:	10180000 	mfhi	v1
1d019a5c:	0230a470 	mul	a2,a1,a0
1d019a60:	2118c300 	addu	v1,a2,v1
1d019a64:	801b0300 	sll	v1,v1,0xe
1d019a68:	82140200 	srl	v0,v0,0x12
1d019a6c:	25106200 	or	v0,v1,v0
1d019a70:	3880838f 	lw	v1,-32712(gp)
1d019a74:	040062ac 	sw	v0,4(v1)
1d019a78:	3880848f 	lw	a0,-32712(gp)
1d019a7c:	01a0053c 	lui	a1,0xa001
1d019a80:	d838a524 	addiu	a1,a1,14552
1d019a84:	1100a390 	lbu	v1,17(a1)
1d019a88:	6666023c 	lui	v0,0x6666
1d019a8c:	66664224 	addiu	v0,v0,26214
1d019a90:	19006200 	multu	v1,v0
1d019a94:	12100000 	mflo	v0
1d019a98:	10180000 	mfhi	v1
1d019a9c:	c01b0300 	sll	v1,v1,0xf
1d019aa0:	42140200 	srl	v0,v0,0x11
1d019aa4:	25106200 	or	v0,v1,v0
1d019aa8:	0c0082ac 	sw	v0,12(a0)
1d019aac:	1200a390 	lbu	v1,18(a1)
1d019ab0:	eb51023c 	lui	v0,0x51eb
1d019ab4:	1e854234 	ori	v0,v0,0x851e
1d019ab8:	19006200 	multu	v1,v0
1d019abc:	12100000 	mflo	v0
1d019ac0:	10180000 	mfhi	v1
1d019ac4:	801b0300 	sll	v1,v1,0xe
1d019ac8:	82140200 	srl	v0,v0,0x12
1d019acc:	25106200 	or	v0,v1,v0
1d019ad0:	180082ac 	sw	v0,24(a0)
1d019ad4:	0a00a394 	lhu	v1,10(a1)
1d019ad8:	055b023c 	lui	v0,0x5b05
1d019adc:	20b54234 	ori	v0,v0,0xb520
1d019ae0:	19006200 	multu	v1,v0
1d019ae4:	12100000 	mflo	v0
1d019ae8:	10180000 	mfhi	v1
1d019aec:	801c0300 	sll	v1,v1,0x12
1d019af0:	82130200 	srl	v0,v0,0xe
1d019af4:	25106200 	or	v0,v1,v0
1d019af8:	140082ac 	sw	v0,20(a0)
1d019afc:	1300a290 	lbu	v0,19(a1)
1d019b00:	966d400f 	jal	0x1d01b658
1d019b04:	100082a0 	sb	v0,16(a0)
1d019b08:	3480828f 	lw	v0,-32716(gp)
1d019b0c:	03004490 	lbu	a0,3(v0)
1d019b10:	01008430 	andi	a0,a0,0x1
1d019b14:	0400c38f 	lw	v1,4(s8)
1d019b18:	4001637c 	ext	v1,v1,0x5,0x1
1d019b1c:	00004684 	lh	a2,0(v0)
1d019b20:	cd66400b 	j	0x1d019b34
1d019b24:	02004590 	lbu	a1,2(v0)
1d019b28:	21180000 	move	v1,zero
1d019b2c:	21200000 	move	a0,zero
1d019b30:	21300000 	move	a2,zero
1d019b34:	01a0023c 	lui	v0,0xa001
1d019b38:	ee384290 	lbu	v0,14574(v0)
1d019b3c:	2d024014 	bnez	v0,0x1d01a3f4
1d019b40:	a400bf8f 	lw	ra,164(sp)
1d019b44:	0800c28f 	lw	v0,8(s8)
1d019b48:	2b024050 	beqzl	v0,0x1d01a3f8
1d019b4c:	a000be8f 	lw	s8,160(sp)
1d019b50:	0400c28f 	lw	v0,4(s8)
1d019b54:	20004730 	andi	a3,v0,0x20
1d019b58:	0500e010 	beqz	a3,0x1d019b70
1d019b5c:	08004230 	andi	v0,v0,0x8
1d019b60:	01a0073c 	lui	a3,0xa001
1d019b64:	f238e790 	lbu	a3,14578(a3)
1d019b68:	0302e054 	bnezl	a3,0x1d01a378
1d019b6c:	01000324 	li	v1,1
1d019b70:	20024010 	beqz	v0,0x1d01a3f4
1d019b74:	a400bf8f 	lw	ra,164(sp)
1d019b78:	1f022012 	beqz	s1,0x1d01a3f8
1d019b7c:	a000be8f 	lw	s8,160(sp)
1d019b80:	e068400b 	j	0x1d01a380
1d019b84:	3800a6a7 	sh	a2,56(sp)
1d019b88:	d8384224 	addiu	v0,v0,14552
1d019b8c:	c800a38f 	lw	v1,200(sp)
1d019b90:	04006490 	lbu	a0,4(v1)
1d019b94:	05006390 	lbu	v1,5(v1)
1d019b98:	001a0300 	sll	v1,v1,0x8
1d019b9c:	25186400 	or	v1,v1,a0
1d019ba0:	020043a4 	sh	v1,2(v0)
1d019ba4:	c800a58f 	lw	a1,200(sp)
1d019ba8:	0600a490 	lbu	a0,6(a1)
1d019bac:	0700a390 	lbu	v1,7(a1)
1d019bb0:	001a0300 	sll	v1,v1,0x8
1d019bb4:	25186400 	or	v1,v1,a0
1d019bb8:	040043a4 	sh	v1,4(v0)
1d019bbc:	d400a68f 	lw	a2,212(sp)
1d019bc0:	0600c490 	lbu	a0,6(a2)
1d019bc4:	0700c390 	lbu	v1,7(a2)
1d019bc8:	03006330 	andi	v1,v1,0x3
1d019bcc:	001a0300 	sll	v1,v1,0x8
1d019bd0:	25186400 	or	v1,v1,a0
1d019bd4:	801d0300 	sll	v1,v1,0x16
1d019bd8:	831d0300 	sra	v1,v1,0x16
1d019bdc:	060043a4 	sh	v1,6(v0)
1d019be0:	0200c490 	lbu	a0,2(a2)
1d019be4:	0300c390 	lbu	v1,3(a2)
1d019be8:	0f006330 	andi	v1,v1,0xf
1d019bec:	001a0300 	sll	v1,v1,0x8
1d019bf0:	25186400 	or	v1,v1,a0
1d019bf4:	0c0043a4 	sh	v1,12(v0)
1d019bf8:	0e004290 	lbu	v0,14(v0)
1d019bfc:	47004014 	bnez	v0,0x1d019d1c
1d019c00:	01a0023c 	lui	v0,0xa001
1d019c04:	01000324 	li	v1,1
1d019c08:	01a0023c 	lui	v0,0xa001
1d019c0c:	e63843a0 	sb	v1,14566(v0)
1d019c10:	4080828f 	lw	v0,-32704(gp)
1d019c14:	99ff033c 	lui	v1,0xff99
1d019c18:	9a996334 	ori	v1,v1,0x999a
1d019c1c:	5c0043ac 	sw	v1,92(v0)
1d019c20:	99190324 	li	v1,6553
1d019c24:	6c0043ac 	sw	v1,108(v0)
1d019c28:	33330524 	li	a1,13107
1d019c2c:	700045ac 	sw	a1,112(v0)
1d019c30:	66660424 	li	a0,26214
1d019c34:	740044ac 	sw	a0,116(v0)
1d019c38:	1e050424 	li	a0,1310
1d019c3c:	780044ac 	sw	a0,120(v0)
1d019c40:	7c0044ac 	sw	a0,124(v0)
1d019c44:	800043ac 	sw	v1,128(v0)
1d019c48:	00400424 	li	a0,16384
1d019c4c:	840044ac 	sw	a0,132(v0)
1d019c50:	880043ac 	sw	v1,136(v0)
1d019c54:	0200043c 	lui	a0,0x2
1d019c58:	8c0044ac 	sw	a0,140(v0)
1d019c5c:	00800634 	li	a2,0x8000
1d019c60:	600046ac 	sw	a2,96(v0)
1d019c64:	cc4c0624 	li	a2,19660
1d019c68:	640046ac 	sw	a2,100(v0)
1d019c6c:	0300063c 	lui	a2,0x3
1d019c70:	680046ac 	sw	a2,104(v0)
1d019c74:	940044ac 	sw	a0,148(v0)
1d019c78:	980044ac 	sw	a0,152(v0)
1d019c7c:	7a540424 	li	a0,21626
1d019c80:	a00044ac 	sw	a0,160(v0)
1d019c84:	540d0424 	li	a0,3412
1d019c88:	a40044a4 	sh	a0,164(v0)
1d019c8c:	0100043c 	lui	a0,0x1
1d019c90:	a80044ac 	sw	a0,168(v0)
1d019c94:	ac0043ac 	sw	v1,172(v0)
1d019c98:	b00040ac 	sw	zero,176(v0)
1d019c9c:	0500043c 	lui	a0,0x5
1d019ca0:	b40044ac 	sw	a0,180(v0)
1d019ca4:	bc0040ac 	sw	zero,188(v0)
1d019ca8:	540043ac 	sw	v1,84(v0)
1d019cac:	580045ac 	sw	a1,88(v0)
1d019cb0:	200040ac 	sw	zero,32(v0)
1d019cb4:	0002033c 	lui	v1,0x200
1d019cb8:	380043ac 	sw	v1,56(v0)
1d019cbc:	0007033c 	lui	v1,0x700
1d019cc0:	240043ac 	sw	v1,36(v0)
1d019cc4:	0003033c 	lui	v1,0x300
1d019cc8:	3c0043ac 	sw	v1,60(v0)
1d019ccc:	9913043c 	lui	a0,0x1399
1d019cd0:	a0998434 	ori	a0,a0,0x99a0
1d019cd4:	280044ac 	sw	a0,40(v0)
1d019cd8:	400043ac 	sw	v1,64(v0)
1d019cdc:	9935033c 	lui	v1,0x3599
1d019ce0:	80996334 	ori	v1,v1,0x9980
1d019ce4:	2c0043ac 	sw	v1,44(v0)
1d019ce8:	3301033c 	lui	v1,0x133
1d019cec:	34336324 	addiu	v1,v1,13108
1d019cf0:	440043ac 	sw	v1,68(v0)
1d019cf4:	6647033c 	lui	v1,0x4766
1d019cf8:	80666324 	addiu	v1,v1,26240
1d019cfc:	300043ac 	sw	v1,48(v0)
1d019d00:	cc00033c 	lui	v1,0xcc
1d019d04:	cdcc6334 	ori	v1,v1,0xcccd
1d019d08:	480043ac 	sw	v1,72(v0)
1d019d0c:	0064043c 	lui	a0,0x6400
1d019d10:	340044ac 	sw	a0,52(v0)
1d019d14:	4c0043ac 	sw	v1,76(v0)
1d019d18:	01a0023c 	lui	v0,0xa001
1d019d1c:	ef384290 	lbu	v0,14575(v0)
1d019d20:	06004054 	bnezl	v0,0x1d019d3c
1d019d24:	01a0023c 	lui	v0,0xa001
1d019d28:	01a0023c 	lui	v0,0xa001
1d019d2c:	d8384224 	addiu	v0,v0,14552
1d019d30:	0f0040a0 	sb	zero,15(v0)
1d019d34:	100040a0 	sb	zero,16(v0)
1d019d38:	01a0023c 	lui	v0,0xa001
1d019d3c:	f438438c 	lw	v1,14580(v0)
1d019d40:	1f00632c 	sltiu	v1,v1,31
1d019d44:	06006014 	bnez	v1,0x1d019d60
1d019d48:	21100000 	move	v0,zero
1d019d4c:	0800c38f 	lw	v1,8(s8)
1d019d50:	04006010 	beqz	v1,0x1d019d64
1d019d54:	21184000 	move	v1,v0
1d019d58:	0400c28f 	lw	v0,4(s8)
1d019d5c:	0001427c 	ext	v0,v0,0x4,0x1
1d019d60:	21184000 	move	v1,v0
1d019d64:	01a0023c 	lui	v0,0xa001
1d019d68:	ed3843a0 	sb	v1,14573(v0)
1d019d6c:	0400c28f 	lw	v0,4(s8)
1d019d70:	08004230 	andi	v0,v0,0x8
1d019d74:	03004010 	beqz	v0,0x1d019d84
1d019d78:	21280000 	move	a1,zero
1d019d7c:	01a0023c 	lui	v0,0xa001
1d019d80:	f2384590 	lbu	a1,14578(v0)
1d019d84:	01a0023c 	lui	v0,0xa001
1d019d88:	f1384490 	lbu	a0,14577(v0)
1d019d8c:	08008014 	bnez	a0,0x1d019db0
1d019d90:	21100000 	move	v0,zero
1d019d94:	01a0023c 	lui	v0,0xa001
1d019d98:	f0384490 	lbu	a0,14576(v0)
1d019d9c:	04008014 	bnez	a0,0x1d019db0
1d019da0:	21100000 	move	v0,zero
1d019da4:	0100a530 	andi	a1,a1,0x1
1d019da8:	01006238 	xori	v0,v1,0x1
1d019dac:	0b100500 	movn	v0,zero,a1
1d019db0:	4800a2af 	sw	v0,72(sp)
1d019db4:	0800c28f 	lw	v0,8(s8)
1d019db8:	3e004010 	beqz	v0,0x1d019eb4
1d019dbc:	4080828f 	lw	v0,-32704(gp)
1d019dc0:	4800a88f 	lw	t0,72(sp)
1d019dc4:	000048a0 	sb	t0,0(v0)
1d019dc8:	0400c38f 	lw	v1,4(s8)
1d019dcc:	0001637c 	ext	v1,v1,0x4,0x1
1d019dd0:	4080828f 	lw	v0,-32704(gp)
1d019dd4:	010043a0 	sb	v1,1(v0)
1d019dd8:	0400c38f 	lw	v1,4(s8)
1d019ddc:	8000637c 	ext	v1,v1,0x2,0x1
1d019de0:	4080828f 	lw	v0,-32704(gp)
1d019de4:	020043a0 	sb	v1,2(v0)
1d019de8:	0400c38f 	lw	v1,4(s8)
1d019dec:	4000637c 	ext	v1,v1,0x1,0x1
1d019df0:	4080828f 	lw	v0,-32704(gp)
1d019df4:	030043a0 	sb	v1,3(v0)
1d019df8:	945b400f 	jal	0x1d016e50
1d019dfc:	4080948f 	lw	s4,-32704(gp)
1d019e00:	900082a6 	sh	v0,144(s4)
1d019e04:	995b400f 	jal	0x1d016e64
1d019e08:	4080948f 	lw	s4,-32704(gp)
1d019e0c:	9c0082a6 	sh	v0,156(s4)
1d019e10:	4080948f 	lw	s4,-32704(gp)
1d019e14:	b80080ae 	sw	zero,184(s4)
1d019e18:	a85b400f 	jal	0x1d016ea0
1d019e1c:	c00080a2 	sb	zero,192(s4)
1d019e20:	80120200 	sll	v0,v0,0xa
1d019e24:	500082ae 	sw	v0,80(s4)
1d019e28:	4080868f 	lw	a2,-32704(gp)
1d019e2c:	01a0073c 	lui	a3,0xa001
1d019e30:	d838e724 	addiu	a3,a3,14552
1d019e34:	0800e284 	lh	v0,8(a3)
1d019e38:	c32f0200 	sra	a1,v0,0x1f
1d019e3c:	eb51043c 	lui	a0,0x51eb
1d019e40:	1e858434 	ori	a0,a0,0x851e
1d019e44:	19004400 	multu	v0,a0
1d019e48:	12100000 	mflo	v0
1d019e4c:	10180000 	mfhi	v1
1d019e50:	0240a470 	mul	t0,a1,a0
1d019e54:	21180301 	addu	v1,t0,v1
1d019e58:	801c0300 	sll	v1,v1,0x12
1d019e5c:	82130200 	srl	v0,v0,0xe
1d019e60:	25106200 	or	v0,v1,v0
1d019e64:	0400c2ac 	sw	v0,4(a2)
1d019e68:	0f00e490 	lbu	a0,15(a3)
1d019e6c:	6666023c 	lui	v0,0x6666
1d019e70:	66664224 	addiu	v0,v0,26214
1d019e74:	19008200 	multu	a0,v0
1d019e78:	12200000 	mflo	a0
1d019e7c:	10280000 	mfhi	a1
1d019e80:	401d0500 	sll	v1,a1,0x15
1d019e84:	c2220400 	srl	a0,a0,0xb
1d019e88:	25206400 	or	a0,v1,a0
1d019e8c:	0800c4ac 	sw	a0,8(a2)
1d019e90:	1000e390 	lbu	v1,16(a3)
1d019e94:	19006200 	multu	v1,v0
1d019e98:	12100000 	mflo	v0
1d019e9c:	10180000 	mfhi	v1
1d019ea0:	401d0300 	sll	v1,v1,0x15
1d019ea4:	c2120200 	srl	v0,v0,0xb
1d019ea8:	25106200 	or	v0,v1,v0
1d019eac:	b867400b 	j	0x1d019ee0
1d019eb0:	0c00c2ac 	sw	v0,12(a2)
1d019eb4:	000040a0 	sb	zero,0(v0)
1d019eb8:	4080828f 	lw	v0,-32704(gp)
1d019ebc:	010040a0 	sb	zero,1(v0)
1d019ec0:	4080828f 	lw	v0,-32704(gp)
1d019ec4:	020040a0 	sb	zero,2(v0)
1d019ec8:	4080828f 	lw	v0,-32704(gp)
1d019ecc:	030040a0 	sb	zero,3(v0)
1d019ed0:	4080828f 	lw	v0,-32704(gp)
1d019ed4:	040040ac 	sw	zero,4(v0)
1d019ed8:	080040ac 	sw	zero,8(v0)
1d019edc:	0c0040ac 	sw	zero,12(v0)
1d019ee0:	4080848f 	lw	a0,-32704(gp)
1d019ee4:	01a0053c 	lui	a1,0xa001
1d019ee8:	d838a524 	addiu	a1,a1,14552
1d019eec:	0200a284 	lh	v0,2(a1)
1d019ef0:	c33f0200 	sra	a3,v0,0x1f
1d019ef4:	eb51063c 	lui	a2,0x51eb
1d019ef8:	1e85c634 	ori	a2,a2,0x851e
1d019efc:	19004600 	multu	v0,a2
1d019f00:	12100000 	mflo	v0
1d019f04:	10180000 	mfhi	v1
1d019f08:	0240e670 	mul	t0,a3,a2
1d019f0c:	21180301 	addu	v1,t0,v1
1d019f10:	401b0300 	sll	v1,v1,0xd
1d019f14:	c2140200 	srl	v0,v0,0x13
1d019f18:	25106200 	or	v0,v1,v0
1d019f1c:	140082ac 	sw	v0,20(a0)
1d019f20:	0400a284 	lh	v0,4(a1)
1d019f24:	c33f0200 	sra	a3,v0,0x1f
1d019f28:	19004600 	multu	v0,a2
1d019f2c:	12100000 	mflo	v0
1d019f30:	10180000 	mfhi	v1
1d019f34:	0240e670 	mul	t0,a3,a2
1d019f38:	21180301 	addu	v1,t0,v1
1d019f3c:	401b0300 	sll	v1,v1,0xd
1d019f40:	c2140200 	srl	v0,v0,0x13
1d019f44:	25106200 	or	v0,v1,v0
1d019f48:	180082ac 	sw	v0,24(a0)
1d019f4c:	0600a284 	lh	v0,6(a1)
1d019f50:	c33f0200 	sra	a3,v0,0x1f
1d019f54:	ae47063c 	lui	a2,0x47ae
1d019f58:	7a14c624 	addiu	a2,a2,5242
1d019f5c:	19004600 	multu	v0,a2
1d019f60:	12100000 	mflo	v0
1d019f64:	10180000 	mfhi	v1
1d019f68:	0240e670 	mul	t0,a3,a2
1d019f6c:	21180301 	addu	v1,t0,v1
1d019f70:	801d0300 	sll	v1,v1,0x16
1d019f74:	82120200 	srl	v0,v0,0xa
1d019f78:	25106200 	or	v0,v1,v0
1d019f7c:	1c0082ac 	sw	v0,28(a0)
1d019f80:	1300a290 	lbu	v0,19(a1)
1d019f84:	c43d400f 	jal	0x1d00f710
1d019f88:	100082a0 	sb	v0,16(a0)
1d019f8c:	3c80828f 	lw	v0,-32708(gp)
1d019f90:	00004390 	lbu	v1,0(v0)
1d019f94:	01006330 	andi	v1,v1,0x1
1d019f98:	7400a3af 	sw	v1,116(sp)
1d019f9c:	0400c58f 	lw	a1,4(s8)
1d019fa0:	4001a57c 	ext	a1,a1,0x5,0x1
1d019fa4:	0400438c 	lw	v1,4(v0)
1d019fa8:	c31a0300 	sra	v1,v1,0xb
1d019fac:	0100063c 	lui	a2,0x1
1d019fb0:	2a306600 	slt	a2,v1,a2
1d019fb4:	ffff6330 	andi	v1,v1,0xffff
1d019fb8:	ffff0434 	li	a0,0xffff
1d019fbc:	0b206600 	movn	a0,v1,a2
1d019fc0:	7800a4af 	sw	a0,120(sp)
1d019fc4:	08004790 	lbu	a3,8(v0)
1d019fc8:	0100e730 	andi	a3,a3,0x1
1d019fcc:	0a004894 	lhu	t0,10(v0)
1d019fd0:	0c004690 	lbu	a2,12(v0)
1d019fd4:	0700c630 	andi	a2,a2,0x7
1d019fd8:	0410d37c 	ins	s3,a2,0x0,0x3
1d019fdc:	c439b37c 	ins	s3,a1,0x7,0x1
1d019fe0:	0800d48f 	lw	s4,8(s8)
1d019fe4:	0100972e 	sltiu	s7,s4,1
1d019fe8:	11004390 	lbu	v1,17(v0)
1d019fec:	01006330 	andi	v1,v1,0x1
1d019ff0:	4000a3af 	sw	v1,64(sp)
1d019ff4:	0400c38f 	lw	v1,4(s8)
1d019ff8:	01006330 	andi	v1,v1,0x1
1d019ffc:	4400a3af 	sw	v1,68(sp)
1d01a000:	3480838f 	lw	v1,-32716(gp)
1d01a004:	03007590 	lbu	s5,3(v1)
1d01a008:	0100b532 	andi	s5,s5,0x1
1d01a00c:	10005690 	lbu	s6,16(v0)
1d01a010:	2bb01600 	sltu	s6,zero,s6
1d01a014:	2000a48f 	lw	a0,32(sp)
1d01a018:	0460047c 	ins	a0,zero,0x0,0xd
1d01a01c:	446be47e 	ins	a0,s7,0xd,0x1
1d01a020:	8473c47e 	ins	a0,s6,0xe,0x1
1d01a024:	4000a98f 	lw	t1,64(sp)
1d01a028:	c47b247d 	ins	a0,t1,0xf,0x1
1d01a02c:	04ec047c 	ins	a0,zero,0x10,0xe
1d01a030:	84f7a47e 	ins	a0,s5,0x1e,0x1
1d01a034:	4400a98f 	lw	t1,68(sp)
1d01a038:	c4ff247d 	ins	a0,t1,0x1f,0x1
1d01a03c:	2000a4af 	sw	a0,32(sp)
1d01a040:	00408430 	andi	a0,a0,0x4000
1d01a044:	05008010 	beqz	a0,0x1d01a05c
1d01a048:	4c00a0af 	sw	zero,76(sp)
1d01a04c:	0e004494 	lhu	a0,14(v0)
1d01a050:	c0240400 	sll	a0,a0,0x13
1d01a054:	c3240400 	sra	a0,a0,0x13
1d01a058:	4c00a4af 	sw	a0,76(sp)
1d01a05c:	2000a48f 	lw	a0,32(sp)
1d01a060:	4c00a98f 	lw	t1,76(sp)
1d01a064:	0460247d 	ins	a0,t1,0x0,0xd
1d01a068:	446be47e 	ins	a0,s7,0xd,0x1
1d01a06c:	8473c47e 	ins	a0,s6,0xe,0x1
1d01a070:	4000a98f 	lw	t1,64(sp)
1d01a074:	c47b247d 	ins	a0,t1,0xf,0x1
1d01a078:	04ec047c 	ins	a0,zero,0x10,0xe
1d01a07c:	84f7a47e 	ins	a0,s5,0x1e,0x1
1d01a080:	4400a98f 	lw	t1,68(sp)
1d01a084:	c4ff247d 	ins	a0,t1,0x1f,0x1
1d01a088:	2000a4af 	sw	a0,32(sp)
1d01a08c:	00408430 	andi	a0,a0,0x4000
1d01a090:	03008010 	beqz	a0,0x1d01a0a0
1d01a094:	5400a0af 	sw	zero,84(sp)
1d01a098:	14004480 	lb	a0,20(v0)
1d01a09c:	5400a4af 	sw	a0,84(sp)
1d01a0a0:	12004984 	lh	t1,18(v0)
1d01a0a4:	6000a9af 	sw	t1,96(sp)
1d01a0a8:	15004280 	lb	v0,21(v0)
1d01a0ac:	6400a2af 	sw	v0,100(sp)
1d01a0b0:	04006290 	lbu	v0,4(v1)
1d01a0b4:	6800a2af 	sw	v0,104(sp)
1d01a0b8:	05006390 	lbu	v1,5(v1)
1d01a0bc:	6c00a3af 	sw	v1,108(sp)
1d01a0c0:	01a0023c 	lui	v0,0xa001
1d01a0c4:	d8384224 	addiu	v0,v0,14552
1d01a0c8:	15004390 	lbu	v1,21(v0)
1d01a0cc:	5800a3af 	sw	v1,88(sp)
1d01a0d0:	16004490 	lbu	a0,22(v0)
1d01a0d4:	7000a4af 	sw	a0,112(sp)
1d01a0d8:	18004290 	lbu	v0,24(v0)
1d01a0dc:	01000924 	li	t1,1
1d01a0e0:	07004014 	bnez	v0,0x1d01a100
1d01a0e4:	5000a9af 	sw	t1,80(sp)
1d01a0e8:	01a0033c 	lui	v1,0xa001
1d01a0ec:	f1386390 	lbu	v1,14577(v1)
1d01a0f0:	03006014 	bnez	v1,0x1d01a100
1d01a0f4:	01a0033c 	lui	v1,0xa001
1d01a0f8:	f2386390 	lbu	v1,14578(v1)
1d01a0fc:	5000a3af 	sw	v1,80(sp)
1d01a100:	3c008052 	beqzl	s4,0x1d01a1f4
1d01a104:	21f00000 	move	s8,zero
1d01a108:	0400c38f 	lw	v1,4(s8)
1d01a10c:	10006430 	andi	a0,v1,0x10
1d01a110:	4800a98f 	lw	t1,72(sp)
1d01a114:	0a480400 	movz	t1,zero,a0
1d01a118:	20006430 	andi	a0,v1,0x20
1d01a11c:	ab008010 	beqz	a0,0x1d01a3cc
1d01a120:	4800a9af 	sw	t1,72(sp)
1d01a124:	5800a48f 	lw	a0,88(sp)
1d01a128:	ab008054 	bnezl	a0,0x1d01a3d8
1d01a12c:	7c00a5af 	sw	a1,124(sp)
1d01a130:	01000424 	li	a0,1
1d01a134:	0a20a200 	movz	a0,a1,v0
1d01a138:	7c00a4af 	sw	a0,124(sp)
1d01a13c:	01001e24 	li	s8,1
1d01a140:	0af02201 	movz	s8,t1,v0
1d01a144:	7400a98f 	lw	t1,116(sp)
1d01a148:	0b480200 	movn	t1,zero,v0
1d01a14c:	7400a9af 	sw	t1,116(sp)
1d01a150:	01a0023c 	lui	v0,0xa001
1d01a154:	f1384290 	lbu	v0,14577(v0)
1d01a158:	01000424 	li	a0,1
1d01a15c:	0b288200 	movn	a1,a0,v0
1d01a160:	0b380200 	movn	a3,zero,v0
1d01a164:	4800a98f 	lw	t1,72(sp)
1d01a168:	0b488200 	movn	t1,a0,v0
1d01a16c:	f768400b 	j	0x1d01a3dc
1d01a170:	4800a9af 	sw	t1,72(sp)
1d01a174:	01006238 	xori	v0,v1,0x1
1d01a178:	2a300600 	slt	a2,zero,a2
1d01a17c:	0a100600 	movz	v0,zero,a2
1d01a180:	5c00a2af 	sw	v0,92(sp)
1d01a184:	4800a48f 	lw	a0,72(sp)
1d01a188:	1c008010 	beqz	a0,0x1d01a1fc
1d01a18c:	04000324 	li	v1,4
1d01a190:	3000a8a7 	sh	t0,48(sp)
1d01a194:	3200a297 	lhu	v0,50(sp)
1d01a198:	0439627c 	ins	v0,v1,0x4,0x4
1d01a19c:	0442e27c 	ins	v0,a3,0x8,0x1
1d01a1a0:	444aa27c 	ins	v0,a1,0x9,0x1
1d01a1a4:	8452027c 	ins	v0,zero,0xa,0x1
1d01a1a8:	01000324 	li	v1,1
1d01a1ac:	c47b627c 	ins	v0,v1,0xf,0x1
1d01a1b0:	3200a2a7 	sh	v0,50(sp)
1d01a1b4:	3000a28f 	lw	v0,48(sp)
1d01a1b8:	1800a2af 	sw	v0,24(sp)
1d01a1bc:	3400a28f 	lw	v0,52(sp)
1d01a1c0:	1c00a2af 	sw	v0,28(sp)
1d01a1c4:	60000424 	li	a0,96
1d01a1c8:	21280000 	move	a1,zero
1d01a1cc:	08000624 	li	a2,8
1d01a1d0:	09f80002 	jalr	s0
1d01a1d4:	1000a727 	addiu	a3,sp,16
1d01a1d8:	09f82002 	jalr	s1
1d01a1dc:	1000a427 	addiu	a0,sp,16
1d01a1e0:	1000a427 	addiu	a0,sp,16
1d01a1e4:	09f84002 	jalr	s2
1d01a1e8:	01000524 	li	a1,1
1d01a1ec:	8068400b 	j	0x1d01a200
1d01a1f0:	7c00a58f 	lw	a1,124(sp)
1d01a1f4:	8068400b 	j	0x1d01a200
1d01a1f8:	5c00a0af 	sw	zero,92(sp)
1d01a1fc:	7c00a58f 	lw	a1,124(sp)
1d01a200:	1c00c013 	beqz	s8,0x1d01a274
1d01a204:	5c00a98f 	lw	t1,92(sp)
1d01a208:	7800a68f 	lw	a2,120(sp)
1d01a20c:	2800a6a7 	sh	a2,40(sp)
1d01a210:	2a00a297 	lhu	v0,42(sp)
1d01a214:	02000324 	li	v1,2
1d01a218:	0439627c 	ins	v0,v1,0x4,0x4
1d01a21c:	7400a88f 	lw	t0,116(sp)
1d01a220:	0442027d 	ins	v0,t0,0x8,0x1
1d01a224:	444aa27c 	ins	v0,a1,0x9,0x1
1d01a228:	8452027c 	ins	v0,zero,0xa,0x1
1d01a22c:	01000324 	li	v1,1
1d01a230:	c47b627c 	ins	v0,v1,0xf,0x1
1d01a234:	2a00a2a7 	sh	v0,42(sp)
1d01a238:	2800a28f 	lw	v0,40(sp)
1d01a23c:	1800a2af 	sw	v0,24(sp)
1d01a240:	2c00a28f 	lw	v0,44(sp)
1d01a244:	1c00a2af 	sw	v0,28(sp)
1d01a248:	62000424 	li	a0,98
1d01a24c:	21280000 	move	a1,zero
1d01a250:	08000624 	li	a2,8
1d01a254:	09f80002 	jalr	s0
1d01a258:	1000a727 	addiu	a3,sp,16
1d01a25c:	09f82002 	jalr	s1
1d01a260:	1000a427 	addiu	a0,sp,16
1d01a264:	1000a427 	addiu	a0,sp,16
1d01a268:	09f84002 	jalr	s2
1d01a26c:	01000524 	li	a1,1
1d01a270:	5c00a98f 	lw	t1,92(sp)
1d01a274:	0d002011 	beqz	t1,0x1d01a2ac
1d01a278:	01a0023c 	lui	v0,0xa001
1d01a27c:	1800b3a3 	sb	s3,24(sp)
1d01a280:	66000424 	li	a0,102
1d01a284:	21280000 	move	a1,zero
1d01a288:	01000624 	li	a2,1
1d01a28c:	09f80002 	jalr	s0
1d01a290:	1000a727 	addiu	a3,sp,16
1d01a294:	09f82002 	jalr	s1
1d01a298:	1000a427 	addiu	a0,sp,16
1d01a29c:	1000a427 	addiu	a0,sp,16
1d01a2a0:	09f84002 	jalr	s2
1d01a2a4:	01000524 	li	a1,1
1d01a2a8:	01a0023c 	lui	v0,0xa001
1d01a2ac:	ec384290 	lbu	v0,14572(v0)
1d01a2b0:	0900432c 	sltiu	v1,v0,9
1d01a2b4:	04006050 	beqzl	v1,0x1d01a2c8
1d01a2b8:	2000a28f 	lw	v0,32(sp)
1d01a2bc:	2b008012 	beqz	s4,0x1d01a36c
1d01a2c0:	01004224 	addiu	v0,v0,1
1d01a2c4:	2000a28f 	lw	v0,32(sp)
1d01a2c8:	4c00a38f 	lw	v1,76(sp)
1d01a2cc:	0460627c 	ins	v0,v1,0x0,0xd
1d01a2d0:	446be27e 	ins	v0,s7,0xd,0x1
1d01a2d4:	8473c27e 	ins	v0,s6,0xe,0x1
1d01a2d8:	4000a48f 	lw	a0,64(sp)
1d01a2dc:	c47b827c 	ins	v0,a0,0xf,0x1
1d01a2e0:	6000a58f 	lw	a1,96(sp)
1d01a2e4:	04e4a27c 	ins	v0,a1,0x10,0xd
1d01a2e8:	5000a68f 	lw	a2,80(sp)
1d01a2ec:	44efc27c 	ins	v0,a2,0x1d,0x1
1d01a2f0:	84f7a27e 	ins	v0,s5,0x1e,0x1
1d01a2f4:	4400a88f 	lw	t0,68(sp)
1d01a2f8:	c4ff027d 	ins	v0,t0,0x1f,0x1
1d01a2fc:	2000a2af 	sw	v0,32(sp)
1d01a300:	5400a98f 	lw	t1,84(sp)
1d01a304:	2400a9a3 	sb	t1,36(sp)
1d01a308:	6400a38f 	lw	v1,100(sp)
1d01a30c:	2500a3a3 	sb	v1,37(sp)
1d01a310:	2600a397 	lhu	v1,38(sp)
1d01a314:	6800a48f 	lw	a0,104(sp)
1d01a318:	0430837c 	ins	v1,a0,0x0,0x7
1d01a31c:	6c00a58f 	lw	a1,108(sp)
1d01a320:	046aa37c 	ins	v1,a1,0x8,0x6
1d01a324:	7000a68f 	lw	a2,112(sp)
1d01a328:	8473c37c 	ins	v1,a2,0xe,0x1
1d01a32c:	5800a88f 	lw	t0,88(sp)
1d01a330:	c47b037d 	ins	v1,t0,0xf,0x1
1d01a334:	2600a3a7 	sh	v1,38(sp)
1d01a338:	1800a2af 	sw	v0,24(sp)
1d01a33c:	2400a28f 	lw	v0,36(sp)
1d01a340:	1c00a2af 	sw	v0,28(sp)
1d01a344:	78000424 	li	a0,120
1d01a348:	21280000 	move	a1,zero
1d01a34c:	08000624 	li	a2,8
1d01a350:	09f80002 	jalr	s0
1d01a354:	1000a727 	addiu	a3,sp,16
1d01a358:	09f82002 	jalr	s1
1d01a35c:	1000a427 	addiu	a0,sp,16
1d01a360:	01a0023c 	lui	v0,0xa001
1d01a364:	fc68400b 	j	0x1d01a3f0
1d01a368:	ec3840a0 	sb	zero,14572(v0)
1d01a36c:	01a0033c 	lui	v1,0xa001
1d01a370:	fc68400b 	j	0x1d01a3f0
1d01a374:	ec3862a0 	sb	v0,14572(v1)
1d01a378:	21200000 	move	a0,zero
1d01a37c:	3800a6a7 	sh	a2,56(sp)
1d01a380:	3a00a293 	lbu	v0,58(sp)
1d01a384:	0400827c 	ins	v0,a0,0x0,0x1
1d01a388:	4408627c 	ins	v0,v1,0x1,0x1
1d01a38c:	3a00a2a3 	sb	v0,58(sp)
1d01a390:	3b00a5a3 	sb	a1,59(sp)
1d01a394:	3800a28f 	lw	v0,56(sp)
1d01a398:	1800a2af 	sw	v0,24(sp)
1d01a39c:	3c00a28f 	lw	v0,60(sp)
1d01a3a0:	1c00a2af 	sw	v0,28(sp)
1d01a3a4:	64000424 	li	a0,100
1d01a3a8:	21280000 	move	a1,zero
1d01a3ac:	08000624 	li	a2,8
1d01a3b0:	09f80002 	jalr	s0
1d01a3b4:	1000a727 	addiu	a3,sp,16
1d01a3b8:	1000a427 	addiu	a0,sp,16
1d01a3bc:	09f84002 	jalr	s2
1d01a3c0:	01000524 	li	a1,1
1d01a3c4:	fd68400b 	j	0x1d01a3f4
1d01a3c8:	a400bf8f 	lw	ra,164(sp)
1d01a3cc:	7c00a5af 	sw	a1,124(sp)
1d01a3d0:	f768400b 	j	0x1d01a3dc
1d01a3d4:	4800be8f 	lw	s8,72(sp)
1d01a3d8:	4800be8f 	lw	s8,72(sp)
1d01a3dc:	04006330 	andi	v1,v1,0x4
1d01a3e0:	64ff6014 	bnez	v1,0x1d01a174
1d01a3e4:	5800a38f 	lw	v1,88(sp)
1d01a3e8:	6168400b 	j	0x1d01a184
1d01a3ec:	5c00a0af 	sw	zero,92(sp)
1d01a3f0:	a400bf8f 	lw	ra,164(sp)
1d01a3f4:	a000be8f 	lw	s8,160(sp)
1d01a3f8:	9c00b78f 	lw	s7,156(sp)
1d01a3fc:	9800b68f 	lw	s6,152(sp)
1d01a400:	9400b58f 	lw	s5,148(sp)
1d01a404:	9000b48f 	lw	s4,144(sp)
1d01a408:	8c00b38f 	lw	s3,140(sp)
1d01a40c:	8800b28f 	lw	s2,136(sp)
1d01a410:	8400b18f 	lw	s1,132(sp)
1d01a414:	8000b08f 	lw	s0,128(sp)
1d01a418:	0800e003 	jr	ra
1d01a41c:	a800bd27 	addiu	sp,sp,168
1d01a420:	0e00a010 	beqz	a1,0x1d01a45c
1d01a424:	00000000 	nop
1d01a428:	00008294 	lhu	v0,0(a0)
1d01a42c:	201e027c 	seh	v1,v0
1d01a430:	51466328 	slti	v1,v1,18001
1d01a434:	01006050 	beqzl	v1,0x1d01a43c
1d01a438:	50460224 	li	v0,18000
1d01a43c:	21184000 	move	v1,v0
1d01a440:	2016027c 	seh	v0,v0
1d01a444:	10f54228 	slti	v0,v0,-2800
1d01a448:	01004054 	bnezl	v0,0x1d01a450
1d01a44c:	10f50324 	li	v1,-2800
1d01a450:	01a0023c 	lui	v0,0xa001
1d01a454:	d8384224 	addiu	v0,v0,14552
1d01a458:	080043a4 	sh	v1,8(v0)
1d01a45c:	0800e003 	jr	ra
1d01a460:	00000000 	nop
1d01a464:	3700a010 	beqz	a1,0x1d01a544
1d01a468:	00000000 	nop
1d01a46c:	00008290 	lbu	v0,0(a0)
1d01a470:	04004014 	bnez	v0,0x1d01a484
1d01a474:	0c00452c 	sltiu	a1,v0,12
1d01a478:	01a0023c 	lui	v0,0xa001
1d01a47c:	2a69400b 	j	0x1d01a4a8
1d01a480:	e73840a0 	sb	zero,14567(v0)
1d01a484:	0600a014 	bnez	a1,0x1d01a4a0
1d01a488:	0c000324 	li	v1,12
1d01a48c:	21184000 	move	v1,v0
1d01a490:	7900422c 	sltiu	v0,v0,121
1d01a494:	01004050 	beqzl	v0,0x1d01a49c
1d01a498:	78000324 	li	v1,120
1d01a49c:	ff006330 	andi	v1,v1,0xff
1d01a4a0:	01a0023c 	lui	v0,0xa001
1d01a4a4:	e73843a0 	sb	v1,14567(v0)
1d01a4a8:	01008290 	lbu	v0,1(a0)
1d01a4ac:	04004014 	bnez	v0,0x1d01a4c0
1d01a4b0:	0c00452c 	sltiu	a1,v0,12
1d01a4b4:	01a0023c 	lui	v0,0xa001
1d01a4b8:	3969400b 	j	0x1d01a4e4
1d01a4bc:	e83840a0 	sb	zero,14568(v0)
1d01a4c0:	0600a014 	bnez	a1,0x1d01a4dc
1d01a4c4:	0c000324 	li	v1,12
1d01a4c8:	21184000 	move	v1,v0
1d01a4cc:	f100422c 	sltiu	v0,v0,241
1d01a4d0:	01004050 	beqzl	v0,0x1d01a4d8
1d01a4d4:	f0ff0324 	li	v1,-16
1d01a4d8:	ff006330 	andi	v1,v1,0xff
1d01a4dc:	01a0023c 	lui	v0,0xa001
1d01a4e0:	e83843a0 	sb	v1,14568(v0)
1d01a4e4:	02008290 	lbu	v0,2(a0)
1d01a4e8:	04004014 	bnez	v0,0x1d01a4fc
1d01a4ec:	21184000 	move	v1,v0
1d01a4f0:	01a0023c 	lui	v0,0xa001
1d01a4f4:	4569400b 	j	0x1d01a514
1d01a4f8:	e93840a0 	sb	zero,14569(v0)
1d01a4fc:	1400422c 	sltiu	v0,v0,20
1d01a500:	01004054 	bnezl	v0,0x1d01a508
1d01a504:	14000324 	li	v1,20
1d01a508:	01a0023c 	lui	v0,0xa001
1d01a50c:	d8384224 	addiu	v0,v0,14552
1d01a510:	110043a0 	sb	v1,17(v0)
1d01a514:	03008290 	lbu	v0,3(a0)
1d01a518:	04004014 	bnez	v0,0x1d01a52c
1d01a51c:	21184000 	move	v1,v0
1d01a520:	01a0023c 	lui	v0,0xa001
1d01a524:	0800e003 	jr	ra
1d01a528:	ea3840a0 	sb	zero,14570(v0)
1d01a52c:	1900422c 	sltiu	v0,v0,25
1d01a530:	01004054 	bnezl	v0,0x1d01a538
1d01a534:	19000324 	li	v1,25
1d01a538:	01a0023c 	lui	v0,0xa001
1d01a53c:	d8384224 	addiu	v0,v0,14552
1d01a540:	120043a0 	sb	v1,18(v0)
1d01a544:	0800e003 	jr	ra
1d01a548:	00000000 	nop
1d01a54c:	62000224 	li	v0,98
1d01a550:	05008210 	beq	a0,v0,0x1d01a568
1d01a554:	64000224 	li	v0,100
1d01a558:	07008210 	beq	a0,v0,0x1d01a578
1d01a55c:	60000224 	li	v0,96
1d01a560:	08008214 	bne	a0,v0,0x1d01a584
1d01a564:	00000000 	nop
1d01a568:	64000324 	li	v1,100
1d01a56c:	01a0023c 	lui	v0,0xa001
1d01a570:	0800e003 	jr	ra
1d01a574:	f43843ac 	sw	v1,14580(v0)
1d01a578:	64000324 	li	v1,100
1d01a57c:	01a0023c 	lui	v0,0xa001
1d01a580:	f83843ac 	sw	v1,14584(v0)
1d01a584:	0800e003 	jr	ra
1d01a588:	00000000 	nop
1d01a58c:	e8ffbd27 	addiu	sp,sp,-24
1d01a590:	1400bfaf 	sw	ra,20(sp)
1d01a594:	3080848f 	lw	a0,-32720(gp)
1d01a598:	21280000 	move	a1,zero
1d01a59c:	9288400f 	jal	0x1d022248
1d01a5a0:	98000624 	li	a2,152
1d01a5a4:	1400bf8f 	lw	ra,20(sp)
1d01a5a8:	0800e003 	jr	ra
1d01a5ac:	1800bd27 	addiu	sp,sp,24
1d01a5b0:	01a0023c 	lui	v0,0xa001
1d01a5b4:	d8384224 	addiu	v0,v0,14552
1d01a5b8:	0f004390 	lbu	v1,15(v0)
1d01a5bc:	000083a0 	sb	v1,0(a0)
1d01a5c0:	10004390 	lbu	v1,16(v0)
1d01a5c4:	0000a3a0 	sb	v1,0(a1)
1d01a5c8:	11004390 	lbu	v1,17(v0)
1d01a5cc:	0000c3a0 	sb	v1,0(a2)
1d01a5d0:	12004390 	lbu	v1,18(v0)
1d01a5d4:	0000e3a0 	sb	v1,0(a3)
1d01a5d8:	08004394 	lhu	v1,8(v0)
1d01a5dc:	1000a28f 	lw	v0,16(sp)
1d01a5e0:	0800e003 	jr	ra
1d01a5e4:	000043a4 	sh	v1,0(v0)
1d01a5e8:	e8ffbd27 	addiu	sp,sp,-24
1d01a5ec:	1400bfaf 	sw	ra,20(sp)
1d01a5f0:	01a0043c 	lui	a0,0xa001
1d01a5f4:	c03b8424 	addiu	a0,a0,15296
1d01a5f8:	21280000 	move	a1,zero
1d01a5fc:	9288400f 	jal	0x1d022248
1d01a600:	48000624 	li	a2,72
1d01a604:	808080af 	sw	zero,-32640(gp)
1d01a608:	7c8080af 	sw	zero,-32644(gp)
1d01a60c:	788080af 	sw	zero,-32648(gp)
1d01a610:	758080a3 	sb	zero,-32651(gp)
1d01a614:	748080a3 	sb	zero,-32652(gp)
1d01a618:	708080af 	sw	zero,-32656(gp)
1d01a61c:	6c8080af 	sw	zero,-32660(gp)
1d01a620:	688080af 	sw	zero,-32664(gp)
1d01a624:	01000224 	li	v0,1
1d01a628:	1c8082a3 	sb	v0,-32740(gp)
1d01a62c:	1400bf8f 	lw	ra,20(sp)
1d01a630:	0800e003 	jr	ra
1d01a634:	1800bd27 	addiu	sp,sp,24
1d01a638:	01a0023c 	lui	v0,0xa001
1d01a63c:	c43b428c 	lw	v0,15300(v0)
1d01a640:	20004050 	beqzl	v0,0x1d01a6c4
1d01a644:	01a0023c 	lui	v0,0xa001
1d01a648:	ffff4224 	addiu	v0,v0,-1
1d01a64c:	01a0033c 	lui	v1,0xa001
1d01a650:	1b004014 	bnez	v0,0x1d01a6c0
1d01a654:	c43b62ac 	sw	v0,15300(v1)
1d01a658:	01a0023c 	lui	v0,0xa001
1d01a65c:	c03b4290 	lbu	v0,15296(v0)
1d01a660:	18004010 	beqz	v0,0x1d01a6c4
1d01a664:	01a0023c 	lui	v0,0xa001
1d01a668:	01a0023c 	lui	v0,0xa001
1d01a66c:	c93b4290 	lbu	v0,15305(v0)
1d01a670:	14004010 	beqz	v0,0x1d01a6c4
1d01a674:	01a0023c 	lui	v0,0xa001
1d01a678:	7880828f 	lw	v0,-32648(gp)
1d01a67c:	06004010 	beqz	v0,0x1d01a698
1d01a680:	8080828f 	lw	v0,-32640(gp)
1d01a684:	75808393 	lbu	v1,-32651(gp)
1d01a688:	01000224 	li	v0,1
1d01a68c:	ad006214 	bne	v1,v0,0x1d01a944
1d01a690:	01000324 	li	v1,1
1d01a694:	8080828f 	lw	v0,-32640(gp)
1d01a698:	0a004010 	beqz	v0,0x1d01a6c4
1d01a69c:	01a0023c 	lui	v0,0xa001
1d01a6a0:	7c80828f 	lw	v0,-32644(gp)
1d01a6a4:	a7004014 	bnez	v0,0x1d01a944
1d01a6a8:	01000324 	li	v1,1
1d01a6ac:	b169400b 	j	0x1d01a6c4
1d01a6b0:	01a0023c 	lui	v0,0xa001
1d01a6b4:	708082af 	sw	v0,-32656(gp)
1d01a6b8:	06000224 	li	v0,6
1d01a6bc:	688082af 	sw	v0,-32664(gp)
1d01a6c0:	01a0023c 	lui	v0,0xa001
1d01a6c4:	cc3b428c 	lw	v0,15308(v0)
1d01a6c8:	19004010 	beqz	v0,0x1d01a730
1d01a6cc:	ffff4224 	addiu	v0,v0,-1
1d01a6d0:	01a0033c 	lui	v1,0xa001
1d01a6d4:	16004014 	bnez	v0,0x1d01a730
1d01a6d8:	cc3b62ac 	sw	v0,15308(v1)
1d01a6dc:	01a0023c 	lui	v0,0xa001
1d01a6e0:	c03b4290 	lbu	v0,15296(v0)
1d01a6e4:	12004010 	beqz	v0,0x1d01a730
1d01a6e8:	7880828f 	lw	v0,-32648(gp)
1d01a6ec:	06004010 	beqz	v0,0x1d01a708
1d01a6f0:	8080828f 	lw	v0,-32640(gp)
1d01a6f4:	75808393 	lbu	v1,-32651(gp)
1d01a6f8:	01000224 	li	v0,1
1d01a6fc:	98006214 	bne	v1,v0,0x1d01a960
1d01a700:	01000324 	li	v1,1
1d01a704:	8080828f 	lw	v0,-32640(gp)
1d01a708:	0a004010 	beqz	v0,0x1d01a734
1d01a70c:	01a0023c 	lui	v0,0xa001
1d01a710:	7c80828f 	lw	v0,-32644(gp)
1d01a714:	92004014 	bnez	v0,0x1d01a960
1d01a718:	01000324 	li	v1,1
1d01a71c:	cd69400b 	j	0x1d01a734
1d01a720:	01a0023c 	lui	v0,0xa001
1d01a724:	708082af 	sw	v0,-32656(gp)
1d01a728:	07000224 	li	v0,7
1d01a72c:	688082af 	sw	v0,-32664(gp)
1d01a730:	01a0023c 	lui	v0,0xa001
1d01a734:	dc3b428c 	lw	v0,15324(v0)
1d01a738:	20004050 	beqzl	v0,0x1d01a7bc
1d01a73c:	01a0023c 	lui	v0,0xa001
1d01a740:	ffff4224 	addiu	v0,v0,-1
1d01a744:	01a0033c 	lui	v1,0xa001
1d01a748:	1b004014 	bnez	v0,0x1d01a7b8
1d01a74c:	dc3b62ac 	sw	v0,15324(v1)
1d01a750:	01a0023c 	lui	v0,0xa001
1d01a754:	d83b4290 	lbu	v0,15320(v0)
1d01a758:	18004010 	beqz	v0,0x1d01a7bc
1d01a75c:	01a0023c 	lui	v0,0xa001
1d01a760:	01a0023c 	lui	v0,0xa001
1d01a764:	e13b4290 	lbu	v0,15329(v0)
1d01a768:	14004010 	beqz	v0,0x1d01a7bc
1d01a76c:	01a0023c 	lui	v0,0xa001
1d01a770:	7880828f 	lw	v0,-32648(gp)
1d01a774:	06004010 	beqz	v0,0x1d01a790
1d01a778:	8080828f 	lw	v0,-32640(gp)
1d01a77c:	75808393 	lbu	v1,-32651(gp)
1d01a780:	01000224 	li	v0,1
1d01a784:	7d006214 	bne	v1,v0,0x1d01a97c
1d01a788:	01000324 	li	v1,1
1d01a78c:	8080828f 	lw	v0,-32640(gp)
1d01a790:	0a004010 	beqz	v0,0x1d01a7bc
1d01a794:	01a0023c 	lui	v0,0xa001
1d01a798:	7c80828f 	lw	v0,-32644(gp)
1d01a79c:	77004014 	bnez	v0,0x1d01a97c
1d01a7a0:	01000324 	li	v1,1
1d01a7a4:	ef69400b 	j	0x1d01a7bc
1d01a7a8:	01a0023c 	lui	v0,0xa001
1d01a7ac:	708082af 	sw	v0,-32656(gp)
1d01a7b0:	0a000224 	li	v0,10
1d01a7b4:	688082af 	sw	v0,-32664(gp)
1d01a7b8:	01a0023c 	lui	v0,0xa001
1d01a7bc:	e43b428c 	lw	v0,15332(v0)
1d01a7c0:	19004010 	beqz	v0,0x1d01a828
1d01a7c4:	ffff4224 	addiu	v0,v0,-1
1d01a7c8:	01a0033c 	lui	v1,0xa001
1d01a7cc:	16004014 	bnez	v0,0x1d01a828
1d01a7d0:	e43b62ac 	sw	v0,15332(v1)
1d01a7d4:	01a0023c 	lui	v0,0xa001
1d01a7d8:	d83b4290 	lbu	v0,15320(v0)
1d01a7dc:	12004010 	beqz	v0,0x1d01a828
1d01a7e0:	7880828f 	lw	v0,-32648(gp)
1d01a7e4:	06004010 	beqz	v0,0x1d01a800
1d01a7e8:	8080828f 	lw	v0,-32640(gp)
1d01a7ec:	75808393 	lbu	v1,-32651(gp)
1d01a7f0:	01000224 	li	v0,1
1d01a7f4:	68006214 	bne	v1,v0,0x1d01a998
1d01a7f8:	01000324 	li	v1,1
1d01a7fc:	8080828f 	lw	v0,-32640(gp)
1d01a800:	0a004010 	beqz	v0,0x1d01a82c
1d01a804:	01a0023c 	lui	v0,0xa001
1d01a808:	7c80828f 	lw	v0,-32644(gp)
1d01a80c:	62004014 	bnez	v0,0x1d01a998
1d01a810:	01000324 	li	v1,1
1d01a814:	0b6a400b 	j	0x1d01a82c
1d01a818:	01a0023c 	lui	v0,0xa001
1d01a81c:	708082af 	sw	v0,-32656(gp)
1d01a820:	0b000224 	li	v0,11
1d01a824:	688082af 	sw	v0,-32664(gp)
1d01a828:	01a0023c 	lui	v0,0xa001
1d01a82c:	f43b428c 	lw	v0,15348(v0)
1d01a830:	20004050 	beqzl	v0,0x1d01a8b4
1d01a834:	01a0023c 	lui	v0,0xa001
1d01a838:	ffff4224 	addiu	v0,v0,-1
1d01a83c:	01a0033c 	lui	v1,0xa001
1d01a840:	1b004014 	bnez	v0,0x1d01a8b0
1d01a844:	f43b62ac 	sw	v0,15348(v1)
1d01a848:	01a0023c 	lui	v0,0xa001
1d01a84c:	f03b4290 	lbu	v0,15344(v0)
1d01a850:	18004010 	beqz	v0,0x1d01a8b4
1d01a854:	01a0023c 	lui	v0,0xa001
1d01a858:	01a0023c 	lui	v0,0xa001
1d01a85c:	f93b4290 	lbu	v0,15353(v0)
1d01a860:	14004010 	beqz	v0,0x1d01a8b4
1d01a864:	01a0023c 	lui	v0,0xa001
1d01a868:	7880828f 	lw	v0,-32648(gp)
1d01a86c:	06004010 	beqz	v0,0x1d01a888
1d01a870:	8080828f 	lw	v0,-32640(gp)
1d01a874:	75808393 	lbu	v1,-32651(gp)
1d01a878:	01000224 	li	v0,1
1d01a87c:	4d006214 	bne	v1,v0,0x1d01a9b4
1d01a880:	01000324 	li	v1,1
1d01a884:	8080828f 	lw	v0,-32640(gp)
1d01a888:	0a004010 	beqz	v0,0x1d01a8b4
1d01a88c:	01a0023c 	lui	v0,0xa001
1d01a890:	7c80828f 	lw	v0,-32644(gp)
1d01a894:	47004014 	bnez	v0,0x1d01a9b4
1d01a898:	01000324 	li	v1,1
1d01a89c:	2d6a400b 	j	0x1d01a8b4
1d01a8a0:	01a0023c 	lui	v0,0xa001
1d01a8a4:	708082af 	sw	v0,-32656(gp)
1d01a8a8:	0e000224 	li	v0,14
1d01a8ac:	688082af 	sw	v0,-32664(gp)
1d01a8b0:	01a0023c 	lui	v0,0xa001
1d01a8b4:	fc3b428c 	lw	v0,15356(v0)
1d01a8b8:	19004010 	beqz	v0,0x1d01a920
1d01a8bc:	ffff4224 	addiu	v0,v0,-1
1d01a8c0:	01a0033c 	lui	v1,0xa001
1d01a8c4:	16004014 	bnez	v0,0x1d01a920
1d01a8c8:	fc3b62ac 	sw	v0,15356(v1)
1d01a8cc:	01a0023c 	lui	v0,0xa001
1d01a8d0:	f03b4290 	lbu	v0,15344(v0)
1d01a8d4:	12004010 	beqz	v0,0x1d01a920
1d01a8d8:	7880828f 	lw	v0,-32648(gp)
1d01a8dc:	06004010 	beqz	v0,0x1d01a8f8
1d01a8e0:	8080828f 	lw	v0,-32640(gp)
1d01a8e4:	75808393 	lbu	v1,-32651(gp)
1d01a8e8:	01000224 	li	v0,1
1d01a8ec:	39006214 	bne	v1,v0,0x1d01a9d4
1d01a8f0:	01000324 	li	v1,1
1d01a8f4:	8080828f 	lw	v0,-32640(gp)
1d01a8f8:	0e004010 	beqz	v0,0x1d01a934
1d01a8fc:	7880828f 	lw	v0,-32648(gp)
1d01a900:	7c80828f 	lw	v0,-32644(gp)
1d01a904:	33004014 	bnez	v0,0x1d01a9d4
1d01a908:	01000324 	li	v1,1
1d01a90c:	7d6a400b 	j	0x1d01a9f4
1d01a910:	8080828f 	lw	v0,-32640(gp)
1d01a914:	708082af 	sw	v0,-32656(gp)
1d01a918:	0f000224 	li	v0,15
1d01a91c:	688082af 	sw	v0,-32664(gp)
1d01a920:	8080828f 	lw	v0,-32640(gp)
1d01a924:	02004010 	beqz	v0,0x1d01a930
1d01a928:	ffff4224 	addiu	v0,v0,-1
1d01a92c:	808082af 	sw	v0,-32640(gp)
1d01a930:	7880828f 	lw	v0,-32648(gp)
1d01a934:	31004010 	beqz	v0,0x1d01a9fc
1d01a938:	ffff4224 	addiu	v0,v0,-1
1d01a93c:	0800e003 	jr	ra
1d01a940:	788082af 	sw	v0,-32648(gp)
1d01a944:	01a0023c 	lui	v0,0xa001
1d01a948:	c13b43a0 	sb	v1,15297(v0)
1d01a94c:	7080828f 	lw	v0,-32656(gp)
1d01a950:	58ff4050 	beqzl	v0,0x1d01a6b4
1d01a954:	01000224 	li	v0,1
1d01a958:	b169400b 	j	0x1d01a6c4
1d01a95c:	01a0023c 	lui	v0,0xa001
1d01a960:	01a0023c 	lui	v0,0xa001
1d01a964:	c13b43a0 	sb	v1,15297(v0)
1d01a968:	7080828f 	lw	v0,-32656(gp)
1d01a96c:	6dff4050 	beqzl	v0,0x1d01a724
1d01a970:	01000224 	li	v0,1
1d01a974:	cd69400b 	j	0x1d01a734
1d01a978:	01a0023c 	lui	v0,0xa001
1d01a97c:	01a0023c 	lui	v0,0xa001
1d01a980:	d93b43a0 	sb	v1,15321(v0)
1d01a984:	7080828f 	lw	v0,-32656(gp)
1d01a988:	88ff4050 	beqzl	v0,0x1d01a7ac
1d01a98c:	01000224 	li	v0,1
1d01a990:	ef69400b 	j	0x1d01a7bc
1d01a994:	01a0023c 	lui	v0,0xa001
1d01a998:	01a0023c 	lui	v0,0xa001
1d01a99c:	d93b43a0 	sb	v1,15321(v0)
1d01a9a0:	7080828f 	lw	v0,-32656(gp)
1d01a9a4:	9dff4050 	beqzl	v0,0x1d01a81c
1d01a9a8:	01000224 	li	v0,1
1d01a9ac:	0b6a400b 	j	0x1d01a82c
1d01a9b0:	01a0023c 	lui	v0,0xa001
1d01a9b4:	01a0023c 	lui	v0,0xa001
1d01a9b8:	f13b43a0 	sb	v1,15345(v0)
1d01a9bc:	1c8080a3 	sb	zero,-32740(gp)
1d01a9c0:	7080828f 	lw	v0,-32656(gp)
1d01a9c4:	b7ff4050 	beqzl	v0,0x1d01a8a4
1d01a9c8:	01000224 	li	v0,1
1d01a9cc:	2d6a400b 	j	0x1d01a8b4
1d01a9d0:	01a0023c 	lui	v0,0xa001
1d01a9d4:	01a0023c 	lui	v0,0xa001
1d01a9d8:	f13b43a0 	sb	v1,15345(v0)
1d01a9dc:	1c8080a3 	sb	zero,-32740(gp)
1d01a9e0:	7080828f 	lw	v0,-32656(gp)
1d01a9e4:	cbff4050 	beqzl	v0,0x1d01a914
1d01a9e8:	01000224 	li	v0,1
1d01a9ec:	496a400b 	j	0x1d01a924
1d01a9f0:	8080828f 	lw	v0,-32640(gp)
1d01a9f4:	4b6a400b 	j	0x1d01a92c
1d01a9f8:	ffff4224 	addiu	v0,v0,-1
1d01a9fc:	0800e003 	jr	ra
1d01aa00:	00000000 	nop
1d01aa04:	07008290 	lbu	v0,7(a0)
1d01aa08:	03008390 	lbu	v1,3(a0)
1d01aa0c:	0000657c 	ext	a1,v1,0x0,0x1
1d01aa10:	64000424 	li	a0,100
1d01aa14:	01a0033c 	lui	v1,0xa001
1d01aa18:	07004014 	bnez	v0,0x1d01aa38
1d01aa1c:	c43b64ac 	sw	a0,15300(v1)
1d01aa20:	01a0033c 	lui	v1,0xa001
1d01aa24:	c03b6390 	lbu	v1,15296(v1)
1d01aa28:	08006014 	bnez	v1,0x1d01aa4c
1d01aa2c:	ffff4324 	addiu	v1,v0,-1
1d01aa30:	0800e003 	jr	ra
1d01aa34:	00000000 	nop
1d01aa38:	01a0033c 	lui	v1,0xa001
1d01aa3c:	c03b6390 	lbu	v1,15296(v1)
1d01aa40:	1c006010 	beqz	v1,0x1d01aab4
1d01aa44:	01000424 	li	a0,1
1d01aa48:	ffff4324 	addiu	v1,v0,-1
1d01aa4c:	01a0043c 	lui	a0,0xa001
1d01aa50:	c83b8490 	lbu	a0,15304(a0)
1d01aa54:	23186400 	subu	v1,v1,a0
1d01aa58:	ff006330 	andi	v1,v1,0xff
1d01aa5c:	0300632c 	sltiu	v1,v1,3
1d01aa60:	17006014 	bnez	v1,0x1d01aac0
1d01aa64:	01a0033c 	lui	v1,0xa001
1d01aa68:	7880838f 	lw	v1,-32648(gp)
1d01aa6c:	06006010 	beqz	v1,0x1d01aa88
1d01aa70:	8080838f 	lw	v1,-32640(gp)
1d01aa74:	75808493 	lbu	a0,-32651(gp)
1d01aa78:	01000324 	li	v1,1
1d01aa7c:	14008314 	bne	a0,v1,0x1d01aad0
1d01aa80:	01000324 	li	v1,1
1d01aa84:	8080838f 	lw	v1,-32640(gp)
1d01aa88:	0d006010 	beqz	v1,0x1d01aac0
1d01aa8c:	01a0033c 	lui	v1,0xa001
1d01aa90:	7c80838f 	lw	v1,-32644(gp)
1d01aa94:	0e006054 	bnezl	v1,0x1d01aad0
1d01aa98:	01000324 	li	v1,1
1d01aa9c:	b06a400b 	j	0x1d01aac0
1d01aaa0:	01a0033c 	lui	v1,0xa001
1d01aaa4:	708082af 	sw	v0,-32656(gp)
1d01aaa8:	04000224 	li	v0,4
1d01aaac:	0800e003 	jr	ra
1d01aab0:	688082af 	sw	v0,-32664(gp)
1d01aab4:	01a0033c 	lui	v1,0xa001
1d01aab8:	c03b64a0 	sb	a0,15296(v1)
1d01aabc:	01a0033c 	lui	v1,0xa001
1d01aac0:	c03b6324 	addiu	v1,v1,15296
1d01aac4:	080062a0 	sb	v0,8(v1)
1d01aac8:	0800e003 	jr	ra
1d01aacc:	090065a0 	sb	a1,9(v1)
1d01aad0:	01a0023c 	lui	v0,0xa001
1d01aad4:	c13b43a0 	sb	v1,15297(v0)
1d01aad8:	7080828f 	lw	v0,-32656(gp)
1d01aadc:	f1ff4010 	beqz	v0,0x1d01aaa4
1d01aae0:	01000224 	li	v0,1
1d01aae4:	0800e003 	jr	ra
1d01aae8:	00000000 	nop
1d01aaec:	07008290 	lbu	v0,7(a0)
1d01aaf0:	03008390 	lbu	v1,3(a0)
1d01aaf4:	0000657c 	ext	a1,v1,0x0,0x1
1d01aaf8:	64000424 	li	a0,100
1d01aafc:	01a0033c 	lui	v1,0xa001
1d01ab00:	07004014 	bnez	v0,0x1d01ab20
1d01ab04:	dc3b64ac 	sw	a0,15324(v1)
1d01ab08:	01a0033c 	lui	v1,0xa001
1d01ab0c:	d83b6390 	lbu	v1,15320(v1)
1d01ab10:	08006014 	bnez	v1,0x1d01ab34
1d01ab14:	ffff4324 	addiu	v1,v0,-1
1d01ab18:	0800e003 	jr	ra
1d01ab1c:	00000000 	nop
1d01ab20:	01a0033c 	lui	v1,0xa001
1d01ab24:	d83b6390 	lbu	v1,15320(v1)
1d01ab28:	1c006010 	beqz	v1,0x1d01ab9c
1d01ab2c:	01000424 	li	a0,1
1d01ab30:	ffff4324 	addiu	v1,v0,-1
1d01ab34:	01a0043c 	lui	a0,0xa001
1d01ab38:	e03b8490 	lbu	a0,15328(a0)
1d01ab3c:	23186400 	subu	v1,v1,a0
1d01ab40:	ff006330 	andi	v1,v1,0xff
1d01ab44:	0300632c 	sltiu	v1,v1,3
1d01ab48:	17006014 	bnez	v1,0x1d01aba8
1d01ab4c:	01a0033c 	lui	v1,0xa001
1d01ab50:	7880838f 	lw	v1,-32648(gp)
1d01ab54:	06006010 	beqz	v1,0x1d01ab70
1d01ab58:	8080838f 	lw	v1,-32640(gp)
1d01ab5c:	75808493 	lbu	a0,-32651(gp)
1d01ab60:	01000324 	li	v1,1
1d01ab64:	14008314 	bne	a0,v1,0x1d01abb8
1d01ab68:	01000324 	li	v1,1
1d01ab6c:	8080838f 	lw	v1,-32640(gp)
1d01ab70:	0d006010 	beqz	v1,0x1d01aba8
1d01ab74:	01a0033c 	lui	v1,0xa001
1d01ab78:	7c80838f 	lw	v1,-32644(gp)
1d01ab7c:	0e006054 	bnezl	v1,0x1d01abb8
1d01ab80:	01000324 	li	v1,1
1d01ab84:	ea6a400b 	j	0x1d01aba8
1d01ab88:	01a0033c 	lui	v1,0xa001
1d01ab8c:	708082af 	sw	v0,-32656(gp)
1d01ab90:	08000224 	li	v0,8
1d01ab94:	0800e003 	jr	ra
1d01ab98:	688082af 	sw	v0,-32664(gp)
1d01ab9c:	01a0033c 	lui	v1,0xa001
1d01aba0:	d83b64a0 	sb	a0,15320(v1)
1d01aba4:	01a0033c 	lui	v1,0xa001
1d01aba8:	c03b6324 	addiu	v1,v1,15296
1d01abac:	200062a0 	sb	v0,32(v1)
1d01abb0:	0800e003 	jr	ra
1d01abb4:	210065a0 	sb	a1,33(v1)
1d01abb8:	01a0023c 	lui	v0,0xa001
1d01abbc:	d93b43a0 	sb	v1,15321(v0)
1d01abc0:	7080828f 	lw	v0,-32656(gp)
1d01abc4:	f1ff4010 	beqz	v0,0x1d01ab8c
1d01abc8:	01000224 	li	v0,1
1d01abcc:	0800e003 	jr	ra
1d01abd0:	00000000 	nop
1d01abd4:	07008290 	lbu	v0,7(a0)
1d01abd8:	02008390 	lbu	v1,2(a0)
1d01abdc:	0000657c 	ext	a1,v1,0x0,0x1
1d01abe0:	64000424 	li	a0,100
1d01abe4:	01a0033c 	lui	v1,0xa001
1d01abe8:	07004014 	bnez	v0,0x1d01ac08
1d01abec:	f43b64ac 	sw	a0,15348(v1)
1d01abf0:	01a0033c 	lui	v1,0xa001
1d01abf4:	f03b6390 	lbu	v1,15344(v1)
1d01abf8:	08006014 	bnez	v1,0x1d01ac1c
1d01abfc:	ffff4324 	addiu	v1,v0,-1
1d01ac00:	0800e003 	jr	ra
1d01ac04:	00000000 	nop
1d01ac08:	01a0033c 	lui	v1,0xa001
1d01ac0c:	f03b6390 	lbu	v1,15344(v1)
1d01ac10:	1c006010 	beqz	v1,0x1d01ac84
1d01ac14:	01000424 	li	a0,1
1d01ac18:	ffff4324 	addiu	v1,v0,-1
1d01ac1c:	01a0043c 	lui	a0,0xa001
1d01ac20:	f83b8490 	lbu	a0,15352(a0)
1d01ac24:	23186400 	subu	v1,v1,a0
1d01ac28:	ff006330 	andi	v1,v1,0xff
1d01ac2c:	0300632c 	sltiu	v1,v1,3
1d01ac30:	17006014 	bnez	v1,0x1d01ac90
1d01ac34:	01a0033c 	lui	v1,0xa001
1d01ac38:	7880838f 	lw	v1,-32648(gp)
1d01ac3c:	06006010 	beqz	v1,0x1d01ac58
1d01ac40:	8080838f 	lw	v1,-32640(gp)
1d01ac44:	75808493 	lbu	a0,-32651(gp)
1d01ac48:	01000324 	li	v1,1
1d01ac4c:	14008314 	bne	a0,v1,0x1d01aca0
1d01ac50:	01000324 	li	v1,1
1d01ac54:	8080838f 	lw	v1,-32640(gp)
1d01ac58:	0d006010 	beqz	v1,0x1d01ac90
1d01ac5c:	01a0033c 	lui	v1,0xa001
1d01ac60:	7c80838f 	lw	v1,-32644(gp)
1d01ac64:	0e006054 	bnezl	v1,0x1d01aca0
1d01ac68:	01000324 	li	v1,1
1d01ac6c:	246b400b 	j	0x1d01ac90
1d01ac70:	01a0033c 	lui	v1,0xa001
1d01ac74:	708082af 	sw	v0,-32656(gp)
1d01ac78:	0c000224 	li	v0,12
1d01ac7c:	0800e003 	jr	ra
1d01ac80:	688082af 	sw	v0,-32664(gp)
1d01ac84:	01a0033c 	lui	v1,0xa001
1d01ac88:	f03b64a0 	sb	a0,15344(v1)
1d01ac8c:	01a0033c 	lui	v1,0xa001
1d01ac90:	c03b6324 	addiu	v1,v1,15296
1d01ac94:	380062a0 	sb	v0,56(v1)
1d01ac98:	0800e003 	jr	ra
1d01ac9c:	390065a0 	sb	a1,57(v1)
1d01aca0:	01a0023c 	lui	v0,0xa001
1d01aca4:	f13b43a0 	sb	v1,15345(v0)
1d01aca8:	1c8080a3 	sb	zero,-32740(gp)
1d01acac:	7080828f 	lw	v0,-32656(gp)
1d01acb0:	f0ff4010 	beqz	v0,0x1d01ac74
1d01acb4:	01000224 	li	v0,1
1d01acb8:	0800e003 	jr	ra
1d01acbc:	00000000 	nop
1d01acc0:	d0ffbd27 	addiu	sp,sp,-48
1d01acc4:	2c00bfaf 	sw	ra,44(sp)
1d01acc8:	2800b5af 	sw	s5,40(sp)
1d01accc:	2400b4af 	sw	s4,36(sp)
1d01acd0:	2000b3af 	sw	s3,32(sp)
1d01acd4:	1c00b2af 	sw	s2,28(sp)
1d01acd8:	1800b1af 	sw	s1,24(sp)
1d01acdc:	1400b0af 	sw	s0,20(sp)
1d01ace0:	07008290 	lbu	v0,7(a0)
1d01ace4:	0000507c 	ext	s0,v0,0x0,0x1
1d01ace8:	ff000432 	andi	a0,s0,0xff
1d01acec:	4000517c 	ext	s1,v0,0x1,0x1
1d01acf0:	ff002532 	andi	a1,s1,0xff
1d01acf4:	8000527c 	ext	s2,v0,0x2,0x1
1d01acf8:	ff005432 	andi	s4,s2,0xff
1d01acfc:	c000537c 	ext	s3,v0,0x3,0x1
1d01ad00:	70004230 	andi	v0,v0,0x70
1d01ad04:	2ba80200 	sltu	s5,zero,v0
1d01ad08:	01a0023c 	lui	v0,0xa001
1d01ad0c:	cc3b428c 	lw	v0,15308(v0)
1d01ad10:	36004010 	beqz	v0,0x1d01adec
1d01ad14:	ff006332 	andi	v1,s3,0xff
1d01ad18:	0e006010 	beqz	v1,0x1d01ad54
1d01ad1c:	01a0023c 	lui	v0,0xa001
1d01ad20:	01a0023c 	lui	v0,0xa001
1d01ad24:	d33b4290 	lbu	v0,15315(v0)
1d01ad28:	0a004014 	bnez	v0,0x1d01ad54
1d01ad2c:	01a0023c 	lui	v0,0xa001
1d01ad30:	01000324 	li	v1,1
1d01ad34:	01a0023c 	lui	v0,0xa001
1d01ad38:	c13b43a0 	sb	v1,15297(v0)
1d01ad3c:	7080828f 	lw	v0,-32656(gp)
1d01ad40:	2a004014 	bnez	v0,0x1d01adec
1d01ad44:	01000224 	li	v0,1
1d01ad48:	708082af 	sw	v0,-32656(gp)
1d01ad4c:	7b6b400b 	j	0x1d01adec
1d01ad50:	688082af 	sw	v0,-32664(gp)
1d01ad54:	c03b4290 	lbu	v0,15296(v0)
1d01ad58:	24004010 	beqz	v0,0x1d01adec
1d01ad5c:	01a0023c 	lui	v0,0xa001
1d01ad60:	d03b4290 	lbu	v0,15312(v0)
1d01ad64:	21004010 	beqz	v0,0x1d01adec
1d01ad68:	00000000 	nop
1d01ad6c:	1f008014 	bnez	a0,0x1d01adec
1d01ad70:	00000000 	nop
1d01ad74:	1d00a014 	bnez	a1,0x1d01adec
1d01ad78:	01a0023c 	lui	v0,0xa001
1d01ad7c:	d13b4290 	lbu	v0,15313(v0)
1d01ad80:	1a004014 	bnez	v0,0x1d01adec
1d01ad84:	01a0023c 	lui	v0,0xa001
1d01ad88:	e93b4290 	lbu	v0,15337(v0)
1d01ad8c:	17004014 	bnez	v0,0x1d01adec
1d01ad90:	01a0023c 	lui	v0,0xa001
1d01ad94:	013c4290 	lbu	v0,15361(v0)
1d01ad98:	14004014 	bnez	v0,0x1d01adec
1d01ad9c:	7880828f 	lw	v0,-32648(gp)
1d01ada0:	05004010 	beqz	v0,0x1d01adb8
1d01ada4:	8080828f 	lw	v0,-32640(gp)
1d01ada8:	75808393 	lbu	v1,-32651(gp)
1d01adac:	01000224 	li	v0,1
1d01adb0:	1f006214 	bne	v1,v0,0x1d01ae30
1d01adb4:	8080828f 	lw	v0,-32640(gp)
1d01adb8:	0c004010 	beqz	v0,0x1d01adec
1d01adbc:	7c80828f 	lw	v0,-32644(gp)
1d01adc0:	1b004014 	bnez	v0,0x1d01ae30
1d01adc4:	00000000 	nop
1d01adc8:	7b6b400b 	j	0x1d01adec
1d01adcc:	00000000 	nop
1d01add0:	c13b43a0 	sb	v1,15297(v0)
1d01add4:	7080828f 	lw	v0,-32656(gp)
1d01add8:	04004014 	bnez	v0,0x1d01adec
1d01addc:	01000224 	li	v0,1
1d01ade0:	708082af 	sw	v0,-32656(gp)
1d01ade4:	05000224 	li	v0,5
1d01ade8:	688082af 	sw	v0,-32664(gp)
1d01adec:	06008012 	beqz	s4,0x1d01ae08
1d01adf0:	01000224 	li	v0,1
1d01adf4:	7080838f 	lw	v1,-32656(gp)
1d01adf8:	04006214 	bne	v1,v0,0x1d01ae0c
1d01adfc:	01a0023c 	lui	v0,0xa001
1d01ae00:	02000224 	li	v0,2
1d01ae04:	708082af 	sw	v0,-32656(gp)
1d01ae08:	01a0023c 	lui	v0,0xa001
1d01ae0c:	c03b4224 	addiu	v0,v0,15296
1d01ae10:	64000324 	li	v1,100
1d01ae14:	0c0043ac 	sw	v1,12(v0)
1d01ae18:	100050a0 	sb	s0,16(v0)
1d01ae1c:	110051a0 	sb	s1,17(v0)
1d01ae20:	120052a0 	sb	s2,18(v0)
1d01ae24:	130053a0 	sb	s3,19(v0)
1d01ae28:	926b400b 	j	0x1d01ae48
1d01ae2c:	140055a0 	sb	s5,20(v0)
1d01ae30:	8a5b400f 	jal	0x1d016e28
1d01ae34:	00000000 	nop
1d01ae38:	ecff4014 	bnez	v0,0x1d01adec
1d01ae3c:	01000324 	li	v1,1
1d01ae40:	746b400b 	j	0x1d01add0
1d01ae44:	01a0023c 	lui	v0,0xa001
1d01ae48:	2c00bf8f 	lw	ra,44(sp)
1d01ae4c:	2800b58f 	lw	s5,40(sp)
1d01ae50:	2400b48f 	lw	s4,36(sp)
1d01ae54:	2000b38f 	lw	s3,32(sp)
1d01ae58:	1c00b28f 	lw	s2,28(sp)
1d01ae5c:	1800b18f 	lw	s1,24(sp)
1d01ae60:	1400b08f 	lw	s0,20(sp)
1d01ae64:	0800e003 	jr	ra
1d01ae68:	3000bd27 	addiu	sp,sp,48
1d01ae6c:	d0ffbd27 	addiu	sp,sp,-48
1d01ae70:	2c00bfaf 	sw	ra,44(sp)
1d01ae74:	2800b5af 	sw	s5,40(sp)
1d01ae78:	2400b4af 	sw	s4,36(sp)
1d01ae7c:	2000b3af 	sw	s3,32(sp)
1d01ae80:	1c00b2af 	sw	s2,28(sp)
1d01ae84:	1800b1af 	sw	s1,24(sp)
1d01ae88:	1400b0af 	sw	s0,20(sp)
1d01ae8c:	07008290 	lbu	v0,7(a0)
1d01ae90:	0000507c 	ext	s0,v0,0x0,0x1
1d01ae94:	ff000432 	andi	a0,s0,0xff
1d01ae98:	4000517c 	ext	s1,v0,0x1,0x1
1d01ae9c:	ff002532 	andi	a1,s1,0xff
1d01aea0:	8000527c 	ext	s2,v0,0x2,0x1
1d01aea4:	ff005432 	andi	s4,s2,0xff
1d01aea8:	c000537c 	ext	s3,v0,0x3,0x1
1d01aeac:	70004230 	andi	v0,v0,0x70
1d01aeb0:	2ba80200 	sltu	s5,zero,v0
1d01aeb4:	01a0023c 	lui	v0,0xa001
1d01aeb8:	e43b428c 	lw	v0,15332(v0)
1d01aebc:	37004010 	beqz	v0,0x1d01af9c
1d01aec0:	ff006332 	andi	v1,s3,0xff
1d01aec4:	0f006010 	beqz	v1,0x1d01af04
1d01aec8:	01a0023c 	lui	v0,0xa001
1d01aecc:	01a0023c 	lui	v0,0xa001
1d01aed0:	eb3b4290 	lbu	v0,15339(v0)
1d01aed4:	0b004014 	bnez	v0,0x1d01af04
1d01aed8:	01a0023c 	lui	v0,0xa001
1d01aedc:	01000324 	li	v1,1
1d01aee0:	01a0023c 	lui	v0,0xa001
1d01aee4:	d93b43a0 	sb	v1,15321(v0)
1d01aee8:	7080828f 	lw	v0,-32656(gp)
1d01aeec:	2b004014 	bnez	v0,0x1d01af9c
1d01aef0:	01000224 	li	v0,1
1d01aef4:	708082af 	sw	v0,-32656(gp)
1d01aef8:	02000224 	li	v0,2
1d01aefc:	e76b400b 	j	0x1d01af9c
1d01af00:	688082af 	sw	v0,-32664(gp)
1d01af04:	d83b4290 	lbu	v0,15320(v0)
1d01af08:	24004010 	beqz	v0,0x1d01af9c
1d01af0c:	01a0023c 	lui	v0,0xa001
1d01af10:	e83b4290 	lbu	v0,15336(v0)
1d01af14:	21004010 	beqz	v0,0x1d01af9c
1d01af18:	00000000 	nop
1d01af1c:	1f008014 	bnez	a0,0x1d01af9c
1d01af20:	00000000 	nop
1d01af24:	1d00a014 	bnez	a1,0x1d01af9c
1d01af28:	01a0023c 	lui	v0,0xa001
1d01af2c:	d13b4290 	lbu	v0,15313(v0)
1d01af30:	1a004014 	bnez	v0,0x1d01af9c
1d01af34:	01a0023c 	lui	v0,0xa001
1d01af38:	e93b4290 	lbu	v0,15337(v0)
1d01af3c:	17004014 	bnez	v0,0x1d01af9c
1d01af40:	01a0023c 	lui	v0,0xa001
1d01af44:	013c4290 	lbu	v0,15361(v0)
1d01af48:	14004014 	bnez	v0,0x1d01af9c
1d01af4c:	7880828f 	lw	v0,-32648(gp)
1d01af50:	05004010 	beqz	v0,0x1d01af68
1d01af54:	8080828f 	lw	v0,-32640(gp)
1d01af58:	75808393 	lbu	v1,-32651(gp)
1d01af5c:	01000224 	li	v0,1
1d01af60:	1f006214 	bne	v1,v0,0x1d01afe0
1d01af64:	8080828f 	lw	v0,-32640(gp)
1d01af68:	0c004010 	beqz	v0,0x1d01af9c
1d01af6c:	7c80828f 	lw	v0,-32644(gp)
1d01af70:	1b004014 	bnez	v0,0x1d01afe0
1d01af74:	00000000 	nop
1d01af78:	e76b400b 	j	0x1d01af9c
1d01af7c:	00000000 	nop
1d01af80:	d93b43a0 	sb	v1,15321(v0)
1d01af84:	7080828f 	lw	v0,-32656(gp)
1d01af88:	04004014 	bnez	v0,0x1d01af9c
1d01af8c:	01000224 	li	v0,1
1d01af90:	708082af 	sw	v0,-32656(gp)
1d01af94:	09000224 	li	v0,9
1d01af98:	688082af 	sw	v0,-32664(gp)
1d01af9c:	06008012 	beqz	s4,0x1d01afb8
1d01afa0:	01000224 	li	v0,1
1d01afa4:	7080838f 	lw	v1,-32656(gp)
1d01afa8:	04006214 	bne	v1,v0,0x1d01afbc
1d01afac:	01a0023c 	lui	v0,0xa001
1d01afb0:	02000224 	li	v0,2
1d01afb4:	708082af 	sw	v0,-32656(gp)
1d01afb8:	01a0023c 	lui	v0,0xa001
1d01afbc:	c03b4224 	addiu	v0,v0,15296
1d01afc0:	64000324 	li	v1,100
1d01afc4:	240043ac 	sw	v1,36(v0)
1d01afc8:	280050a0 	sb	s0,40(v0)
1d01afcc:	290051a0 	sb	s1,41(v0)
1d01afd0:	2a0052a0 	sb	s2,42(v0)
1d01afd4:	2b0053a0 	sb	s3,43(v0)
1d01afd8:	fe6b400b 	j	0x1d01aff8
1d01afdc:	2c0055a0 	sb	s5,44(v0)
1d01afe0:	8a5b400f 	jal	0x1d016e28
1d01afe4:	00000000 	nop
1d01afe8:	ecff4014 	bnez	v0,0x1d01af9c
1d01afec:	01000324 	li	v1,1
1d01aff0:	e06b400b 	j	0x1d01af80
1d01aff4:	01a0023c 	lui	v0,0xa001
1d01aff8:	2c00bf8f 	lw	ra,44(sp)
1d01affc:	2800b58f 	lw	s5,40(sp)
1d01b000:	2400b48f 	lw	s4,36(sp)
1d01b004:	2000b38f 	lw	s3,32(sp)
1d01b008:	1c00b28f 	lw	s2,28(sp)
1d01b00c:	1800b18f 	lw	s1,24(sp)
1d01b010:	1400b08f 	lw	s0,20(sp)
1d01b014:	0800e003 	jr	ra
1d01b018:	3000bd27 	addiu	sp,sp,48
1d01b01c:	d8ffbd27 	addiu	sp,sp,-40
1d01b020:	2400bfaf 	sw	ra,36(sp)
1d01b024:	2000b4af 	sw	s4,32(sp)
1d01b028:	1c00b3af 	sw	s3,28(sp)
1d01b02c:	1800b2af 	sw	s2,24(sp)
1d01b030:	1400b1af 	sw	s1,20(sp)
1d01b034:	1000b0af 	sw	s0,16(sp)
1d01b038:	07008390 	lbu	v1,7(a0)
1d01b03c:	02006230 	andi	v0,v1,0x2
1d01b040:	ff004230 	andi	v0,v0,0xff
1d01b044:	03004010 	beqz	v0,0x1d01b054
1d01b048:	21900000 	move	s2,zero
1d01b04c:	74809293 	lbu	s2,-32652(gp)
1d01b050:	0100523a 	xori	s2,s2,0x1
1d01b054:	01005232 	andi	s2,s2,0x1
1d01b058:	07008290 	lbu	v0,7(a0)
1d01b05c:	4000507c 	ext	s0,v0,0x1,0x1
1d01b060:	ff000732 	andi	a3,s0,0xff
1d01b064:	748090a3 	sb	s0,-32652(gp)
1d01b068:	04008590 	lbu	a1,4(a0)
1d01b06c:	05008490 	lbu	a0,5(a0)
1d01b070:	00220400 	sll	a0,a0,0x8
1d01b074:	25208500 	or	a0,a0,a1
1d01b078:	7c8084af 	sw	a0,-32644(gp)
1d01b07c:	c8000524 	li	a1,200
1d01b080:	808085af 	sw	a1,-32640(gp)
1d01b084:	0000537c 	ext	s3,v0,0x0,0x1
1d01b088:	ff006632 	andi	a2,s3,0xff
1d01b08c:	c000517c 	ext	s1,v0,0x3,0x1
1d01b090:	ff002532 	andi	a1,s1,0xff
1d01b094:	74006330 	andi	v1,v1,0x74
1d01b098:	01a0023c 	lui	v0,0xa001
1d01b09c:	fc3b428c 	lw	v0,15356(v0)
1d01b0a0:	38004010 	beqz	v0,0x1d01b184
1d01b0a4:	2ba00300 	sltu	s4,zero,v1
1d01b0a8:	0f00a010 	beqz	a1,0x1d01b0e8
1d01b0ac:	01a0023c 	lui	v0,0xa001
1d01b0b0:	01a0023c 	lui	v0,0xa001
1d01b0b4:	033c4290 	lbu	v0,15363(v0)
1d01b0b8:	0b004014 	bnez	v0,0x1d01b0e8
1d01b0bc:	01a0023c 	lui	v0,0xa001
1d01b0c0:	01000324 	li	v1,1
1d01b0c4:	01a0023c 	lui	v0,0xa001
1d01b0c8:	f13b43a0 	sb	v1,15345(v0)
1d01b0cc:	7080828f 	lw	v0,-32656(gp)
1d01b0d0:	2c004014 	bnez	v0,0x1d01b184
1d01b0d4:	01000224 	li	v0,1
1d01b0d8:	708082af 	sw	v0,-32656(gp)
1d01b0dc:	03000224 	li	v0,3
1d01b0e0:	616c400b 	j	0x1d01b184
1d01b0e4:	688082af 	sw	v0,-32664(gp)
1d01b0e8:	f03b4290 	lbu	v0,15344(v0)
1d01b0ec:	25004010 	beqz	v0,0x1d01b184
1d01b0f0:	01a0023c 	lui	v0,0xa001
1d01b0f4:	003c4290 	lbu	v0,15360(v0)
1d01b0f8:	22004010 	beqz	v0,0x1d01b184
1d01b0fc:	00000000 	nop
1d01b100:	2000c014 	bnez	a2,0x1d01b184
1d01b104:	00000000 	nop
1d01b108:	1e00e014 	bnez	a3,0x1d01b184
1d01b10c:	01a0023c 	lui	v0,0xa001
1d01b110:	d13b4290 	lbu	v0,15313(v0)
1d01b114:	1b004014 	bnez	v0,0x1d01b184
1d01b118:	01a0023c 	lui	v0,0xa001
1d01b11c:	e93b4290 	lbu	v0,15337(v0)
1d01b120:	18004014 	bnez	v0,0x1d01b184
1d01b124:	01a0023c 	lui	v0,0xa001
1d01b128:	013c4290 	lbu	v0,15361(v0)
1d01b12c:	15004014 	bnez	v0,0x1d01b184
1d01b130:	7880828f 	lw	v0,-32648(gp)
1d01b134:	04004010 	beqz	v0,0x1d01b148
1d01b138:	75808393 	lbu	v1,-32651(gp)
1d01b13c:	01000224 	li	v0,1
1d01b140:	03006214 	bne	v1,v0,0x1d01b150
1d01b144:	00000000 	nop
1d01b148:	0e008010 	beqz	a0,0x1d01b184
1d01b14c:	00000000 	nop
1d01b150:	8a5b400f 	jal	0x1d016e28
1d01b154:	00000000 	nop
1d01b158:	0a004014 	bnez	v0,0x1d01b184
1d01b15c:	01000324 	li	v1,1
1d01b160:	01a0023c 	lui	v0,0xa001
1d01b164:	f13b43a0 	sb	v1,15345(v0)
1d01b168:	1c8080a3 	sb	zero,-32740(gp)
1d01b16c:	7080828f 	lw	v0,-32656(gp)
1d01b170:	04004014 	bnez	v0,0x1d01b184
1d01b174:	01000224 	li	v0,1
1d01b178:	708082af 	sw	v0,-32656(gp)
1d01b17c:	0d000224 	li	v0,13
1d01b180:	688082af 	sw	v0,-32664(gp)
1d01b184:	06004012 	beqz	s2,0x1d01b1a0
1d01b188:	01000224 	li	v0,1
1d01b18c:	7080838f 	lw	v1,-32656(gp)
1d01b190:	04006214 	bne	v1,v0,0x1d01b1a4
1d01b194:	01a0023c 	lui	v0,0xa001
1d01b198:	02000224 	li	v0,2
1d01b19c:	708082af 	sw	v0,-32656(gp)
1d01b1a0:	01a0023c 	lui	v0,0xa001
1d01b1a4:	c03b4224 	addiu	v0,v0,15296
1d01b1a8:	64000324 	li	v1,100
1d01b1ac:	3c0043ac 	sw	v1,60(v0)
1d01b1b0:	400053a0 	sb	s3,64(v0)
1d01b1b4:	410050a0 	sb	s0,65(v0)
1d01b1b8:	420052a0 	sb	s2,66(v0)
1d01b1bc:	430051a0 	sb	s1,67(v0)
1d01b1c0:	440054a0 	sb	s4,68(v0)
1d01b1c4:	2400bf8f 	lw	ra,36(sp)
1d01b1c8:	2000b48f 	lw	s4,32(sp)
1d01b1cc:	1c00b38f 	lw	s3,28(sp)
1d01b1d0:	1800b28f 	lw	s2,24(sp)
1d01b1d4:	1400b18f 	lw	s1,20(sp)
1d01b1d8:	1000b08f 	lw	s0,16(sp)
1d01b1dc:	0800e003 	jr	ra
1d01b1e0:	2800bd27 	addiu	sp,sp,40
1d01b1e4:	00008290 	lbu	v0,0(a0)
1d01b1e8:	0010427c 	ext	v0,v0,0x0,0x3
1d01b1ec:	758082a3 	sb	v0,-32651(gp)
1d01b1f0:	c8000224 	li	v0,200
1d01b1f4:	0800e003 	jr	ra
1d01b1f8:	788082af 	sw	v0,-32648(gp)
1d01b1fc:	04008290 	lbu	v0,4(a0)
1d01b200:	04004230 	andi	v0,v0,0x4
1d01b204:	ff004230 	andi	v0,v0,0xff
1d01b208:	0a004010 	beqz	v0,0x1d01b234
1d01b20c:	00000000 	nop
1d01b210:	e8ffbd27 	addiu	sp,sp,-24
1d01b214:	1400bfaf 	sw	ra,20(sp)
1d01b218:	7080828f 	lw	v0,-32656(gp)
1d01b21c:	04004010 	beqz	v0,0x1d01b230
1d01b220:	1400bf8f 	lw	ra,20(sp)
1d01b224:	7a69400f 	jal	0x1d01a5e8
1d01b228:	00000000 	nop
1d01b22c:	1400bf8f 	lw	ra,20(sp)
1d01b230:	1800bd27 	addiu	sp,sp,24
1d01b234:	0800e003 	jr	ra
1d01b238:	00000000 	nop
1d01b23c:	0800e003 	jr	ra
1d01b240:	7080828f 	lw	v0,-32656(gp)
1d01b244:	0800e003 	jr	ra
1d01b248:	6880828f 	lw	v0,-32664(gp)
1d01b24c:	7080838f 	lw	v1,-32656(gp)
1d01b250:	03006010 	beqz	v1,0x1d01b260
1d01b254:	21100000 	move	v0,zero
1d01b258:	6c80828f 	lw	v0,-32660(gp)
1d01b25c:	0100422c 	sltiu	v0,v0,1
1d01b260:	0800e003 	jr	ra
1d01b264:	6c8083af 	sw	v1,-32660(gp)
1d01b268:	7080838f 	lw	v1,-32656(gp)
1d01b26c:	05006010 	beqz	v1,0x1d01b284
1d01b270:	01000224 	li	v0,1
1d01b274:	1c808493 	lbu	a0,-32740(gp)
1d01b278:	01006238 	xori	v0,v1,0x1
1d01b27c:	0b200200 	movn	a0,zero,v0
1d01b280:	21108000 	move	v0,a0
1d01b284:	0800e003 	jr	ra
1d01b288:	00000000 	nop

Disassembly of section .sec72:

1d01b28c <.sec72>:
1d01b28c:	c0ffbd27 	addiu	sp,sp,-64
1d01b290:	3c00b2af 	sw	s2,60(sp)
1d01b294:	3800b1af 	sw	s1,56(sp)
1d01b298:	3400b0af 	sw	s0,52(sp)
1d01b29c:	21100000 	move	v0,zero
1d01b2a0:	029d083c 	lui	t0,0x9d02
1d01b2a4:	f8270825 	addiu	t0,t0,10232
1d01b2a8:	2c000724 	li	a3,44
1d01b2ac:	2118a203 	addu	v1,sp,v0
1d01b2b0:	21300201 	addu	a2,t0,v0
1d01b2b4:	0000c68c 	lw	a2,0(a2)
1d01b2b8:	04004224 	addiu	v0,v0,4
1d01b2bc:	fbff4714 	bne	v0,a3,0x1d01b2ac
1d01b2c0:	000066ac 	sw	a2,0(v1)
1d01b2c4:	12008104 	bgez	a0,0x1d01b310
1d01b2c8:	c3370400 	sra	a2,a0,0x1f
1d01b2cc:	0080023c 	lui	v0,0x8000
1d01b2d0:	09008210 	beq	a0,v0,0x1d01b2f8
1d01b2d4:	ff7f0c3c 	lui	t4,0x7fff
1d01b2d8:	23600400 	negu	t4,a0
1d01b2dc:	c3370c00 	sra	a2,t4,0x1f
1d01b2e0:	0700c104 	bgez	a2,0x1d01b300
1d01b2e4:	feff0224 	li	v0,-2
1d01b2e8:	2530c200 	or	a2,a2,v0
1d01b2ec:	01000424 	li	a0,1
1d01b2f0:	cc6c400b 	j	0x1d01b330
1d01b2f4:	01001024 	li	s0,1
1d01b2f8:	ffff8c35 	ori	t4,t4,0xffff
1d01b2fc:	21300000 	move	a2,zero
1d01b300:	0100c630 	andi	a2,a2,0x1
1d01b304:	01000424 	li	a0,1
1d01b308:	cc6c400b 	j	0x1d01b330
1d01b30c:	01001024 	li	s0,1
1d01b310:	0400c104 	bgez	a2,0x1d01b324
1d01b314:	21608000 	move	t4,a0
1d01b318:	feff0224 	li	v0,-2
1d01b31c:	ca6c400b 	j	0x1d01b328
1d01b320:	2530c200 	or	a2,a2,v0
1d01b324:	0100c630 	andi	a2,a2,0x1
1d01b328:	2a200400 	slt	a0,zero,a0
1d01b32c:	21800000 	move	s0,zero
1d01b330:	1000a104 	bgez	a1,0x1d01b374
1d01b334:	c35f0500 	sra	t3,a1,0x1f
1d01b338:	0080023c 	lui	v0,0x8000
1d01b33c:	0800a250 	beql	a1,v0,0x1d01b360
1d01b340:	ff7f053c 	lui	a1,0x7fff
1d01b344:	23280500 	negu	a1,a1
1d01b348:	c35f0500 	sra	t3,a1,0x1f
1d01b34c:	06006105 	bgez	t3,0x1d01b368
1d01b350:	feff0224 	li	v0,-2
1d01b354:	25586201 	or	t3,t3,v0
1d01b358:	e46c400b 	j	0x1d01b390
1d01b35c:	01001924 	li	t9,1
1d01b360:	ffffa534 	ori	a1,a1,0xffff
1d01b364:	21580000 	move	t3,zero
1d01b368:	01006b31 	andi	t3,t3,0x1
1d01b36c:	e46c400b 	j	0x1d01b390
1d01b370:	01001924 	li	t9,1
1d01b374:	05006305 	bgezl	t3,0x1d01b38c
1d01b378:	01006b31 	andi	t3,t3,0x1
1d01b37c:	feff0224 	li	v0,-2
1d01b380:	25586201 	or	t3,t3,v0
1d01b384:	e46c400b 	j	0x1d01b390
1d01b388:	21c80000 	move	t9,zero
1d01b38c:	21c80000 	move	t9,zero
1d01b390:	2168a003 	move	t5,sp
1d01b394:	21408001 	move	t0,t4
1d01b398:	2138c000 	move	a3,a2
1d01b39c:	2150a000 	move	t2,a1
1d01b3a0:	21486001 	move	t1,t3
1d01b3a4:	01000324 	li	v1,1
1d01b3a8:	21100000 	move	v0,zero
1d01b3ac:	feff0f24 	li	t7,-2
1d01b3b0:	0c001824 	li	t8,12
1d01b3b4:	1800c304 	bgezl	a2,0x1d01b418
1d01b3b8:	21280501 	addu	a1,t0,a1
1d01b3bc:	2340a800 	subu	t0,a1,t0
1d01b3c0:	2b28a800 	sltu	a1,a1,t0
1d01b3c4:	23586701 	subu	t3,t3,a3
1d01b3c8:	23586501 	subu	t3,t3,a1
1d01b3cc:	02006531 	andi	a1,t3,0x2
1d01b3d0:	0300a010 	beqz	a1,0x1d01b3e0
1d01b3d4:	21280001 	move	a1,t0
1d01b3d8:	f96c400b 	j	0x1d01b3e4
1d01b3dc:	25586f01 	or	t3,t3,t7
1d01b3e0:	01006b31 	andi	t3,t3,0x1
1d01b3e4:	21508a01 	addu	t2,t4,t2
1d01b3e8:	2b604c01 	sltu	t4,t2,t4
1d01b3ec:	2148c900 	addu	t1,a2,t1
1d01b3f0:	21308901 	addu	a2,t4,t1
1d01b3f4:	0200c730 	andi	a3,a2,0x2
1d01b3f8:	0300e010 	beqz	a3,0x1d01b408
1d01b3fc:	21604001 	move	t4,t2
1d01b400:	036d400b 	j	0x1d01b40c
1d01b404:	2530cf00 	or	a2,a2,t7
1d01b408:	0100c630 	andi	a2,a2,0x1
1d01b40c:	0000a78d 	lw	a3,0(t5)
1d01b410:	196d400b 	j	0x1d01b464
1d01b414:	23104700 	subu	v0,v0,a3
1d01b418:	2b40a800 	sltu	t0,a1,t0
1d01b41c:	2138eb00 	addu	a3,a3,t3
1d01b420:	21580701 	addu	t3,t0,a3
1d01b424:	02006731 	andi	a3,t3,0x2
1d01b428:	0200e050 	beqzl	a3,0x1d01b434
1d01b42c:	01006b31 	andi	t3,t3,0x1
1d01b430:	25586f01 	or	t3,t3,t7
1d01b434:	23508a01 	subu	t2,t4,t2
1d01b438:	2b608a01 	sltu	t4,t4,t2
1d01b43c:	2330c900 	subu	a2,a2,t1
1d01b440:	2330cc00 	subu	a2,a2,t4
1d01b444:	0200c730 	andi	a3,a2,0x2
1d01b448:	0300e010 	beqz	a3,0x1d01b458
1d01b44c:	21604001 	move	t4,t2
1d01b450:	176d400b 	j	0x1d01b45c
1d01b454:	2530cf00 	or	a2,a2,t7
1d01b458:	0100c630 	andi	a2,a2,0x1
1d01b45c:	0000a78d 	lw	a3,0(t5)
1d01b460:	21104700 	addu	v0,v0,a3
1d01b464:	20006830 	andi	t0,v1,0x20
1d01b468:	c3770b00 	sra	t6,t3,0x1f
1d01b46c:	40480b00 	sll	t1,t3,0x1
1d01b470:	27500300 	nor	t2,zero,v1
1d01b474:	04484901 	sllv	t1,t1,t2
1d01b478:	06506500 	srlv	t2,a1,v1
1d01b47c:	25502a01 	or	t2,t1,t2
1d01b480:	07486b00 	srav	t1,t3,v1
1d01b484:	0b502801 	movn	t2,t1,t0
1d01b488:	0b48c801 	movn	t1,t6,t0
1d01b48c:	02002831 	andi	t0,t1,0x2
1d01b490:	03000011 	beqz	t0,0x1d01b4a0
1d01b494:	21386000 	move	a3,v1
1d01b498:	296d400b 	j	0x1d01b4a4
1d01b49c:	25482f01 	or	t1,t1,t7
1d01b4a0:	01002931 	andi	t1,t1,0x1
1d01b4a4:	2000ee30 	andi	t6,a3,0x20
1d01b4a8:	c38f0600 	sra	s1,a2,0x1f
1d01b4ac:	40900600 	sll	s2,a2,0x1
1d01b4b0:	27400700 	nor	t0,zero,a3
1d01b4b4:	04901201 	sllv	s2,s2,t0
1d01b4b8:	0640ec00 	srlv	t0,t4,a3
1d01b4bc:	25404802 	or	t0,s2,t0
1d01b4c0:	0738e600 	srav	a3,a2,a3
1d01b4c4:	0b40ee00 	movn	t0,a3,t6
1d01b4c8:	0b382e02 	movn	a3,s1,t6
1d01b4cc:	0200ee30 	andi	t6,a3,0x2
1d01b4d0:	0200c051 	beqzl	t6,0x1d01b4dc
1d01b4d4:	0100e730 	andi	a3,a3,0x1
1d01b4d8:	2538ef00 	or	a3,a3,t7
1d01b4dc:	01006324 	addiu	v1,v1,1
1d01b4e0:	b4ff7814 	bne	v1,t8,0x1d01b3b4
1d01b4e4:	0400ad25 	addiu	t5,t5,4
1d01b4e8:	4f008010 	beqz	a0,0x1d01b628
1d01b4ec:	21184000 	move	v1,v0
1d01b4f0:	46002013 	beqz	t9,0x1d01b60c
1d01b4f4:	00000000 	nop
1d01b4f8:	22000012 	beqz	s0,0x1d01b584
1d01b4fc:	00000000 	nop
1d01b500:	06004104 	bgez	v0,0x1d01b51c
1d01b504:	789b023c 	lui	v0,0x9b78
1d01b508:	af124224 	addiu	v0,v0,4783
1d01b50c:	21106200 	addu	v0,v1,v0
1d01b510:	2b184300 	sltu	v1,v0,v1
1d01b514:	4b6d400b 	j	0x1d01b52c
1d01b518:	feff6424 	addiu	a0,v1,-2
1d01b51c:	af124224 	addiu	v0,v0,4783
1d01b520:	21106200 	addu	v0,v1,v0
1d01b524:	2b184300 	sltu	v1,v0,v1
1d01b528:	ffff6424 	addiu	a0,v1,-1
1d01b52c:	01008430 	andi	a0,a0,0x1
1d01b530:	ffff0324 	li	v1,-1
1d01b534:	0a180400 	movz	v1,zero,a0
1d01b538:	07006010 	beqz	v1,0x1d01b558
1d01b53c:	0a104400 	movz	v0,v0,a0
1d01b540:	0080043c 	lui	a0,0x8000
1d01b544:	2b204400 	sltu	a0,v0,a0
1d01b548:	0080053c 	lui	a1,0x8000
1d01b54c:	0b10a400 	movn	v0,a1,a0
1d01b550:	ffff0524 	li	a1,-1
1d01b554:	0b18a400 	movn	v1,a1,a0
1d01b558:	0800605c 	bgtzl	v1,0x1d01b57c
1d01b55c:	ff7f023c 	lui	v0,0x7fff
1d01b560:	39006014 	bnez	v1,0x1d01b648
1d01b564:	3c00b28f 	lw	s2,60(sp)
1d01b568:	0080033c 	lui	v1,0x8000
1d01b56c:	2b184300 	sltu	v1,v0,v1
1d01b570:	36006014 	bnez	v1,0x1d01b64c
1d01b574:	3800b18f 	lw	s1,56(sp)
1d01b578:	ff7f023c 	lui	v0,0x7fff
1d01b57c:	916d400b 	j	0x1d01b644
1d01b580:	ffff4234 	ori	v0,v0,0xffff
1d01b584:	07004104 	bgez	v0,0x1d01b5a4
1d01b588:	8764043c 	lui	a0,0x6487
1d01b58c:	51ed8434 	ori	a0,a0,0xed51
1d01b590:	23108200 	subu	v0,a0,v0
1d01b594:	2b208200 	sltu	a0,a0,v0
1d01b598:	01000324 	li	v1,1
1d01b59c:	6d6d400b 	j	0x1d01b5b4
1d01b5a0:	23206400 	subu	a0,v1,a0
1d01b5a4:	51ed8434 	ori	a0,a0,0xed51
1d01b5a8:	23108200 	subu	v0,a0,v0
1d01b5ac:	2b208200 	sltu	a0,a0,v0
1d01b5b0:	23200400 	negu	a0,a0
1d01b5b4:	01008430 	andi	a0,a0,0x1
1d01b5b8:	ffff0324 	li	v1,-1
1d01b5bc:	0a180400 	movz	v1,zero,a0
1d01b5c0:	07006010 	beqz	v1,0x1d01b5e0
1d01b5c4:	0a104400 	movz	v0,v0,a0
1d01b5c8:	0080043c 	lui	a0,0x8000
1d01b5cc:	2b204400 	sltu	a0,v0,a0
1d01b5d0:	0080053c 	lui	a1,0x8000
1d01b5d4:	0b10a400 	movn	v0,a1,a0
1d01b5d8:	ffff0524 	li	a1,-1
1d01b5dc:	0b18a400 	movn	v1,a1,a0
1d01b5e0:	0800605c 	bgtzl	v1,0x1d01b604
1d01b5e4:	ff7f023c 	lui	v0,0x7fff
1d01b5e8:	17006014 	bnez	v1,0x1d01b648
1d01b5ec:	3c00b28f 	lw	s2,60(sp)
1d01b5f0:	0080033c 	lui	v1,0x8000
1d01b5f4:	2b184300 	sltu	v1,v0,v1
1d01b5f8:	14006014 	bnez	v1,0x1d01b64c
1d01b5fc:	3800b18f 	lw	s1,56(sp)
1d01b600:	ff7f023c 	lui	v0,0x7fff
1d01b604:	916d400b 	j	0x1d01b644
1d01b608:	ffff4234 	ori	v0,v0,0xffff
1d01b60c:	0e000012 	beqz	s0,0x1d01b648
1d01b610:	3c00b28f 	lw	s2,60(sp)
1d01b614:	0080023c 	lui	v0,0x8000
1d01b618:	07006250 	beql	v1,v0,0x1d01b638
1d01b61c:	ff7f023c 	lui	v0,0x7fff
1d01b620:	916d400b 	j	0x1d01b644
1d01b624:	23100300 	negu	v0,v1
1d01b628:	05002013 	beqz	t9,0x1d01b640
1d01b62c:	8764023c 	lui	v0,0x6487
1d01b630:	916d400b 	j	0x1d01b644
1d01b634:	51ed4234 	ori	v0,v0,0xed51
1d01b638:	916d400b 	j	0x1d01b644
1d01b63c:	ffff4234 	ori	v0,v0,0xffff
1d01b640:	21100000 	move	v0,zero
1d01b644:	3c00b28f 	lw	s2,60(sp)
1d01b648:	3800b18f 	lw	s1,56(sp)
1d01b64c:	3400b08f 	lw	s0,52(sp)
1d01b650:	0800e003 	jr	ra
1d01b654:	4000bd27 	addiu	sp,sp,64
1d01b658:	b0ffbd27 	addiu	sp,sp,-80
1d01b65c:	4c00bfaf 	sw	ra,76(sp)
1d01b660:	4800b1af 	sw	s1,72(sp)
1d01b664:	4400b0af 	sw	s0,68(sp)
1d01b668:	58818293 	lbu	v0,-32424(gp)
1d01b66c:	04004010 	beqz	v0,0x1d01b680
1d01b670:	00a0023c 	lui	v0,0xa000
1d01b674:	00a0023c 	lui	v0,0xa000
1d01b678:	ad6d400b 	j	0x1d01b6b4
1d01b67c:	8006518c 	lw	s1,1664(v0)
1d01b680:	7c064390 	lbu	v1,1660(v0)
1d01b684:	02000224 	li	v0,2
1d01b688:	06006214 	bne	v1,v0,0x1d01b6a4
1d01b68c:	00a0023c 	lui	v0,0xa000
1d01b690:	8006438c 	lw	v1,1664(v0)
1d01b694:	c3170300 	sra	v0,v1,0x1f
1d01b698:	26184300 	xor	v1,v0,v1
1d01b69c:	ad6d400b 	j	0x1d01b6b4
1d01b6a0:	23884300 	subu	s1,v0,v1
1d01b6a4:	8006518c 	lw	s1,1664(v0)
1d01b6a8:	c3171100 	sra	v0,s1,0x1f
1d01b6ac:	26885100 	xor	s1,v0,s1
1d01b6b0:	23882202 	subu	s1,s1,v0
1d01b6b4:	0a002006 	bltz	s1,0x1d01b6e0
1d01b6b8:	005a023c 	lui	v0,0x5a00
1d01b6bc:	01004224 	addiu	v0,v0,1
1d01b6c0:	2a102202 	slt	v0,s1,v0
1d01b6c4:	0e004050 	beqzl	v0,0x1d01b700
1d01b6c8:	005a113c 	lui	s1,0x5a00
1d01b6cc:	0001033c 	lui	v1,0x100
1d01b6d0:	2a182302 	slt	v1,s1,v1
1d01b6d4:	0001023c 	lui	v0,0x100
1d01b6d8:	c06d400b 	j	0x1d01b700
1d01b6dc:	0b884300 	movn	s1,v0,v1
1d01b6e0:	00ff023c 	lui	v0,0xff00
1d01b6e4:	01004224 	addiu	v0,v0,1
1d01b6e8:	2a102202 	slt	v0,s1,v0
1d01b6ec:	04004050 	beqzl	v0,0x1d01b700
1d01b6f0:	00ff113c 	lui	s1,0xff00
1d01b6f4:	00f2023c 	lui	v0,0xf200
1d01b6f8:	2a182202 	slt	v1,s1,v0
1d01b6fc:	0b884300 	movn	s1,v0,v1
1d01b700:	0000222a 	slti	v0,s1,0
1d01b704:	21180000 	move	v1,zero
1d01b708:	0a182202 	movz	v1,s1,v0
1d01b70c:	21106000 	move	v0,v1
1d01b710:	00a0033c 	lui	v1,0xa000
1d01b714:	7806648c 	lw	a0,1656(v1)
1d01b718:	04008014 	bnez	a0,0x1d01b72c
1d01b71c:	3300033c 	lui	v1,0x33
1d01b720:	00a0033c 	lui	v1,0xa000
1d01b724:	d36d400b 	j	0x1d01b74c
1d01b728:	8c06648c 	lw	a0,1676(v1)
1d01b72c:	01006324 	addiu	v1,v1,1
1d01b730:	2a188300 	slt	v1,a0,v1
1d01b734:	05006050 	beqzl	v1,0x1d01b74c
1d01b738:	3300043c 	lui	a0,0x33
1d01b73c:	0400053c 	lui	a1,0x4
1d01b740:	2a288500 	slt	a1,a0,a1
1d01b744:	0400033c 	lui	v1,0x4
1d01b748:	0b206500 	movn	a0,v1,a1
1d01b74c:	c3370200 	sra	a2,v0,0x1f
1d01b750:	c33f0400 	sra	a3,a0,0x1f
1d01b754:	0500033c 	lui	v1,0x5
1d01b758:	33b36334 	ori	v1,v1,0xb333
1d01b75c:	19008300 	multu	a0,v1
1d01b760:	12200000 	mflo	a0
1d01b764:	10280000 	mfhi	a1
1d01b768:	0240e370 	mul	t0,a3,v1
1d01b76c:	21280501 	addu	a1,t0,a1
1d01b770:	c01b0500 	sll	v1,a1,0xf
1d01b774:	42240400 	srl	a0,a0,0x11
1d01b778:	25206400 	or	a0,v1,a0
1d01b77c:	0228c270 	mul	a1,a2,v0
1d01b780:	40280500 	sll	a1,a1,0x1
1d01b784:	19004200 	multu	v0,v0
1d01b788:	12100000 	mflo	v0
1d01b78c:	10180000 	mfhi	v1
1d01b790:	2118a300 	addu	v1,a1,v1
1d01b794:	c0290300 	sll	a1,v1,0x7
1d01b798:	42160200 	srl	v0,v0,0x19
1d01b79c:	c0210400 	sll	a0,a0,0x7
1d01b7a0:	a36c400f 	jal	0x1d01b28c
1d01b7a4:	2528a200 	or	a1,a1,v0
1d01b7a8:	00005028 	slti	s0,v0,0
1d01b7ac:	0b101000 	movn	v0,zero,s0
1d01b7b0:	ba11033c 	lui	v1,0x11ba
1d01b7b4:	91cf6334 	ori	v1,v1,0xcf91
1d01b7b8:	01007024 	addiu	s0,v1,1
1d01b7bc:	2a805000 	slt	s0,v0,s0
1d01b7c0:	0b185000 	movn	v1,v0,s0
1d01b7c4:	21806000 	move	s0,v1
1d01b7c8:	00a0023c 	lui	v0,0xa000
1d01b7cc:	74064390 	lbu	v1,1652(v0)
1d01b7d0:	01000224 	li	v0,1
1d01b7d4:	05006214 	bne	v1,v0,0x1d01b7ec
1d01b7d8:	21200000 	move	a0,zero
1d01b7dc:	00a0023c 	lui	v0,0xa000
1d01b7e0:	7006428c 	lw	v0,1648(v0)
1d01b7e4:	006e400b 	j	0x1d01b800
1d01b7e8:	c0110200 	sll	v0,v0,0x7
1d01b7ec:	00a0023c 	lui	v0,0xa000
1d01b7f0:	7006458c 	lw	a1,1648(v0)
1d01b7f4:	21302002 	move	a2,s1
1d01b7f8:	593d400f 	jal	0x1d00f564
1d01b7fc:	c33f1100 	sra	a3,s1,0x1f
1d01b800:	66e6033c 	lui	v1,0xe666
1d01b804:	66666324 	addiu	v1,v1,26214
1d01b808:	2a204300 	slt	a0,v0,v1
1d01b80c:	0a184400 	movz	v1,v0,a0
1d01b810:	21206000 	move	a0,v1
1d01b814:	9919033c 	lui	v1,0x1999
1d01b818:	9a996334 	ori	v1,v1,0x999a
1d01b81c:	01006224 	addiu	v0,v1,1
1d01b820:	2a108200 	slt	v0,a0,v0
1d01b824:	0b188200 	movn	v1,a0,v0
1d01b828:	c32f0300 	sra	a1,v1,0x1f
1d01b82c:	0500043c 	lui	a0,0x5
1d01b830:	33b38434 	ori	a0,a0,0xb333
1d01b834:	19006400 	multu	v1,a0
1d01b838:	12100000 	mflo	v0
1d01b83c:	10180000 	mfhi	v1
1d01b840:	0230a470 	mul	a2,a1,a0
1d01b844:	2118c300 	addu	v1,a2,v1
1d01b848:	40230300 	sll	a0,v1,0xd
1d01b84c:	c2140200 	srl	v0,v0,0x13
1d01b850:	25208200 	or	a0,a0,v0
1d01b854:	a36c400f 	jal	0x1d01b28c
1d01b858:	0020053c 	lui	a1,0x2000
1d01b85c:	2a180202 	slt	v1,s0,v0
1d01b860:	05006014 	bnez	v1,0x1d01b878
1d01b864:	21400002 	move	t0,s0
1d01b868:	23181000 	negu	v1,s0
1d01b86c:	2a404300 	slt	t0,v0,v1
1d01b870:	0a184800 	movz	v1,v0,t0
1d01b874:	21406000 	move	t0,v1
1d01b878:	21300001 	move	a2,t0
1d01b87c:	c32f0800 	sra	a1,t0,0x1f
1d01b880:	ff69043c 	lui	a0,0x69ff
1d01b884:	fb478424 	addiu	a0,a0,18427
1d01b888:	19000401 	multu	t0,a0
1d01b88c:	10180000 	mfhi	v1
1d01b890:	0228a470 	mul	a1,a1,a0
1d01b894:	2110a300 	addu	v0,a1,v1
1d01b898:	c3270200 	sra	a0,v0,0x1f
1d01b89c:	822f0200 	srl	a1,v0,0x1e
1d01b8a0:	80180400 	sll	v1,a0,0x2
1d01b8a4:	2518a300 	or	v1,a1,v1
1d01b8a8:	80280200 	sll	a1,v0,0x2
1d01b8ac:	2110a200 	addu	v0,a1,v0
1d01b8b0:	2b284500 	sltu	a1,v0,a1
1d01b8b4:	21186400 	addu	v1,v1,a0
1d01b8b8:	2118a300 	addu	v1,a1,v1
1d01b8bc:	c01b0300 	sll	v1,v1,0xf
1d01b8c0:	42140200 	srl	v0,v0,0x11
1d01b8c4:	25106200 	or	v0,v1,v0
1d01b8c8:	508182a7 	sh	v0,-32432(gp)
1d01b8cc:	21100000 	move	v0,zero
1d01b8d0:	029d073c 	lui	a3,0x9d02
1d01b8d4:	cc27e724 	addiu	a3,a3,10188
1d01b8d8:	2c000524 	li	a1,44
1d01b8dc:	1000a427 	addiu	a0,sp,16
1d01b8e0:	21188200 	addu	v1,a0,v0
1d01b8e4:	2120e200 	addu	a0,a3,v0
1d01b8e8:	0000848c 	lw	a0,0(a0)
1d01b8ec:	04004224 	addiu	v0,v0,4
1d01b8f0:	faff4514 	bne	v0,a1,0x1d01b8dc
1d01b8f4:	000064ac 	sw	a0,0(v1)
1d01b8f8:	c2470800 	srl	t0,t0,0x1f
1d01b8fc:	0a30c800 	movz	a2,a2,t0
1d01b900:	ffff0224 	li	v0,-1
1d01b904:	0a100800 	movz	v0,zero,t0
1d01b908:	0700401c 	bgtz	v0,0x1d01b928
1d01b90c:	21404000 	move	t0,v0
1d01b910:	20004014 	bnez	v0,0x1d01b994
1d01b914:	4332023c 	lui	v0,0x3243
1d01b918:	aaf64234 	ori	v0,v0,0xf6aa
1d01b91c:	2b10c200 	sltu	v0,a2,v0
1d01b920:	1c004014 	bnez	v0,0x1d01b994
1d01b924:	00000000 	nop
1d01b928:	789b023c 	lui	v0,0x9b78
1d01b92c:	af124224 	addiu	v0,v0,4783
1d01b930:	2110c200 	addu	v0,a2,v0
1d01b934:	2b204600 	sltu	a0,v0,a2
1d01b938:	ffff0325 	addiu	v1,t0,-1
1d01b93c:	21188300 	addu	v1,a0,v1
1d01b940:	01006330 	andi	v1,v1,0x1
1d01b944:	c4006054 	bnezl	v1,0x1d01bc58
1d01b948:	21304000 	move	a2,v0
1d01b94c:	4332033c 	lui	v1,0x3243
1d01b950:	aaf66334 	ori	v1,v1,0xf6aa
1d01b954:	2b184300 	sltu	v1,v0,v1
1d01b958:	2d006054 	bnezl	v1,0x1d01ba10
1d01b95c:	21304000 	move	a2,v0
1d01b960:	f036023c 	lui	v0,0x36f0
1d01b964:	5e254224 	addiu	v0,v0,9566
1d01b968:	2110c200 	addu	v0,a2,v0
1d01b96c:	2b304600 	sltu	a2,v0,a2
1d01b970:	ffff0825 	addiu	t0,t0,-1
1d01b974:	2158c800 	addu	t3,a2,t0
1d01b978:	01006b31 	andi	t3,t3,0x1
1d01b97c:	21304000 	move	a2,v0
1d01b980:	0a304b00 	movz	a2,v0,t3
1d01b984:	21280000 	move	a1,zero
1d01b988:	0a280b00 	movz	a1,zero,t3
1d01b98c:	876e400b 	j	0x1d01ba1c
1d01b990:	2158a000 	move	t3,a1
1d01b994:	21000011 	beqz	t0,0x1d01ba1c
1d01b998:	21580000 	move	t3,zero
1d01b99c:	bccd023c 	lui	v0,0xcdbc
1d01b9a0:	57094224 	addiu	v0,v0,2391
1d01b9a4:	2b10c200 	sltu	v0,a2,v0
1d01b9a8:	1c004010 	beqz	v0,0x1d01ba1c
1d01b9ac:	8764023c 	lui	v0,0x6487
1d01b9b0:	51ed4234 	ori	v0,v0,0xed51
1d01b9b4:	2110c200 	addu	v0,a2,v0
1d01b9b8:	2b184600 	sltu	v1,v0,a2
1d01b9bc:	21186800 	addu	v1,v1,t0
1d01b9c0:	01006330 	andi	v1,v1,0x1
1d01b9c4:	a6006050 	beqzl	v1,0x1d01bc60
1d01b9c8:	21304000 	move	a2,v0
1d01b9cc:	bccd033c 	lui	v1,0xcdbc
1d01b9d0:	57096324 	addiu	v1,v1,2391
1d01b9d4:	2b184300 	sltu	v1,v0,v1
1d01b9d8:	0f006050 	beqzl	v1,0x1d01ba18
1d01b9dc:	21304000 	move	a2,v0
1d01b9e0:	0fc9023c 	lui	v0,0xc90f
1d01b9e4:	a2da4234 	ori	v0,v0,0xdaa2
1d01b9e8:	2110c200 	addu	v0,a2,v0
1d01b9ec:	2b304600 	sltu	a2,v0,a2
1d01b9f0:	2140c800 	addu	t0,a2,t0
1d01b9f4:	01000b31 	andi	t3,t0,0x1
1d01b9f8:	21304000 	move	a2,v0
1d01b9fc:	0a304b00 	movz	a2,v0,t3
1d01ba00:	21380000 	move	a3,zero
1d01ba04:	0a380b00 	movz	a3,zero,t3
1d01ba08:	876e400b 	j	0x1d01ba1c
1d01ba0c:	2158e000 	move	t3,a3
1d01ba10:	876e400b 	j	0x1d01ba1c
1d01ba14:	01000b24 	li	t3,1
1d01ba18:	01000b24 	li	t3,1
1d01ba1c:	40300600 	sll	a2,a2,0x1
1d01ba20:	1000a527 	addiu	a1,sp,16
1d01ba24:	01000224 	li	v0,1
1d01ba28:	dd26043c 	lui	a0,0x26dd
1d01ba2c:	d23b8424 	addiu	a0,a0,15314
1d01ba30:	21400000 	move	t0,zero
1d01ba34:	21388000 	move	a3,a0
1d01ba38:	21180000 	move	v1,zero
1d01ba3c:	0c000a24 	li	t2,12
1d01ba40:	0500c104 	bgez	a2,0x1d01ba58
1d01ba44:	0000a98c 	lw	t1,0(a1)
1d01ba48:	2130c900 	addu	a2,a2,t1
1d01ba4c:	21208800 	addu	a0,a0,t0
1d01ba50:	996e400b 	j	0x1d01ba64
1d01ba54:	23186700 	subu	v1,v1,a3
1d01ba58:	2330c900 	subu	a2,a2,t1
1d01ba5c:	23208800 	subu	a0,a0,t0
1d01ba60:	21186700 	addu	v1,v1,a3
1d01ba64:	07384400 	srav	a3,a0,v0
1d01ba68:	07404300 	srav	t0,v1,v0
1d01ba6c:	01004224 	addiu	v0,v0,1
1d01ba70:	f3ff4a14 	bne	v0,t2,0x1d01ba40
1d01ba74:	0400a524 	addiu	a1,a1,4
1d01ba78:	23100400 	negu	v0,a0
1d01ba7c:	0b204b00 	movn	a0,v0,t3
1d01ba80:	c3170400 	sra	v0,a0,0x1f
1d01ba84:	02104470 	mul	v0,v0,a0
1d01ba88:	40100200 	sll	v0,v0,0x1
1d01ba8c:	19008400 	multu	a0,a0
1d01ba90:	12200000 	mflo	a0
1d01ba94:	10280000 	mfhi	a1
1d01ba98:	21284500 	addu	a1,v0,a1
1d01ba9c:	80100500 	sll	v0,a1,0x2
1d01baa0:	82270400 	srl	a0,a0,0x1e
1d01baa4:	25204400 	or	a0,v0,a0
1d01baa8:	c31f0400 	sra	v1,a0,0x1f
1d01baac:	0500023c 	lui	v0,0x5
1d01bab0:	33b34234 	ori	v0,v0,0xb333
1d01bab4:	19008200 	multu	a0,v0
1d01bab8:	12200000 	mflo	a0
1d01babc:	10280000 	mfhi	a1
1d01bac0:	02306270 	mul	a2,v1,v0
1d01bac4:	2128c500 	addu	a1,a2,a1
1d01bac8:	c0100500 	sll	v0,a1,0x3
1d01bacc:	42270400 	srl	a0,a0,0x1d
1d01bad0:	00a0033c 	lui	v1,0xa000
1d01bad4:	8406638c 	lw	v1,1668(v1)
1d01bad8:	04006014 	bnez	v1,0x1d01baec
1d01badc:	25104400 	or	v0,v0,a0
1d01bae0:	00a0033c 	lui	v1,0xa000
1d01bae4:	c66e400b 	j	0x1d01bb18
1d01bae8:	8806638c 	lw	v1,1672(v1)
1d01baec:	1400043c 	lui	a0,0x14
1d01baf0:	67668424 	addiu	a0,a0,26215
1d01baf4:	2a206400 	slt	a0,v1,a0
1d01baf8:	06008050 	beqzl	a0,0x1d01bb14
1d01bafc:	1400033c 	lui	v1,0x14
1d01bb00:	0200053c 	lui	a1,0x2
1d01bb04:	2a286500 	slt	a1,v1,a1
1d01bb08:	0200043c 	lui	a0,0x2
1d01bb0c:	c66e400b 	j	0x1d01bb18
1d01bb10:	0b188500 	movn	v1,a0,a1
1d01bb14:	66666324 	addiu	v1,v1,26214
1d01bb18:	c32f0200 	sra	a1,v0,0x1f
1d01bb1c:	c3270300 	sra	a0,v1,0x1f
1d01bb20:	18008200 	mult	a0,v0
1d01bb24:	0000a370 	madd	a1,v1
1d01bb28:	12200000 	mflo	a0
1d01bb2c:	19004300 	multu	v0,v1
1d01bb30:	12100000 	mflo	v0
1d01bb34:	10180000 	mfhi	v1
1d01bb38:	21188300 	addu	v1,a0,v1
1d01bb3c:	801b0300 	sll	v1,v1,0xe
1d01bb40:	82240200 	srl	a0,v0,0x12
1d01bb44:	25206400 	or	a0,v1,a0
1d01bb48:	c32f0400 	sra	a1,a0,0x1f
1d01bb4c:	c2310400 	srl	a2,a0,0x7
1d01bb50:	402e0500 	sll	a1,a1,0x19
1d01bb54:	c31f1100 	sra	v1,s1,0x1f
1d01bb58:	26887100 	xor	s1,v1,s1
1d01bb5c:	23382302 	subu	a3,s1,v1
1d01bb60:	40260400 	sll	a0,a0,0x19
1d01bb64:	2528c500 	or	a1,a2,a1
1d01bb68:	2130e000 	move	a2,a3
1d01bb6c:	593d400f 	jal	0x1d00f564
1d01bb70:	c33f0700 	sra	a3,a3,0x1f
1d01bb74:	00004328 	slti	v1,v0,0
1d01bb78:	0b100300 	movn	v0,zero,v1
1d01bb7c:	21184000 	move	v1,v0
1d01bb80:	0200043c 	lui	a0,0x2
1d01bb84:	f2598524 	addiu	a1,a0,23026
1d01bb88:	f3598224 	addiu	v0,a0,23027
1d01bb8c:	2a106200 	slt	v0,v1,v0
1d01bb90:	0b286200 	movn	a1,v1,v0
1d01bb94:	2110a000 	move	v0,a1
1d01bb98:	c32f0500 	sra	a1,a1,0x1f
1d01bb9c:	ff69043c 	lui	a0,0x69ff
1d01bba0:	fb478424 	addiu	a0,a0,18427
1d01bba4:	19004400 	multu	v0,a0
1d01bba8:	12100000 	mflo	v0
1d01bbac:	10180000 	mfhi	v1
1d01bbb0:	0230a470 	mul	a2,a1,a0
1d01bbb4:	2118c300 	addu	v1,a2,v1
1d01bbb8:	c01a0300 	sll	v1,v1,0xb
1d01bbbc:	42150200 	srl	v0,v0,0x15
1d01bbc0:	25106200 	or	v0,v1,v0
1d01bbc4:	c31c0200 	sra	v1,v0,0x13
1d01bbc8:	528183a3 	sb	v1,-32430(gp)
1d01bbcc:	00a0033c 	lui	v1,0xa000
1d01bbd0:	6c066490 	lbu	a0,1644(v1)
1d01bbd4:	04008010 	beqz	a0,0x1d01bbe8
1d01bbd8:	21180000 	move	v1,zero
1d01bbdc:	00a0033c 	lui	v1,0xa000
1d01bbe0:	6d066390 	lbu	v1,1645(v1)
1d01bbe4:	2b180300 	sltu	v1,zero,v1
1d01bbe8:	538183a3 	sb	v1,-32429(gp)
1d01bbec:	c3271000 	sra	a0,s0,0x1f
1d01bbf0:	ff69033c 	lui	v1,0x69ff
1d01bbf4:	fb476324 	addiu	v1,v1,18427
1d01bbf8:	19000302 	multu	s0,v1
1d01bbfc:	10880000 	mfhi	s1
1d01bc00:	02288370 	mul	a1,a0,v1
1d01bc04:	2120b100 	addu	a0,a1,s1
1d01bc08:	c3370400 	sra	a2,a0,0x1f
1d01bc0c:	3333033c 	lui	v1,0x3333
1d01bc10:	33336324 	addiu	v1,v1,13107
1d01bc14:	19008300 	multu	a0,v1
1d01bc18:	10280000 	mfhi	a1
1d01bc1c:	0238c370 	mul	a3,a2,v1
1d01bc20:	2128e500 	addu	a1,a3,a1
1d01bc24:	831c0500 	sra	v1,a1,0x12
1d01bc28:	548183a3 	sb	v1,-32428(gp)
1d01bc2c:	43150200 	sra	v0,v0,0x15
1d01bc30:	558182a3 	sb	v0,-32427(gp)
1d01bc34:	00a0023c 	lui	v0,0xa000
1d01bc38:	8006428c 	lw	v0,1664(v0)
1d01bc3c:	03004004 	bltz	v0,0x1d01bc4c
1d01bc40:	58818293 	lbu	v0,-32424(gp)
1d01bc44:	146f400b 	j	0x1d01bc50
1d01bc48:	2b100200 	sltu	v0,zero,v0
1d01bc4c:	01000224 	li	v0,1
1d01bc50:	1a6f400b 	j	0x1d01bc68
1d01bc54:	588182a3 	sb	v0,-32424(gp)
1d01bc58:	876e400b 	j	0x1d01ba1c
1d01bc5c:	01000b24 	li	t3,1
1d01bc60:	876e400b 	j	0x1d01ba1c
1d01bc64:	01000b24 	li	t3,1
1d01bc68:	4c00bf8f 	lw	ra,76(sp)
1d01bc6c:	4800b18f 	lw	s1,72(sp)
1d01bc70:	4400b08f 	lw	s0,68(sp)
1d01bc74:	0800e003 	jr	ra
1d01bc78:	5000bd27 	addiu	sp,sp,80
1d01bc7c:	0800e003 	jr	ra
1d01bc80:	00000000 	nop
1d01bc84:	0800e003 	jr	ra
1d01bc88:	00000000 	nop
1d01bc8c:	c0ffbd27 	addiu	sp,sp,-64
1d01bc90:	3c00bfaf 	sw	ra,60(sp)
1d01bc94:	3800b6af 	sw	s6,56(sp)
1d01bc98:	3400b5af 	sw	s5,52(sp)
1d01bc9c:	3000b4af 	sw	s4,48(sp)
1d01bca0:	2c00b3af 	sw	s3,44(sp)
1d01bca4:	2800b2af 	sw	s2,40(sp)
1d01bca8:	2400b1af 	sw	s1,36(sp)
1d01bcac:	2000b0af 	sw	s0,32(sp)
1d01bcb0:	21808000 	move	s0,a0
1d01bcb4:	5400b597 	lhu	s5,84(sp)
1d01bcb8:	38009190 	lbu	s1,56(a0)
1d01bcbc:	69002016 	bnez	s1,0x1d01be64
1d01bcc0:	5800b293 	lbu	s2,88(sp)
1d01bcc4:	21b0a000 	move	s6,a1
1d01bcc8:	21a0c000 	move	s4,a2
1d01bccc:	2198e000 	move	s3,a3
1d01bcd0:	21280000 	move	a1,zero
1d01bcd4:	9288400f 	jal	0x1d022248
1d01bcd8:	7c000624 	li	a2,124
1d01bcdc:	000016ae 	sw	s6,0(s0)
1d01bce0:	df07823a 	xori	v0,s4,0x7df
1d01bce4:	0aa00200 	movz	s4,zero,v0
1d01bce8:	040014a6 	sh	s4,4(s0)
1d01bcec:	05006016 	bnez	s3,0x1d01bd04
1d01bcf0:	21106002 	move	v0,s3
1d01bcf4:	03008012 	beqz	s4,0x1d01bd04
1d01bcf8:	21100000 	move	v0,zero
1d01bcfc:	08009426 	addiu	s4,s4,8
1d01bd00:	ffff8232 	andi	v0,s4,0xffff
1d01bd04:	060002a6 	sh	v0,6(s0)
1d01bd08:	5000a293 	lbu	v0,80(sp)
1d01bd0c:	080002a2 	sb	v0,8(s0)
1d01bd10:	05004012 	beqz	s2,0x1d01bd28
1d01bd14:	0b0012a2 	sb	s2,11(s0)
1d01bd18:	02121500 	srl	v0,s5,0x8
1d01bd1c:	090002a2 	sb	v0,9(s0)
1d01bd20:	4b6f400b 	j	0x1d01bd2c
1d01bd24:	0a0015a2 	sb	s5,10(s0)
1d01bd28:	090015a2 	sb	s5,9(s0)
1d01bd2c:	5c00a28f 	lw	v0,92(sp)
1d01bd30:	0c0002ae 	sw	v0,12(s0)
1d01bd34:	6000a38f 	lw	v1,96(sp)
1d01bd38:	0a180200 	movz	v1,zero,v0
1d01bd3c:	100003ae 	sw	v1,16(s0)
1d01bd40:	6400a48f 	lw	a0,100(sp)
1d01bd44:	180004ae 	sw	a0,24(s0)
1d01bd48:	6800a28f 	lw	v0,104(sp)
1d01bd4c:	0a100400 	movz	v0,zero,a0
1d01bd50:	1c0002ae 	sw	v0,28(s0)
1d01bd54:	1800a0af 	sw	zero,24(sp)
1d01bd58:	1c00a0af 	sw	zero,28(sp)
1d01bd5c:	04000296 	lhu	v0,4(s0)
1d01bd60:	df070424 	li	a0,2015
1d01bd64:	0b204200 	movn	a0,v0,v0
1d01bd68:	08000224 	li	v0,8
1d01bd6c:	1400a2af 	sw	v0,20(sp)
1d01bd70:	21100000 	move	v0,zero
1d01bd74:	0450827c 	ins	v0,a0,0x0,0xb
1d01bd78:	1000a2af 	sw	v0,16(sp)
1d01bd7c:	0b000592 	lbu	a1,11(s0)
1d01bd80:	03000424 	li	a0,3
1d01bd84:	02000224 	li	v0,2
1d01bd88:	0b108500 	movn	v0,a0,a1
1d01bd8c:	21104300 	addu	v0,v0,v1
1d01bd90:	0800432c 	sltiu	v1,v0,8
1d01bd94:	04006010 	beqz	v1,0x1d01bda8
1d01bd98:	4300432c 	sltiu	v1,v0,67
1d01bd9c:	1800a2a3 	sb	v0,24(sp)
1d01bda0:	6f6f400b 	j	0x1d01bdbc
1d01bda4:	01000224 	li	v0,1
1d01bda8:	2f006010 	beqz	v1,0x1d01be68
1d01bdac:	10000324 	li	v1,16
1d01bdb0:	1800a3a3 	sb	v1,24(sp)
1d01bdb4:	1900a2a3 	sb	v0,25(sp)
1d01bdb8:	02000224 	li	v0,2
1d01bdbc:	1000a327 	addiu	v1,sp,16
1d01bdc0:	21206200 	addu	a0,v1,v0
1d01bdc4:	08000392 	lbu	v1,8(s0)
1d01bdc8:	080083a0 	sb	v1,8(a0)
1d01bdcc:	02004324 	addiu	v1,v0,2
1d01bdd0:	09000592 	lbu	a1,9(s0)
1d01bdd4:	05004012 	beqz	s2,0x1d01bdec
1d01bdd8:	090085a0 	sb	a1,9(a0)
1d01bddc:	2118a303 	addu	v1,sp,v1
1d01bde0:	0a000492 	lbu	a0,10(s0)
1d01bde4:	180064a0 	sb	a0,24(v1)
1d01bde8:	03004324 	addiu	v1,v0,3
1d01bdec:	0800622c 	sltiu	v0,v1,8
1d01bdf0:	15004050 	beqzl	v0,0x1d01be48
1d01bdf4:	0000028e 	lw	v0,0(s0)
1d01bdf8:	1400028e 	lw	v0,20(s0)
1d01bdfc:	1000048e 	lw	a0,16(s0)
1d01be00:	2b204400 	sltu	a0,v0,a0
1d01be04:	0f008010 	beqz	a0,0x1d01be44
1d01be08:	2118a303 	addu	v1,sp,v1
1d01be0c:	0c00068e 	lw	a2,12(s0)
1d01be10:	18006324 	addiu	v1,v1,24
1d01be14:	1f00a527 	addiu	a1,sp,31
1d01be18:	01004424 	addiu	a0,v0,1
1d01be1c:	140004ae 	sw	a0,20(s0)
1d01be20:	2110c200 	addu	v0,a2,v0
1d01be24:	00004290 	lbu	v0,0(v0)
1d01be28:	06006510 	beq	v1,a1,0x1d01be44
1d01be2c:	000062a0 	sb	v0,0(v1)
1d01be30:	21108000 	move	v0,a0
1d01be34:	1000048e 	lw	a0,16(s0)
1d01be38:	2b204400 	sltu	a0,v0,a0
1d01be3c:	f6ff8014 	bnez	a0,0x1d01be18
1d01be40:	01006324 	addiu	v1,v1,1
1d01be44:	0000028e 	lw	v0,0(s0)
1d01be48:	09f84000 	jalr	v0
1d01be4c:	1000a427 	addiu	a0,sp,16
1d01be50:	05004010 	beqz	v0,0x1d01be68
1d01be54:	21884000 	move	s1,v0
1d01be58:	01000224 	li	v0,1
1d01be5c:	9a6f400b 	j	0x1d01be68
1d01be60:	380002a2 	sb	v0,56(s0)
1d01be64:	21880000 	move	s1,zero
1d01be68:	21102002 	move	v0,s1
1d01be6c:	3c00bf8f 	lw	ra,60(sp)
1d01be70:	3800b68f 	lw	s6,56(sp)
1d01be74:	3400b58f 	lw	s5,52(sp)
1d01be78:	3000b48f 	lw	s4,48(sp)
1d01be7c:	2c00b38f 	lw	s3,44(sp)
1d01be80:	2800b28f 	lw	s2,40(sp)
1d01be84:	2400b18f 	lw	s1,36(sp)
1d01be88:	2000b08f 	lw	s0,32(sp)
1d01be8c:	0800e003 	jr	ra
1d01be90:	4000bd27 	addiu	sp,sp,64
1d01be94:	d8ffbd27 	addiu	sp,sp,-40
1d01be98:	2400bfaf 	sw	ra,36(sp)
1d01be9c:	2000b0af 	sw	s0,32(sp)
1d01bea0:	38008290 	lbu	v0,56(a0)
1d01bea4:	25014010 	beqz	v0,0x1d01c33c
1d01bea8:	21808000 	move	s0,a0
1d01beac:	0400a28c 	lw	v0,4(a1)
1d01beb0:	0007437c 	ext	v1,v0,0x1c,0x1
1d01beb4:	08006010 	beqz	v1,0x1d01bed8
1d01beb8:	0f004430 	andi	a0,v0,0xf
1d01bebc:	0000a68c 	lw	a2,0(a1)
1d01bec0:	ff07c630 	andi	a2,a2,0x7ff
1d01bec4:	80340600 	sll	a2,a2,0x12
1d01bec8:	0400a28c 	lw	v0,4(a1)
1d01becc:	808a427c 	ext	v0,v0,0xa,0x12
1d01bed0:	b86f400b 	j	0x1d01bee0
1d01bed4:	2510c200 	or	v0,a2,v0
1d01bed8:	0000a28c 	lw	v0,0(a1)
1d01bedc:	ff074230 	andi	v0,v0,0x7ff
1d01bee0:	16016014 	bnez	v1,0x1d01c33c
1d01bee4:	08000324 	li	v1,8
1d01bee8:	15018314 	bne	a0,v1,0x1d01c340
1d01beec:	2400bf8f 	lw	ra,36(sp)
1d01bef0:	06000396 	lhu	v1,6(s0)
1d01bef4:	07006014 	bnez	v1,0x1d01bf14
1d01bef8:	00000000 	nop
1d01befc:	00f94324 	addiu	v1,v0,-1792
1d01bf00:	0001632c 	sltiu	v1,v1,256
1d01bf04:	0f016050 	beqzl	v1,0x1d01c344
1d01bf08:	2000b08f 	lw	s0,32(sp)
1d01bf0c:	c76f400b 	j	0x1d01bf1c
1d01bf10:	060002a6 	sh	v0,6(s0)
1d01bf14:	0a016214 	bne	v1,v0,0x1d01c340
1d01bf18:	2400bf8f 	lw	ra,36(sp)
1d01bf1c:	04000296 	lhu	v0,4(s0)
1d01bf20:	05004054 	bnezl	v0,0x1d01bf38
1d01bf24:	0800a290 	lbu	v0,8(a1)
1d01bf28:	06000296 	lhu	v0,6(s0)
1d01bf2c:	f8ff4224 	addiu	v0,v0,-8
1d01bf30:	040002a6 	sh	v0,4(s0)
1d01bf34:	0800a290 	lbu	v0,8(a1)
1d01bf38:	feff4324 	addiu	v1,v0,-2
1d01bf3c:	ff006330 	andi	v1,v1,0xff
1d01bf40:	0600632c 	sltiu	v1,v1,6
1d01bf44:	6d006010 	beqz	v1,0x1d01c0fc
1d01bf48:	10000324 	li	v1,16
1d01bf4c:	0900a390 	lbu	v1,9(a1)
1d01bf50:	08000492 	lbu	a0,8(s0)
1d01bf54:	40008624 	addiu	a2,a0,64
1d01bf58:	34006654 	bnel	v1,a2,0x1d01c02c
1d01bf5c:	7f000624 	li	a2,127
1d01bf60:	0a00a490 	lbu	a0,10(a1)
1d01bf64:	09000392 	lbu	v1,9(s0)
1d01bf68:	e0008354 	bnel	a0,v1,0x1d01c2ec
1d01bf6c:	390000a2 	sb	zero,57(s0)
1d01bf70:	0b00a490 	lbu	a0,11(a1)
1d01bf74:	0a000392 	lbu	v1,10(s0)
1d01bf78:	05008310 	beq	a0,v1,0x1d01bf90
1d01bf7c:	0b000392 	lbu	v1,11(s0)
1d01bf80:	da006054 	bnezl	v1,0x1d01c2ec
1d01bf84:	390000a2 	sb	zero,57(s0)
1d01bf88:	e96f400b 	j	0x1d01bfa4
1d01bf8c:	2000048e 	lw	a0,32(s0)
1d01bf90:	03006010 	beqz	v1,0x1d01bfa0
1d01bf94:	0300442c 	sltiu	a0,v0,3
1d01bf98:	d4008054 	bnezl	a0,0x1d01c2ec
1d01bf9c:	390000a2 	sb	zero,57(s0)
1d01bfa0:	2000048e 	lw	a0,32(s0)
1d01bfa4:	d1008054 	bnezl	a0,0x1d01c2ec
1d01bfa8:	390000a2 	sb	zero,57(s0)
1d01bfac:	d1006054 	bnezl	v1,0x1d01c2f4
1d01bfb0:	fdff4224 	addiu	v0,v0,-3
1d01bfb4:	c470400b 	j	0x1d01c310
1d01bfb8:	feff4224 	addiu	v0,v0,-2
1d01bfbc:	2b206200 	sltu	a0,v1,v0
1d01bfc0:	10008010 	beqz	a0,0x1d01c004
1d01bfc4:	04000224 	li	v0,4
1d01bfc8:	1800068e 	lw	a2,24(s0)
1d01bfcc:	01006424 	addiu	a0,v1,1
1d01bfd0:	200004ae 	sw	a0,32(s0)
1d01bfd4:	01004224 	addiu	v0,v0,1
1d01bfd8:	2120a200 	addu	a0,a1,v0
1d01bfdc:	07008490 	lbu	a0,7(a0)
1d01bfe0:	2118c300 	addu	v1,a2,v1
1d01bfe4:	000064a0 	sb	a0,0(v1)
1d01bfe8:	2000038e 	lw	v1,32(s0)
1d01bfec:	2400048e 	lw	a0,36(s0)
1d01bff0:	2b206400 	sltu	a0,v1,a0
1d01bff4:	03008010 	beqz	a0,0x1d01c004
1d01bff8:	0800442c 	sltiu	a0,v0,8
1d01bffc:	f3ff8054 	bnezl	a0,0x1d01bfcc
1d01c000:	1800068e 	lw	a2,24(s0)
1d01c004:	01000224 	li	v0,1
1d01c008:	390002a2 	sb	v0,57(s0)
1d01c00c:	cf70400b 	j	0x1d01c33c
1d01c010:	380000a2 	sb	zero,56(s0)
1d01c014:	b5006054 	bnezl	v1,0x1d01c2ec
1d01c018:	390000a2 	sb	zero,57(s0)
1d01c01c:	01000224 	li	v0,1
1d01c020:	390002a2 	sb	v0,57(s0)
1d01c024:	cf70400b 	j	0x1d01c33c
1d01c028:	380000a2 	sb	zero,56(s0)
1d01c02c:	af006654 	bnel	v1,a2,0x1d01c2ec
1d01c030:	390000a2 	sb	zero,57(s0)
1d01c034:	0a00a390 	lbu	v1,10(a1)
1d01c038:	ac006454 	bnel	v1,a0,0x1d01c2ec
1d01c03c:	390000a2 	sb	zero,57(s0)
1d01c040:	03000324 	li	v1,3
1d01c044:	0f004354 	bnel	v0,v1,0x1d01c084
1d01c048:	2000038e 	lw	v1,32(s0)
1d01c04c:	0b00a390 	lbu	v1,11(a1)
1d01c050:	78000424 	li	a0,120
1d01c054:	04006414 	bne	v1,a0,0x1d01c068
1d01c058:	31000424 	li	a0,49
1d01c05c:	01000224 	li	v0,1
1d01c060:	cf70400b 	j	0x1d01c33c
1d01c064:	280002a2 	sb	v0,40(s0)
1d01c068:	06006454 	bnel	v1,a0,0x1d01c084
1d01c06c:	2000038e 	lw	v1,32(s0)
1d01c070:	01000224 	li	v0,1
1d01c074:	290002a2 	sb	v0,41(s0)
1d01c078:	390000a2 	sb	zero,57(s0)
1d01c07c:	cf70400b 	j	0x1d01c33c
1d01c080:	380000a2 	sb	zero,56(s0)
1d01c084:	99006054 	bnezl	v1,0x1d01c2ec
1d01c088:	390000a2 	sb	zero,57(s0)
1d01c08c:	feff4224 	addiu	v0,v0,-2
1d01c090:	240002ae 	sw	v0,36(s0)
1d01c094:	1c00038e 	lw	v1,28(s0)
1d01c098:	2b186200 	sltu	v1,v1,v0
1d01c09c:	93006054 	bnezl	v1,0x1d01c2ec
1d01c0a0:	390000a2 	sb	zero,57(s0)
1d01c0a4:	2000038e 	lw	v1,32(s0)
1d01c0a8:	2b106200 	sltu	v0,v1,v0
1d01c0ac:	8e004010 	beqz	v0,0x1d01c2e8
1d01c0b0:	03000224 	li	v0,3
1d01c0b4:	08000424 	li	a0,8
1d01c0b8:	1800078e 	lw	a3,24(s0)
1d01c0bc:	01006624 	addiu	a2,v1,1
1d01c0c0:	200006ae 	sw	a2,32(s0)
1d01c0c4:	01004224 	addiu	v0,v0,1
1d01c0c8:	2130a200 	addu	a2,a1,v0
1d01c0cc:	0700c690 	lbu	a2,7(a2)
1d01c0d0:	2118e300 	addu	v1,a3,v1
1d01c0d4:	000066a0 	sb	a2,0(v1)
1d01c0d8:	2000038e 	lw	v1,32(s0)
1d01c0dc:	2400068e 	lw	a2,36(s0)
1d01c0e0:	2b306600 	sltu	a2,v1,a2
1d01c0e4:	8100c050 	beqzl	a2,0x1d01c2ec
1d01c0e8:	390000a2 	sb	zero,57(s0)
1d01c0ec:	f3ff4454 	bnel	v0,a0,0x1d01c0bc
1d01c0f0:	1800078e 	lw	a3,24(s0)
1d01c0f4:	bb70400b 	j	0x1d01c2ec
1d01c0f8:	390000a2 	sb	zero,57(s0)
1d01c0fc:	43004314 	bne	v0,v1,0x1d01c20c
1d01c100:	dfff4324 	addiu	v1,v0,-33
1d01c104:	0900a290 	lbu	v0,9(a1)
1d01c108:	f8ff4324 	addiu	v1,v0,-8
1d01c10c:	ff006330 	andi	v1,v1,0xff
1d01c110:	3b00632c 	sltiu	v1,v1,59
1d01c114:	75006050 	beqzl	v1,0x1d01c2ec
1d01c118:	390000a2 	sb	zero,57(s0)
1d01c11c:	fdff4224 	addiu	v0,v0,-3
1d01c120:	240002ae 	sw	v0,36(s0)
1d01c124:	0a00a490 	lbu	a0,10(a1)
1d01c128:	08000392 	lbu	v1,8(s0)
1d01c12c:	40006324 	addiu	v1,v1,64
1d01c130:	6e008354 	bnel	a0,v1,0x1d01c2ec
1d01c134:	390000a2 	sb	zero,57(s0)
1d01c138:	0b00a490 	lbu	a0,11(a1)
1d01c13c:	09000392 	lbu	v1,9(s0)
1d01c140:	6a008354 	bnel	a0,v1,0x1d01c2ec
1d01c144:	390000a2 	sb	zero,57(s0)
1d01c148:	0c00a490 	lbu	a0,12(a1)
1d01c14c:	0a000392 	lbu	v1,10(s0)
1d01c150:	05008350 	beql	a0,v1,0x1d01c168
1d01c154:	2000038e 	lw	v1,32(s0)
1d01c158:	0b000392 	lbu	v1,11(s0)
1d01c15c:	63006054 	bnezl	v1,0x1d01c2ec
1d01c160:	390000a2 	sb	zero,57(s0)
1d01c164:	2000038e 	lw	v1,32(s0)
1d01c168:	60006054 	bnezl	v1,0x1d01c2ec
1d01c16c:	390000a2 	sb	zero,57(s0)
1d01c170:	1c00038e 	lw	v1,28(s0)
1d01c174:	2b106200 	sltu	v0,v1,v0
1d01c178:	5c004054 	bnezl	v0,0x1d01c2ec
1d01c17c:	390000a2 	sb	zero,57(s0)
1d01c180:	05000224 	li	v0,5
1d01c184:	6a70400b 	j	0x1d01c1a8
1d01c188:	08000424 	li	a0,8
1d01c18c:	01006624 	addiu	a2,v1,1
1d01c190:	200006ae 	sw	a2,32(s0)
1d01c194:	01004224 	addiu	v0,v0,1
1d01c198:	2130a200 	addu	a2,a1,v0
1d01c19c:	0700c690 	lbu	a2,7(a2)
1d01c1a0:	2118e300 	addu	v1,a3,v1
1d01c1a4:	000066a0 	sb	a2,0(v1)
1d01c1a8:	2000038e 	lw	v1,32(s0)
1d01c1ac:	2400068e 	lw	a2,36(s0)
1d01c1b0:	2b306600 	sltu	a2,v1,a2
1d01c1b4:	0400c050 	beqzl	a2,0x1d01c1c8
1d01c1b8:	1800a0af 	sw	zero,24(sp)
1d01c1bc:	f3ff4454 	bnel	v0,a0,0x1d01c18c
1d01c1c0:	1800078e 	lw	a3,24(s0)
1d01c1c4:	1800a0af 	sw	zero,24(sp)
1d01c1c8:	1c00a0af 	sw	zero,28(sp)
1d01c1cc:	30000224 	li	v0,48
1d01c1d0:	1800a2a3 	sb	v0,24(sp)
1d01c1d4:	04000396 	lhu	v1,4(s0)
1d01c1d8:	08000224 	li	v0,8
1d01c1dc:	1400a2af 	sw	v0,20(sp)
1d01c1e0:	21100000 	move	v0,zero
1d01c1e4:	0450627c 	ins	v0,v1,0x0,0xb
1d01c1e8:	1000a2af 	sw	v0,16(sp)
1d01c1ec:	0000028e 	lw	v0,0(s0)
1d01c1f0:	09f84000 	jalr	v0
1d01c1f4:	1000a427 	addiu	a0,sp,16
1d01c1f8:	51004014 	bnez	v0,0x1d01c340
1d01c1fc:	2400bf8f 	lw	ra,36(sp)
1d01c200:	390000a2 	sb	zero,57(s0)
1d01c204:	cf70400b 	j	0x1d01c33c
1d01c208:	380000a2 	sb	zero,56(s0)
1d01c20c:	ff006330 	andi	v1,v1,0xff
1d01c210:	0900632c 	sltiu	v1,v1,9
1d01c214:	27006010 	beqz	v1,0x1d01c2b4
1d01c218:	30000324 	li	v1,48
1d01c21c:	2000038e 	lw	v1,32(s0)
1d01c220:	dfff4224 	addiu	v0,v0,-33
1d01c224:	c0200200 	sll	a0,v0,0x3
1d01c228:	23108200 	subu	v0,a0,v0
1d01c22c:	03004224 	addiu	v0,v0,3
1d01c230:	2e006254 	bnel	v1,v0,0x1d01c2ec
1d01c234:	390000a2 	sb	zero,57(s0)
1d01c238:	2400048e 	lw	a0,36(s0)
1d01c23c:	1c00028e 	lw	v0,28(s0)
1d01c240:	2b104400 	sltu	v0,v0,a0
1d01c244:	29004054 	bnezl	v0,0x1d01c2ec
1d01c248:	390000a2 	sb	zero,57(s0)
1d01c24c:	2b106400 	sltu	v0,v1,a0
1d01c250:	12004010 	beqz	v0,0x1d01c29c
1d01c254:	00000000 	nop
1d01c258:	01000224 	li	v0,1
1d01c25c:	08000724 	li	a3,8
1d01c260:	1800068e 	lw	a2,24(s0)
1d01c264:	01006424 	addiu	a0,v1,1
1d01c268:	200004ae 	sw	a0,32(s0)
1d01c26c:	01004224 	addiu	v0,v0,1
1d01c270:	2120a200 	addu	a0,a1,v0
1d01c274:	07008490 	lbu	a0,7(a0)
1d01c278:	2118c300 	addu	v1,a2,v1
1d01c27c:	000064a0 	sb	a0,0(v1)
1d01c280:	2000038e 	lw	v1,32(s0)
1d01c284:	2400048e 	lw	a0,36(s0)
1d01c288:	2b306400 	sltu	a2,v1,a0
1d01c28c:	0300c010 	beqz	a2,0x1d01c29c
1d01c290:	00000000 	nop
1d01c294:	f3ff4754 	bnel	v0,a3,0x1d01c264
1d01c298:	1800068e 	lw	a2,24(s0)
1d01c29c:	28006414 	bne	v1,a0,0x1d01c340
1d01c2a0:	2400bf8f 	lw	ra,36(sp)
1d01c2a4:	01000224 	li	v0,1
1d01c2a8:	390002a2 	sb	v0,57(s0)
1d01c2ac:	cf70400b 	j	0x1d01c33c
1d01c2b0:	380000a2 	sb	zero,56(s0)
1d01c2b4:	0d004354 	bnel	v0,v1,0x1d01c2ec
1d01c2b8:	390000a2 	sb	zero,57(s0)
1d01c2bc:	0900a290 	lbu	v0,9(a1)
1d01c2c0:	0a004054 	bnezl	v0,0x1d01c2ec
1d01c2c4:	390000a2 	sb	zero,57(s0)
1d01c2c8:	1400038e 	lw	v1,20(s0)
1d01c2cc:	1000028e 	lw	v0,16(s0)
1d01c2d0:	2b106200 	sltu	v0,v1,v0
1d01c2d4:	05004050 	beqzl	v0,0x1d01c2ec
1d01c2d8:	390000a2 	sb	zero,57(s0)
1d01c2dc:	01000224 	li	v0,1
1d01c2e0:	cf70400b 	j	0x1d01c33c
1d01c2e4:	2a0002a2 	sb	v0,42(s0)
1d01c2e8:	390000a2 	sb	zero,57(s0)
1d01c2ec:	cf70400b 	j	0x1d01c33c
1d01c2f0:	380000a2 	sb	zero,56(s0)
1d01c2f4:	240002ae 	sw	v0,36(s0)
1d01c2f8:	1c00038e 	lw	v1,28(s0)
1d01c2fc:	2b206200 	sltu	a0,v1,v0
1d01c300:	2eff8050 	beqzl	a0,0x1d01bfbc
1d01c304:	2000038e 	lw	v1,32(s0)
1d01c308:	0570400b 	j	0x1d01c014
1d01c30c:	00000000 	nop
1d01c310:	240002ae 	sw	v0,36(s0)
1d01c314:	1c00038e 	lw	v1,28(s0)
1d01c318:	2b206200 	sltu	a0,v1,v0
1d01c31c:	3dff8014 	bnez	a0,0x1d01c014
1d01c320:	00000000 	nop
1d01c324:	2000038e 	lw	v1,32(s0)
1d01c328:	2b106200 	sltu	v0,v1,v0
1d01c32c:	35ff4010 	beqz	v0,0x1d01c004
1d01c330:	03000224 	li	v0,3
1d01c334:	f36f400b 	j	0x1d01bfcc
1d01c338:	1800068e 	lw	a2,24(s0)
1d01c33c:	2400bf8f 	lw	ra,36(sp)
1d01c340:	2000b08f 	lw	s0,32(sp)
1d01c344:	0800e003 	jr	ra
1d01c348:	2800bd27 	addiu	sp,sp,40
1d01c34c:	d0ffbd27 	addiu	sp,sp,-48
1d01c350:	2c00bfaf 	sw	ra,44(sp)
1d01c354:	2800b2af 	sw	s2,40(sp)
1d01c358:	2400b1af 	sw	s1,36(sp)
1d01c35c:	2000b0af 	sw	s0,32(sp)
1d01c360:	21808000 	move	s0,a0
1d01c364:	2190a000 	move	s2,a1
1d01c368:	3400828c 	lw	v0,52(a0)
1d01c36c:	2b384700 	sltu	a3,v0,a3
1d01c370:	0400e010 	beqz	a3,0x1d01c384
1d01c374:	2188c000 	move	s1,a2
1d01c378:	01004224 	addiu	v0,v0,1
1d01c37c:	e670400b 	j	0x1d01c398
1d01c380:	340082ac 	sw	v0,52(a0)
1d01c384:	38008290 	lbu	v0,56(a0)
1d01c388:	04004050 	beqzl	v0,0x1d01c39c
1d01c38c:	3000028e 	lw	v0,48(s0)
1d01c390:	390080a0 	sb	zero,57(a0)
1d01c394:	380080a0 	sb	zero,56(a0)
1d01c398:	3000028e 	lw	v0,48(s0)
1d01c39c:	04004050 	beqzl	v0,0x1d01c3b0
1d01c3a0:	2a000292 	lbu	v0,42(s0)
1d01c3a4:	ffff4224 	addiu	v0,v0,-1
1d01c3a8:	2571400b 	j	0x1d01c494
1d01c3ac:	300002ae 	sw	v0,48(s0)
1d01c3b0:	39004050 	beqzl	v0,0x1d01c498
1d01c3b4:	38000392 	lbu	v1,56(s0)
1d01c3b8:	1000048e 	lw	a0,16(s0)
1d01c3bc:	1400028e 	lw	v0,20(s0)
1d01c3c0:	2b104400 	sltu	v0,v0,a0
1d01c3c4:	34004050 	beqzl	v0,0x1d01c498
1d01c3c8:	38000392 	lbu	v1,56(s0)
1d01c3cc:	2c00028e 	lw	v0,44(s0)
1d01c3d0:	0900432c 	sltiu	v1,v0,9
1d01c3d4:	30006050 	beqzl	v1,0x1d01c498
1d01c3d8:	38000392 	lbu	v1,56(s0)
1d01c3dc:	1800a0af 	sw	zero,24(sp)
1d01c3e0:	1c00a0af 	sw	zero,28(sp)
1d01c3e4:	04000596 	lhu	a1,4(s0)
1d01c3e8:	08000324 	li	v1,8
1d01c3ec:	1400a3af 	sw	v1,20(sp)
1d01c3f0:	21180000 	move	v1,zero
1d01c3f4:	0450a37c 	ins	v1,a1,0x0,0xb
1d01c3f8:	1000a3af 	sw	v1,16(sp)
1d01c3fc:	01004324 	addiu	v1,v0,1
1d01c400:	2c0003ae 	sw	v1,44(s0)
1d01c404:	21004224 	addiu	v0,v0,33
1d01c408:	1800a2a3 	sb	v0,24(sp)
1d01c40c:	1400028e 	lw	v0,20(s0)
1d01c410:	2b184400 	sltu	v1,v0,a0
1d01c414:	2f006054 	bnezl	v1,0x1d01c4d4
1d01c418:	0c00038e 	lw	v1,12(s0)
1d01c41c:	1671400b 	j	0x1d01c458
1d01c420:	01000224 	li	v0,1
1d01c424:	0c00058e 	lw	a1,12(s0)
1d01c428:	01006624 	addiu	a2,v1,1
1d01c42c:	140006ae 	sw	a2,20(s0)
1d01c430:	2118a300 	addu	v1,a1,v1
1d01c434:	00006590 	lbu	a1,0(v1)
1d01c438:	1000a627 	addiu	a2,sp,16
1d01c43c:	2118c200 	addu	v1,a2,v0
1d01c440:	0c004710 	beq	v0,a3,0x1d01c474
1d01c444:	070065a0 	sb	a1,7(v1)
1d01c448:	1400038e 	lw	v1,20(s0)
1d01c44c:	2b286400 	sltu	a1,v1,a0
1d01c450:	f4ffa054 	bnezl	a1,0x1d01c424
1d01c454:	01004224 	addiu	v0,v0,1
1d01c458:	01004224 	addiu	v0,v0,1
1d01c45c:	1000a427 	addiu	a0,sp,16
1d01c460:	21188200 	addu	v1,a0,v0
1d01c464:	070060a0 	sb	zero,7(v1)
1d01c468:	0800432c 	sltiu	v1,v0,8
1d01c46c:	fcff6014 	bnez	v1,0x1d01c460
1d01c470:	01004224 	addiu	v0,v0,1
1d01c474:	0000028e 	lw	v0,0(s0)
1d01c478:	09f84000 	jalr	v0
1d01c47c:	1000a427 	addiu	a0,sp,16
1d01c480:	03004014 	bnez	v0,0x1d01c490
1d01c484:	09000224 	li	v0,9
1d01c488:	390000a2 	sb	zero,57(s0)
1d01c48c:	380000a2 	sb	zero,56(s0)
1d01c490:	300002ae 	sw	v0,48(s0)
1d01c494:	38000392 	lbu	v1,56(s0)
1d01c498:	16006014 	bnez	v1,0x1d01c4f4
1d01c49c:	21100000 	move	v0,zero
1d01c4a0:	03004012 	beqz	s2,0x1d01c4b0
1d01c4a4:	00000000 	nop
1d01c4a8:	39000292 	lbu	v0,57(s0)
1d01c4ac:	000042a2 	sb	v0,0(s2)
1d01c4b0:	10002052 	beqzl	s1,0x1d01c4f4
1d01c4b4:	01000224 	li	v0,1
1d01c4b8:	39000392 	lbu	v1,57(s0)
1d01c4bc:	02006010 	beqz	v1,0x1d01c4c8
1d01c4c0:	21100000 	move	v0,zero
1d01c4c4:	2400028e 	lw	v0,36(s0)
1d01c4c8:	000022ae 	sw	v0,0(s1)
1d01c4cc:	3d71400b 	j	0x1d01c4f4
1d01c4d0:	01000224 	li	v0,1
1d01c4d4:	01004524 	addiu	a1,v0,1
1d01c4d8:	140005ae 	sw	a1,20(s0)
1d01c4dc:	21106200 	addu	v0,v1,v0
1d01c4e0:	00004290 	lbu	v0,0(v0)
1d01c4e4:	1900a2a3 	sb	v0,25(sp)
1d01c4e8:	02000224 	li	v0,2
1d01c4ec:	1271400b 	j	0x1d01c448
1d01c4f0:	08000724 	li	a3,8
1d01c4f4:	2c00bf8f 	lw	ra,44(sp)
1d01c4f8:	2800b28f 	lw	s2,40(sp)
1d01c4fc:	2400b18f 	lw	s1,36(sp)
1d01c500:	2000b08f 	lw	s0,32(sp)
1d01c504:	0800e003 	jr	ra
1d01c508:	3000bd27 	addiu	sp,sp,48

Disassembly of section .sec73:

1d01c50c <.sec73>:
1d01c50c:	901088bf 	cache	0x8,4240(gp)
1d01c510:	00000000 	nop
1d01c514:	02000000 	srl	zero,zero,0x0
1d01c518:	901088bf 	cache	0x8,4240(gp)
1d01c51c:	08000000 	jr	zero
1d01c520:	0a000000 	movz	zero,zero,zero
1d01c524:	901088bf 	cache	0x8,4240(gp)
1d01c528:	10000000 	mfhi	zero
1d01c52c:	12000000 	mflo	zero
1d01c530:	901088bf 	cache	0x8,4240(gp)
1d01c534:	18000000 	mult	zero,zero
1d01c538:	1a000000 	div	zero,zero,zero
1d01c53c:	a01088bf 	cache	0x8,4256(gp)
1d01c540:	18000000 	mult	zero,zero
1d01c544:	1a000000 	div	zero,zero,zero
1d01c548:	b01088bf 	cache	0x8,4272(gp)
1d01c54c:	18000000 	mult	zero,zero
1d01c550:	1a000000 	div	zero,zero,zero
1d01c554:	c01088bf 	cache	0x8,4288(gp)
1d01c558:	18000000 	mult	zero,zero
1d01c55c:	1a000000 	div	zero,zero,zero
1d01c560:	d01088bf 	cache	0x8,4304(gp)
1d01c564:	18000000 	mult	zero,zero
1d01c568:	1a000000 	div	zero,zero,zero
1d01c56c:	a01088bf 	cache	0x8,4256(gp)
1d01c570:	00000000 	nop
1d01c574:	02000000 	srl	zero,zero,0x0
1d01c578:	b01088bf 	cache	0x8,4272(gp)
1d01c57c:	00000000 	nop
1d01c580:	02000000 	srl	zero,zero,0x0
1d01c584:	c01088bf 	cache	0x8,4288(gp)
1d01c588:	00000000 	nop
1d01c58c:	02000000 	srl	zero,zero,0x0
1d01c590:	d01088bf 	cache	0x8,4304(gp)
1d01c594:	00000000 	nop
1d01c598:	02000000 	srl	zero,zero,0x0
1d01c59c:	e01088bf 	cache	0x8,4320(gp)
1d01c5a0:	00000000 	nop
1d01c5a4:	02000000 	srl	zero,zero,0x0
1d01c5a8:	a01088bf 	cache	0x8,4256(gp)
1d01c5ac:	08000000 	jr	zero
1d01c5b0:	0a000000 	movz	zero,zero,zero
1d01c5b4:	b01088bf 	cache	0x8,4272(gp)
1d01c5b8:	08000000 	jr	zero
1d01c5bc:	0a000000 	movz	zero,zero,zero
1d01c5c0:	c01088bf 	cache	0x8,4288(gp)
1d01c5c4:	08000000 	jr	zero
1d01c5c8:	0a000000 	movz	zero,zero,zero
1d01c5cc:	d01088bf 	cache	0x8,4304(gp)
1d01c5d0:	08000000 	jr	zero
1d01c5d4:	0a000000 	movz	zero,zero,zero
1d01c5d8:	e01088bf 	cache	0x8,4320(gp)
1d01c5dc:	08000000 	jr	zero
1d01c5e0:	0a000000 	movz	zero,zero,zero
1d01c5e4:	a01088bf 	cache	0x8,4256(gp)
1d01c5e8:	10000000 	mfhi	zero
1d01c5ec:	12000000 	mflo	zero
1d01c5f0:	b01088bf 	cache	0x8,4272(gp)
1d01c5f4:	10000000 	mfhi	zero
1d01c5f8:	12000000 	mflo	zero
1d01c5fc:	c01088bf 	cache	0x8,4288(gp)
1d01c600:	10000000 	mfhi	zero
1d01c604:	12000000 	mflo	zero
1d01c608:	d01088bf 	cache	0x8,4304(gp)
1d01c60c:	10000000 	mfhi	zero
1d01c610:	12000000 	mflo	zero
1d01c614:	e01088bf 	cache	0x8,4320(gp)
1d01c618:	10000000 	mfhi	zero
1d01c61c:	12000000 	mflo	zero
	...
1d01c62c:	001188bf 	cache	0x8,4352(gp)
1d01c630:	18000000 	mult	zero,zero
1d01c634:	1a000000 	div	zero,zero,zero
1d01c638:	f01088bf 	cache	0x8,4336(gp)
1d01c63c:	00000000 	nop
1d01c640:	02000000 	srl	zero,zero,0x0
1d01c644:	101188bf 	cache	0x8,4368(gp)
1d01c648:	00000000 	nop
1d01c64c:	02000000 	srl	zero,zero,0x0
1d01c650:	f01088bf 	cache	0x8,4336(gp)
1d01c654:	00000000 	nop
1d01c658:	02000000 	srl	zero,zero,0x0
1d01c65c:	101188bf 	cache	0x8,4368(gp)
1d01c660:	00000000 	nop
1d01c664:	02000000 	srl	zero,zero,0x0
1d01c668:	001188bf 	cache	0x8,4352(gp)
1d01c66c:	18000000 	mult	zero,zero
1d01c670:	1a000000 	div	zero,zero,zero
1d01c674:	501188bf 	cache	0x8,4432(gp)
1d01c678:	08000000 	jr	zero
1d01c67c:	0a000000 	movz	zero,zero,zero
1d01c680:	501188bf 	cache	0x8,4432(gp)
1d01c684:	18000000 	mult	zero,zero
1d01c688:	1a000000 	div	zero,zero,zero
1d01c68c:	501188bf 	cache	0x8,4432(gp)
1d01c690:	10000000 	mfhi	zero
1d01c694:	12000000 	mflo	zero
1d01c698:	f01088bf 	cache	0x8,4336(gp)
1d01c69c:	08000000 	jr	zero
1d01c6a0:	0a000000 	movz	zero,zero,zero
	...
1d01c6b0:	f01088bf 	cache	0x8,4336(gp)
1d01c6b4:	00000000 	nop
1d01c6b8:	02000000 	srl	zero,zero,0x0
1d01c6bc:	001188bf 	cache	0x8,4352(gp)
1d01c6c0:	18000000 	mult	zero,zero
1d01c6c4:	1a000000 	div	zero,zero,zero
1d01c6c8:	101188bf 	cache	0x8,4368(gp)
1d01c6cc:	00000000 	nop
1d01c6d0:	02000000 	srl	zero,zero,0x0
1d01c6d4:	f01088bf 	cache	0x8,4336(gp)
1d01c6d8:	10000000 	mfhi	zero
1d01c6dc:	12000000 	mflo	zero
1d01c6e0:	f01088bf 	cache	0x8,4336(gp)
1d01c6e4:	18000000 	mult	zero,zero
1d01c6e8:	1a000000 	div	zero,zero,zero
1d01c6ec:	001188bf 	cache	0x8,4352(gp)
1d01c6f0:	00000000 	nop
1d01c6f4:	02000000 	srl	zero,zero,0x0
1d01c6f8:	001188bf 	cache	0x8,4352(gp)
1d01c6fc:	08000000 	jr	zero
1d01c700:	0a000000 	movz	zero,zero,zero
1d01c704:	001188bf 	cache	0x8,4352(gp)
1d01c708:	10000000 	mfhi	zero
1d01c70c:	12000000 	mflo	zero
1d01c710:	101188bf 	cache	0x8,4368(gp)
1d01c714:	10000000 	mfhi	zero
1d01c718:	12000000 	mflo	zero
1d01c71c:	101188bf 	cache	0x8,4368(gp)
1d01c720:	18000000 	mult	zero,zero
1d01c724:	1a000000 	div	zero,zero,zero
1d01c728:	201188bf 	cache	0x8,4384(gp)
1d01c72c:	00000000 	nop
1d01c730:	02000000 	srl	zero,zero,0x0
1d01c734:	201188bf 	cache	0x8,4384(gp)
1d01c738:	08000000 	jr	zero
1d01c73c:	0a000000 	movz	zero,zero,zero
1d01c740:	201188bf 	cache	0x8,4384(gp)
1d01c744:	10000000 	mfhi	zero
1d01c748:	12000000 	mflo	zero
1d01c74c:	201188bf 	cache	0x8,4384(gp)
1d01c750:	18000000 	mult	zero,zero
1d01c754:	1a000000 	div	zero,zero,zero
1d01c758:	301188bf 	cache	0x8,4400(gp)
1d01c75c:	00000000 	nop
1d01c760:	02000000 	srl	zero,zero,0x0
1d01c764:	301188bf 	cache	0x8,4400(gp)
1d01c768:	08000000 	jr	zero
1d01c76c:	0a000000 	movz	zero,zero,zero
1d01c770:	301188bf 	cache	0x8,4400(gp)
1d01c774:	10000000 	mfhi	zero
1d01c778:	12000000 	mflo	zero
1d01c77c:	301188bf 	cache	0x8,4400(gp)
1d01c780:	18000000 	mult	zero,zero
1d01c784:	1a000000 	div	zero,zero,zero
1d01c788:	401188bf 	cache	0x8,4416(gp)
1d01c78c:	00000000 	nop
1d01c790:	02000000 	srl	zero,zero,0x0
1d01c794:	401188bf 	cache	0x8,4416(gp)
1d01c798:	08000000 	jr	zero
1d01c79c:	0a000000 	movz	zero,zero,zero
1d01c7a0:	401188bf 	cache	0x8,4416(gp)
1d01c7a4:	10000000 	mfhi	zero
1d01c7a8:	12000000 	mflo	zero
1d01c7ac:	401188bf 	cache	0x8,4416(gp)
1d01c7b0:	18000000 	mult	zero,zero
1d01c7b4:	1a000000 	div	zero,zero,zero
1d01c7b8:	501188bf 	cache	0x8,4432(gp)
1d01c7bc:	00000000 	nop
1d01c7c0:	02000000 	srl	zero,zero,0x0
1d01c7c4:	301088bf 	cache	0x8,4144(gp)
1d01c7c8:	601088bf 	cache	0x8,4192(gp)
1d01c7cc:	01000000 	movf	zero,zero,$fcc0
1d01c7d0:	301088bf 	cache	0x8,4144(gp)
1d01c7d4:	601088bf 	cache	0x8,4192(gp)
1d01c7d8:	02000000 	srl	zero,zero,0x0
1d01c7dc:	301088bf 	cache	0x8,4144(gp)
1d01c7e0:	601088bf 	cache	0x8,4192(gp)
1d01c7e4:	04000000 	sllv	zero,zero,zero
1d01c7e8:	301088bf 	cache	0x8,4144(gp)
1d01c7ec:	601088bf 	cache	0x8,4192(gp)
1d01c7f0:	08000000 	jr	zero
1d01c7f4:	301088bf 	cache	0x8,4144(gp)
1d01c7f8:	601088bf 	cache	0x8,4192(gp)
1d01c7fc:	80000000 	sll	zero,zero,0x2
1d01c800:	301088bf 	cache	0x8,4144(gp)
1d01c804:	601088bf 	cache	0x8,4192(gp)
1d01c808:	00080000 	sll	at,zero,0x0
1d01c80c:	301088bf 	cache	0x8,4144(gp)
1d01c810:	601088bf 	cache	0x8,4192(gp)
1d01c814:	00800000 	sll	s0,zero,0x0
1d01c818:	301088bf 	cache	0x8,4144(gp)
1d01c81c:	601088bf 	cache	0x8,4192(gp)
1d01c820:	00000800 	sll	zero,t0,0x0
1d01c824:	301088bf 	cache	0x8,4144(gp)
1d01c828:	601088bf 	cache	0x8,4192(gp)
1d01c82c:	10000000 	mfhi	zero
1d01c830:	301088bf 	cache	0x8,4144(gp)
1d01c834:	601088bf 	cache	0x8,4192(gp)
1d01c838:	00010000 	sll	zero,zero,0x4
1d01c83c:	301088bf 	cache	0x8,4144(gp)
1d01c840:	601088bf 	cache	0x8,4192(gp)
1d01c844:	00100000 	sll	v0,zero,0x0
1d01c848:	301088bf 	cache	0x8,4144(gp)
1d01c84c:	601088bf 	cache	0x8,4192(gp)
1d01c850:	00000100 	sll	zero,at,0x0
1d01c854:	301088bf 	cache	0x8,4144(gp)
1d01c858:	601088bf 	cache	0x8,4192(gp)
1d01c85c:	00001000 	sll	zero,s0,0x0
1d01c860:	301088bf 	cache	0x8,4144(gp)
1d01c864:	601088bf 	cache	0x8,4192(gp)
1d01c868:	20000000 	add	zero,zero,zero
1d01c86c:	301088bf 	cache	0x8,4144(gp)
1d01c870:	601088bf 	cache	0x8,4192(gp)
1d01c874:	00020000 	sll	zero,zero,0x8
1d01c878:	301088bf 	cache	0x8,4144(gp)
1d01c87c:	601088bf 	cache	0x8,4192(gp)
1d01c880:	00200000 	sll	a0,zero,0x0
1d01c884:	301088bf 	cache	0x8,4144(gp)
1d01c888:	601088bf 	cache	0x8,4192(gp)
1d01c88c:	00000200 	sll	zero,v0,0x0
1d01c890:	301088bf 	cache	0x8,4144(gp)
1d01c894:	601088bf 	cache	0x8,4192(gp)
1d01c898:	00002000 	0x200000
1d01c89c:	401088bf 	cache	0x8,4160(gp)
1d01c8a0:	701088bf 	cache	0x8,4208(gp)
1d01c8a4:	00000020 	addi	zero,zero,0
1d01c8a8:	401088bf 	cache	0x8,4160(gp)
1d01c8ac:	701088bf 	cache	0x8,4208(gp)
1d01c8b0:	00000040 	mfc0	zero,c0_index
1d01c8b4:	401088bf 	cache	0x8,4160(gp)
1d01c8b8:	701088bf 	cache	0x8,4208(gp)
1d01c8bc:	00000080 	lb	zero,0(zero)
1d01c8c0:	501088bf 	cache	0x8,4176(gp)
1d01c8c4:	801088bf 	cache	0x8,4224(gp)
1d01c8c8:	01000000 	movf	zero,zero,$fcc0
1d01c8cc:	501088bf 	cache	0x8,4176(gp)
1d01c8d0:	801088bf 	cache	0x8,4224(gp)
1d01c8d4:	02000000 	srl	zero,zero,0x0
1d01c8d8:	301088bf 	cache	0x8,4144(gp)
1d01c8dc:	601088bf 	cache	0x8,4192(gp)
1d01c8e0:	40000000 	ssnop
1d01c8e4:	301088bf 	cache	0x8,4144(gp)
1d01c8e8:	601088bf 	cache	0x8,4192(gp)
1d01c8ec:	00040000 	sll	zero,zero,0x10
1d01c8f0:	301088bf 	cache	0x8,4144(gp)
1d01c8f4:	601088bf 	cache	0x8,4192(gp)
1d01c8f8:	00400000 	sll	t0,zero,0x0
1d01c8fc:	301088bf 	cache	0x8,4144(gp)
1d01c900:	601088bf 	cache	0x8,4192(gp)
1d01c904:	00000400 	sll	zero,a0,0x0
1d01c908:	301088bf 	cache	0x8,4144(gp)
1d01c90c:	601088bf 	cache	0x8,4192(gp)
1d01c910:	00004000 	0x400000
1d01c914:	401088bf 	cache	0x8,4160(gp)
1d01c918:	701088bf 	cache	0x8,4208(gp)
1d01c91c:	01000000 	movf	zero,zero,$fcc0
	...
1d01c92c:	401088bf 	cache	0x8,4160(gp)
1d01c930:	701088bf 	cache	0x8,4208(gp)
1d01c934:	e0000000 	0xe0
1d01c938:	301088bf 	cache	0x8,4144(gp)
1d01c93c:	601088bf 	cache	0x8,4192(gp)
1d01c940:	0000001c 	bgtz	zero,0x1d01c944
1d01c944:	401088bf 	cache	0x8,4160(gp)
1d01c948:	701088bf 	cache	0x8,4208(gp)
1d01c94c:	00070000 	sll	zero,zero,0x1c
	...
1d01c95c:	401088bf 	cache	0x8,4160(gp)
1d01c960:	701088bf 	cache	0x8,4208(gp)
1d01c964:	20000000 	add	zero,zero,zero
1d01c968:	301088bf 	cache	0x8,4144(gp)
1d01c96c:	601088bf 	cache	0x8,4192(gp)
1d01c970:	00000004 	bltz	zero,0x1d01c974
1d01c974:	401088bf 	cache	0x8,4160(gp)
1d01c978:	701088bf 	cache	0x8,4208(gp)
1d01c97c:	00010000 	sll	zero,zero,0x4
	...
1d01c98c:	401088bf 	cache	0x8,4160(gp)
1d01c990:	701088bf 	cache	0x8,4208(gp)
1d01c994:	80000000 	sll	zero,zero,0x2
1d01c998:	301088bf 	cache	0x8,4144(gp)
1d01c99c:	601088bf 	cache	0x8,4192(gp)
1d01c9a0:	00000010 	b	0x1d01c9a4
1d01c9a4:	401088bf 	cache	0x8,4160(gp)
1d01c9a8:	701088bf 	cache	0x8,4208(gp)
1d01c9ac:	00040000 	sll	zero,zero,0x10
	...
1d01c9bc:	401088bf 	cache	0x8,4160(gp)
1d01c9c0:	701088bf 	cache	0x8,4208(gp)
1d01c9c4:	40000000 	ssnop
1d01c9c8:	301088bf 	cache	0x8,4144(gp)
1d01c9cc:	601088bf 	cache	0x8,4192(gp)
1d01c9d0:	00000008 	j	0x10000000
1d01c9d4:	401088bf 	cache	0x8,4160(gp)
1d01c9d8:	701088bf 	cache	0x8,4208(gp)
1d01c9dc:	00020000 	sll	zero,zero,0x8
1d01c9e0:	301088bf 	cache	0x8,4144(gp)
1d01c9e4:	601088bf 	cache	0x8,4192(gp)
1d01c9e8:	000000e0 	sc	zero,0(zero)
	...
1d01c9f8:	301088bf 	cache	0x8,4144(gp)
1d01c9fc:	601088bf 	cache	0x8,4192(gp)
1d01ca00:	0000001c 	bgtz	zero,0x1d01ca04
1d01ca04:	401088bf 	cache	0x8,4160(gp)
1d01ca08:	701088bf 	cache	0x8,4208(gp)
1d01ca0c:	e0000000 	0xe0
1d01ca10:	401088bf 	cache	0x8,4160(gp)
1d01ca14:	701088bf 	cache	0x8,4208(gp)
1d01ca18:	00070000 	sll	zero,zero,0x1c
1d01ca1c:	301088bf 	cache	0x8,4144(gp)
1d01ca20:	601088bf 	cache	0x8,4192(gp)
1d01ca24:	00000020 	addi	zero,zero,0
	...
1d01ca34:	301088bf 	cache	0x8,4144(gp)
1d01ca38:	601088bf 	cache	0x8,4192(gp)
1d01ca3c:	00000004 	bltz	zero,0x1d01ca40
1d01ca40:	401088bf 	cache	0x8,4160(gp)
1d01ca44:	701088bf 	cache	0x8,4208(gp)
1d01ca48:	20000000 	add	zero,zero,zero
1d01ca4c:	401088bf 	cache	0x8,4160(gp)
1d01ca50:	701088bf 	cache	0x8,4208(gp)
1d01ca54:	00010000 	sll	zero,zero,0x4
1d01ca58:	301088bf 	cache	0x8,4144(gp)
1d01ca5c:	601088bf 	cache	0x8,4192(gp)
1d01ca60:	00000040 	mfc0	zero,c0_index
	...
1d01ca70:	301088bf 	cache	0x8,4144(gp)
1d01ca74:	601088bf 	cache	0x8,4192(gp)
1d01ca78:	00000008 	j	0x10000000
1d01ca7c:	401088bf 	cache	0x8,4160(gp)
1d01ca80:	701088bf 	cache	0x8,4208(gp)
1d01ca84:	40000000 	ssnop
1d01ca88:	401088bf 	cache	0x8,4160(gp)
1d01ca8c:	701088bf 	cache	0x8,4208(gp)
1d01ca90:	00020000 	sll	zero,zero,0x8
1d01ca94:	301088bf 	cache	0x8,4144(gp)
1d01ca98:	601088bf 	cache	0x8,4192(gp)
1d01ca9c:	00000080 	lb	zero,0(zero)
	...
1d01caac:	301088bf 	cache	0x8,4144(gp)
1d01cab0:	601088bf 	cache	0x8,4192(gp)
1d01cab4:	00000010 	b	0x1d01cab8
1d01cab8:	401088bf 	cache	0x8,4160(gp)
1d01cabc:	701088bf 	cache	0x8,4208(gp)
1d01cac0:	80000000 	sll	zero,zero,0x2
1d01cac4:	401088bf 	cache	0x8,4160(gp)
1d01cac8:	701088bf 	cache	0x8,4208(gp)
1d01cacc:	00040000 	sll	zero,zero,0x10
1d01cad0:	301088bf 	cache	0x8,4144(gp)
1d01cad4:	601088bf 	cache	0x8,4192(gp)
1d01cad8:	0000001c 	bgtz	zero,0x1d01cadc
1d01cadc:	401088bf 	cache	0x8,4160(gp)
1d01cae0:	701088bf 	cache	0x8,4208(gp)
1d01cae4:	00070000 	sll	zero,zero,0x1c
1d01cae8:	401088bf 	cache	0x8,4160(gp)
1d01caec:	701088bf 	cache	0x8,4208(gp)
1d01caf0:	e0000000 	0xe0
1d01caf4:	501088bf 	cache	0x8,4176(gp)
1d01caf8:	801088bf 	cache	0x8,4224(gp)
1d01cafc:	38000000 	0x38
1d01cb00:	501088bf 	cache	0x8,4176(gp)
1d01cb04:	801088bf 	cache	0x8,4224(gp)
1d01cb08:	000e0000 	sll	at,zero,0x18
1d01cb0c:	501088bf 	cache	0x8,4176(gp)
1d01cb10:	801088bf 	cache	0x8,4224(gp)
1d01cb14:	c0010000 	sll	zero,zero,0x7
1d01cb18:	301088bf 	cache	0x8,4144(gp)
1d01cb1c:	601088bf 	cache	0x8,4192(gp)
1d01cb20:	00000004 	bltz	zero,0x1d01cb24
1d01cb24:	401088bf 	cache	0x8,4160(gp)
1d01cb28:	701088bf 	cache	0x8,4208(gp)
1d01cb2c:	00010000 	sll	zero,zero,0x4
1d01cb30:	401088bf 	cache	0x8,4160(gp)
1d01cb34:	701088bf 	cache	0x8,4208(gp)
1d01cb38:	20000000 	add	zero,zero,zero
1d01cb3c:	501088bf 	cache	0x8,4176(gp)
1d01cb40:	801088bf 	cache	0x8,4224(gp)
1d01cb44:	08000000 	jr	zero
1d01cb48:	501088bf 	cache	0x8,4176(gp)
1d01cb4c:	801088bf 	cache	0x8,4224(gp)
1d01cb50:	00020000 	sll	zero,zero,0x8
1d01cb54:	501088bf 	cache	0x8,4176(gp)
1d01cb58:	801088bf 	cache	0x8,4224(gp)
1d01cb5c:	40000000 	ssnop
1d01cb60:	301088bf 	cache	0x8,4144(gp)
1d01cb64:	601088bf 	cache	0x8,4192(gp)
1d01cb68:	00000008 	j	0x10000000
1d01cb6c:	401088bf 	cache	0x8,4160(gp)
1d01cb70:	701088bf 	cache	0x8,4208(gp)
1d01cb74:	00020000 	sll	zero,zero,0x8
1d01cb78:	401088bf 	cache	0x8,4160(gp)
1d01cb7c:	701088bf 	cache	0x8,4208(gp)
1d01cb80:	40000000 	ssnop
1d01cb84:	501088bf 	cache	0x8,4176(gp)
1d01cb88:	801088bf 	cache	0x8,4224(gp)
1d01cb8c:	10000000 	mfhi	zero
1d01cb90:	501088bf 	cache	0x8,4176(gp)
1d01cb94:	801088bf 	cache	0x8,4224(gp)
1d01cb98:	00040000 	sll	zero,zero,0x10
1d01cb9c:	501088bf 	cache	0x8,4176(gp)
1d01cba0:	801088bf 	cache	0x8,4224(gp)
1d01cba4:	80000000 	sll	zero,zero,0x2
1d01cba8:	301088bf 	cache	0x8,4144(gp)
1d01cbac:	601088bf 	cache	0x8,4192(gp)
1d01cbb0:	00000010 	b	0x1d01cbb4
1d01cbb4:	401088bf 	cache	0x8,4160(gp)
1d01cbb8:	701088bf 	cache	0x8,4208(gp)
1d01cbbc:	00040000 	sll	zero,zero,0x10
1d01cbc0:	401088bf 	cache	0x8,4160(gp)
1d01cbc4:	701088bf 	cache	0x8,4208(gp)
1d01cbc8:	80000000 	sll	zero,zero,0x2
1d01cbcc:	501088bf 	cache	0x8,4176(gp)
1d01cbd0:	801088bf 	cache	0x8,4224(gp)
1d01cbd4:	20000000 	add	zero,zero,zero
1d01cbd8:	501088bf 	cache	0x8,4176(gp)
1d01cbdc:	801088bf 	cache	0x8,4224(gp)
1d01cbe0:	00080000 	sll	at,zero,0x0
1d01cbe4:	501088bf 	cache	0x8,4176(gp)
1d01cbe8:	801088bf 	cache	0x8,4224(gp)
1d01cbec:	00010000 	sll	zero,zero,0x4
1d01cbf0:	401088bf 	cache	0x8,4160(gp)
1d01cbf4:	701088bf 	cache	0x8,4208(gp)
1d01cbf8:	02000000 	srl	zero,zero,0x0
1d01cbfc:	401088bf 	cache	0x8,4160(gp)
1d01cc00:	701088bf 	cache	0x8,4208(gp)
1d01cc04:	04000000 	sllv	zero,zero,zero
1d01cc08:	501088bf 	cache	0x8,4176(gp)
1d01cc0c:	801088bf 	cache	0x8,4224(gp)
1d01cc10:	04000000 	sllv	zero,zero,zero
1d01cc14:	401088bf 	cache	0x8,4160(gp)
1d01cc18:	701088bf 	cache	0x8,4208(gp)
1d01cc1c:	08000000 	jr	zero
1d01cc20:	401088bf 	cache	0x8,4160(gp)
1d01cc24:	701088bf 	cache	0x8,4208(gp)
1d01cc28:	10000000 	mfhi	zero
1d01cc2c:	401088bf 	cache	0x8,4160(gp)
1d01cc30:	701088bf 	cache	0x8,4208(gp)
1d01cc34:	00400000 	sll	t0,zero,0x0
1d01cc38:	401088bf 	cache	0x8,4160(gp)
1d01cc3c:	701088bf 	cache	0x8,4208(gp)
1d01cc40:	00000001 	0x1000000
1d01cc44:	401088bf 	cache	0x8,4160(gp)
1d01cc48:	701088bf 	cache	0x8,4208(gp)
1d01cc4c:	00800000 	sll	s0,zero,0x0
1d01cc50:	401088bf 	cache	0x8,4160(gp)
1d01cc54:	701088bf 	cache	0x8,4208(gp)
1d01cc58:	00000100 	sll	zero,at,0x0
1d01cc5c:	401088bf 	cache	0x8,4160(gp)
1d01cc60:	701088bf 	cache	0x8,4208(gp)
1d01cc64:	00000200 	sll	zero,v0,0x0
1d01cc68:	401088bf 	cache	0x8,4160(gp)
1d01cc6c:	701088bf 	cache	0x8,4208(gp)
1d01cc70:	00000400 	sll	zero,a0,0x0
1d01cc74:	401088bf 	cache	0x8,4160(gp)
1d01cc78:	701088bf 	cache	0x8,4208(gp)
1d01cc7c:	00000800 	sll	zero,t0,0x0
1d01cc80:	401088bf 	cache	0x8,4160(gp)
1d01cc84:	701088bf 	cache	0x8,4208(gp)
1d01cc88:	00001000 	sll	zero,s0,0x0
1d01cc8c:	401088bf 	cache	0x8,4160(gp)
1d01cc90:	701088bf 	cache	0x8,4208(gp)
1d01cc94:	00002000 	0x200000
1d01cc98:	401088bf 	cache	0x8,4160(gp)
1d01cc9c:	701088bf 	cache	0x8,4208(gp)
1d01cca0:	00004000 	0x400000
1d01cca4:	401088bf 	cache	0x8,4160(gp)
1d01cca8:	701088bf 	cache	0x8,4208(gp)
1d01ccac:	00008000 	0x800000
1d01ccb0:	401088bf 	cache	0x8,4160(gp)
1d01ccb4:	701088bf 	cache	0x8,4208(gp)
1d01ccb8:	00000002 	0x2000000
1d01ccbc:	401088bf 	cache	0x8,4160(gp)
1d01ccc0:	701088bf 	cache	0x8,4208(gp)
1d01ccc4:	00000004 	bltz	zero,0x1d01ccc8
1d01ccc8:	401088bf 	cache	0x8,4160(gp)
1d01cccc:	701088bf 	cache	0x8,4208(gp)
1d01ccd0:	00000008 	j	0x10000000
1d01ccd4:	401088bf 	cache	0x8,4160(gp)
1d01ccd8:	701088bf 	cache	0x8,4208(gp)
1d01ccdc:	00000010 	b	0x1d01cce0

Disassembly of section .sec74:

1d01cce0 <.sec74>:
1d01cce0:	88bf023c 	lui	v0,0xbf88
1d01cce4:	5060428c 	lw	v0,24656(v0)
1d01cce8:	0800e003 	jr	ra
1d01ccec:	c002427c 	ext	v0,v0,0xb,0x1
1d01ccf0:	65808293 	lbu	v0,-32667(gp)
1d01ccf4:	0d004014 	bnez	v0,0x1d01cd2c
1d01ccf8:	00000000 	nop
1d01ccfc:	05008010 	beqz	a0,0x1d01cd14
1d01cd00:	10000324 	li	v1,16
1d01cd04:	88bf023c 	lui	v0,0xbf88
1d01cd08:	686043ac 	sw	v1,24680(v0)
1d01cd0c:	4873400b 	j	0x1d01cd20
1d01cd10:	10000324 	li	v1,16
1d01cd14:	88bf023c 	lui	v0,0xbf88
1d01cd18:	646043ac 	sw	v1,24676(v0)
1d01cd1c:	10000324 	li	v1,16
1d01cd20:	88bf023c 	lui	v0,0xbf88
1d01cd24:	446043ac 	sw	v1,24644(v0)
1d01cd28:	648084a3 	sb	a0,-32668(gp)
1d01cd2c:	0800e003 	jr	ra
1d01cd30:	00000000 	nop
1d01cd34:	01000224 	li	v0,1
1d01cd38:	06008010 	beqz	a0,0x1d01cd54
1d01cd3c:	658082a3 	sb	v0,-32667(gp)
1d01cd40:	10000324 	li	v1,16
1d01cd44:	88bf023c 	lui	v0,0xbf88
1d01cd48:	686043ac 	sw	v1,24680(v0)
1d01cd4c:	5973400b 	j	0x1d01cd64
1d01cd50:	10000324 	li	v1,16
1d01cd54:	10000324 	li	v1,16
1d01cd58:	88bf023c 	lui	v0,0xbf88
1d01cd5c:	646043ac 	sw	v1,24676(v0)
1d01cd60:	10000324 	li	v1,16
1d01cd64:	88bf023c 	lui	v0,0xbf88
1d01cd68:	446043ac 	sw	v1,24644(v0)
1d01cd6c:	0800e003 	jr	ra
1d01cd70:	648084a3 	sb	a0,-32668(gp)
1d01cd74:	0800e003 	jr	ra
1d01cd78:	64808293 	lbu	v0,-32668(gp)
1d01cd7c:	d0ffbd27 	addiu	sp,sp,-48
1d01cd80:	2c00bfaf 	sw	ra,44(sp)
1d01cd84:	2800b5af 	sw	s5,40(sp)
1d01cd88:	2400b4af 	sw	s4,36(sp)
1d01cd8c:	2000b3af 	sw	s3,32(sp)
1d01cd90:	1c00b2af 	sw	s2,28(sp)
1d01cd94:	1800b1af 	sw	s1,24(sp)
1d01cd98:	1400b0af 	sw	s0,20(sp)
1d01cd9c:	01a0123c 	lui	s2,0xa001
1d01cda0:	083c40a2 	sb	zero,15368(s2)
1d01cda4:	88bf153c 	lui	s5,0xbf88
1d01cda8:	1000113c 	lui	s1,0x10
1d01cdac:	6410b1ae 	sw	s1,4196(s5)
1d01cdb0:	00801334 	li	s3,0x8000
1d01cdb4:	80bf023c 	lui	v0,0xbf80
1d01cdb8:	040e53ac 	sw	s3,3588(v0)
1d01cdbc:	88bf143c 	lui	s4,0xbf88
1d01cdc0:	02001024 	li	s0,2
1d01cdc4:	741090ae 	sw	s0,4212(s4)
1d01cdc8:	81bf023c 	lui	v0,0xbf81
1d01cdcc:	049053ac 	sw	s3,-28668(v0)
1d01cdd0:	083c4226 	addiu	v0,s2,15368
1d01cdd4:	010040a0 	sb	zero,1(v0)
1d01cdd8:	ed87400f 	jal	0x1d021fb4
1d01cddc:	03000424 	li	a0,3
1d01cde0:	30000324 	li	v1,48
1d01cde4:	80bf023c 	lui	v0,0xbf80
1d01cde8:	000e43ac 	sw	v1,3584(v0)
1d01cdec:	80bf023c 	lui	v0,0xbf80
1d01cdf0:	100e40ac 	sw	zero,3600(v0)
1d01cdf4:	e2040324 	li	v1,1250
1d01cdf8:	80bf023c 	lui	v0,0xbf80
1d01cdfc:	200e43ac 	sw	v1,3616(v0)
1d01ce00:	80bf023c 	lui	v0,0xbf80
1d01ce04:	080e53ac 	sw	s3,3592(v0)
1d01ce08:	88bf023c 	lui	v0,0xbf88
1d01ce0c:	341051ac 	sw	s1,4148(v0)
1d01ce10:	88bf033c 	lui	v1,0xbf88
1d01ce14:	1c000224 	li	v0,28
1d01ce18:	e41062ac 	sw	v0,4324(v1)
1d01ce1c:	88bf023c 	lui	v0,0xbf88
1d01ce20:	08000424 	li	a0,8
1d01ce24:	e81044ac 	sw	a0,4328(v0)
1d01ce28:	03000424 	li	a0,3
1d01ce2c:	e41064ac 	sw	a0,4324(v1)
1d01ce30:	e81040ac 	sw	zero,4328(v0)
1d01ce34:	6410b1ae 	sw	s1,4196(s5)
1d01ce38:	88bf023c 	lui	v0,0xbf88
1d01ce3c:	681051ac 	sw	s1,4200(v0)
1d01ce40:	88bf023c 	lui	v0,0xbf88
1d01ce44:	441050ac 	sw	s0,4164(v0)
1d01ce48:	88bf033c 	lui	v1,0xbf88
1d01ce4c:	001c023c 	lui	v0,0x1c00
1d01ce50:	f41062ac 	sw	v0,4340(v1)
1d01ce54:	88bf023c 	lui	v0,0xbf88
1d01ce58:	000c043c 	lui	a0,0xc00
1d01ce5c:	f81044ac 	sw	a0,4344(v0)
1d01ce60:	0003043c 	lui	a0,0x300
1d01ce64:	f41064ac 	sw	a0,4340(v1)
1d01ce68:	f81040ac 	sw	zero,4344(v0)
1d01ce6c:	741090ae 	sw	s0,4212(s4)
1d01ce70:	88bf023c 	lui	v0,0xbf88
1d01ce74:	781050ac 	sw	s0,4216(v0)
1d01ce78:	01000224 	li	v0,1
1d01ce7c:	083c42a2 	sb	v0,15368(s2)
1d01ce80:	2c00bf8f 	lw	ra,44(sp)
1d01ce84:	2800b58f 	lw	s5,40(sp)
1d01ce88:	2400b48f 	lw	s4,36(sp)
1d01ce8c:	2000b38f 	lw	s3,32(sp)
1d01ce90:	1c00b28f 	lw	s2,28(sp)
1d01ce94:	1800b18f 	lw	s1,24(sp)
1d01ce98:	1400b08f 	lw	s0,20(sp)
1d01ce9c:	0800e003 	jr	ra
1d01cea0:	3000bd27 	addiu	sp,sp,48
1d01cea4:	e8ffbd27 	addiu	sp,sp,-24
1d01cea8:	1400bfaf 	sw	ra,20(sp)
1d01ceac:	01a0023c 	lui	v0,0xa001
1d01ceb0:	083c4290 	lbu	v0,15368(v0)
1d01ceb4:	ff004230 	andi	v0,v0,0xff
1d01ceb8:	04004014 	bnez	v0,0x1d01cecc
1d01cebc:	01a0023c 	lui	v0,0xa001
1d01cec0:	5f73400f 	jal	0x1d01cd7c
1d01cec4:	00000000 	nop
1d01cec8:	01a0023c 	lui	v0,0xa001
1d01cecc:	083c4224 	addiu	v0,v0,15368
1d01ced0:	03004290 	lbu	v0,3(v0)
1d01ced4:	ff004230 	andi	v0,v0,0xff
1d01ced8:	07004010 	beqz	v0,0x1d01cef8
1d01cedc:	1400bf8f 	lw	ra,20(sp)
1d01cee0:	01a0023c 	lui	v0,0xa001
1d01cee4:	083c4224 	addiu	v0,v0,15368
1d01cee8:	030040a0 	sb	zero,3(v0)
1d01ceec:	ec29400f 	jal	0x1d00a7b0
1d01cef0:	00000000 	nop
1d01cef4:	1400bf8f 	lw	ra,20(sp)
1d01cef8:	0800e003 	jr	ra
1d01cefc:	1800bd27 	addiu	sp,sp,24
1d01cf00:	01a0023c 	lui	v0,0xa001
1d01cf04:	083c4224 	addiu	v0,v0,15368
1d01cf08:	02004290 	lbu	v0,2(v0)
1d01cf0c:	0800e003 	jr	ra
1d01cf10:	ff004230 	andi	v0,v0,0xff
1d01cf14:	01a0023c 	lui	v0,0xa001
1d01cf18:	083c4224 	addiu	v0,v0,15368
1d01cf1c:	0c004290 	lbu	v0,12(v0)
1d01cf20:	0800e003 	jr	ra
1d01cf24:	ff004230 	andi	v0,v0,0xff
1d01cf28:	01a0023c 	lui	v0,0xa001
1d01cf2c:	083c4224 	addiu	v0,v0,15368
1d01cf30:	0d004290 	lbu	v0,13(v0)
1d01cf34:	0800e003 	jr	ra
1d01cf38:	ff004230 	andi	v0,v0,0xff
1d01cf3c:	01a0023c 	lui	v0,0xa001
1d01cf40:	083c4224 	addiu	v0,v0,15368
1d01cf44:	0400428c 	lw	v0,4(v0)
1d01cf48:	0800e003 	jr	ra
1d01cf4c:	00000000 	nop
1d01cf50:	01a0023c 	lui	v0,0xa001
1d01cf54:	083c4224 	addiu	v0,v0,15368
1d01cf58:	0800428c 	lw	v0,8(v0)
1d01cf5c:	0800e003 	jr	ra
1d01cf60:	00000000 	nop
1d01cf64:	00e85d41 	rdpgpr	sp,sp
1d01cf68:	00701b40 	mfc0	k1,c0_epc
1d01cf6c:	02601a40 	mfc0	k0,c0_srsctl
1d01cf70:	e0ffbd27 	addiu	sp,sp,-32
1d01cf74:	1c00bbaf 	sw	k1,28(sp)
1d01cf78:	00601b40 	mfc0	k1,c0_status
1d01cf7c:	1400baaf 	sw	k0,20(sp)
1d01cf80:	1800bbaf 	sw	k1,24(sp)
1d01cf84:	44781b7c 	ins	k1,zero,0x1,0xf
1d01cf88:	00087b37 	ori	k1,k1,0x800
1d01cf8c:	00609b40 	mtc0	k1,c0_status
1d01cf90:	0800a3af 	sw	v1,8(sp)
1d01cf94:	0400a2af 	sw	v0,4(sp)
1d01cf98:	0c00a4af 	sw	a0,12(sp)
1d01cf9c:	01a0023c 	lui	v0,0xa001
1d01cfa0:	083c4224 	addiu	v0,v0,15368
1d01cfa4:	01004290 	lbu	v0,1(v0)
1d01cfa8:	ff004230 	andi	v0,v0,0xff
1d01cfac:	0c004014 	bnez	v0,0x1d01cfe0
1d01cfb0:	01a0023c 	lui	v0,0xa001
1d01cfb4:	01000324 	li	v1,1
1d01cfb8:	083c4224 	addiu	v0,v0,15368
1d01cfbc:	010043a0 	sb	v1,1(v0)
1d01cfc0:	02000324 	li	v1,2
1d01cfc4:	88bf023c 	lui	v0,0xbf88
1d01cfc8:	441043ac 	sw	v1,4164(v0)
1d01cfcc:	04000324 	li	v1,4
1d01cfd0:	81bf023c 	lui	v0,0xbf81
1d01cfd4:	089043ac 	sw	v1,-28664(v0)
1d01cfd8:	0574400b 	j	0x1d01d014
1d01cfdc:	1000033c 	lui	v1,0x10
1d01cfe0:	083c40a0 	sb	zero,15368(v0)
1d01cfe4:	1000033c 	lui	v1,0x10
1d01cfe8:	88bf023c 	lui	v0,0xbf88
1d01cfec:	641043ac 	sw	v1,4196(v0)
1d01cff0:	00800234 	li	v0,0x8000
1d01cff4:	80bf033c 	lui	v1,0xbf80
1d01cff8:	040e62ac 	sw	v0,3588(v1)
1d01cffc:	02000424 	li	a0,2
1d01d000:	88bf033c 	lui	v1,0xbf88
1d01d004:	741064ac 	sw	a0,4212(v1)
1d01d008:	81bf033c 	lui	v1,0xbf81
1d01d00c:	049062ac 	sw	v0,-28668(v1)
1d01d010:	1000033c 	lui	v1,0x10
1d01d014:	88bf023c 	lui	v0,0xbf88
1d01d018:	341043ac 	sw	v1,4148(v0)
1d01d01c:	1400a28f 	lw	v0,20(sp)
1d01d020:	0f004230 	andi	v0,v0,0xf
1d01d024:	04004014 	bnez	v0,0x1d01d038
1d01d028:	00000000 	nop
1d01d02c:	0c00a48f 	lw	a0,12(sp)
1d01d030:	0800a38f 	lw	v1,8(sp)
1d01d034:	0400a28f 	lw	v0,4(sp)
1d01d038:	00606041 	di
1d01d03c:	c0000000 	ehb
1d01d040:	1c00ba8f 	lw	k0,28(sp)
1d01d044:	1800bb8f 	lw	k1,24(sp)
1d01d048:	00709a40 	mtc0	k0,c0_epc
1d01d04c:	1400ba8f 	lw	k0,20(sp)
1d01d050:	2000bd27 	addiu	sp,sp,32
1d01d054:	02609a40 	mtc0	k0,c0_srsctl
1d01d058:	00e8dd41 	wrpgpr	sp,sp
1d01d05c:	00609b40 	mtc0	k1,c0_status
1d01d060:	18000042 	eret
1d01d064:	00e85d41 	rdpgpr	sp,sp
1d01d068:	00701b40 	mfc0	k1,c0_epc
1d01d06c:	02601a40 	mfc0	k0,c0_srsctl
1d01d070:	90ffbd27 	addiu	sp,sp,-112
1d01d074:	6c00bbaf 	sw	k1,108(sp)
1d01d078:	00601b40 	mfc0	k1,c0_status
1d01d07c:	6400baaf 	sw	k0,100(sp)
1d01d080:	6800bbaf 	sw	k1,104(sp)
1d01d084:	44781b7c 	ins	k1,zero,0x1,0xf
1d01d088:	000c7b37 	ori	k1,k1,0xc00
1d01d08c:	00609b40 	mtc0	k1,c0_status
1d01d090:	1800a3af 	sw	v1,24(sp)
1d01d094:	1400a2af 	sw	v0,20(sp)
1d01d098:	6400a38f 	lw	v1,100(sp)
1d01d09c:	0f006330 	andi	v1,v1,0xf
1d01d0a0:	11006014 	bnez	v1,0x1d01d0e8
1d01d0a4:	00000000 	nop
1d01d0a8:	5400bfaf 	sw	ra,84(sp)
1d01d0ac:	5000b9af 	sw	t9,80(sp)
1d01d0b0:	4c00b8af 	sw	t8,76(sp)
1d01d0b4:	4800afaf 	sw	t7,72(sp)
1d01d0b8:	4400aeaf 	sw	t6,68(sp)
1d01d0bc:	4000adaf 	sw	t5,64(sp)
1d01d0c0:	3c00acaf 	sw	t4,60(sp)
1d01d0c4:	3800abaf 	sw	t3,56(sp)
1d01d0c8:	3400aaaf 	sw	t2,52(sp)
1d01d0cc:	3000a9af 	sw	t1,48(sp)
1d01d0d0:	2c00a8af 	sw	t0,44(sp)
1d01d0d4:	2800a7af 	sw	a3,40(sp)
1d01d0d8:	2400a6af 	sw	a2,36(sp)
1d01d0dc:	2000a5af 	sw	a1,32(sp)
1d01d0e0:	1c00a4af 	sw	a0,28(sp)
1d01d0e4:	1000a1af 	sw	at,16(sp)
1d01d0e8:	12100000 	mflo	v0
1d01d0ec:	5c00a2af 	sw	v0,92(sp)
1d01d0f0:	10180000 	mfhi	v1
1d01d0f4:	5800a3af 	sw	v1,88(sp)
1d01d0f8:	81bf023c 	lui	v0,0xbf81
1d01d0fc:	7090428c 	lw	v0,-28560(v0)
1d01d100:	5c8082af 	sw	v0,-32676(gp)
1d01d104:	81bf033c 	lui	v1,0xbf81
1d01d108:	8090638c 	lw	v1,-28544(v1)
1d01d10c:	608083af 	sw	v1,-32672(gp)
1d01d110:	0401432c 	sltiu	v1,v0,260
1d01d114:	18006010 	beqz	v1,0x1d01d178
1d01d118:	2b01422c 	sltiu	v0,v0,299
1d01d11c:	54808327 	addiu	v1,gp,-32684
1d01d120:	0000628c 	lw	v0,0(v1)
1d01d124:	01004224 	addiu	v0,v0,1
1d01d128:	000062ac 	sw	v0,0(v1)
1d01d12c:	0300422c 	sltiu	v0,v0,3
1d01d130:	1b004014 	bnez	v0,0x1d01d1a0
1d01d134:	6080828f 	lw	v0,-32672(gp)
1d01d138:	01a0023c 	lui	v0,0xa001
1d01d13c:	083c4224 	addiu	v0,v0,15368
1d01d140:	0c0040a0 	sb	zero,12(v0)
1d01d144:	02004290 	lbu	v0,2(v0)
1d01d148:	ff004230 	andi	v0,v0,0xff
1d01d14c:	14004054 	bnezl	v0,0x1d01d1a0
1d01d150:	6080828f 	lw	v0,-32672(gp)
1d01d154:	01a0023c 	lui	v0,0xa001
1d01d158:	083c4224 	addiu	v0,v0,15368
1d01d15c:	01000324 	li	v1,1
1d01d160:	020043a0 	sb	v1,2(v0)
1d01d164:	030043a0 	sb	v1,3(v0)
1d01d168:	e529400f 	jal	0x1d00a794
1d01d16c:	00000000 	nop
1d01d170:	6874400b 	j	0x1d01d1a0
1d01d174:	6080828f 	lw	v0,-32672(gp)
1d01d178:	08004054 	bnezl	v0,0x1d01d19c
1d01d17c:	548080af 	sw	zero,-32684(gp)
1d01d180:	01a0023c 	lui	v0,0xa001
1d01d184:	083c4224 	addiu	v0,v0,15368
1d01d188:	01000324 	li	v1,1
1d01d18c:	0c0043a0 	sb	v1,12(v0)
1d01d190:	020040a0 	sb	zero,2(v0)
1d01d194:	030040a0 	sb	zero,3(v0)
1d01d198:	548080af 	sw	zero,-32684(gp)
1d01d19c:	6080828f 	lw	v0,-32672(gp)
1d01d1a0:	0401432c 	sltiu	v1,v0,260
1d01d1a4:	0c006010 	beqz	v1,0x1d01d1d8
1d01d1a8:	2b01422c 	sltiu	v0,v0,299
1d01d1ac:	58808327 	addiu	v1,gp,-32680
1d01d1b0:	0000628c 	lw	v0,0(v1)
1d01d1b4:	01004224 	addiu	v0,v0,1
1d01d1b8:	000062ac 	sw	v0,0(v1)
1d01d1bc:	0300422c 	sltiu	v0,v0,3
1d01d1c0:	0d004014 	bnez	v0,0x1d01d1f8
1d01d1c4:	01a0023c 	lui	v0,0xa001
1d01d1c8:	083c4224 	addiu	v0,v0,15368
1d01d1cc:	0d0040a0 	sb	zero,13(v0)
1d01d1d0:	7e74400b 	j	0x1d01d1f8
1d01d1d4:	01a0023c 	lui	v0,0xa001
1d01d1d8:	06004054 	bnezl	v0,0x1d01d1f4
1d01d1dc:	588080af 	sw	zero,-32680(gp)
1d01d1e0:	01000324 	li	v1,1
1d01d1e4:	01a0023c 	lui	v0,0xa001
1d01d1e8:	083c4224 	addiu	v0,v0,15368
1d01d1ec:	0d0043a0 	sb	v1,13(v0)
1d01d1f0:	588080af 	sw	zero,-32680(gp)
1d01d1f4:	01a0023c 	lui	v0,0xa001
1d01d1f8:	083c4224 	addiu	v0,v0,15368
1d01d1fc:	5c80838f 	lw	v1,-32676(gp)
1d01d200:	040043ac 	sw	v1,4(v0)
1d01d204:	6080838f 	lw	v1,-32672(gp)
1d01d208:	080043ac 	sw	v1,8(v0)
1d01d20c:	010040a0 	sb	zero,1(v0)
1d01d210:	02000324 	li	v1,2
1d01d214:	88bf023c 	lui	v0,0xbf88
1d01d218:	441043ac 	sw	v1,4164(v0)
1d01d21c:	5c00a28f 	lw	v0,92(sp)
1d01d220:	13004000 	mtlo	v0
1d01d224:	5800a38f 	lw	v1,88(sp)
1d01d228:	11006000 	mthi	v1
1d01d22c:	6400a28f 	lw	v0,100(sp)
1d01d230:	0f004230 	andi	v0,v0,0xf
1d01d234:	13004014 	bnez	v0,0x1d01d284
1d01d238:	00000000 	nop
1d01d23c:	5400bf8f 	lw	ra,84(sp)
1d01d240:	5000b98f 	lw	t9,80(sp)
1d01d244:	4c00b88f 	lw	t8,76(sp)
1d01d248:	4800af8f 	lw	t7,72(sp)
1d01d24c:	4400ae8f 	lw	t6,68(sp)
1d01d250:	4000ad8f 	lw	t5,64(sp)
1d01d254:	3c00ac8f 	lw	t4,60(sp)
1d01d258:	3800ab8f 	lw	t3,56(sp)
1d01d25c:	3400aa8f 	lw	t2,52(sp)
1d01d260:	3000a98f 	lw	t1,48(sp)
1d01d264:	2c00a88f 	lw	t0,44(sp)
1d01d268:	2800a78f 	lw	a3,40(sp)
1d01d26c:	2400a68f 	lw	a2,36(sp)
1d01d270:	2000a58f 	lw	a1,32(sp)
1d01d274:	1c00a48f 	lw	a0,28(sp)
1d01d278:	1800a38f 	lw	v1,24(sp)
1d01d27c:	1400a28f 	lw	v0,20(sp)
1d01d280:	1000a18f 	lw	at,16(sp)
1d01d284:	00606041 	di
1d01d288:	c0000000 	ehb
1d01d28c:	6c00ba8f 	lw	k0,108(sp)
1d01d290:	6800bb8f 	lw	k1,104(sp)
1d01d294:	00709a40 	mtc0	k0,c0_epc
1d01d298:	6400ba8f 	lw	k0,100(sp)
1d01d29c:	7000bd27 	addiu	sp,sp,112
1d01d2a0:	02609a40 	mtc0	k0,c0_srsctl
1d01d2a4:	00e8dd41 	wrpgpr	sp,sp
1d01d2a8:	00609b40 	mtc0	k1,c0_status
1d01d2ac:	18000042 	eret

Disassembly of section .sec75:

1d01d2b0 <.sec75>:
1d01d2b0:	464f5244 	0x44524f46
1d01d2b4:	5f434434 	ori	a0,v0,0x435f
1d01d2b8:	20537465 	0x65745320
1d01d2bc:	65720000 	0x7265
1d01d2c0:	46515e17 	bne	k0,s8,0x1d0317dc
1d01d2c4:	a7db61a5 	sh	at,-9305(t3)
1d01d2c8:	37b847fc 	sdc3	$7,-18377(v0)
1d01d2cc:	e512074a 	c2	0x712e5
1d01d2d0:	95110180 	lb	at,4501(zero)
1d01d2d4:	66194d94 	lhu	t5,6502(v0)
1d01d2d8:	189cfe69 	0x69fe9c18
1d01d2dc:	7523dedd 	ldc3	$30,9077(t6)
1d01d2e0:	739e6ef7 	sdc1	$f14,-24973(k1)
1d01d2e4:	e981cca6 	sh	t4,-32279(s6)
1d01d2e8:	67eba232 	andi	v0,s5,0xeb67
1d01d2ec:	9b2f72d7 	ldc1	$f18,12187(k1)
1d01d2f0:	258e7cee 	swc3	$28,-29147(s3)
1d01d2f4:	a0153354 	bnel	at,s3,0x1d022978
1d01d2f8:	f691166d 	0x6d1691f6
1d01d2fc:	39afe865 	0x65e8af39
1d01d300:	e7d8924f 	c3	0x192d8e7
1d01d304:	ca4bda5d 	0x5dda4bca
1d01d308:	e4f24e36 	ori	t6,s2,0xf2e4
1d01d30c:	05b01fd0 	0xd01fb005
1d01d310:	6af82409 	j	0x1493e1a8
1d01d314:	c8f13fb1 	0xb13ff1c8
1d01d318:	7997988b 	lwl	t8,-26759(gp)
1d01d31c:	3dacb37d 	0x7db3ac3d
1d01d320:	bca3ff31 	andi	ra,t7,0xa3bc
1d01d324:	5f13d3d9 	ldc2	$19,4959(t6)
1d01d328:	6c2726b7 	0xb726276c
1d01d32c:	b4cead90 	lbu	t5,-12620(a1)
1d01d330:	e32dd502 	0x2d52de3
1d01d334:	1e7f0f34 	li	t7,0x7f1e
1d01d338:	417177c4 	lwc1	$f23,28993(v1)
1d01d33c:	2240f0f5 	sdc1	$f16,16418(t7)
1d01d340:	884ce630 	andi	a2,a3,0x4c88
1d01d344:	d620850e 	jal	0x1a148358
1d01d348:	f4c0a821 	addi	t0,t5,-16140
1d01d34c:	c9c3ed42 	c0	0xedc3c9
1d01d350:	450a48cf 	pref	0x8,2629(k0)
1d01d354:	60cb70c6 	lwc1	$f16,-13472(s3)
1d01d358:	891dfac5 	lwc1	$f26,7561(t7)
1d01d35c:	e264c79a 	lwr	a3,25826(s6)
1d01d360:	53d13cbf 	cache	0x1c,-11949(t9)
1d01d364:	eaaba429 	slti	a0,t5,-21526
1d01d368:	d48f0828 	slti	t0,zero,-28716
1d01d36c:	842bcd3e 	0x3ecd2b84
1d01d370:	5543b55a 	0x5ab54355
1d01d374:	c2040c8c 	lw	t4,1218(zero)
1d01d378:	58e0445c 	0x5c44e058
1d01d37c:	8357a9f3 	0xf3a95783
1d01d380:	ec35df93 	lbu	ra,13804(s8)
1d01d384:	aa1c3896 	lhu	t8,7338(s1)
1d01d388:	6fb999fd 	sdc3	$25,-18065(t4)
1d01d38c:	8ddc14a1 	sb	s4,-9075(t0)
1d01d390:	031ae100 	0xe11a03
1d01d394:	06ef5076 	jalx	0x1943bc18
1d01d398:	7452ba68 	0x68ba5274
1d01d39c:	2abe622e 	sltiu	v0,s3,-16854
1d01d3a0:	497a9dbb 	swr	sp,31305(gp)
1d01d3a4:	107bd2f9 	sdc2	$18,31504(t6)
1d01d3a8:	7e5b3ab6 	0xb63a5b7e
1d01d3ac:	860b6b9f 	0x9f6b0b86
1d01d3b0:	8a63c1bd 	cache	0x1,25482(t6)
1d01d3b4:	1bae593b 	xori	t9,k0,0xae1b
1d01d3b8:	5687820d 	jal	0x160a1d58
1d01d3bc:	782cb2fb 	sdc2	$18,11384(sp)
1d01d3c0:	416c6c6f 	0x6f6c6c41
1d01d3c4:	7749676e 	0x6e674977
1d01d3c8:	6f726500 	0x65726f
1d01d3cc:	416c6c6f 	0x6f6c6c41
1d01d3d0:	77207468 	0x68742077
1d01d3d4:	65204947 	c1	0x1492065
1d01d3d8:	4e4f5245 	0x45524f4e
1d01d3dc:	20626974 	jalx	0x11a58880
1d01d3e0:	00000000 	nop
1d01d3e4:	4f766572 	0x7265764f
1d01d3e8:	72696465 	0x65646972
1d01d3ec:	54687265 	0x65726854
1d01d3f0:	73680000 	tltu	zero,zero,0x1a1
1d01d3f4:	4f766572 	0x7265764f
1d01d3f8:	72696465 	0x65646972
1d01d3fc:	20746872 	0x72687420
1d01d400:	6573686f 	0x6f687365
1d01d404:	6c642028 	slti	zero,at,25708
1d01d408:	4e6d2900 	0x296d4e
1d01d40c:	556e6c69 	0x696c6e55
1d01d410:	6d697465 	0x6574696d
1d01d414:	64537465 	0x65745364
1d01d418:	6572696e 	0x6e697265
1d01d41c:	67000000 	0x67
1d01d420:	556e6c69 	0x696c6e55
1d01d424:	6d697465 	0x6574696d
1d01d428:	64207374 	jalx	0x11cc8190
1d01d42c:	65657269 	0x69726565
1d01d430:	6e672076 	jalx	0x18819db8
1d01d434:	656c6f63 	0x636f6c65
1d01d438:	69747920 	addi	t9,v1,29801
1d01d43c:	7768656e 	0x6e656877
1d01d440:	20535645 	0x45565320
1d01d444:	4c3d302c 	sltiu	s0,at,15692
1d01d448:	206f7468 	0x68746f20
1d01d44c:	65727769 	0x69777265
1d01d450:	73652035 	ori	zero,t1,0x6573
1d01d454:	30302064 	0x64203030
1d01d458:	65672f73 	0x732f6765
1d01d45c:	00000000 	nop
1d01d460:	496e6869 	0x69686e49
1d01d464:	62697449 	0x49746962
1d01d468:	646c6553 	beql	k1,a1,0x1d0385fc
1d01d46c:	68757464 	0x64747568
1d01d470:	6f776e00 	0x6e776f
1d01d474:	496e6869 	0x69686e49
1d01d478:	62697420 	addi	s4,v1,26978
1d01d47c:	656e6769 	0x69676e65
1d01d480:	6e652069 	0x6920656e
1d01d484:	646c6520 	addi	a1,v1,27748
1d01d488:	73687574 	jalx	0x11d5a1cc
1d01d48c:	646f776e 	0x6e776f64
1d01d490:	20616674 	jalx	0x11998480
1d01d494:	65722033 	andi	zero,t9,0x7265
1d01d498:	30206d69 	0x696d2030
1d01d49c:	6e757465 	0x6574756e
1d01d4a0:	73000000 	tltu	zero,zero,0x1
1d01d4a4:	5475726e 	0x6e727554
1d01d4a8:	53696757 	bnel	k1,a3,0x1d0379f8
1d01d4ac:	6974684f 	msub.d	$f17,$f27,$f14,$f8
1d01d4b0:	76657272 	0x72726576
1d01d4b4:	69646500 	0x656469
1d01d4b8:	416c6c6f 	0x6f6c6c41
1d01d4bc:	77207475 	jalx	0x15d081dc
1d01d4c0:	726e2073 	0x73206e72
1d01d4c4:	69676e61 	0x616e6769
1d01d4c8:	6c20636f 	0x6f63206c
1d01d4cc:	6d6d616e 	0x6e616d6d
1d01d4d0:	64732077 	jalx	0x1c81cd90
1d01d4d4:	68656e20 	addi	t6,v1,25960
1d01d4d8:	6272616b 	0x6b617262
1d01d4dc:	652f7468 	0x68742f65
1d01d4e0:	726f7474 	jalx	0x11d1bdc8
1d01d4e4:	6c652f73 	0x732f656c
1d01d4e8:	74656572 	0x72656574
1d01d4ec:	696e6720 	addi	a3,v1,28265
1d01d4f0:	6f766572 	0x7265766f
1d01d4f4:	72696465 	0x65646972
1d01d4f8:	73206172 	0x72612073
1d01d4fc:	65206163 	0x63612065
1d01d500:	74697665 	0x65766974
1d01d504:	00000000 	nop
1d01d508:	57646353 	beql	k1,v1,0x1d036668
1d01d50c:	75707072 	0x72707075
1d01d510:	65737344 	0x44737365
1d01d514:	69736162 	0x62617369
1d01d518:	6c656400 	0x64656c
1d01d51c:	53757070 	udi3	v1,s0,t6,0x15
1d01d520:	72657373 	0x73736572
1d01d524:	20746865 	0x65687420
1d01d528:	20776174 	jalx	0x1185dc80
1d01d52c:	6368646f 	0x6f646863
1d01d530:	6720636f 	0x6f632067
1d01d534:	756e7465 	0x65746e75
1d01d538:	72205858 	0x58582072
1d01d53c:	585f4449 	0x49445f58
1d01d540:	5341424c 	0x4c424153
1d01d544:	45442066 	0x66204445
1d01d548:	61756c74 	jalx	0x11b1d584
1d01d54c:	20636f6e 	0x6e6f6320
1d01d550:	64697469 	0x69746964
1d01d554:	6f6e7320 	addi	s3,v1,28271
1d01d558:	28747261 	0x61727428
1d01d55c:	6e736974 	jalx	0x11a5cdb8
1d01d560:	696f6e20 	addi	t6,v1,28521
1d01d564:	66726f6d 	0x6d6f7266
1d01d568:	20656e61 	0x616e6520
1d01d56c:	626c6564 	0x64656c62
1d01d570:	20746f20 	addi	t7,v1,29728
1d01d574:	64697361 	0x61736964
1d01d578:	626c6564 	0x64656c62
1d01d57c:	20776974 	jalx	0x11a5dc80
1d01d580:	686f7574 	jalx	0x11d5bda0
1d01d584:	206f7665 	0x65766f20
1d01d588:	72726964 	0x64697272
1d01d58c:	65290000 	0x2965
1d01d590:	4c617441 	0x4174614c
1d01d594:	6363656c 	0x6c656363
1d01d598:	4c696d69 	0x696d694c
1d01d59c:	74000000 	teq	zero,zero,0x1
1d01d5a0:	4c696d69 	0x696d694c
1d01d5a4:	74732074 	jalx	0x1081cdd0
1d01d5a8:	68652073 	0x73206568
1d01d5ac:	74656572 	0x72656574
1d01d5b0:	696e6720 	addi	a3,v1,28265
1d01d5b4:	616e676c 	0x6c676e61
1d01d5b8:	6520636f 	0x6f632065
1d01d5bc:	6d6d616e 	0x6e616d6d
1d01d5c0:	64206f75 	jalx	0x15bc8190
1d01d5c4:	74707574 	jalx	0x11d5c1d0
1d01d5c8:	20746f20 	addi	t7,v1,29728
1d01d5cc:	6e6f7420 	addi	s4,v1,28526
1d01d5d0:	65786365 	0x65637865
1d01d5d4:	65642074 	jalx	0x10819194
1d01d5d8:	68697320 	addi	s3,v1,26984
1d01d5dc:	616d6f75 	jalx	0x15bdb584
1d01d5e0:	6e74206f 	0x6f20746e
1d01d5e4:	66206c61 	0x616c2066
1d01d5e8:	74657261 	0x61726574
1d01d5ec:	6c206163 	0x6361206c
1d01d5f0:	63656c65 	0x656c6563
1d01d5f4:	72617469 	0x69746172
1d01d5f8:	6f6e2028 	slti	zero,at,28271
1d01d5fc:	6d2f735e 	0x5e732f6d
1d01d600:	32290000 	tlt	zero,zero,0xa4
1d01d604:	556c6353 	beql	k1,v1,0x1d03875c
1d01d608:	746f7054 	bnel	v1,s0,0x1d0393dc
1d01d60c:	6f727175 	jalx	0x15c5c9bc
1d01d610:	65000000 	0x65
1d01d614:	416d6f75 	jalx	0x15bdb504
1d01d618:	6e74206f 	0x6f20746e
1d01d61c:	66206272 	0x72622066
1d01d620:	616b6520 	addi	a1,v1,27489
1d01d624:	746f7271 	0x71726f74
1d01d628:	75652074 	jalx	0x108195d4
1d01d62c:	6f207573 	0x7375206f
1d01d630:	6520746f 	0x6f742065
1d01d634:	206b6565 	0x65656b20
1d01d638:	70207665 	0x65762070
1d01d63c:	6869636c 	0x6c636968
1d01d640:	65207374 	jalx	0x11cc8194
1d01d644:	6174696f 	0x6f697461
1d01d648:	6e617279 	0x7972616e
1d01d64c:	00000000 	nop
1d01d650:	556c634d 	0x4d636c55
1d01d654:	61737345 	0x45737361
1d01d658:	7374696d 	0x6d697473
1d01d65c:	61746500 	0x657461
1d01d660:	41707072 	0x72707041
1d01d664:	6f78696d 	0x6d69786f
1d01d668:	61746520 	addi	a1,v1,29793
1d01d66c:	6d617373 	0x7373616d
1d01d670:	206f6620 	addi	a2,v1,28448
1d01d674:	74686520 	addi	a1,v1,26740
1d01d678:	76656869 	0x69686576
1d01d67c:	636c6520 	addi	a1,v1,27747
1d01d680:	696e206b 	0x6b206e69
1d01d684:	696c6f67 	0x676f6c69
1d01d688:	72616d73 	0x736d6172
1d01d68c:	00000000 	nop
1d01d690:	556c6344 	0x44636c55
1d01d694:	65666175 	jalx	0x15859994
1d01d698:	6c744c61 	0x614c746c
1d01d69c:	74416363 	0x63634174
1d01d6a0:	656c0000 	0x6c65
1d01d6a4:	44656661 	0x61666544
1d01d6a8:	756c7420 	addi	s4,v1,27765
1d01d6ac:	6c617465 	0x6574616c
1d01d6b0:	72616c20 	addi	t4,v1,24946
1d01d6b4:	61636365 	0x65636361
1d01d6b8:	6c657261 	0x6172656c
1d01d6bc:	74696f6e 	0x6e6f6974
1d01d6c0:	206c696d 	0x6d696c20
1d01d6c4:	69742069 	0x69207469
1d01d6c8:	6e206d2f 	sltiu	t5,k1,8302
1d01d6cc:	735e322e 	sltiu	s2,s1,24179
1d01d6d0:	20557365 	0x65735520
1d01d6d4:	64206966 	0x66692064
1d01d6d8:	204c4154 	bnel	v0,at,0x1d03075c
1d01d6dc:	5f414343 	c0	0x143415f
1d01d6e0:	454c2073 	0x73204c45
1d01d6e4:	69676e61 	0x616e6769
1d01d6e8:	6c206973 	0x7369206c
1d01d6ec:	20307830 	andi	t8,v1,0x3020
1d01d6f0:	30206f72 	0x726f2030
1d01d6f4:	20696620 	addi	a2,v1,26912
1d01d6f8:	636f6e66 	0x666e6f63
1d01d6fc:	69677572 	0x72756769
1d01d700:	6174696f 	0x6f697461
1d01d704:	6e206d65 	0x656d206e
1d01d708:	73736167 	0x67617373
1d01d70c:	65207265 	0x65722065
1d01d710:	63656976 	jalx	0x19a5958c
1d01d714:	65206973 	0x73692065
1d01d718:	20696e20 	addi	t6,v1,26912
1d01d71c:	74696d65 	0x656d6974
1d01d720:	6f757400 	0x74756f
1d01d724:	556c6344 	0x44636c55
1d01d728:	65666175 	jalx	0x15859994
1d01d72c:	6c74416e 	0x6e41746c
1d01d730:	67416363 	0x63634167
1d01d734:	656c0000 	0x6c65
1d01d738:	44656661 	0x61666544
1d01d73c:	756c7420 	addi	s4,v1,27765
1d01d740:	616e6775 	jalx	0x159db984
1d01d744:	6c617220 	addi	s2,v1,24940
1d01d748:	61636365 	0x65636361
1d01d74c:	6c657261 	0x6172656c
1d01d750:	74696f6e 	0x6e6f6974
1d01d754:	206c696d 	0x6d696c20
1d01d758:	69742069 	0x69207469
1d01d75c:	6e207261 	0x6172206e
1d01d760:	642f735e 	0x5e732f64
1d01d764:	322e2055 	bnezl	t1,0x1d029030
1d01d768:	73656420 	addi	a0,v1,25971
1d01d76c:	69662041 	0x41206669
1d01d770:	4e475f41 	0x415f474e
1d01d774:	4343454c 	0x4c454343
1d01d778:	20736967 	0x67697320
1d01d77c:	6e616c20 	addi	t4,v1,24942
1d01d780:	69732030 	andi	zero,at,0x7369
1d01d784:	78303020 	addi	s0,at,12408
1d01d788:	6f722069 	0x6920726f
1d01d78c:	6620636f 	0x6f632066
1d01d790:	6e666967 	0x6769666e
1d01d794:	75726174 	jalx	0x1185c9d4
1d01d798:	696f6e20 	addi	t6,v1,28521
1d01d79c:	6d657373 	0x7373656d
1d01d7a0:	61676520 	addi	a1,v1,26465
1d01d7a4:	72656365 	0x65636572
1d01d7a8:	69766520 	addi	a1,v1,30313
1d01d7ac:	69732069 	0x69207369
1d01d7b0:	6e207469 	0x6974206e
1d01d7b4:	6d656f75 	jalx	0x15bd95b4
1d01d7b8:	74000000 	teq	zero,zero,0x1
1d01d7bc:	556c6344 	0x44636c55
1d01d7c0:	65666175 	jalx	0x15859994
1d01d7c4:	6c744c69 	0x694c746c
1d01d7c8:	6e446563 	0x6365446e
1d01d7cc:	656c0000 	0x6c65
1d01d7d0:	44656661 	0x61666544
1d01d7d4:	756c7420 	addi	s4,v1,27765
1d01d7d8:	6c696e65 	0x656e696c
1d01d7dc:	61722064 	0x64207261
1d01d7e0:	6563656c 	0x6c656365
1d01d7e4:	65726174 	jalx	0x1185c994
1d01d7e8:	696f6e20 	addi	t6,v1,28521
1d01d7ec:	6c696d69 	0x696d696c
1d01d7f0:	7420696e 	0x6e692074
1d01d7f4:	206d2f73 	0x732f6d20
1d01d7f8:	5e322e20 	addi	t6,at,12894
1d01d7fc:	55736564 	0x64657355
1d01d800:	20696620 	addi	a2,v1,26912
1d01d804:	4c494e5f 	0x5f4e494c
1d01d808:	44454345 	0x45434544
1d01d80c:	4c207369 	0x6973204c
1d01d810:	676e616c 	0x6c616e67
1d01d814:	20697320 	addi	s3,v1,26912
1d01d818:	30783030 	andi	s0,at,0x7830
1d01d81c:	206f7220 	addi	s2,v1,28448
1d01d820:	69662063 	0x63206669
1d01d824:	6f6e6669 	0x69666e6f
1d01d828:	67757261 	0x61727567
1d01d82c:	74696f6e 	0x6e6f6974
1d01d830:	206d6573 	0x73656d20
1d01d834:	73616765 	0x65676173
1d01d838:	20726563 	0x63657220
1d01d83c:	65697665 	0x65766965
1d01d840:	20697320 	addi	s3,v1,26912
1d01d844:	696e2074 	jalx	0x1081b9a4
1d01d848:	696d656f 	0x6f656d69
1d01d84c:	75740000 	0x7475

Disassembly of section .sec76:

1d01d850 <.sec76>:
1d01d850:	5200a004 	bltz	a1,0x1d01d99c
1d01d854:	21480000 	move	t1,zero
1d01d858:	5700e204 	bltzl	a3,0x1d01d9b8
1d01d85c:	23300600 	negu	a2,a2
1d01d860:	2140c000 	move	t0,a2
1d01d864:	21508000 	move	t2,a0
1d01d868:	4600e014 	bnez	a3,0x1d01d984
1d01d86c:	2118a000 	move	v1,a1
1d01d870:	2b10a600 	sltu	v0,a1,a2
1d01d874:	5d004010 	beqz	v0,0x1d01d9ec
1d01d878:	2010c270 	clz	v0,a2
1d01d87c:	08004050 	beqzl	v0,0x1d01d8a0
1d01d880:	022c0800 	srl	a1,t0,0x10
1d01d884:	23200200 	negu	a0,v0
1d01d888:	06208a00 	srlv	a0,t2,a0
1d01d88c:	04184500 	sllv	v1,a1,v0
1d01d890:	04404600 	sllv	t0,a2,v0
1d01d894:	25188300 	or	v1,a0,v1
1d01d898:	04504a00 	sllv	t2,t2,v0
1d01d89c:	022c0800 	srl	a1,t0,0x10
1d01d8a0:	1b006500 	divu	zero,v1,a1
1d01d8a4:	f401a000 	teq	a1,zero,0x7
1d01d8a8:	10600000 	mfhi	t4
1d01d8ac:	12580000 	mflo	t3
1d01d8b0:	ffff0731 	andi	a3,t0,0xffff
1d01d8b4:	02240a00 	srl	a0,t2,0x10
1d01d8b8:	12100000 	mflo	v0
1d01d8bc:	02306771 	mul	a2,t3,a3
1d01d8c0:	00640c00 	sll	t4,t4,0x10
1d01d8c4:	25208401 	or	a0,t4,a0
1d01d8c8:	2b608600 	sltu	t4,a0,a2
1d01d8cc:	1b006500 	divu	zero,v1,a1
1d01d8d0:	f401a000 	teq	a1,zero,0x7
1d01d8d4:	0b008011 	beqz	t4,0x1d01d904
1d01d8d8:	23188600 	subu	v1,a0,a2
1d01d8dc:	21208800 	addu	a0,a0,t0
1d01d8e0:	2b188800 	sltu	v1,a0,t0
1d01d8e4:	06006014 	bnez	v1,0x1d01d900
1d01d8e8:	ffff6225 	addiu	v0,t3,-1
1d01d8ec:	2b188600 	sltu	v1,a0,a2
1d01d8f0:	04006010 	beqz	v1,0x1d01d904
1d01d8f4:	23188600 	subu	v1,a0,a2
1d01d8f8:	feff6225 	addiu	v0,t3,-2
1d01d8fc:	21208800 	addu	a0,a0,t0
1d01d900:	23188600 	subu	v1,a0,a2
1d01d904:	ffff4a31 	andi	t2,t2,0xffff
1d01d908:	1b006500 	divu	zero,v1,a1
1d01d90c:	f401a000 	teq	a1,zero,0x7
1d01d910:	10580000 	mfhi	t3
1d01d914:	12300000 	mflo	a2
1d01d918:	12200000 	mflo	a0
1d01d91c:	0238c770 	mul	a3,a2,a3
1d01d920:	005c0b00 	sll	t3,t3,0x10
1d01d924:	25506a01 	or	t2,t3,t2
1d01d928:	2b584701 	sltu	t3,t2,a3
1d01d92c:	1b006500 	divu	zero,v1,a1
1d01d930:	f401a000 	teq	a1,zero,0x7
1d01d934:	09006051 	beqzl	t3,0x1d01d95c
1d01d938:	00140200 	sll	v0,v0,0x10
1d01d93c:	21504801 	addu	t2,t2,t0
1d01d940:	2b404801 	sltu	t0,t2,t0
1d01d944:	04000015 	bnez	t0,0x1d01d958
1d01d948:	ffffc424 	addiu	a0,a2,-1
1d01d94c:	2b384701 	sltu	a3,t2,a3
1d01d950:	feffc624 	addiu	a2,a2,-2
1d01d954:	0b20c700 	movn	a0,a2,a3
1d01d958:	00140200 	sll	v0,v0,0x10
1d01d95c:	25108200 	or	v0,a0,v0
1d01d960:	21180000 	move	v1,zero
1d01d964:	05002011 	beqz	t1,0x1d01d97c
1d01d968:	00000000 	nop
1d01d96c:	23100200 	negu	v0,v0
1d01d970:	2b200200 	sltu	a0,zero,v0
1d01d974:	23180300 	negu	v1,v1
1d01d978:	23186400 	subu	v1,v1,a0
1d01d97c:	0800e003 	jr	ra
1d01d980:	00000000 	nop
1d01d984:	2b10a700 	sltu	v0,a1,a3
1d01d988:	10004010 	beqz	v0,0x1d01d9cc
1d01d98c:	2040e870 	clz	t0,a3
1d01d990:	21180000 	move	v1,zero
1d01d994:	5976400b 	j	0x1d01d964
1d01d998:	21100000 	move	v0,zero
1d01d99c:	23200400 	negu	a0,a0
1d01d9a0:	2b100400 	sltu	v0,zero,a0
1d01d9a4:	23280500 	negu	a1,a1
1d01d9a8:	2328a200 	subu	a1,a1,v0
1d01d9ac:	acffe104 	bgez	a3,0x1d01d860
1d01d9b0:	ffff0924 	li	t1,-1
1d01d9b4:	23300600 	negu	a2,a2
1d01d9b8:	2b100600 	sltu	v0,zero,a2
1d01d9bc:	23380700 	negu	a3,a3
1d01d9c0:	27480900 	nor	t1,zero,t1
1d01d9c4:	1876400b 	j	0x1d01d860
1d01d9c8:	2338e200 	subu	a3,a3,v0
1d01d9cc:	7e000015 	bnez	t0,0x1d01dbc8
1d01d9d0:	20000224 	li	v0,32
1d01d9d4:	2b28e500 	sltu	a1,a3,a1
1d01d9d8:	c600a014 	bnez	a1,0x1d01dcf4
1d01d9dc:	21180000 	move	v1,zero
1d01d9e0:	2b108600 	sltu	v0,a0,a2
1d01d9e4:	5976400b 	j	0x1d01d964
1d01d9e8:	01004238 	xori	v0,v0,0x1
1d01d9ec:	0600c014 	bnez	a2,0x1d01da08
1d01d9f0:	20100271 	clz	v0,t0
1d01d9f4:	01000824 	li	t0,1
1d01d9f8:	1b000701 	divu	zero,t0,a3
1d01d9fc:	f401e000 	teq	a3,zero,0x7
1d01da00:	12400000 	mflo	t0
1d01da04:	20100271 	clz	v0,t0
1d01da08:	33004054 	bnezl	v0,0x1d01dad8
1d01da0c:	04404800 	sllv	t0,t0,v0
1d01da10:	2320a800 	subu	a0,a1,t0
1d01da14:	023c0800 	srl	a3,t0,0x10
1d01da18:	ffff0c31 	andi	t4,t0,0xffff
1d01da1c:	01000324 	li	v1,1
1d01da20:	02340a00 	srl	a2,t2,0x10
1d01da24:	1b008700 	divu	zero,a0,a3
1d01da28:	f401e000 	teq	a3,zero,0x7
1d01da2c:	10700000 	mfhi	t6
1d01da30:	12680000 	mflo	t5
1d01da34:	12100000 	mflo	v0
1d01da38:	0258ac71 	mul	t3,t5,t4
1d01da3c:	00740e00 	sll	t6,t6,0x10
1d01da40:	2530c601 	or	a2,t6,a2
1d01da44:	2b70cb00 	sltu	t6,a2,t3
1d01da48:	1b008700 	divu	zero,a0,a3
1d01da4c:	f401e000 	teq	a3,zero,0x7
1d01da50:	0900c011 	beqz	t6,0x1d01da78
1d01da54:	2328cb00 	subu	a1,a2,t3
1d01da58:	2130c800 	addu	a2,a2,t0
1d01da5c:	2b20c800 	sltu	a0,a2,t0
1d01da60:	04008014 	bnez	a0,0x1d01da74
1d01da64:	ffffa225 	addiu	v0,t5,-1
1d01da68:	2b20cb00 	sltu	a0,a2,t3
1d01da6c:	a3008054 	bnezl	a0,0x1d01dcfc
1d01da70:	feffa225 	addiu	v0,t5,-2
1d01da74:	2328cb00 	subu	a1,a2,t3
1d01da78:	ffff4a31 	andi	t2,t2,0xffff
1d01da7c:	1b00a700 	divu	zero,a1,a3
1d01da80:	f401e000 	teq	a3,zero,0x7
1d01da84:	10580000 	mfhi	t3
1d01da88:	12300000 	mflo	a2
1d01da8c:	12200000 	mflo	a0
1d01da90:	0260cc70 	mul	t4,a2,t4
1d01da94:	005c0b00 	sll	t3,t3,0x10
1d01da98:	25506a01 	or	t2,t3,t2
1d01da9c:	2b584c01 	sltu	t3,t2,t4
1d01daa0:	1b00a700 	divu	zero,a1,a3
1d01daa4:	f401e000 	teq	a3,zero,0x7
1d01daa8:	09006051 	beqzl	t3,0x1d01dad0
1d01daac:	00140200 	sll	v0,v0,0x10
1d01dab0:	21504801 	addu	t2,t2,t0
1d01dab4:	2b404801 	sltu	t0,t2,t0
1d01dab8:	04000015 	bnez	t0,0x1d01dacc
1d01dabc:	ffffc424 	addiu	a0,a2,-1
1d01dac0:	2b504c01 	sltu	t2,t2,t4
1d01dac4:	feffc624 	addiu	a2,a2,-2
1d01dac8:	0b20ca00 	movn	a0,a2,t2
1d01dacc:	00140200 	sll	v0,v0,0x10
1d01dad0:	5976400b 	j	0x1d01d964
1d01dad4:	25108200 	or	v0,a0,v0
1d01dad8:	20000324 	li	v1,32
1d01dadc:	23186200 	subu	v1,v1,v0
1d01dae0:	06306500 	srlv	a2,a1,v1
1d01dae4:	023c0800 	srl	a3,t0,0x10
1d01dae8:	1b00c700 	divu	zero,a2,a3
1d01daec:	f401e000 	teq	a3,zero,0x7
1d01daf0:	10780000 	mfhi	t7
1d01daf4:	12680000 	mflo	t5
1d01daf8:	ffff0c31 	andi	t4,t0,0xffff
1d01dafc:	04284500 	sllv	a1,a1,v0
1d01db00:	06186400 	srlv	v1,a0,v1
1d01db04:	25286500 	or	a1,v1,a1
1d01db08:	02740500 	srl	t6,a1,0x10
1d01db0c:	04504400 	sllv	t2,a0,v0
1d01db10:	12180000 	mflo	v1
1d01db14:	0258ac71 	mul	t3,t5,t4
1d01db18:	00140f00 	sll	v0,t7,0x10
1d01db1c:	2510c201 	or	v0,t6,v0
1d01db20:	2b204b00 	sltu	a0,v0,t3
1d01db24:	1b00c700 	divu	zero,a2,a3
1d01db28:	f401e000 	teq	a3,zero,0x7
1d01db2c:	0b008050 	beqzl	a0,0x1d01db5c
1d01db30:	23104b00 	subu	v0,v0,t3
1d01db34:	21104800 	addu	v0,v0,t0
1d01db38:	2b204800 	sltu	a0,v0,t0
1d01db3c:	06008014 	bnez	a0,0x1d01db58
1d01db40:	ffffa325 	addiu	v1,t5,-1
1d01db44:	2b204b00 	sltu	a0,v0,t3
1d01db48:	04008050 	beqzl	a0,0x1d01db5c
1d01db4c:	23104b00 	subu	v0,v0,t3
1d01db50:	feffa325 	addiu	v1,t5,-2
1d01db54:	21104800 	addu	v0,v0,t0
1d01db58:	23104b00 	subu	v0,v0,t3
1d01db5c:	ffffad30 	andi	t5,a1,0xffff
1d01db60:	1b004700 	divu	zero,v0,a3
1d01db64:	f401e000 	teq	a3,zero,0x7
1d01db68:	10200000 	mfhi	a0
1d01db6c:	12580000 	mflo	t3
1d01db70:	12300000 	mflo	a2
1d01db74:	02286c71 	mul	a1,t3,t4
1d01db78:	00240400 	sll	a0,a0,0x10
1d01db7c:	25208d00 	or	a0,a0,t5
1d01db80:	2b688500 	sltu	t5,a0,a1
1d01db84:	1b004700 	divu	zero,v0,a3
1d01db88:	f401e000 	teq	a3,zero,0x7
1d01db8c:	0b00a051 	beqzl	t5,0x1d01dbbc
1d01db90:	001c0300 	sll	v1,v1,0x10
1d01db94:	21208800 	addu	a0,a0,t0
1d01db98:	2b108800 	sltu	v0,a0,t0
1d01db9c:	06004014 	bnez	v0,0x1d01dbb8
1d01dba0:	ffff6625 	addiu	a2,t3,-1
1d01dba4:	2b108500 	sltu	v0,a0,a1
1d01dba8:	04004050 	beqzl	v0,0x1d01dbbc
1d01dbac:	001c0300 	sll	v1,v1,0x10
1d01dbb0:	feff6625 	addiu	a2,t3,-2
1d01dbb4:	21208800 	addu	a0,a0,t0
1d01dbb8:	001c0300 	sll	v1,v1,0x10
1d01dbbc:	23208500 	subu	a0,a0,a1
1d01dbc0:	8876400b 	j	0x1d01da20
1d01dbc4:	2518c300 	or	v1,a2,v1
1d01dbc8:	23104800 	subu	v0,v0,t0
1d01dbcc:	04380701 	sllv	a3,a3,t0
1d01dbd0:	06184600 	srlv	v1,a2,v0
1d01dbd4:	25386700 	or	a3,v1,a3
1d01dbd8:	06584500 	srlv	t3,a1,v0
1d01dbdc:	021c0700 	srl	v1,a3,0x10
1d01dbe0:	1b006301 	divu	zero,t3,v1
1d01dbe4:	f4016000 	teq	v1,zero,0x7
1d01dbe8:	10500000 	mfhi	t2
1d01dbec:	12700000 	mflo	t6
1d01dbf0:	ffffec30 	andi	t4,a3,0xffff
1d01dbf4:	04280501 	sllv	a1,a1,t0
1d01dbf8:	06104400 	srlv	v0,a0,v0
1d01dbfc:	25284500 	or	a1,v0,a1
1d01dc00:	027c0500 	srl	t7,a1,0x10
1d01dc04:	12100000 	mflo	v0
1d01dc08:	0268cc71 	mul	t5,t6,t4
1d01dc0c:	00540a00 	sll	t2,t2,0x10
1d01dc10:	25504f01 	or	t2,t2,t7
1d01dc14:	2b784d01 	sltu	t7,t2,t5
1d01dc18:	1b006301 	divu	zero,t3,v1
1d01dc1c:	f4016000 	teq	v1,zero,0x7
1d01dc20:	0a00e011 	beqz	t7,0x1d01dc4c
1d01dc24:	04300601 	sllv	a2,a2,t0
1d01dc28:	21504701 	addu	t2,t2,a3
1d01dc2c:	2b584701 	sltu	t3,t2,a3
1d01dc30:	06006015 	bnez	t3,0x1d01dc4c
1d01dc34:	ffffc225 	addiu	v0,t6,-1
1d01dc38:	2b584d01 	sltu	t3,t2,t5
1d01dc3c:	04006051 	beqzl	t3,0x1d01dc50
1d01dc40:	23504d01 	subu	t2,t2,t5
1d01dc44:	feffc225 	addiu	v0,t6,-2
1d01dc48:	21504701 	addu	t2,t2,a3
1d01dc4c:	23504d01 	subu	t2,t2,t5
1d01dc50:	ffffa530 	andi	a1,a1,0xffff
1d01dc54:	1b004301 	divu	zero,t2,v1
1d01dc58:	f4016000 	teq	v1,zero,0x7
1d01dc5c:	10700000 	mfhi	t6
1d01dc60:	12680000 	mflo	t5
1d01dc64:	12580000 	mflo	t3
1d01dc68:	0260ac71 	mul	t4,t5,t4
1d01dc6c:	00740e00 	sll	t6,t6,0x10
1d01dc70:	2528c501 	or	a1,t6,a1
1d01dc74:	2b70ac00 	sltu	t6,a1,t4
1d01dc78:	1b004301 	divu	zero,t2,v1
1d01dc7c:	f4016000 	teq	v1,zero,0x7
1d01dc80:	0b00c051 	beqzl	t6,0x1d01dcb0
1d01dc84:	00140200 	sll	v0,v0,0x10
1d01dc88:	2128a700 	addu	a1,a1,a3
1d01dc8c:	2b18a700 	sltu	v1,a1,a3
1d01dc90:	06006014 	bnez	v1,0x1d01dcac
1d01dc94:	ffffab25 	addiu	t3,t5,-1
1d01dc98:	2b18ac00 	sltu	v1,a1,t4
1d01dc9c:	04006050 	beqzl	v1,0x1d01dcb0
1d01dca0:	00140200 	sll	v0,v0,0x10
1d01dca4:	feffab25 	addiu	t3,t5,-2
1d01dca8:	2128a700 	addu	a1,a1,a3
1d01dcac:	00140200 	sll	v0,v0,0x10
1d01dcb0:	25106201 	or	v0,t3,v0
1d01dcb4:	2328ac00 	subu	a1,a1,t4
1d01dcb8:	19004600 	multu	v0,a2
1d01dcbc:	10380000 	mfhi	a3
1d01dcc0:	2b18a700 	sltu	v1,a1,a3
1d01dcc4:	08006014 	bnez	v1,0x1d01dce8
1d01dcc8:	12300000 	mflo	a2
1d01dccc:	0300a750 	beql	a1,a3,0x1d01dcdc
1d01dcd0:	04200401 	sllv	a0,a0,t0
1d01dcd4:	5976400b 	j	0x1d01d964
1d01dcd8:	21180000 	move	v1,zero
1d01dcdc:	2b308600 	sltu	a2,a0,a2
1d01dce0:	20ffc050 	beqzl	a2,0x1d01d964
1d01dce4:	21180000 	move	v1,zero
1d01dce8:	ffff4224 	addiu	v0,v0,-1
1d01dcec:	5976400b 	j	0x1d01d964
1d01dcf0:	21180000 	move	v1,zero
1d01dcf4:	5976400b 	j	0x1d01d964
1d01dcf8:	01000224 	li	v0,1
1d01dcfc:	9d76400b 	j	0x1d01da74
1d01dd00:	2130c800 	addu	a2,a2,t0
1d01dd04:	e8ffbd27 	addiu	sp,sp,-24
1d01dd08:	1400bfaf 	sw	ra,20(sp)
1d01dd0c:	1000b0af 	sw	s0,16(sp)
1d01dd10:	0400822c 	sltiu	v0,a0,4
1d01dd14:	27004010 	beqz	v0,0x1d01ddb4
1d01dd18:	21808000 	move	s0,a0
1d01dd1c:	0400a28c 	lw	v0,4(a1)
1d01dd20:	0007437c 	ext	v1,v0,0x1c,0x1
1d01dd24:	08006050 	beqzl	v1,0x1d01dd48
1d01dd28:	0000a28c 	lw	v0,0(a1)
1d01dd2c:	0000a48c 	lw	a0,0(a1)
1d01dd30:	ff078430 	andi	a0,a0,0x7ff
1d01dd34:	80240400 	sll	a0,a0,0x12
1d01dd38:	0400a28c 	lw	v0,4(a1)
1d01dd3c:	808a427c 	ext	v0,v0,0xa,0x12
1d01dd40:	5377400b 	j	0x1d01dd4c
1d01dd44:	25108200 	or	v0,a0,v0
1d01dd48:	ff074230 	andi	v0,v0,0x7ff
1d01dd4c:	19006010 	beqz	v1,0x1d01ddb4
1d01dd50:	de1f033c 	lui	v1,0x1fde
1d01dd54:	a1cb6334 	ori	v1,v1,0xcba1
1d01dd58:	21180302 	addu	v1,s0,v1
1d01dd5c:	16004314 	bne	v0,v1,0x1d01ddb8
1d01dd60:	1400bf8f 	lw	ra,20(sp)
1d01dd64:	0800a424 	addiu	a0,a1,8
1d01dd68:	029d053c 	lui	a1,0x9d02
1d01dd6c:	0c2ca524 	addiu	a1,a1,11276
1d01dd70:	0e89400f 	jal	0x1d022438
1d01dd74:	08000624 	li	a2,8
1d01dd78:	08004014 	bnez	v0,0x1d01dd9c
1d01dd7c:	80801000 	sll	s0,s0,0x2
1d01dd80:	01a0023c 	lui	v0,0xa001
1d01dd84:	183c4224 	addiu	v0,v0,15384
1d01dd88:	21800202 	addu	s0,s0,v0
1d01dd8c:	00000296 	lhu	v0,0(s0)
1d01dd90:	01004224 	addiu	v0,v0,1
1d01dd94:	6d77400b 	j	0x1d01ddb4
1d01dd98:	000002a6 	sh	v0,0(s0)
1d01dd9c:	01a0023c 	lui	v0,0xa001
1d01dda0:	183c4224 	addiu	v0,v0,15384
1d01dda4:	21800202 	addu	s0,s0,v0
1d01dda8:	02000296 	lhu	v0,2(s0)
1d01ddac:	01004224 	addiu	v0,v0,1
1d01ddb0:	020002a6 	sh	v0,2(s0)
1d01ddb4:	1400bf8f 	lw	ra,20(sp)
1d01ddb8:	1000b08f 	lw	s0,16(sp)
1d01ddbc:	0800e003 	jr	ra
1d01ddc0:	1800bd27 	addiu	sp,sp,24
1d01ddc4:	d0ffbd27 	addiu	sp,sp,-48
1d01ddc8:	2c00bfaf 	sw	ra,44(sp)
1d01ddcc:	2800b1af 	sw	s1,40(sp)
1d01ddd0:	2400b0af 	sw	s0,36(sp)
1d01ddd4:	21888000 	move	s1,a0
1d01ddd8:	00008390 	lbu	v1,0(a0)
1d01dddc:	50006324 	addiu	v1,v1,80
1d01dde0:	ff006330 	andi	v1,v1,0xff
1d01dde4:	1000632c 	sltiu	v1,v1,16
1d01dde8:	eb006010 	beqz	v1,0x1d01e198
1d01ddec:	21100000 	move	v0,zero
1d01ddf0:	2180a000 	move	s0,a1
1d01ddf4:	2120a000 	move	a0,a1
1d01ddf8:	21280000 	move	a1,zero
1d01ddfc:	9288400f 	jal	0x1d022248
1d01de00:	40000624 	li	a2,64
1d01de04:	00002292 	lbu	v0,0(s1)
1d01de08:	50004224 	addiu	v0,v0,80
1d01de0c:	ff004330 	andi	v1,v0,0xff
1d01de10:	0700632c 	sltiu	v1,v1,7
1d01de14:	df006010 	beqz	v1,0x1d01e194
1d01de18:	029d033c 	lui	v1,0x9d02
1d01de1c:	ff004230 	andi	v0,v0,0xff
1d01de20:	80100200 	sll	v0,v0,0x2
1d01de24:	38de6324 	addiu	v1,v1,-8648
1d01de28:	21106200 	addu	v0,v1,v0
1d01de2c:	0000428c 	lw	v0,0(v0)
1d01de30:	08004000 	jr	v0
1d01de34:	00000000 	nop
1d01de38:	54de019d 	0x9d01de54
1d01de3c:	c4de019d 	0x9d01dec4
1d01de40:	e4df019d 	0x9d01dfe4
1d01de44:	c4e0019d 	0x9d01e0c4
1d01de48:	fce0019d 	0x9d01e0fc
1d01de4c:	34e1019d 	0x9d01e134
1d01de50:	6ce1019d 	0x9d01e16c
1d01de54:	b0ff0224 	li	v0,-80
1d01de58:	000002a2 	sb	v0,0(s0)
1d01de5c:	02000224 	li	v0,2
1d01de60:	020002a6 	sh	v0,2(s0)
1d01de64:	040002a6 	sh	v0,4(s0)
1d01de68:	060000a6 	sh	zero,6(s0)
1d01de6c:	89bf023c 	lui	v0,0xbf89
1d01de70:	20934390 	lbu	v1,-27872(v0)
1d01de74:	080003a2 	sb	v1,8(s0)
1d01de78:	21934290 	lbu	v0,-27871(v0)
1d01de7c:	090002a2 	sb	v0,9(s0)
1d01de80:	89bf023c 	lui	v0,0xbf89
1d01de84:	10934390 	lbu	v1,-27888(v0)
1d01de88:	0a0003a2 	sb	v1,10(s0)
1d01de8c:	11934290 	lbu	v0,-27887(v0)
1d01de90:	0b0002a2 	sb	v0,11(s0)
1d01de94:	89bf023c 	lui	v0,0xbf89
1d01de98:	00934390 	lbu	v1,-27904(v0)
1d01de9c:	0c0003a2 	sb	v1,12(s0)
1d01dea0:	01934290 	lbu	v0,-27903(v0)
1d01dea4:	0d0002a2 	sb	v0,13(s0)
1d01dea8:	0e000426 	addiu	a0,s0,14
1d01deac:	029d053c 	lui	a1,0x9d02
1d01deb0:	182ca524 	addiu	a1,a1,11288
1d01deb4:	ba89400f 	jal	0x1d0226e8
1d01deb8:	32000624 	li	a2,50
1d01debc:	6678400b 	j	0x1d01e198
1d01dec0:	01000224 	li	v0,1
1d01dec4:	b1ff0224 	li	v0,-79
1d01dec8:	000002a2 	sb	v0,0(s0)
1d01decc:	01002292 	lbu	v0,1(s1)
1d01ded0:	010002a2 	sb	v0,1(s0)
1d01ded4:	01002392 	lbu	v1,1(s1)
1d01ded8:	0400642c 	sltiu	a0,v1,4
1d01dedc:	40008010 	beqz	a0,0x1d01dfe0
1d01dee0:	21100000 	move	v0,zero
1d01dee4:	01000224 	li	v0,1
1d01dee8:	0f006210 	beq	v1,v0,0x1d01df28
1d01deec:	00000000 	nop
1d01def0:	07006010 	beqz	v1,0x1d01df10
1d01def4:	02000224 	li	v0,2
1d01def8:	11006210 	beq	v1,v0,0x1d01df40
1d01defc:	03000224 	li	v0,3
1d01df00:	15006210 	beq	v1,v0,0x1d01df58
1d01df04:	01000224 	li	v0,1
1d01df08:	dc77400b 	j	0x1d01df70
1d01df0c:	00000000 	nop
1d01df10:	6a62400f 	jal	0x1d0189a8
1d01df14:	00000000 	nop
1d01df18:	32004054 	bnezl	v0,0x1d01dfe4
1d01df1c:	020002a2 	sb	v0,2(s0)
1d01df20:	e877400b 	j	0x1d01dfa0
1d01df24:	0700043c 	lui	a0,0x7
1d01df28:	9e63400f 	jal	0x1d018e78
1d01df2c:	00000000 	nop
1d01df30:	2c004054 	bnezl	v0,0x1d01dfe4
1d01df34:	020002a2 	sb	v0,2(s0)
1d01df38:	ec77400b 	j	0x1d01dfb0
1d01df3c:	0700043c 	lui	a0,0x7
1d01df40:	6c64400f 	jal	0x1d0191b0
1d01df44:	00000000 	nop
1d01df48:	26004054 	bnezl	v0,0x1d01dfe4
1d01df4c:	020002a2 	sb	v0,2(s0)
1d01df50:	f077400b 	j	0x1d01dfc0
1d01df54:	0700043c 	lui	a0,0x7
1d01df58:	3065400f 	jal	0x1d0194c0
1d01df5c:	00000000 	nop
1d01df60:	20004054 	bnezl	v0,0x1d01dfe4
1d01df64:	020002a2 	sb	v0,2(s0)
1d01df68:	f477400b 	j	0x1d01dfd0
1d01df6c:	0700043c 	lui	a0,0x7
1d01df70:	0f006210 	beq	v1,v0,0x1d01dfb0
1d01df74:	0700043c 	lui	a0,0x7
1d01df78:	09006010 	beqz	v1,0x1d01dfa0
1d01df7c:	00000000 	nop
1d01df80:	02000224 	li	v0,2
1d01df84:	0e006210 	beq	v1,v0,0x1d01dfc0
1d01df88:	00000000 	nop
1d01df8c:	03000224 	li	v0,3
1d01df90:	0f006210 	beq	v1,v0,0x1d01dfd0
1d01df94:	00000000 	nop
1d01df98:	f877400b 	j	0x1d01dfe0
1d01df9c:	21100000 	move	v0,zero
1d01dfa0:	f461400f 	jal	0x1d0187d0
1d01dfa4:	20a18434 	ori	a0,a0,0xa120
1d01dfa8:	f877400b 	j	0x1d01dfe0
1d01dfac:	01000224 	li	v0,1
1d01dfb0:	2863400f 	jal	0x1d018ca0
1d01dfb4:	20a18434 	ori	a0,a0,0xa120
1d01dfb8:	f877400b 	j	0x1d01dfe0
1d01dfbc:	01000224 	li	v0,1
1d01dfc0:	5c64400f 	jal	0x1d019170
1d01dfc4:	20a18434 	ori	a0,a0,0xa120
1d01dfc8:	f977400b 	j	0x1d01dfe4
1d01dfcc:	020002a2 	sb	v0,2(s0)
1d01dfd0:	2065400f 	jal	0x1d019480
1d01dfd4:	20a18434 	ori	a0,a0,0xa120
1d01dfd8:	f977400b 	j	0x1d01dfe4
1d01dfdc:	020002a2 	sb	v0,2(s0)
1d01dfe0:	020002a2 	sb	v0,2(s0)
1d01dfe4:	b2ff0224 	li	v0,-78
1d01dfe8:	000002a2 	sb	v0,0(s0)
1d01dfec:	04002292 	lbu	v0,4(s1)
1d01dff0:	040002a2 	sb	v0,4(s0)
1d01dff4:	04002392 	lbu	v1,4(s1)
1d01dff8:	0400642c 	sltiu	a0,v1,4
1d01dffc:	2e008010 	beqz	a0,0x1d01e0b8
1d01e000:	21100000 	move	v0,zero
1d01e004:	de1f043c 	lui	a0,0x1fde
1d01e008:	a1cb8434 	ori	a0,a0,0xcba1
1d01e00c:	21206400 	addu	a0,v1,a0
1d01e010:	08000524 	li	a1,8
1d01e014:	01000224 	li	v0,1
1d01e018:	04e7457c 	ins	a1,v0,0x1c,0x1
1d01e01c:	84da857c 	ins	a1,a0,0xa,0x12
1d01e020:	1400a5af 	sw	a1,20(sp)
1d01e024:	822c0400 	srl	a1,a0,0x12
1d01e028:	21200000 	move	a0,zero
1d01e02c:	0450a47c 	ins	a0,a1,0x0,0xb
1d01e030:	1000a4af 	sw	a0,16(sp)
1d01e034:	029d043c 	lui	a0,0x9d02
1d01e038:	0c2c858c 	lw	a1,11276(a0)
1d01e03c:	0c2c8424 	addiu	a0,a0,11276
1d01e040:	0400848c 	lw	a0,4(a0)
1d01e044:	1800a5af 	sw	a1,24(sp)
1d01e048:	0f006210 	beq	v1,v0,0x1d01e088
1d01e04c:	1c00a4af 	sw	a0,28(sp)
1d01e050:	09006010 	beqz	v1,0x1d01e078
1d01e054:	00000000 	nop
1d01e058:	02000224 	li	v0,2
1d01e05c:	0e006210 	beq	v1,v0,0x1d01e098
1d01e060:	00000000 	nop
1d01e064:	03000224 	li	v0,3
1d01e068:	0f006210 	beq	v1,v0,0x1d01e0a8
1d01e06c:	00000000 	nop
1d01e070:	2e78400b 	j	0x1d01e0b8
1d01e074:	21100000 	move	v0,zero
1d01e078:	f25e400f 	jal	0x1d017bc8
1d01e07c:	1000a427 	addiu	a0,sp,16
1d01e080:	2f78400b 	j	0x1d01e0bc
1d01e084:	050002a2 	sb	v0,5(s0)
1d01e088:	355f400f 	jal	0x1d017cd4
1d01e08c:	1000a427 	addiu	a0,sp,16
1d01e090:	2f78400b 	j	0x1d01e0bc
1d01e094:	050002a2 	sb	v0,5(s0)
1d01e098:	aa5d400f 	jal	0x1d0176a8
1d01e09c:	1000a427 	addiu	a0,sp,16
1d01e0a0:	2f78400b 	j	0x1d01e0bc
1d01e0a4:	050002a2 	sb	v0,5(s0)
1d01e0a8:	4e5e400f 	jal	0x1d017938
1d01e0ac:	1000a427 	addiu	a0,sp,16
1d01e0b0:	2f78400b 	j	0x1d01e0bc
1d01e0b4:	050002a2 	sb	v0,5(s0)
1d01e0b8:	050002a2 	sb	v0,5(s0)
1d01e0bc:	6678400b 	j	0x1d01e198
1d01e0c0:	01000224 	li	v0,1
1d01e0c4:	b3ff0224 	li	v0,-77
1d01e0c8:	000002a2 	sb	v0,0(s0)
1d01e0cc:	01a0023c 	lui	v0,0xa001
1d01e0d0:	183c4224 	addiu	v0,v0,15384
1d01e0d4:	10004424 	addiu	a0,v0,16
1d01e0d8:	00004394 	lhu	v1,0(v0)
1d01e0dc:	080003a6 	sh	v1,8(s0)
1d01e0e0:	02004394 	lhu	v1,2(v0)
1d01e0e4:	100003a6 	sh	v1,16(s0)
1d01e0e8:	04004224 	addiu	v0,v0,4
1d01e0ec:	faff4414 	bne	v0,a0,0x1d01e0d8
1d01e0f0:	02001026 	addiu	s0,s0,2
1d01e0f4:	6678400b 	j	0x1d01e198
1d01e0f8:	01000224 	li	v0,1
1d01e0fc:	b4ff0224 	li	v0,-76
1d01e100:	000002a2 	sb	v0,0(s0)
1d01e104:	01a0023c 	lui	v0,0xa001
1d01e108:	183c40a4 	sh	zero,15384(v0)
1d01e10c:	183c4224 	addiu	v0,v0,15384
1d01e110:	020040a4 	sh	zero,2(v0)
1d01e114:	040040a4 	sh	zero,4(v0)
1d01e118:	060040a4 	sh	zero,6(v0)
1d01e11c:	080040a4 	sh	zero,8(v0)
1d01e120:	0a0040a4 	sh	zero,10(v0)
1d01e124:	0c0040a4 	sh	zero,12(v0)
1d01e128:	0e0040a4 	sh	zero,14(v0)
1d01e12c:	6678400b 	j	0x1d01e198
1d01e130:	01000224 	li	v0,1
1d01e134:	b5ff0224 	li	v0,-75
1d01e138:	3873400f 	jal	0x1d01cce0
1d01e13c:	000002a2 	sb	v0,0(s0)
1d01e140:	c573400f 	jal	0x1d01cf14
1d01e144:	010002a2 	sb	v0,1(s0)
1d01e148:	ca73400f 	jal	0x1d01cf28
1d01e14c:	040002a2 	sb	v0,4(s0)
1d01e150:	cf73400f 	jal	0x1d01cf3c
1d01e154:	080002a2 	sb	v0,8(s0)
1d01e158:	d473400f 	jal	0x1d01cf50
1d01e15c:	020002a6 	sh	v0,2(s0)
1d01e160:	060002a6 	sh	v0,6(s0)
1d01e164:	6678400b 	j	0x1d01e198
1d01e168:	01000224 	li	v0,1
1d01e16c:	b6ff0224 	li	v0,-74
1d01e170:	000002a2 	sb	v0,0(s0)
1d01e174:	01002492 	lbu	a0,1(s1)
1d01e178:	4d73400f 	jal	0x1d01cd34
1d01e17c:	2b200400 	sltu	a0,zero,a0
1d01e180:	5d73400f 	jal	0x1d01cd74
1d01e184:	00000000 	nop
1d01e188:	010002a2 	sb	v0,1(s0)
1d01e18c:	6678400b 	j	0x1d01e198
1d01e190:	01000224 	li	v0,1
1d01e194:	21100000 	move	v0,zero
1d01e198:	2c00bf8f 	lw	ra,44(sp)
1d01e19c:	2800b18f 	lw	s1,40(sp)
1d01e1a0:	2400b08f 	lw	s0,36(sp)
1d01e1a4:	0800e003 	jr	ra
1d01e1a8:	3000bd27 	addiu	sp,sp,48

Disassembly of section .sec77:

1d01e1ac <.sec77>:
1d01e1ac:	4f00a004 	bltz	a1,0x1d01e2ec
1d01e1b0:	21580000 	move	t3,zero
1d01e1b4:	5400e204 	bltzl	a3,0x1d01e308
1d01e1b8:	23300600 	negu	a2,a2
1d01e1bc:	2140c000 	move	t0,a2
1d01e1c0:	21488000 	move	t1,a0
1d01e1c4:	4300e014 	bnez	a3,0x1d01e2d4
1d01e1c8:	2118a000 	move	v1,a1
1d01e1cc:	2b10a600 	sltu	v0,a1,a2
1d01e1d0:	5e004010 	beqz	v0,0x1d01e34c
1d01e1d4:	00000000 	nop
1d01e1d8:	2030c670 	clz	a2,a2
1d01e1dc:	0800c010 	beqz	a2,0x1d01e200
1d01e1e0:	02540800 	srl	t2,t0,0x10
1d01e1e4:	23100600 	negu	v0,a2
1d01e1e8:	06104400 	srlv	v0,a0,v0
1d01e1ec:	0418c500 	sllv	v1,a1,a2
1d01e1f0:	0440c800 	sllv	t0,t0,a2
1d01e1f4:	25184300 	or	v1,v0,v1
1d01e1f8:	0448c400 	sllv	t1,a0,a2
1d01e1fc:	02540800 	srl	t2,t0,0x10
1d01e200:	1b006a00 	divu	zero,v1,t2
1d01e204:	f4014001 	teq	t2,zero,0x7
1d01e208:	10100000 	mfhi	v0
1d01e20c:	12680000 	mflo	t5
1d01e210:	ffff0e31 	andi	t6,t0,0xffff
1d01e214:	02640900 	srl	t4,t1,0x10
1d01e218:	0268ae71 	mul	t5,t5,t6
1d01e21c:	00140200 	sll	v0,v0,0x10
1d01e220:	25604c00 	or	t4,v0,t4
1d01e224:	2b788d01 	sltu	t7,t4,t5
1d01e228:	1b006a00 	divu	zero,v1,t2
1d01e22c:	f4014001 	teq	t2,zero,0x7
1d01e230:	0900e051 	beqzl	t7,0x1d01e258
1d01e234:	23608d01 	subu	t4,t4,t5
1d01e238:	21608801 	addu	t4,t4,t0
1d01e23c:	2b108801 	sltu	v0,t4,t0
1d01e240:	05004054 	bnezl	v0,0x1d01e258
1d01e244:	23608d01 	subu	t4,t4,t5
1d01e248:	2b188d01 	sltu	v1,t4,t5
1d01e24c:	21108801 	addu	v0,t4,t0
1d01e250:	0b604300 	movn	t4,v0,v1
1d01e254:	23608d01 	subu	t4,t4,t5
1d01e258:	ffff2331 	andi	v1,t1,0xffff
1d01e25c:	1b008a01 	divu	zero,t4,t2
1d01e260:	f4014001 	teq	t2,zero,0x7
1d01e264:	10480000 	mfhi	t1
1d01e268:	12100000 	mflo	v0
1d01e26c:	02104e70 	mul	v0,v0,t6
1d01e270:	004c0900 	sll	t1,t1,0x10
1d01e274:	25482301 	or	t1,t1,v1
1d01e278:	2b182201 	sltu	v1,t1,v0
1d01e27c:	1b008a01 	divu	zero,t4,t2
1d01e280:	f4014001 	teq	t2,zero,0x7
1d01e284:	09006050 	beqzl	v1,0x1d01e2ac
1d01e288:	23482201 	subu	t1,t1,v0
1d01e28c:	21482801 	addu	t1,t1,t0
1d01e290:	2b182801 	sltu	v1,t1,t0
1d01e294:	05006054 	bnezl	v1,0x1d01e2ac
1d01e298:	23482201 	subu	t1,t1,v0
1d01e29c:	2b182201 	sltu	v1,t1,v0
1d01e2a0:	21402801 	addu	t0,t1,t0
1d01e2a4:	0b480301 	movn	t1,t0,v1
1d01e2a8:	23482201 	subu	t1,t1,v0
1d01e2ac:	0610c900 	srlv	v0,t1,a2
1d01e2b0:	21180000 	move	v1,zero
1d01e2b4:	05006011 	beqz	t3,0x1d01e2cc
1d01e2b8:	00000000 	nop
1d01e2bc:	23100200 	negu	v0,v0
1d01e2c0:	2b200200 	sltu	a0,zero,v0
1d01e2c4:	23180300 	negu	v1,v1
1d01e2c8:	23186400 	subu	v1,v1,a0
1d01e2cc:	0800e003 	jr	ra
1d01e2d0:	00000000 	nop
1d01e2d4:	2b10a700 	sltu	v0,a1,a3
1d01e2d8:	0f004010 	beqz	v0,0x1d01e318
1d01e2dc:	2050ea70 	clz	t2,a3
1d01e2e0:	21108000 	move	v0,a0
1d01e2e4:	ad78400b 	j	0x1d01e2b4
1d01e2e8:	2118a000 	move	v1,a1
1d01e2ec:	23200400 	negu	a0,a0
1d01e2f0:	2b100400 	sltu	v0,zero,a0
1d01e2f4:	23280500 	negu	a1,a1
1d01e2f8:	2328a200 	subu	a1,a1,v0
1d01e2fc:	afffe104 	bgez	a3,0x1d01e1bc
1d01e300:	ffff0b24 	li	t3,-1
1d01e304:	23300600 	negu	a2,a2
1d01e308:	2b100600 	sltu	v0,zero,a2
1d01e30c:	23380700 	negu	a3,a3
1d01e310:	6f78400b 	j	0x1d01e1bc
1d01e314:	2338e200 	subu	a3,a3,v0
1d01e318:	71004015 	bnez	t2,0x1d01e4e0
1d01e31c:	20000c24 	li	t4,32
1d01e320:	2b10e500 	sltu	v0,a3,a1
1d01e324:	05004014 	bnez	v0,0x1d01e33c
1d01e328:	23108600 	subu	v0,a0,a2
1d01e32c:	2b408600 	sltu	t0,a0,a2
1d01e330:	e0ff0015 	bnez	t0,0x1d01e2b4
1d01e334:	21108000 	move	v0,a0
1d01e338:	23108600 	subu	v0,a0,a2
1d01e33c:	2318a700 	subu	v1,a1,a3
1d01e340:	2b208200 	sltu	a0,a0,v0
1d01e344:	ad78400b 	j	0x1d01e2b4
1d01e348:	23186400 	subu	v1,v1,a0
1d01e34c:	0600c014 	bnez	a2,0x1d01e368
1d01e350:	20300671 	clz	a2,t0
1d01e354:	01000824 	li	t0,1
1d01e358:	1b000701 	divu	zero,t0,a3
1d01e35c:	f401e000 	teq	a3,zero,0x7
1d01e360:	12400000 	mflo	t0
1d01e364:	20300671 	clz	a2,t0
1d01e368:	2c00c054 	bnezl	a2,0x1d01e41c
1d01e36c:	0440c800 	sllv	t0,t0,a2
1d01e370:	2328a800 	subu	a1,a1,t0
1d01e374:	021c0800 	srl	v1,t0,0x10
1d01e378:	ffff0a31 	andi	t2,t0,0xffff
1d01e37c:	02240900 	srl	a0,t1,0x10
1d01e380:	1b00a300 	divu	zero,a1,v1
1d01e384:	f4016000 	teq	v1,zero,0x7
1d01e388:	10100000 	mfhi	v0
1d01e38c:	12380000 	mflo	a3
1d01e390:	0238ea70 	mul	a3,a3,t2
1d01e394:	00140200 	sll	v0,v0,0x10
1d01e398:	25204400 	or	a0,v0,a0
1d01e39c:	2b108700 	sltu	v0,a0,a3
1d01e3a0:	1b00a300 	divu	zero,a1,v1
1d01e3a4:	f4016000 	teq	v1,zero,0x7
1d01e3a8:	09004050 	beqzl	v0,0x1d01e3d0
1d01e3ac:	23208700 	subu	a0,a0,a3
1d01e3b0:	21208800 	addu	a0,a0,t0
1d01e3b4:	2b108800 	sltu	v0,a0,t0
1d01e3b8:	05004054 	bnezl	v0,0x1d01e3d0
1d01e3bc:	23208700 	subu	a0,a0,a3
1d01e3c0:	2b288700 	sltu	a1,a0,a3
1d01e3c4:	21108800 	addu	v0,a0,t0
1d01e3c8:	0b204500 	movn	a0,v0,a1
1d01e3cc:	23208700 	subu	a0,a0,a3
1d01e3d0:	ffff2531 	andi	a1,t1,0xffff
1d01e3d4:	1b008300 	divu	zero,a0,v1
1d01e3d8:	f4016000 	teq	v1,zero,0x7
1d01e3dc:	10480000 	mfhi	t1
1d01e3e0:	12100000 	mflo	v0
1d01e3e4:	02104a70 	mul	v0,v0,t2
1d01e3e8:	004c0900 	sll	t1,t1,0x10
1d01e3ec:	25482501 	or	t1,t1,a1
1d01e3f0:	2b282201 	sltu	a1,t1,v0
1d01e3f4:	1b008300 	divu	zero,a0,v1
1d01e3f8:	f4016000 	teq	v1,zero,0x7
1d01e3fc:	abffa050 	beqzl	a1,0x1d01e2ac
1d01e400:	23482201 	subu	t1,t1,v0
1d01e404:	21482801 	addu	t1,t1,t0
1d01e408:	2b182801 	sltu	v1,t1,t0
1d01e40c:	a7ff6054 	bnezl	v1,0x1d01e2ac
1d01e410:	23482201 	subu	t1,t1,v0
1d01e414:	a878400b 	j	0x1d01e2a0
1d01e418:	2b182201 	sltu	v1,t1,v0
1d01e41c:	20000924 	li	t1,32
1d01e420:	23482601 	subu	t1,t1,a2
1d01e424:	06382501 	srlv	a3,a1,t1
1d01e428:	021c0800 	srl	v1,t0,0x10
1d01e42c:	1b00e300 	divu	zero,a3,v1
1d01e430:	f4016000 	teq	v1,zero,0x7
1d01e434:	10680000 	mfhi	t5
1d01e438:	12100000 	mflo	v0
1d01e43c:	ffff0a31 	andi	t2,t0,0xffff
1d01e440:	0428c500 	sllv	a1,a1,a2
1d01e444:	06482401 	srlv	t1,a0,t1
1d01e448:	25282501 	or	a1,t1,a1
1d01e44c:	02640500 	srl	t4,a1,0x10
1d01e450:	0448c400 	sllv	t1,a0,a2
1d01e454:	02104a70 	mul	v0,v0,t2
1d01e458:	00240d00 	sll	a0,t5,0x10
1d01e45c:	25208401 	or	a0,t4,a0
1d01e460:	2b608200 	sltu	t4,a0,v0
1d01e464:	1b00e300 	divu	zero,a3,v1
1d01e468:	f4016000 	teq	v1,zero,0x7
1d01e46c:	06008051 	beqzl	t4,0x1d01e488
1d01e470:	23208200 	subu	a0,a0,v0
1d01e474:	21208800 	addu	a0,a0,t0
1d01e478:	2b388800 	sltu	a3,a0,t0
1d01e47c:	6b00e010 	beqz	a3,0x1d01e62c
1d01e480:	2b608200 	sltu	t4,a0,v0
1d01e484:	23208200 	subu	a0,a0,v0
1d01e488:	ffffa730 	andi	a3,a1,0xffff
1d01e48c:	1b008300 	divu	zero,a0,v1
1d01e490:	f4016000 	teq	v1,zero,0x7
1d01e494:	10280000 	mfhi	a1
1d01e498:	12100000 	mflo	v0
1d01e49c:	02104a70 	mul	v0,v0,t2
1d01e4a0:	002c0500 	sll	a1,a1,0x10
1d01e4a4:	2528a700 	or	a1,a1,a3
1d01e4a8:	2b38a200 	sltu	a3,a1,v0
1d01e4ac:	1b008300 	divu	zero,a0,v1
1d01e4b0:	f4016000 	teq	v1,zero,0x7
1d01e4b4:	b1ffe050 	beqzl	a3,0x1d01e37c
1d01e4b8:	2328a200 	subu	a1,a1,v0
1d01e4bc:	2128a800 	addu	a1,a1,t0
1d01e4c0:	2b20a800 	sltu	a0,a1,t0
1d01e4c4:	adff8054 	bnezl	a0,0x1d01e37c
1d01e4c8:	2328a200 	subu	a1,a1,v0
1d01e4cc:	2b38a200 	sltu	a3,a1,v0
1d01e4d0:	2120a800 	addu	a0,a1,t0
1d01e4d4:	0b288700 	movn	a1,a0,a3
1d01e4d8:	df78400b 	j	0x1d01e37c
1d01e4dc:	2328a200 	subu	a1,a1,v0
1d01e4e0:	23608a01 	subu	t4,t4,t2
1d01e4e4:	04384701 	sllv	a3,a3,t2
1d01e4e8:	06108601 	srlv	v0,a2,t4
1d01e4ec:	25384700 	or	a3,v0,a3
1d01e4f0:	06708501 	srlv	t6,a1,t4
1d01e4f4:	024c0700 	srl	t1,a3,0x10
1d01e4f8:	1b00c901 	divu	zero,t6,t1
1d01e4fc:	f4012001 	teq	t1,zero,0x7
1d01e500:	10680000 	mfhi	t5
1d01e504:	12100000 	mflo	v0
1d01e508:	ffffef30 	andi	t7,a3,0xffff
1d01e50c:	04284501 	sllv	a1,a1,t2
1d01e510:	06188401 	srlv	v1,a0,t4
1d01e514:	25286500 	or	a1,v1,a1
1d01e518:	021c0500 	srl	v1,a1,0x10
1d01e51c:	04304601 	sllv	a2,a2,t2
1d01e520:	12400000 	mflo	t0
1d01e524:	02c04f70 	mul	t8,v0,t7
1d01e528:	006c0d00 	sll	t5,t5,0x10
1d01e52c:	2568a301 	or	t5,t5,v1
1d01e530:	2b18b801 	sltu	v1,t5,t8
1d01e534:	1b00c901 	divu	zero,t6,t1
1d01e538:	f4012001 	teq	t1,zero,0x7
1d01e53c:	0a006010 	beqz	v1,0x1d01e568
1d01e540:	04204401 	sllv	a0,a0,t2
1d01e544:	2168a701 	addu	t5,t5,a3
1d01e548:	2b18a701 	sltu	v1,t5,a3
1d01e54c:	06006014 	bnez	v1,0x1d01e568
1d01e550:	ffff4824 	addiu	t0,v0,-1
1d01e554:	2b18b801 	sltu	v1,t5,t8
1d01e558:	04006050 	beqzl	v1,0x1d01e56c
1d01e55c:	2368b801 	subu	t5,t5,t8
1d01e560:	feff4824 	addiu	t0,v0,-2
1d01e564:	2168a701 	addu	t5,t5,a3
1d01e568:	2368b801 	subu	t5,t5,t8
1d01e56c:	ffffa530 	andi	a1,a1,0xffff
1d01e570:	1b00a901 	divu	zero,t5,t1
1d01e574:	f4012001 	teq	t1,zero,0x7
1d01e578:	10180000 	mfhi	v1
1d01e57c:	12100000 	mflo	v0
1d01e580:	12700000 	mflo	t6
1d01e584:	02784f70 	mul	t7,v0,t7
1d01e588:	001c0300 	sll	v1,v1,0x10
1d01e58c:	25286500 	or	a1,v1,a1
1d01e590:	2b18af00 	sltu	v1,a1,t7
1d01e594:	1b00a901 	divu	zero,t5,t1
1d01e598:	f4012001 	teq	t1,zero,0x7
1d01e59c:	0b006050 	beqzl	v1,0x1d01e5cc
1d01e5a0:	00440800 	sll	t0,t0,0x10
1d01e5a4:	2128a700 	addu	a1,a1,a3
1d01e5a8:	2b18a700 	sltu	v1,a1,a3
1d01e5ac:	06006014 	bnez	v1,0x1d01e5c8
1d01e5b0:	ffff4e24 	addiu	t6,v0,-1
1d01e5b4:	2b18af00 	sltu	v1,a1,t7
1d01e5b8:	04006050 	beqzl	v1,0x1d01e5cc
1d01e5bc:	00440800 	sll	t0,t0,0x10
1d01e5c0:	feff4e24 	addiu	t6,v0,-2
1d01e5c4:	2128a700 	addu	a1,a1,a3
1d01e5c8:	00440800 	sll	t0,t0,0x10
1d01e5cc:	2540c801 	or	t0,t6,t0
1d01e5d0:	2328af00 	subu	a1,a1,t7
1d01e5d4:	19000601 	multu	t0,a2
1d01e5d8:	10480000 	mfhi	t1
1d01e5dc:	2b10a900 	sltu	v0,a1,t1
1d01e5e0:	05004014 	bnez	v0,0x1d01e5f8
1d01e5e4:	12400000 	mflo	t0
1d01e5e8:	1300a910 	beq	a1,t1,0x1d01e638
1d01e5ec:	2318a900 	subu	v1,a1,t1
1d01e5f0:	8379400b 	j	0x1d01e60c
1d01e5f4:	12300000 	mflo	a2
1d01e5f8:	23300601 	subu	a2,t0,a2
1d01e5fc:	23182701 	subu	v1,t1,a3
1d01e600:	2b400601 	sltu	t0,t0,a2
1d01e604:	23186800 	subu	v1,v1,t0
1d01e608:	2318a300 	subu	v1,a1,v1
1d01e60c:	23308600 	subu	a2,a0,a2
1d01e610:	2b208600 	sltu	a0,a0,a2
1d01e614:	23186400 	subu	v1,v1,a0
1d01e618:	04108301 	sllv	v0,v1,t4
1d01e61c:	06304601 	srlv	a2,a2,t2
1d01e620:	25104600 	or	v0,v0,a2
1d01e624:	ad78400b 	j	0x1d01e2b4
1d01e628:	06184301 	srlv	v1,v1,t2
1d01e62c:	21388800 	addu	a3,a0,t0
1d01e630:	2179400b 	j	0x1d01e484
1d01e634:	0b20ec00 	movn	a0,a3,t4
1d01e638:	2b108800 	sltu	v0,a0,t0
1d01e63c:	efff4054 	bnezl	v0,0x1d01e5fc
1d01e640:	23300601 	subu	a2,t0,a2
1d01e644:	12300000 	mflo	a2
1d01e648:	8379400b 	j	0x1d01e60c
1d01e64c:	21180000 	move	v1,zero

Disassembly of section .sec78:

1d01e650 <.sec78>:
1d01e650:	000000a0 	sb	zero,0(zero)
1d01e654:	08000000 	jr	zero
1d01e658:	01000000 	movf	zero,zero,$fcc0
1d01e65c:	ffffffff 	sdc3	$31,-1(ra)
1d01e660:	96000000 	0x96
1d01e664:	3c0000a0 	sb	zero,60(zero)
1d01e668:	01000000 	movf	zero,zero,$fcc0
1d01e66c:	00000000 	nop
1d01e670:	803a01a0 	sb	at,14976(zero)
1d01e674:	e0000000 	0xe0
1d01e678:	00000000 	nop
1d01e67c:	3d0000a0 	sb	zero,61(zero)
1d01e680:	04000000 	sllv	zero,zero,zero
1d01e684:	00000000 	nop
1d01e688:	301f01a0 	sb	at,7984(zero)
1d01e68c:	04100000 	sllv	v0,zero,zero
1d01e690:	00000000 	nop
1d01e694:	c83601a0 	sb	at,14024(zero)
1d01e698:	10020000 	0x210
1d01e69c:	01000000 	movf	zero,zero,$fcc0
1d01e6a0:	c0d3019d 	0x9d01d3c0
1d01e6a4:	ccd3019d 	0x9d01d3cc
1d01e6a8:	01000000 	movf	zero,zero,$fcc0
	...
1d01e6bc:	01000000 	movf	zero,zero,$fcc0
1d01e6c0:	00000000 	nop
1d01e6c4:	01000000 	movf	zero,zero,$fcc0
1d01e6c8:	01000000 	movf	zero,zero,$fcc0
1d01e6cc:	e4d3019d 	0x9d01d3e4
1d01e6d0:	f4d3019d 	0x9d01d3f4
1d01e6d4:	05000000 	0x5
1d01e6d8:	0000803d 	0x3d800000
	...
1d01e6e8:	38000000 	0x38
1d01e6ec:	20000000 	add	zero,zero,zero
1d01e6f0:	38000000 	0x38
1d01e6f4:	38000000 	0x38
1d01e6f8:	0cd4019d 	0x9d01d40c
1d01e6fc:	20d4019d 	0x9d01d420
1d01e700:	01000000 	movf	zero,zero,$fcc0
	...
1d01e71c:	01000000 	movf	zero,zero,$fcc0
1d01e720:	00000000 	nop
1d01e724:	60d4019d 	0x9d01d460
1d01e728:	74d4019d 	0x9d01d474
1d01e72c:	01000000 	movf	zero,zero,$fcc0
	...
1d01e748:	01000000 	movf	zero,zero,$fcc0
1d01e74c:	00000000 	nop
1d01e750:	a4d4019d 	0x9d01d4a4
1d01e754:	b8d4019d 	0x9d01d4b8
1d01e758:	01000000 	movf	zero,zero,$fcc0
	...
1d01e774:	01000000 	movf	zero,zero,$fcc0
1d01e778:	00000000 	nop
1d01e77c:	08d5019d 	0x9d01d508
1d01e780:	1cd5019d 	0x9d01d51c
1d01e784:	01000000 	movf	zero,zero,$fcc0
	...
1d01e7a0:	01000000 	movf	zero,zero,$fcc0
1d01e7a4:	00000000 	nop
1d01e7a8:	90d5019d 	0x9d01d590
1d01e7ac:	a0d5019d 	0x9d01d5a0
1d01e7b0:	05000000 	0x5
1d01e7b4:	0000803c 	0x3c800000
	...
1d01e7c4:	80040000 	sll	zero,zero,0x12
1d01e7c8:	80000000 	sll	zero,zero,0x2
1d01e7cc:	80040000 	sll	zero,zero,0x12
1d01e7d0:	80040000 	sll	zero,zero,0x12
1d01e7d4:	04d6019d 	0x9d01d604
1d01e7d8:	14d6019d 	0x9d01d614
1d01e7dc:	05000000 	0x5
1d01e7e0:	0000803f 	0x3f800000
	...
1d01e7f0:	bc020000 	0x2bc
1d01e7f4:	58020000 	0x258
1d01e7f8:	e8030000 	0x3e8
1d01e7fc:	bc020000 	0x2bc
1d01e800:	50d6019d 	0x9d01d650
1d01e804:	60d6019d 	0x9d01d660
1d01e808:	05000000 	0x5
1d01e80c:	0000803f 	0x3f800000
	...
1d01e81c:	08070000 	0x708
1d01e820:	08070000 	0x708
1d01e824:	d0070000 	0x7d0
1d01e828:	08070000 	0x708
1d01e82c:	90d6019d 	0x9d01d690
1d01e830:	a4d6019d 	0x9d01d6a4
1d01e834:	05000000 	0x5
1d01e838:	0000803c 	0x3c800000
	...
1d01e848:	00010000 	sll	zero,zero,0x4
1d01e84c:	80000000 	sll	zero,zero,0x2
1d01e850:	80010000 	sll	zero,zero,0x6
1d01e854:	00010000 	sll	zero,zero,0x4
1d01e858:	24d7019d 	0x9d01d724
1d01e85c:	38d7019d 	0x9d01d738
1d01e860:	05000000 	0x5
1d01e864:	0000803c 	0x3c800000
	...
1d01e874:	40000000 	ssnop
1d01e878:	20000000 	add	zero,zero,zero
1d01e87c:	80000000 	sll	zero,zero,0x2
1d01e880:	40000000 	ssnop
1d01e884:	bcd7019d 	0x9d01d7bc
1d01e888:	d0d7019d 	0x9d01d7d0
1d01e88c:	05000000 	0x5
1d01e890:	0000803c 	0x3c800000
	...
1d01e8a0:	60000000 	0x60
1d01e8a4:	20000000 	add	zero,zero,zero
1d01e8a8:	c0000000 	ehb
1d01e8ac:	60000000 	0x60
1d01e8b0:	603b01a0 	sb	at,15200(zero)
1d01e8b4:	60000000 	0x60
1d01e8b8:	00000000 	nop
1d01e8bc:	083c01a0 	sb	at,15368(zero)
1d01e8c0:	10000000 	mfhi	zero
1d01e8c4:	00000000 	nop
1d01e8c8:	440000a0 	sb	zero,68(zero)
1d01e8cc:	14000000 	0x14
1d01e8d0:	00000000 	nop
1d01e8d4:	183c01a0 	sb	at,15384(zero)
1d01e8d8:	10000000 	mfhi	zero
1d01e8dc:	00000000 	nop
1d01e8e0:	080000a0 	sb	zero,8(zero)
1d01e8e4:	04000000 	sllv	zero,zero,zero
1d01e8e8:	01000000 	movf	zero,zero,$fcc0
1d01e8ec:	2c010000 	0x12c
1d01e8f0:	c03b01a0 	sb	at,15296(zero)
1d01e8f4:	48000000 	0x48
1d01e8f8:	00000000 	nop
1d01e8fc:	0c0000a0 	sb	zero,12(zero)
1d01e900:	01000000 	movf	zero,zero,$fcc0
1d01e904:	01000000 	movf	zero,zero,$fcc0
1d01e908:	01000000 	movf	zero,zero,$fcc0
1d01e90c:	580000a0 	sb	zero,88(zero)
1d01e910:	1c000000 	0x1c
1d01e914:	00000000 	nop
1d01e918:	000200a0 	sb	zero,512(zero)
1d01e91c:	db020000 	0x2db
1d01e920:	00000000 	nop
1d01e924:	740000a0 	sb	zero,116(zero)
1d01e928:	0c000000 	syscall
1d01e92c:	00000000 	nop
1d01e930:	b00e01a0 	sb	at,3760(zero)
1d01e934:	80100000 	sll	v0,zero,0x2
1d01e938:	00000000 	nop
1d01e93c:	800000a0 	sb	zero,128(zero)
1d01e940:	20000000 	add	zero,zero,zero
1d01e944:	00000000 	nop
1d01e948:	a00000a0 	sb	zero,160(zero)
1d01e94c:	08000000 	jr	zero
1d01e950:	00000000 	nop
1d01e954:	003901a0 	sb	at,14592(zero)
1d01e958:	80010000 	sll	zero,zero,0x6
1d01e95c:	00000000 	nop
1d01e960:	a80000a0 	sb	zero,168(zero)
1d01e964:	14000000 	0x14
1d01e968:	00000000 	nop
1d01e96c:	580100a0 	sb	zero,344(zero)
1d01e970:	a8000000 	0xa8
1d01e974:	01000000 	movf	zero,zero,$fcc0
1d01e978:	f4010000 	teq	zero,zero,0x7
	...
1d01e9a0:	fa000000 	0xfa
	...
1d01ea20:	342f01a0 	sb	at,12084(zero)
1d01ea24:	94070000 	0x794
1d01ea28:	00000000 	nop
1d01ea2c:	100000a0 	sb	zero,16(zero)
1d01ea30:	0c000000 	syscall
1d01ea34:	01000000 	movf	zero,zero,$fcc0
1d01ea38:	ffffffff 	sdc3	$31,-1(ra)
1d01ea3c:	06000000 	srlv	zero,zero,zero
1d01ea40:	04000000 	sllv	zero,zero,zero
1d01ea44:	bc0000a0 	sb	zero,188(zero)
1d01ea48:	14000000 	0x14
1d01ea4c:	00000000 	nop
1d01ea50:	d00000a0 	sb	zero,208(zero)
1d01ea54:	08000000 	jr	zero
1d01ea58:	00000000 	nop
1d01ea5c:	900600a0 	sb	zero,1680(zero)
1d01ea60:	20080100 	add	at,zero,at
1d01ea64:	00000000 	nop
1d01ea68:	d80000a0 	sb	zero,216(zero)
1d01ea6c:	08000000 	jr	zero
1d01ea70:	00000000 	nop
1d01ea74:	1c0000a0 	sb	zero,28(zero)
1d01ea78:	04000000 	sllv	zero,zero,zero
1d01ea7c:	01000000 	movf	zero,zero,$fcc0
1d01ea80:	ffffff7f 	0x7fffffff
1d01ea84:	d83801a0 	sb	at,14552(zero)
1d01ea88:	24000000 	and	zero,zero,zero
1d01ea8c:	00000000 	nop
1d01ea90:	200000a0 	sb	zero,32(zero)
1d01ea94:	14000000 	0x14
1d01ea98:	01000000 	movf	zero,zero,$fcc0
1d01ea9c:	dc0400a0 	sb	zero,1244(zero)
1d01eaa0:	400100a0 	sb	zero,320(zero)
1d01eaa4:	6c0600a0 	sb	zero,1644(zero)
1d01eaa8:	740500a0 	sb	zero,1396(zero)
1d01eaac:	a80500a0 	sb	zero,1448(zero)
1d01eab0:	340000a0 	sb	zero,52(zero)
1d01eab4:	08000000 	jr	zero
1d01eab8:	01000000 	movf	zero,zero,$fcc0
1d01eabc:	00b088bf 	cache	0x8,-20480(gp)
1d01eac0:	00c088bf 	cache	0x8,-16384(gp)
1d01eac4:	dc0400a0 	sb	zero,1244(zero)
1d01eac8:	90010000 	0x190
1d01eacc:	00000000 	nop
1d01ead0:	6c0600a0 	sb	zero,1644(zero)
1d01ead4:	24000000 	and	zero,zero,zero
1d01ead8:	00000000 	nop
1d01eadc:	fc3801a0 	sb	at,14588(zero)
1d01eae0:	04000000 	sllv	zero,zero,zero
	...
1d01eaec:	22222222 	addi	v0,s1,8738

Disassembly of section .sec79:

1d01eaf0 <.sec79>:
1d01eaf0:	1480838f 	lw	v1,-32748(gp)
1d01eaf4:	01006324 	addiu	v1,v1,1
1d01eaf8:	6210023c 	lui	v0,0x1062
1d01eafc:	d34d4224 	addiu	v0,v0,19923
1d01eb00:	19006200 	multu	v1,v0
1d01eb04:	10100000 	mfhi	v0
1d01eb08:	42110200 	srl	v0,v0,0x5
1d01eb0c:	80200200 	sll	a0,v0,0x2
1d01eb10:	c0290200 	sll	a1,v0,0x7
1d01eb14:	2320a400 	subu	a0,a1,a0
1d01eb18:	21108200 	addu	v0,a0,v0
1d01eb1c:	80100200 	sll	v0,v0,0x2
1d01eb20:	23106200 	subu	v0,v1,v0
1d01eb24:	148082af 	sw	v0,-32748(gp)
1d01eb28:	96004238 	xori	v0,v0,0x96
1d01eb2c:	0800e003 	jr	ra
1d01eb30:	0100422c 	sltiu	v0,v0,1
1d01eb34:	0000828c 	lw	v0,0(a0)
1d01eb38:	00f04230 	andi	v0,v0,0xf000
1d01eb3c:	09004010 	beqz	v0,0x1d01eb64
1d01eb40:	00000000 	nop
1d01eb44:	0000838c 	lw	v1,0(a0)
1d01eb48:	001b637c 	ext	v1,v1,0xc,0x4
1d01eb4c:	40100300 	sll	v0,v1,0x1
1d01eb50:	c0180300 	sll	v1,v1,0x3
1d01eb54:	21104300 	addu	v0,v0,v1
1d01eb58:	80180200 	sll	v1,v0,0x2
1d01eb5c:	21104300 	addu	v0,v0,v1
1d01eb60:	148082af 	sw	v0,-32748(gp)
1d01eb64:	0800e003 	jr	ra
1d01eb68:	00000000 	nop
1d01eb6c:	e0ffbd27 	addiu	sp,sp,-32
1d01eb70:	1c00bfaf 	sw	ra,28(sp)
1d01eb74:	1800b1af 	sw	s1,24(sp)
1d01eb78:	1400b0af 	sw	s0,20(sp)
1d01eb7c:	000080a0 	sb	zero,0(a0)
1d01eb80:	020080a0 	sb	zero,2(a0)
1d01eb84:	030080a0 	sb	zero,3(a0)
1d01eb88:	040080a0 	sb	zero,4(a0)
1d01eb8c:	050080a0 	sb	zero,5(a0)
1d01eb90:	060080a0 	sb	zero,6(a0)
1d01eb94:	070080a0 	sb	zero,7(a0)
1d01eb98:	21100000 	move	v0,zero
1d01eb9c:	03000324 	li	v1,3
1d01eba0:	0439627c 	ins	v0,v1,0x4,0x4
1d01eba4:	010082a0 	sb	v0,1(a0)
1d01eba8:	4c808293 	lbu	v0,-32692(gp)
1d01ebac:	08004014 	bnez	v0,0x1d01ebd0
1d01ebb0:	21808000 	move	s0,a0
1d01ebb4:	a354400f 	jal	0x1d01528c
1d01ebb8:	00000000 	nop
1d01ebbc:	04004010 	beqz	v0,0x1d01ebd0
1d01ebc0:	01000224 	li	v0,1
1d01ebc4:	4c8082a3 	sb	v0,-32692(gp)
1d01ebc8:	ffff0224 	li	v0,-1
1d01ebcc:	108082af 	sw	v0,-32752(gp)
1d01ebd0:	7b55400f 	jal	0x1d0155ec
1d01ebd4:	00000000 	nop
1d01ebd8:	21884000 	move	s1,v0
1d01ebdc:	4c808293 	lbu	v0,-32692(gp)
1d01ebe0:	0d004050 	beqzl	v0,0x1d01ec18
1d01ebe4:	01000292 	lbu	v0,1(s0)
1d01ebe8:	00002292 	lbu	v0,0(s1)
1d01ebec:	0a004054 	bnezl	v0,0x1d01ec18
1d01ebf0:	01000292 	lbu	v0,1(s0)
1d01ebf4:	ab54400f 	jal	0x1d0152ac
1d01ebf8:	21200000 	move	a0,zero
1d01ebfc:	04004050 	beqzl	v0,0x1d01ec10
1d01ec00:	029d113c 	lui	s1,0x9d02
1d01ec04:	029d113c 	lui	s1,0x9d02
1d01ec08:	057b400b 	j	0x1d01ec14
1d01ec0c:	442c3126 	addiu	s1,s1,11332
1d01ec10:	502c3126 	addiu	s1,s1,11344
1d01ec14:	01000292 	lbu	v0,1(s0)
1d01ec18:	4c808393 	lbu	v1,-32692(gp)
1d01ec1c:	0400627c 	ins	v0,v1,0x0,0x1
1d01ec20:	a554400f 	jal	0x1d015294
1d01ec24:	010002a2 	sb	v0,1(s0)
1d01ec28:	01000392 	lbu	v1,1(s0)
1d01ec2c:	4408437c 	ins	v1,v0,0x1,0x1
1d01ec30:	a754400f 	jal	0x1d01529c
1d01ec34:	010003a2 	sb	v1,1(s0)
1d01ec38:	01000392 	lbu	v1,1(s0)
1d01ec3c:	8410437c 	ins	v1,v0,0x2,0x1
1d01ec40:	010003a2 	sb	v1,1(s0)
1d01ec44:	1080838f 	lw	v1,-32752(gp)
1d01ec48:	01006224 	addiu	v0,v1,1
1d01ec4c:	108082af 	sw	v0,-32752(gp)
1d01ec50:	00002492 	lbu	a0,0(s1)
1d01ec54:	09008014 	bnez	a0,0x1d01ec7c
1d01ec58:	01000424 	li	a0,1
1d01ec5c:	03004414 	bne	v0,a0,0x1d01ec6c
1d01ec60:	02000224 	li	v0,2
1d01ec64:	02006324 	addiu	v1,v1,2
1d01ec68:	108083af 	sw	v1,-32752(gp)
1d01ec6c:	1080838f 	lw	v1,-32752(gp)
1d01ec70:	02006214 	bne	v1,v0,0x1d01ec7c
1d01ec74:	03000224 	li	v0,3
1d01ec78:	108082af 	sw	v0,-32752(gp)
1d01ec7c:	6e55400f 	jal	0x1d0155b8
1d01ec80:	00000000 	nop
1d01ec84:	00004490 	lbu	a0,0(v0)
1d01ec88:	08008014 	bnez	a0,0x1d01ecac
1d01ec8c:	1080838f 	lw	v1,-32752(gp)
1d01ec90:	06000524 	li	a1,6
1d01ec94:	08006510 	beq	v1,a1,0x1d01ecb8
1d01ec98:	07000524 	li	a1,7
1d01ec9c:	06006510 	beq	v1,a1,0x1d01ecb8
1d01eca0:	08000524 	li	a1,8
1d01eca4:	17006550 	beql	v1,a1,0x1d01ed04
1d01eca8:	108080af 	sw	zero,-32752(gp)
1d01ecac:	0900652c 	sltiu	a1,v1,9
1d01ecb0:	0300a014 	bnez	a1,0x1d01ecc0
1d01ecb4:	00000000 	nop
1d01ecb8:	417b400b 	j	0x1d01ed04
1d01ecbc:	108080af 	sw	zero,-32752(gp)
1d01ecc0:	a400a010 	beqz	a1,0x1d01ef54
1d01ecc4:	80180300 	sll	v1,v1,0x2
1d01ecc8:	029d053c 	lui	a1,0x9d02
1d01eccc:	e0eca524 	addiu	a1,a1,-4896
1d01ecd0:	2118a300 	addu	v1,a1,v1
1d01ecd4:	0000638c 	lw	v1,0(v1)
1d01ecd8:	08006000 	jr	v1
1d01ecdc:	00000000 	nop
1d01ece0:	04ed019d 	0x9d01ed04
1d01ece4:	50ed019d 	0x9d01ed50
1d01ece8:	9ced019d 	0x9d01ed9c
1d01ecec:	d8ed019d 	0x9d01edd8
1d01ecf0:	18ee019d 	0x9d01ee18
1d01ecf4:	54ee019d 	0x9d01ee54
1d01ecf8:	84ee019d 	0x9d01ee84
1d01ecfc:	ccee019d 	0x9d01eecc
1d01ed00:	14ef019d 	0x9d01ef14
1d01ed04:	000000a2 	sb	zero,0(s0)
1d01ed08:	ab54400f 	jal	0x1d0152ac
1d01ed0c:	21200000 	move	a0,zero
1d01ed10:	02000396 	lhu	v1,2(s0)
1d01ed14:	0400437c 	ins	v1,v0,0x0,0x1
1d01ed18:	020003a6 	sh	v1,2(s0)
1d01ed1c:	b154400f 	jal	0x1d0152c4
1d01ed20:	21200000 	move	a0,zero
1d01ed24:	02000396 	lhu	v1,2(s0)
1d01ed28:	4408437c 	ins	v1,v0,0x1,0x1
1d01ed2c:	020003a6 	sh	v1,2(s0)
1d01ed30:	b754400f 	jal	0x1d0152dc
1d01ed34:	21200000 	move	a0,zero
1d01ed38:	040002a6 	sh	v0,4(s0)
1d01ed3c:	bd54400f 	jal	0x1d0152f4
1d01ed40:	21200000 	move	a0,zero
1d01ed44:	060002a6 	sh	v0,6(s0)
1d01ed48:	d67b400b 	j	0x1d01ef58
1d01ed4c:	01000324 	li	v1,1
1d01ed50:	00002292 	lbu	v0,0(s1)
1d01ed54:	80004010 	beqz	v0,0x1d01ef58
1d01ed58:	21180000 	move	v1,zero
1d01ed5c:	41000224 	li	v0,65
1d01ed60:	000002a2 	sb	v0,0(s0)
1d01ed64:	00002292 	lbu	v0,0(s1)
1d01ed68:	020002a2 	sb	v0,2(s0)
1d01ed6c:	01002292 	lbu	v0,1(s1)
1d01ed70:	030002a2 	sb	v0,3(s0)
1d01ed74:	02002292 	lbu	v0,2(s1)
1d01ed78:	040002a2 	sb	v0,4(s0)
1d01ed7c:	03002292 	lbu	v0,3(s1)
1d01ed80:	050002a2 	sb	v0,5(s0)
1d01ed84:	04002292 	lbu	v0,4(s1)
1d01ed88:	060002a2 	sb	v0,6(s0)
1d01ed8c:	05002292 	lbu	v0,5(s1)
1d01ed90:	070002a2 	sb	v0,7(s0)
1d01ed94:	d67b400b 	j	0x1d01ef58
1d01ed98:	01000324 	li	v1,1
1d01ed9c:	00002292 	lbu	v0,0(s1)
1d01eda0:	6d004010 	beqz	v0,0x1d01ef58
1d01eda4:	21180000 	move	v1,zero
1d01eda8:	42000224 	li	v0,66
1d01edac:	000002a2 	sb	v0,0(s0)
1d01edb0:	06002292 	lbu	v0,6(s1)
1d01edb4:	020002a2 	sb	v0,2(s0)
1d01edb8:	07002292 	lbu	v0,7(s1)
1d01edbc:	030002a2 	sb	v0,3(s0)
1d01edc0:	08002292 	lbu	v0,8(s1)
1d01edc4:	040002a2 	sb	v0,4(s0)
1d01edc8:	09002292 	lbu	v0,9(s1)
1d01edcc:	050002a2 	sb	v0,5(s0)
1d01edd0:	d67b400b 	j	0x1d01ef58
1d01edd4:	01000324 	li	v1,1
1d01edd8:	80ff0224 	li	v0,-128
1d01eddc:	d254400f 	jal	0x1d015348
1d01ede0:	000002a2 	sb	v0,0(s0)
1d01ede4:	d654400f 	jal	0x1d015358
1d01ede8:	020002a2 	sb	v0,2(s0)
1d01edec:	da54400f 	jal	0x1d015368
1d01edf0:	030002a2 	sb	v0,3(s0)
1d01edf4:	de54400f 	jal	0x1d015378
1d01edf8:	040002a2 	sb	v0,4(s0)
1d01edfc:	e254400f 	jal	0x1d015388
1d01ee00:	050002a2 	sb	v0,5(s0)
1d01ee04:	e654400f 	jal	0x1d015398
1d01ee08:	060002a2 	sb	v0,6(s0)
1d01ee0c:	070002a2 	sb	v0,7(s0)
1d01ee10:	d67b400b 	j	0x1d01ef58
1d01ee14:	01000324 	li	v1,1
1d01ee18:	81ff0224 	li	v0,-127
1d01ee1c:	000002a2 	sb	v0,0(s0)
1d01ee20:	32000224 	li	v0,50
1d01ee24:	020002a2 	sb	v0,2(s0)
1d01ee28:	30000224 	li	v0,48
1d01ee2c:	030002a2 	sb	v0,3(s0)
1d01ee30:	31000324 	li	v1,49
1d01ee34:	040003a2 	sb	v1,4(s0)
1d01ee38:	39000324 	li	v1,57
1d01ee3c:	050003a2 	sb	v1,5(s0)
1d01ee40:	2f000324 	li	v1,47
1d01ee44:	060003a2 	sb	v1,6(s0)
1d01ee48:	070002a2 	sb	v0,7(s0)
1d01ee4c:	d67b400b 	j	0x1d01ef58
1d01ee50:	01000324 	li	v1,1
1d01ee54:	82ff0224 	li	v0,-126
1d01ee58:	000002a2 	sb	v0,0(s0)
1d01ee5c:	38000224 	li	v0,56
1d01ee60:	020002a2 	sb	v0,2(s0)
1d01ee64:	2f000224 	li	v0,47
1d01ee68:	030002a2 	sb	v0,3(s0)
1d01ee6c:	31000224 	li	v0,49
1d01ee70:	040002a2 	sb	v0,4(s0)
1d01ee74:	33000224 	li	v0,51
1d01ee78:	050002a2 	sb	v0,5(s0)
1d01ee7c:	d67b400b 	j	0x1d01ef58
1d01ee80:	01000324 	li	v1,1
1d01ee84:	34008010 	beqz	a0,0x1d01ef58
1d01ee88:	21180000 	move	v1,zero
1d01ee8c:	83ff0324 	li	v1,-125
1d01ee90:	000003a2 	sb	v1,0(s0)
1d01ee94:	00004390 	lbu	v1,0(v0)
1d01ee98:	020003a2 	sb	v1,2(s0)
1d01ee9c:	01004390 	lbu	v1,1(v0)
1d01eea0:	030003a2 	sb	v1,3(s0)
1d01eea4:	02004390 	lbu	v1,2(v0)
1d01eea8:	040003a2 	sb	v1,4(s0)
1d01eeac:	03004390 	lbu	v1,3(v0)
1d01eeb0:	050003a2 	sb	v1,5(s0)
1d01eeb4:	04004390 	lbu	v1,4(v0)
1d01eeb8:	060003a2 	sb	v1,6(s0)
1d01eebc:	05004290 	lbu	v0,5(v0)
1d01eec0:	070002a2 	sb	v0,7(s0)
1d01eec4:	d67b400b 	j	0x1d01ef58
1d01eec8:	01000324 	li	v1,1
1d01eecc:	22008010 	beqz	a0,0x1d01ef58
1d01eed0:	21180000 	move	v1,zero
1d01eed4:	84ff0324 	li	v1,-124
1d01eed8:	000003a2 	sb	v1,0(s0)
1d01eedc:	06004390 	lbu	v1,6(v0)
1d01eee0:	020003a2 	sb	v1,2(s0)
1d01eee4:	07004390 	lbu	v1,7(v0)
1d01eee8:	030003a2 	sb	v1,3(s0)
1d01eeec:	08004390 	lbu	v1,8(v0)
1d01eef0:	040003a2 	sb	v1,4(s0)
1d01eef4:	09004390 	lbu	v1,9(v0)
1d01eef8:	050003a2 	sb	v1,5(s0)
1d01eefc:	0a004390 	lbu	v1,10(v0)
1d01ef00:	060003a2 	sb	v1,6(s0)
1d01ef04:	0b004290 	lbu	v0,11(v0)
1d01ef08:	070002a2 	sb	v0,7(s0)
1d01ef0c:	d67b400b 	j	0x1d01ef58
1d01ef10:	01000324 	li	v1,1
1d01ef14:	10008010 	beqz	a0,0x1d01ef58
1d01ef18:	21180000 	move	v1,zero
1d01ef1c:	85ff0324 	li	v1,-123
1d01ef20:	000003a2 	sb	v1,0(s0)
1d01ef24:	0c004390 	lbu	v1,12(v0)
1d01ef28:	020003a2 	sb	v1,2(s0)
1d01ef2c:	0d004390 	lbu	v1,13(v0)
1d01ef30:	030003a2 	sb	v1,3(s0)
1d01ef34:	0e004390 	lbu	v1,14(v0)
1d01ef38:	040003a2 	sb	v1,4(s0)
1d01ef3c:	0f004390 	lbu	v1,15(v0)
1d01ef40:	050003a2 	sb	v1,5(s0)
1d01ef44:	10004290 	lbu	v0,16(v0)
1d01ef48:	060002a2 	sb	v0,6(s0)
1d01ef4c:	d67b400b 	j	0x1d01ef58
1d01ef50:	01000324 	li	v1,1
1d01ef54:	21180000 	move	v1,zero
1d01ef58:	21106000 	move	v0,v1
1d01ef5c:	1c00bf8f 	lw	ra,28(sp)
1d01ef60:	1800b18f 	lw	s1,24(sp)
1d01ef64:	1400b08f 	lw	s0,20(sp)
1d01ef68:	0800e003 	jr	ra
1d01ef6c:	2000bd27 	addiu	sp,sp,32
1d01ef70:	2140c000 	move	t0,a2
1d01ef74:	21108000 	move	v0,a0
1d01ef78:	3f00e014 	bnez	a3,0x1d01f078
1d01ef7c:	2148a000 	move	t1,a1
1d01ef80:	2b18a600 	sltu	v1,a1,a2
1d01ef84:	47006010 	beqz	v1,0x1d01f0a4
1d01ef88:	2018c370 	clz	v1,a2
1d01ef8c:	08006050 	beqzl	v1,0x1d01efb0
1d01ef90:	021c0800 	srl	v1,t0,0x10
1d01ef94:	23480300 	negu	t1,v1
1d01ef98:	04286500 	sllv	a1,a1,v1
1d01ef9c:	06482401 	srlv	t1,a0,t1
1d01efa0:	04406600 	sllv	t0,a2,v1
1d01efa4:	25482501 	or	t1,t1,a1
1d01efa8:	04106400 	sllv	v0,a0,v1
1d01efac:	021c0800 	srl	v1,t0,0x10
1d01efb0:	1b002301 	divu	zero,t1,v1
1d01efb4:	f4016000 	teq	v1,zero,0x7
1d01efb8:	10600000 	mfhi	t4
1d01efbc:	12580000 	mflo	t3
1d01efc0:	ffff0a31 	andi	t2,t0,0xffff
1d01efc4:	02240200 	srl	a0,v0,0x10
1d01efc8:	12300000 	mflo	a2
1d01efcc:	02386a71 	mul	a3,t3,t2
1d01efd0:	00640c00 	sll	t4,t4,0x10
1d01efd4:	25208401 	or	a0,t4,a0
1d01efd8:	2b608700 	sltu	t4,a0,a3
1d01efdc:	1b002301 	divu	zero,t1,v1
1d01efe0:	f4016000 	teq	v1,zero,0x7
1d01efe4:	0b008011 	beqz	t4,0x1d01f014
1d01efe8:	23288700 	subu	a1,a0,a3
1d01efec:	21208800 	addu	a0,a0,t0
1d01eff0:	2b288800 	sltu	a1,a0,t0
1d01eff4:	0600a014 	bnez	a1,0x1d01f010
1d01eff8:	ffff6625 	addiu	a2,t3,-1
1d01effc:	2b288700 	sltu	a1,a0,a3
1d01f000:	0400a010 	beqz	a1,0x1d01f014
1d01f004:	23288700 	subu	a1,a0,a3
1d01f008:	feff6625 	addiu	a2,t3,-2
1d01f00c:	21208800 	addu	a0,a0,t0
1d01f010:	23288700 	subu	a1,a0,a3
1d01f014:	ffff4230 	andi	v0,v0,0xffff
1d01f018:	1b00a300 	divu	zero,a1,v1
1d01f01c:	f4016000 	teq	v1,zero,0x7
1d01f020:	10480000 	mfhi	t1
1d01f024:	12380000 	mflo	a3
1d01f028:	12200000 	mflo	a0
1d01f02c:	0250ea70 	mul	t2,a3,t2
1d01f030:	004c0900 	sll	t1,t1,0x10
1d01f034:	25102201 	or	v0,t1,v0
1d01f038:	2b484a00 	sltu	t1,v0,t2
1d01f03c:	1b00a300 	divu	zero,a1,v1
1d01f040:	f4016000 	teq	v1,zero,0x7
1d01f044:	09002051 	beqzl	t1,0x1d01f06c
1d01f048:	00140600 	sll	v0,a2,0x10
1d01f04c:	21104800 	addu	v0,v0,t0
1d01f050:	2b404800 	sltu	t0,v0,t0
1d01f054:	04000015 	bnez	t0,0x1d01f068
1d01f058:	ffffe424 	addiu	a0,a3,-1
1d01f05c:	2b504a00 	sltu	t2,v0,t2
1d01f060:	feffe724 	addiu	a3,a3,-2
1d01f064:	0b20ea00 	movn	a0,a3,t2
1d01f068:	00140600 	sll	v0,a2,0x10
1d01f06c:	25108200 	or	v0,a0,v0
1d01f070:	0800e003 	jr	ra
1d01f074:	21180000 	move	v1,zero
1d01f078:	2b10a700 	sltu	v0,a1,a3
1d01f07c:	44004014 	bnez	v0,0x1d01f190
1d01f080:	2040e870 	clz	t0,a3
1d01f084:	45000055 	bnezl	t0,0x1d01f19c
1d01f088:	20000224 	li	v0,32
1d01f08c:	2b28e500 	sltu	a1,a3,a1
1d01f090:	c800a014 	bnez	a1,0x1d01f3b4
1d01f094:	2b308600 	sltu	a2,a0,a2
1d01f098:	0100c238 	xori	v0,a2,0x1
1d01f09c:	0800e003 	jr	ra
1d01f0a0:	21180000 	move	v1,zero
1d01f0a4:	0600c014 	bnez	a2,0x1d01f0c0
1d01f0a8:	20180371 	clz	v1,t0
1d01f0ac:	01000324 	li	v1,1
1d01f0b0:	1b006600 	divu	zero,v1,a2
1d01f0b4:	f401c000 	teq	a2,zero,0x7
1d01f0b8:	12400000 	mflo	t0
1d01f0bc:	20180371 	clz	v1,t0
1d01f0c0:	7b006054 	bnezl	v1,0x1d01f2b0
1d01f0c4:	04406800 	sllv	t0,t0,v1
1d01f0c8:	2320a800 	subu	a0,a1,t0
1d01f0cc:	023c0800 	srl	a3,t0,0x10
1d01f0d0:	ffff0b31 	andi	t3,t0,0xffff
1d01f0d4:	01000324 	li	v1,1
1d01f0d8:	02340200 	srl	a2,v0,0x10
1d01f0dc:	1b008700 	divu	zero,a0,a3
1d01f0e0:	f401e000 	teq	a3,zero,0x7
1d01f0e4:	10680000 	mfhi	t5
1d01f0e8:	12600000 	mflo	t4
1d01f0ec:	12480000 	mflo	t1
1d01f0f0:	02508b71 	mul	t2,t4,t3
1d01f0f4:	006c0d00 	sll	t5,t5,0x10
1d01f0f8:	2530a601 	or	a2,t5,a2
1d01f0fc:	2b68ca00 	sltu	t5,a2,t2
1d01f100:	1b008700 	divu	zero,a0,a3
1d01f104:	f401e000 	teq	a3,zero,0x7
1d01f108:	0900a011 	beqz	t5,0x1d01f130
1d01f10c:	2328ca00 	subu	a1,a2,t2
1d01f110:	2130c800 	addu	a2,a2,t0
1d01f114:	2b20c800 	sltu	a0,a2,t0
1d01f118:	04008014 	bnez	a0,0x1d01f12c
1d01f11c:	ffff8925 	addiu	t1,t4,-1
1d01f120:	2b20ca00 	sltu	a0,a2,t2
1d01f124:	a6008054 	bnezl	a0,0x1d01f3c0
1d01f128:	feff8925 	addiu	t1,t4,-2
1d01f12c:	2328ca00 	subu	a1,a2,t2
1d01f130:	ffff4230 	andi	v0,v0,0xffff
1d01f134:	1b00a700 	divu	zero,a1,a3
1d01f138:	f401e000 	teq	a3,zero,0x7
1d01f13c:	10500000 	mfhi	t2
1d01f140:	12300000 	mflo	a2
1d01f144:	12200000 	mflo	a0
1d01f148:	0258cb70 	mul	t3,a2,t3
1d01f14c:	00540a00 	sll	t2,t2,0x10
1d01f150:	25104201 	or	v0,t2,v0
1d01f154:	2b504b00 	sltu	t2,v0,t3
1d01f158:	1b00a700 	divu	zero,a1,a3
1d01f15c:	f401e000 	teq	a3,zero,0x7
1d01f160:	09004051 	beqzl	t2,0x1d01f188
1d01f164:	00140900 	sll	v0,t1,0x10
1d01f168:	21104800 	addu	v0,v0,t0
1d01f16c:	2b404800 	sltu	t0,v0,t0
1d01f170:	04000015 	bnez	t0,0x1d01f184
1d01f174:	ffffc424 	addiu	a0,a2,-1
1d01f178:	2b584b00 	sltu	t3,v0,t3
1d01f17c:	feffc624 	addiu	a2,a2,-2
1d01f180:	0b20cb00 	movn	a0,a2,t3
1d01f184:	00140900 	sll	v0,t1,0x10
1d01f188:	0800e003 	jr	ra
1d01f18c:	25108200 	or	v0,a0,v0
1d01f190:	21180000 	move	v1,zero
1d01f194:	0800e003 	jr	ra
1d01f198:	21100000 	move	v0,zero
1d01f19c:	23104800 	subu	v0,v0,t0
1d01f1a0:	04380701 	sllv	a3,a3,t0
1d01f1a4:	06184600 	srlv	v1,a2,v0
1d01f1a8:	25386700 	or	a3,v1,a3
1d01f1ac:	06504500 	srlv	t2,a1,v0
1d01f1b0:	021c0700 	srl	v1,a3,0x10
1d01f1b4:	1b004301 	divu	zero,t2,v1
1d01f1b8:	f4016000 	teq	v1,zero,0x7
1d01f1bc:	10480000 	mfhi	t1
1d01f1c0:	12680000 	mflo	t5
1d01f1c4:	ffffeb30 	andi	t3,a3,0xffff
1d01f1c8:	04280501 	sllv	a1,a1,t0
1d01f1cc:	06104400 	srlv	v0,a0,v0
1d01f1d0:	25284500 	or	a1,v0,a1
1d01f1d4:	02740500 	srl	t6,a1,0x10
1d01f1d8:	12100000 	mflo	v0
1d01f1dc:	0260ab71 	mul	t4,t5,t3
1d01f1e0:	004c0900 	sll	t1,t1,0x10
1d01f1e4:	25482e01 	or	t1,t1,t6
1d01f1e8:	2b702c01 	sltu	t6,t1,t4
1d01f1ec:	1b004301 	divu	zero,t2,v1
1d01f1f0:	f4016000 	teq	v1,zero,0x7
1d01f1f4:	0a00c011 	beqz	t6,0x1d01f220
1d01f1f8:	04300601 	sllv	a2,a2,t0
1d01f1fc:	21482701 	addu	t1,t1,a3
1d01f200:	2b502701 	sltu	t2,t1,a3
1d01f204:	06004015 	bnez	t2,0x1d01f220
1d01f208:	ffffa225 	addiu	v0,t5,-1
1d01f20c:	2b502c01 	sltu	t2,t1,t4
1d01f210:	04004051 	beqzl	t2,0x1d01f224
1d01f214:	23482c01 	subu	t1,t1,t4
1d01f218:	feffa225 	addiu	v0,t5,-2
1d01f21c:	21482701 	addu	t1,t1,a3
1d01f220:	23482c01 	subu	t1,t1,t4
1d01f224:	ffffa530 	andi	a1,a1,0xffff
1d01f228:	1b002301 	divu	zero,t1,v1
1d01f22c:	f4016000 	teq	v1,zero,0x7
1d01f230:	10680000 	mfhi	t5
1d01f234:	12600000 	mflo	t4
1d01f238:	12500000 	mflo	t2
1d01f23c:	02588b71 	mul	t3,t4,t3
1d01f240:	006c0d00 	sll	t5,t5,0x10
1d01f244:	2528a501 	or	a1,t5,a1
1d01f248:	2b68ab00 	sltu	t5,a1,t3
1d01f24c:	1b002301 	divu	zero,t1,v1
1d01f250:	f4016000 	teq	v1,zero,0x7
1d01f254:	0b00a051 	beqzl	t5,0x1d01f284
1d01f258:	00140200 	sll	v0,v0,0x10
1d01f25c:	2128a700 	addu	a1,a1,a3
1d01f260:	2b18a700 	sltu	v1,a1,a3
1d01f264:	06006014 	bnez	v1,0x1d01f280
1d01f268:	ffff8a25 	addiu	t2,t4,-1
1d01f26c:	2b18ab00 	sltu	v1,a1,t3
1d01f270:	04006050 	beqzl	v1,0x1d01f284
1d01f274:	00140200 	sll	v0,v0,0x10
1d01f278:	feff8a25 	addiu	t2,t4,-2
1d01f27c:	2128a700 	addu	a1,a1,a3
1d01f280:	00140200 	sll	v0,v0,0x10
1d01f284:	25104201 	or	v0,t2,v0
1d01f288:	2328ab00 	subu	a1,a1,t3
1d01f28c:	19004600 	multu	v0,a2
1d01f290:	10380000 	mfhi	a3
1d01f294:	2b18a700 	sltu	v1,a1,a3
1d01f298:	44006014 	bnez	v1,0x1d01f3ac
1d01f29c:	12300000 	mflo	a2
1d01f2a0:	3f00a710 	beq	a1,a3,0x1d01f3a0
1d01f2a4:	04200401 	sllv	a0,a0,t0
1d01f2a8:	0800e003 	jr	ra
1d01f2ac:	21180000 	move	v1,zero
1d01f2b0:	20000224 	li	v0,32
1d01f2b4:	23104300 	subu	v0,v0,v1
1d01f2b8:	06484500 	srlv	t1,a1,v0
1d01f2bc:	023c0800 	srl	a3,t0,0x10
1d01f2c0:	1b002701 	divu	zero,t1,a3
1d01f2c4:	f401e000 	teq	a3,zero,0x7
1d01f2c8:	10300000 	mfhi	a2
1d01f2cc:	12600000 	mflo	t4
1d01f2d0:	ffff0b31 	andi	t3,t0,0xffff
1d01f2d4:	04286500 	sllv	a1,a1,v1
1d01f2d8:	06104400 	srlv	v0,a0,v0
1d01f2dc:	25284500 	or	a1,v0,a1
1d01f2e0:	026c0500 	srl	t5,a1,0x10
1d01f2e4:	04106400 	sllv	v0,a0,v1
1d01f2e8:	12180000 	mflo	v1
1d01f2ec:	02508b71 	mul	t2,t4,t3
1d01f2f0:	00340600 	sll	a2,a2,0x10
1d01f2f4:	2530a601 	or	a2,t5,a2
1d01f2f8:	2b20ca00 	sltu	a0,a2,t2
1d01f2fc:	1b002701 	divu	zero,t1,a3
1d01f300:	f401e000 	teq	a3,zero,0x7
1d01f304:	0b008050 	beqzl	a0,0x1d01f334
1d01f308:	2330ca00 	subu	a2,a2,t2
1d01f30c:	2130c800 	addu	a2,a2,t0
1d01f310:	2b20c800 	sltu	a0,a2,t0
1d01f314:	06008014 	bnez	a0,0x1d01f330
1d01f318:	ffff8325 	addiu	v1,t4,-1
1d01f31c:	2b20ca00 	sltu	a0,a2,t2
1d01f320:	04008050 	beqzl	a0,0x1d01f334
1d01f324:	2330ca00 	subu	a2,a2,t2
1d01f328:	feff8325 	addiu	v1,t4,-2
1d01f32c:	2130c800 	addu	a2,a2,t0
1d01f330:	2330ca00 	subu	a2,a2,t2
1d01f334:	ffffac30 	andi	t4,a1,0xffff
1d01f338:	1b00c700 	divu	zero,a2,a3
1d01f33c:	f401e000 	teq	a3,zero,0x7
1d01f340:	10200000 	mfhi	a0
1d01f344:	12500000 	mflo	t2
1d01f348:	12480000 	mflo	t1
1d01f34c:	02284b71 	mul	a1,t2,t3
1d01f350:	00240400 	sll	a0,a0,0x10
1d01f354:	25208c00 	or	a0,a0,t4
1d01f358:	2b608500 	sltu	t4,a0,a1
1d01f35c:	1b00c700 	divu	zero,a2,a3
1d01f360:	f401e000 	teq	a3,zero,0x7
1d01f364:	0b008051 	beqzl	t4,0x1d01f394
1d01f368:	001c0300 	sll	v1,v1,0x10
1d01f36c:	21208800 	addu	a0,a0,t0
1d01f370:	2b308800 	sltu	a2,a0,t0
1d01f374:	0600c014 	bnez	a2,0x1d01f390
1d01f378:	ffff4925 	addiu	t1,t2,-1
1d01f37c:	2b308500 	sltu	a2,a0,a1
1d01f380:	0400c050 	beqzl	a2,0x1d01f394
1d01f384:	001c0300 	sll	v1,v1,0x10
1d01f388:	feff4925 	addiu	t1,t2,-2
1d01f38c:	21208800 	addu	a0,a0,t0
1d01f390:	001c0300 	sll	v1,v1,0x10
1d01f394:	23208500 	subu	a0,a0,a1
1d01f398:	367c400b 	j	0x1d01f0d8
1d01f39c:	25182301 	or	v1,t1,v1
1d01f3a0:	2b308600 	sltu	a2,a0,a2
1d01f3a4:	c0ffc010 	beqz	a2,0x1d01f2a8
1d01f3a8:	00000000 	nop
1d01f3ac:	aa7c400b 	j	0x1d01f2a8
1d01f3b0:	ffff4224 	addiu	v0,v0,-1
1d01f3b4:	21180000 	move	v1,zero
1d01f3b8:	0800e003 	jr	ra
1d01f3bc:	01000224 	li	v0,1
1d01f3c0:	4b7c400b 	j	0x1d01f12c
1d01f3c4:	2130c800 	addu	a2,a2,t0

Disassembly of section .sec80:

1d01f3c8 <.sec80>:
1d01f3c8:	1300822c 	sltiu	v0,a0,19
1d01f3cc:	41004010 	beqz	v0,0x1d01f4d4
1d01f3d0:	80200400 	sll	a0,a0,0x2
1d01f3d4:	029d023c 	lui	v0,0x9d02
1d01f3d8:	ecf34224 	addiu	v0,v0,-3092
1d01f3dc:	21204400 	addu	a0,v0,a0
1d01f3e0:	0000828c 	lw	v0,0(a0)
1d01f3e4:	08004000 	jr	v0
1d01f3e8:	00000000 	nop
1d01f3ec:	38f4019d 	0x9d01f438
1d01f3f0:	d4f4019d 	0x9d01f4d4
1d01f3f4:	d4f4019d 	0x9d01f4d4
1d01f3f8:	d4f4019d 	0x9d01f4d4
1d01f3fc:	e0f4019d 	0x9d01f4e0
1d01f400:	44f4019d 	0x9d01f444
1d01f404:	50f4019d 	0x9d01f450
1d01f408:	5cf4019d 	0x9d01f45c
1d01f40c:	68f4019d 	0x9d01f468
1d01f410:	74f4019d 	0x9d01f474
1d01f414:	80f4019d 	0x9d01f480
1d01f418:	8cf4019d 	0x9d01f48c
1d01f41c:	98f4019d 	0x9d01f498
1d01f420:	a4f4019d 	0x9d01f4a4
1d01f424:	d4f4019d 	0x9d01f4d4
1d01f428:	d4f4019d 	0x9d01f4d4
1d01f42c:	b0f4019d 	0x9d01f4b0
1d01f430:	bcf4019d 	0x9d01f4bc
1d01f434:	c8f4019d 	0x9d01f4c8
1d01f438:	029d023c 	lui	v0,0x9d02
1d01f43c:	0800e003 	jr	ra
1d01f440:	8c1a4224 	addiu	v0,v0,6796
1d01f444:	029d023c 	lui	v0,0x9d02
1d01f448:	0800e003 	jr	ra
1d01f44c:	b41a4224 	addiu	v0,v0,6836
1d01f450:	029d023c 	lui	v0,0x9d02
1d01f454:	0800e003 	jr	ra
1d01f458:	c41a4224 	addiu	v0,v0,6852
1d01f45c:	029d023c 	lui	v0,0x9d02
1d01f460:	0800e003 	jr	ra
1d01f464:	d41a4224 	addiu	v0,v0,6868
1d01f468:	029d023c 	lui	v0,0x9d02
1d01f46c:	0800e003 	jr	ra
1d01f470:	e81a4224 	addiu	v0,v0,6888
1d01f474:	029d023c 	lui	v0,0x9d02
1d01f478:	0800e003 	jr	ra
1d01f47c:	f01a4224 	addiu	v0,v0,6896
1d01f480:	029d023c 	lui	v0,0x9d02
1d01f484:	0800e003 	jr	ra
1d01f488:	fc1a4224 	addiu	v0,v0,6908
1d01f48c:	029d023c 	lui	v0,0x9d02
1d01f490:	0800e003 	jr	ra
1d01f494:	141b4224 	addiu	v0,v0,6932
1d01f498:	029d023c 	lui	v0,0x9d02
1d01f49c:	0800e003 	jr	ra
1d01f4a0:	2c1b4224 	addiu	v0,v0,6956
1d01f4a4:	029d023c 	lui	v0,0x9d02
1d01f4a8:	0800e003 	jr	ra
1d01f4ac:	401b4224 	addiu	v0,v0,6976
1d01f4b0:	029d023c 	lui	v0,0x9d02
1d01f4b4:	0800e003 	jr	ra
1d01f4b8:	581b4224 	addiu	v0,v0,7000
1d01f4bc:	029d023c 	lui	v0,0x9d02
1d01f4c0:	0800e003 	jr	ra
1d01f4c4:	741b4224 	addiu	v0,v0,7028
1d01f4c8:	029d023c 	lui	v0,0x9d02
1d01f4cc:	0800e003 	jr	ra
1d01f4d0:	881b4224 	addiu	v0,v0,7048
1d01f4d4:	029d023c 	lui	v0,0x9d02
1d01f4d8:	0800e003 	jr	ra
1d01f4dc:	981b4224 	addiu	v0,v0,7064
1d01f4e0:	029d023c 	lui	v0,0x9d02
1d01f4e4:	0800e003 	jr	ra
1d01f4e8:	981a4224 	addiu	v0,v0,6808
1d01f4ec:	f0ffbd27 	addiu	sp,sp,-16
1d01f4f0:	0c00bfaf 	sw	ra,12(sp)
1d01f4f4:	00680240 	mfc0	v0,c0_cause
1d01f4f8:	8020427c 	ext	v0,v0,0x2,0x5
1d01f4fc:	8c8082af 	sw	v0,-32628(gp)
1d01f500:	00700240 	mfc0	v0,c0_epc
1d01f504:	888082af 	sw	v0,-32632(gp)
1d01f508:	00600240 	mfc0	v0,c0_status
1d01f50c:	ff0f033c 	lui	v1,0xfff
1d01f510:	feff6334 	ori	v1,v1,0xfffe
1d01f514:	24104300 	and	v0,v0,v1
1d01f518:	00608240 	mtc0	v0,c0_status
1d01f51c:	c0000000 	ehb
1d01f520:	8c80828f 	lw	v0,-32628(gp)
1d01f524:	fcff4224 	addiu	v0,v0,-4
1d01f528:	0a00432c 	sltiu	v1,v0,10
1d01f52c:	29006010 	beqz	v1,0x1d01f5d4
1d01f530:	80100200 	sll	v0,v0,0x2
1d01f534:	029d033c 	lui	v1,0x9d02
1d01f538:	4cf56324 	addiu	v1,v1,-2740
1d01f53c:	21106200 	addu	v0,v1,v0
1d01f540:	0000428c 	lw	v0,0(v0)
1d01f544:	08004000 	jr	v0
1d01f548:	00000000 	nop
1d01f54c:	74f5019d 	0x9d01f574
1d01f550:	84f5019d 	0x9d01f584
1d01f554:	b4f5019d 	0x9d01f5b4
1d01f558:	c4f5019d 	0x9d01f5c4
1d01f55c:	d4f5019d 	0x9d01f5d4
1d01f560:	d4f5019d 	0x9d01f5d4
1d01f564:	d4f5019d 	0x9d01f5d4
1d01f568:	d4f5019d 	0x9d01f5d4
1d01f56c:	94f5019d 	0x9d01f594
1d01f570:	a4f5019d 	0x9d01f5a4
1d01f574:	03000224 	li	v0,3
1d01f578:	848082af 	sw	v0,-32636(gp)
1d01f57c:	787d400b 	j	0x1d01f5e0
1d01f580:	88bf093c 	lui	t1,0xbf88
1d01f584:	04000224 	li	v0,4
1d01f588:	848082af 	sw	v0,-32636(gp)
1d01f58c:	787d400b 	j	0x1d01f5e0
1d01f590:	88bf093c 	lui	t1,0xbf88
1d01f594:	05000224 	li	v0,5
1d01f598:	848082af 	sw	v0,-32636(gp)
1d01f59c:	787d400b 	j	0x1d01f5e0
1d01f5a0:	88bf093c 	lui	t1,0xbf88
1d01f5a4:	06000224 	li	v0,6
1d01f5a8:	848082af 	sw	v0,-32636(gp)
1d01f5ac:	787d400b 	j	0x1d01f5e0
1d01f5b0:	88bf093c 	lui	t1,0xbf88
1d01f5b4:	07000224 	li	v0,7
1d01f5b8:	848082af 	sw	v0,-32636(gp)
1d01f5bc:	787d400b 	j	0x1d01f5e0
1d01f5c0:	88bf093c 	lui	t1,0xbf88
1d01f5c4:	08000224 	li	v0,8
1d01f5c8:	848082af 	sw	v0,-32636(gp)
1d01f5cc:	787d400b 	j	0x1d01f5e0
1d01f5d0:	88bf093c 	lui	t1,0xbf88
1d01f5d4:	02000224 	li	v0,2
1d01f5d8:	848082af 	sw	v0,-32636(gp)
1d01f5dc:	88bf093c 	lui	t1,0xbf88
1d01f5e0:	10000a24 	li	t2,16
1d01f5e4:	0c00033c 	lui	v1,0xc
1d01f5e8:	00356324 	addiu	v1,v1,13568
1d01f5ec:	80bf053c 	lui	a1,0xbf80
1d01f5f0:	88bf083c 	lui	t0,0xbf88
1d01f5f4:	20000624 	li	a2,32
1d01f5f8:	01000424 	li	a0,1
1d01f5fc:	e8602aad 	sw	t2,24808(t1)
1d01f600:	0000a0af 	sw	zero,0(sp)
1d01f604:	0000a78f 	lw	a3,0(sp)
1d01f608:	8480828f 	lw	v0,-32636(gp)
1d01f60c:	2b10e200 	sltu	v0,a3,v0
1d01f610:	25004010 	beqz	v0,0x1d01f6a8
1d01f614:	00000000 	nop
1d01f618:	e86026ad 	sw	a2,24808(t1)
1d01f61c:	0400a0af 	sw	zero,4(sp)
1d01f620:	0400a28f 	lw	v0,4(sp)
1d01f624:	2b104300 	sltu	v0,v0,v1
1d01f628:	09004010 	beqz	v0,0x1d01f650
1d01f62c:	00000000 	nop
1d01f630:	0800a4ac 	sw	a0,8(a1)
1d01f634:	0400a28f 	lw	v0,4(sp)
1d01f638:	01004224 	addiu	v0,v0,1
1d01f63c:	0400a2af 	sw	v0,4(sp)
1d01f640:	0400a28f 	lw	v0,4(sp)
1d01f644:	2b104300 	sltu	v0,v0,v1
1d01f648:	f9ff4014 	bnez	v0,0x1d01f630
1d01f64c:	00000000 	nop
1d01f650:	e46006ad 	sw	a2,24804(t0)
1d01f654:	0400a0af 	sw	zero,4(sp)
1d01f658:	0400a28f 	lw	v0,4(sp)
1d01f65c:	2b104300 	sltu	v0,v0,v1
1d01f660:	09004010 	beqz	v0,0x1d01f688
1d01f664:	00000000 	nop
1d01f668:	0800a4ac 	sw	a0,8(a1)
1d01f66c:	0400a28f 	lw	v0,4(sp)
1d01f670:	01004224 	addiu	v0,v0,1
1d01f674:	0400a2af 	sw	v0,4(sp)
1d01f678:	0400a28f 	lw	v0,4(sp)
1d01f67c:	2b104300 	sltu	v0,v0,v1
1d01f680:	f9ff4014 	bnez	v0,0x1d01f668
1d01f684:	00000000 	nop
1d01f688:	0000a28f 	lw	v0,0(sp)
1d01f68c:	01004224 	addiu	v0,v0,1
1d01f690:	0000a2af 	sw	v0,0(sp)
1d01f694:	0000a78f 	lw	a3,0(sp)
1d01f698:	8480828f 	lw	v0,-32636(gp)
1d01f69c:	2b10e200 	sltu	v0,a3,v0
1d01f6a0:	ddff4014 	bnez	v0,0x1d01f618
1d01f6a4:	00000000 	nop
1d01f6a8:	0000a0af 	sw	zero,0(sp)
1d01f6ac:	0000a28f 	lw	v0,0(sp)
1d01f6b0:	0a00422c 	sltiu	v0,v0,10
1d01f6b4:	d1ff4010 	beqz	v0,0x1d01f5fc
1d01f6b8:	00000000 	nop
1d01f6bc:	e46006ad 	sw	a2,24804(t0)
1d01f6c0:	0400a0af 	sw	zero,4(sp)
1d01f6c4:	0400a28f 	lw	v0,4(sp)
1d01f6c8:	2b104300 	sltu	v0,v0,v1
1d01f6cc:	09004010 	beqz	v0,0x1d01f6f4
1d01f6d0:	00000000 	nop
1d01f6d4:	0800a4ac 	sw	a0,8(a1)
1d01f6d8:	0400a28f 	lw	v0,4(sp)
1d01f6dc:	01004224 	addiu	v0,v0,1
1d01f6e0:	0400a2af 	sw	v0,4(sp)
1d01f6e4:	0400a28f 	lw	v0,4(sp)
1d01f6e8:	2b104300 	sltu	v0,v0,v1
1d01f6ec:	f9ff4014 	bnez	v0,0x1d01f6d4
1d01f6f0:	00000000 	nop
1d01f6f4:	0000a28f 	lw	v0,0(sp)
1d01f6f8:	01004224 	addiu	v0,v0,1
1d01f6fc:	0000a2af 	sw	v0,0(sp)
1d01f700:	0000a28f 	lw	v0,0(sp)
1d01f704:	0a00422c 	sltiu	v0,v0,10
1d01f708:	ecff4014 	bnez	v0,0x1d01f6bc
1d01f70c:	00000000 	nop
1d01f710:	7f7d400b 	j	0x1d01f5fc
1d01f714:	00000000 	nop
1d01f718:	d8ffbd27 	addiu	sp,sp,-40
1d01f71c:	2400bfaf 	sw	ra,36(sp)
1d01f720:	2000b3af 	sw	s3,32(sp)
1d01f724:	1c00b2af 	sw	s2,28(sp)
1d01f728:	1800b1af 	sw	s1,24(sp)
1d01f72c:	1400b0af 	sw	s0,20(sp)
1d01f730:	21888000 	move	s1,a0
1d01f734:	00008290 	lbu	v0,0(a0)
1d01f738:	ffff4224 	addiu	v0,v0,-1
1d01f73c:	ff004230 	andi	v0,v0,0xff
1d01f740:	cf00422c 	sltiu	v0,v0,207
1d01f744:	b8004010 	beqz	v0,0x1d01fa28
1d01f748:	21800000 	move	s0,zero
1d01f74c:	2190a000 	move	s2,a1
1d01f750:	2120a000 	move	a0,a1
1d01f754:	21280000 	move	a1,zero
1d01f758:	9288400f 	jal	0x1d022248
1d01f75c:	40000624 	li	a2,64
1d01f760:	00002292 	lbu	v0,0(s1)
1d01f764:	c0000324 	li	v1,192
1d01f768:	09004314 	bne	v0,v1,0x1d01f790
1d01f76c:	c1000324 	li	v1,193
1d01f770:	c0ff0224 	li	v0,-64
1d01f774:	000042a2 	sb	v0,0(s2)
1d01f778:	02000224 	li	v0,2
1d01f77c:	020042a6 	sh	v0,2(s2)
1d01f780:	040042a6 	sh	v0,4(s2)
1d01f784:	060040a6 	sh	zero,6(s2)
1d01f788:	8a7e400b 	j	0x1d01fa28
1d01f78c:	01001024 	li	s0,1
1d01f790:	25004314 	bne	v0,v1,0x1d01f828
1d01f794:	c2000324 	li	v1,194
1d01f798:	c1ff0224 	li	v0,-63
1d01f79c:	000042a2 	sb	v0,0(s2)
1d01f7a0:	01004226 	addiu	v0,s2,1
1d01f7a4:	029d033c 	lui	v1,0x9d02
1d01f7a8:	5c2c658c 	lw	a1,11356(v1)
1d01f7ac:	5c2c6324 	addiu	v1,v1,11356
1d01f7b0:	0400648c 	lw	a0,4(v1)
1d01f7b4:	040045aa 	swl	a1,4(s2)
1d01f7b8:	000045b8 	swr	a1,0(v0)
1d01f7bc:	070044a8 	swl	a0,7(v0)
1d01f7c0:	040044b8 	swr	a0,4(v0)
1d01f7c4:	08006490 	lbu	a0,8(v1)
1d01f7c8:	080044a0 	sb	a0,8(v0)
1d01f7cc:	09006490 	lbu	a0,9(v1)
1d01f7d0:	090044a0 	sb	a0,9(v0)
1d01f7d4:	0a006390 	lbu	v1,10(v1)
1d01f7d8:	0a0043a0 	sb	v1,10(v0)
1d01f7dc:	0c004426 	addiu	a0,s2,12
1d01f7e0:	029d053c 	lui	a1,0x9d02
1d01f7e4:	682ca524 	addiu	a1,a1,11368
1d01f7e8:	ba89400f 	jal	0x1d0226e8
1d01f7ec:	10000624 	li	a2,16
1d01f7f0:	ea54400f 	jal	0x1d0153a8
1d01f7f4:	01001024 	li	s0,1
1d01f7f8:	1c004426 	addiu	a0,s2,28
1d01f7fc:	21284000 	move	a1,v0
1d01f800:	ba89400f 	jal	0x1d0226e8
1d01f804:	12000624 	li	a2,18
1d01f808:	6e55400f 	jal	0x1d0155b8
1d01f80c:	00000000 	nop
1d01f810:	2e004426 	addiu	a0,s2,46
1d01f814:	21284000 	move	a1,v0
1d01f818:	ba89400f 	jal	0x1d0226e8
1d01f81c:	12000624 	li	a2,18
1d01f820:	8b7e400b 	j	0x1d01fa2c
1d01f824:	21100002 	move	v0,s0
1d01f828:	1b004314 	bne	v0,v1,0x1d01f898
1d01f82c:	c3000324 	li	v1,195
1d01f830:	c2ff0224 	li	v0,-62
1d01f834:	000042a2 	sb	v0,0(s2)
1d01f838:	02002296 	lhu	v0,2(s1)
1d01f83c:	ff55400f 	jal	0x1d0157fc
1d01f840:	020042a6 	sh	v0,2(s2)
1d01f844:	21984000 	move	s3,v0
1d01f848:	f884400f 	jal	0x1d0213e0
1d01f84c:	21204000 	move	a0,v0
1d01f850:	0010432c 	sltiu	v1,v0,4096
1d01f854:	6d006010 	beqz	v1,0x1d01fa0c
1d01f858:	02002596 	lhu	a1,2(s1)
1d01f85c:	23204500 	subu	a0,v0,a1
1d01f860:	3c008428 	slti	a0,a0,60
1d01f864:	6e008010 	beqz	a0,0x1d01fa20
1d01f868:	2118a000 	move	v1,a1
1d01f86c:	1f7e400b 	j	0x1d01f87c
1d01f870:	23304300 	subu	a2,v0,v1
1d01f874:	00100224 	li	v0,4096
1d01f878:	23304300 	subu	a2,v0,v1
1d01f87c:	6a00c018 	blez	a2,0x1d01fa28
1d01f880:	01001024 	li	s0,1
1d01f884:	04004426 	addiu	a0,s2,4
1d01f888:	9e84400f 	jal	0x1d021278
1d01f88c:	21286502 	addu	a1,s3,a1
1d01f890:	8a7e400b 	j	0x1d01fa28
1d01f894:	01001024 	li	s0,1
1d01f898:	20004314 	bne	v0,v1,0x1d01f91c
1d01f89c:	c4000324 	li	v1,196
1d01f8a0:	c3ff0224 	li	v0,-61
1d01f8a4:	000042a2 	sb	v0,0(s2)
1d01f8a8:	02002296 	lhu	v0,2(s1)
1d01f8ac:	07004054 	bnezl	v0,0x1d01f8cc
1d01f8b0:	02002496 	lhu	a0,2(s1)
1d01f8b4:	01a0043c 	lui	a0,0xa001
1d01f8b8:	301f8424 	addiu	a0,a0,7984
1d01f8bc:	21280000 	move	a1,zero
1d01f8c0:	9288400f 	jal	0x1d022248
1d01f8c4:	00100624 	li	a2,4096
1d01f8c8:	02002496 	lhu	a0,2(s1)
1d01f8cc:	04101324 	li	s3,4100
1d01f8d0:	23986402 	subu	s3,s3,a0
1d01f8d4:	3d00632a 	slti	v1,s3,61
1d01f8d8:	3c000224 	li	v0,60
1d01f8dc:	0a984300 	movz	s3,v0,v1
1d01f8e0:	5100601a 	blez	s3,0x1d01fa28
1d01f8e4:	01001024 	li	s0,1
1d01f8e8:	01a0103c 	lui	s0,0xa001
1d01f8ec:	301f1026 	addiu	s0,s0,7984
1d01f8f0:	21200402 	addu	a0,s0,a0
1d01f8f4:	04002526 	addiu	a1,s1,4
1d01f8f8:	9e84400f 	jal	0x1d021278
1d01f8fc:	21306002 	move	a2,s3
1d01f900:	02002296 	lhu	v0,2(s1)
1d01f904:	21985300 	addu	s3,v0,s3
1d01f908:	001013ae 	sw	s3,4096(s0)
1d01f90c:	02002296 	lhu	v0,2(s1)
1d01f910:	020042a6 	sh	v0,2(s2)
1d01f914:	8a7e400b 	j	0x1d01fa28
1d01f918:	01001024 	li	s0,1
1d01f91c:	0c004314 	bne	v0,v1,0x1d01f950
1d01f920:	38004324 	addiu	v1,v0,56
1d01f924:	c4ff0224 	li	v0,-60
1d01f928:	000042a2 	sb	v0,0(s2)
1d01f92c:	01a0023c 	lui	v0,0xa001
1d01f930:	301f4224 	addiu	v0,v0,7984
1d01f934:	21204000 	move	a0,v0
1d01f938:	e457400f 	jal	0x1d015f90
1d01f93c:	0010458c 	lw	a1,4096(v0)
1d01f940:	0c56400f 	jal	0x1d015830
1d01f944:	01001024 	li	s0,1
1d01f948:	8b7e400b 	j	0x1d01fa2c
1d01f94c:	21100002 	move	v0,s0
1d01f950:	ff006330 	andi	v1,v1,0xff
1d01f954:	0800632c 	sltiu	v1,v1,8
1d01f958:	33006010 	beqz	v1,0x1d01fa28
1d01f95c:	21800000 	move	s0,zero
1d01f960:	000042a2 	sb	v0,0(s2)
1d01f964:	00003192 	lbu	s1,0(s1)
1d01f968:	38ff3126 	addiu	s1,s1,-200
1d01f96c:	a954400f 	jal	0x1d0152a4
1d01f970:	21202002 	move	a0,s1
1d01f974:	23004010 	beqz	v0,0x1d01fa04
1d01f978:	21804000 	move	s0,v0
1d01f97c:	01004292 	lbu	v0,1(s2)
1d01f980:	01000324 	li	v1,1
1d01f984:	0400627c 	ins	v0,v1,0x0,0x1
1d01f988:	010042a2 	sb	v0,1(s2)
1d01f98c:	ab54400f 	jal	0x1d0152ac
1d01f990:	21202002 	move	a0,s1
1d01f994:	01004392 	lbu	v1,1(s2)
1d01f998:	4408437c 	ins	v1,v0,0x1,0x1
1d01f99c:	010043a2 	sb	v1,1(s2)
1d01f9a0:	b154400f 	jal	0x1d0152c4
1d01f9a4:	21202002 	move	a0,s1
1d01f9a8:	01004392 	lbu	v1,1(s2)
1d01f9ac:	8410437c 	ins	v1,v0,0x2,0x1
1d01f9b0:	010043a2 	sb	v1,1(s2)
1d01f9b4:	b754400f 	jal	0x1d0152dc
1d01f9b8:	21202002 	move	a0,s1
1d01f9bc:	020042a6 	sh	v0,2(s2)
1d01f9c0:	bd54400f 	jal	0x1d0152f4
1d01f9c4:	21202002 	move	a0,s1
1d01f9c8:	040042a6 	sh	v0,4(s2)
1d01f9cc:	c354400f 	jal	0x1d01530c
1d01f9d0:	21202002 	move	a0,s1
1d01f9d4:	06004426 	addiu	a0,s2,6
1d01f9d8:	21284000 	move	a1,v0
1d01f9dc:	ba89400f 	jal	0x1d0226e8
1d01f9e0:	10000624 	li	a2,16
1d01f9e4:	c954400f 	jal	0x1d015324
1d01f9e8:	21202002 	move	a0,s1
1d01f9ec:	16004426 	addiu	a0,s2,22
1d01f9f0:	21284000 	move	a1,v0
1d01f9f4:	ba89400f 	jal	0x1d0226e8
1d01f9f8:	2a000624 	li	a2,42
1d01f9fc:	8b7e400b 	j	0x1d01fa2c
1d01fa00:	21100002 	move	v0,s0
1d01fa04:	8a7e400b 	j	0x1d01fa28
1d01fa08:	01001024 	li	s0,1
1d01fa0c:	00100224 	li	v0,4096
1d01fa10:	23104500 	subu	v0,v0,a1
1d01fa14:	3c004228 	slti	v0,v0,60
1d01fa18:	96ff4014 	bnez	v0,0x1d01f874
1d01fa1c:	2118a000 	move	v1,a1
1d01fa20:	217e400b 	j	0x1d01f884
1d01fa24:	3c000624 	li	a2,60
1d01fa28:	21100002 	move	v0,s0
1d01fa2c:	2400bf8f 	lw	ra,36(sp)
1d01fa30:	2000b38f 	lw	s3,32(sp)
1d01fa34:	1c00b28f 	lw	s2,28(sp)
1d01fa38:	1800b18f 	lw	s1,24(sp)
1d01fa3c:	1400b08f 	lw	s0,20(sp)
1d01fa40:	0800e003 	jr	ra
1d01fa44:	2800bd27 	addiu	sp,sp,40

Disassembly of section .sec81:

1d01fa48 <.sec81>:
1d01fa48:	e8ffbd27 	addiu	sp,sp,-24
1d01fa4c:	1400bfaf 	sw	ra,20(sp)
1d01fa50:	4f45400f 	jal	0x1d01153c
1d01fa54:	00000000 	nop
1d01fa58:	ab8a400f 	jal	0x1d022aac
1d01fa5c:	00000000 	nop
1d01fa60:	b746400f 	jal	0x1d011adc
1d01fa64:	00000000 	nop
1d01fa68:	1400bf8f 	lw	ra,20(sp)
1d01fa6c:	0800e003 	jr	ra
1d01fa70:	1800bd27 	addiu	sp,sp,24
1d01fa74:	0002033c 	lui	v1,0x200
1d01fa78:	88bf023c 	lui	v0,0xbf88
1d01fa7c:	741043ac 	sw	v1,4212(v0)
1d01fa80:	0800e003 	jr	ra
1d01fa84:	00000000 	nop
1d01fa88:	e0ffbd27 	addiu	sp,sp,-32
1d01fa8c:	1c00bfaf 	sw	ra,28(sp)
1d01fa90:	1800b1af 	sw	s1,24(sp)
1d01fa94:	1400b0af 	sw	s0,20(sp)
1d01fa98:	3881838f 	lw	v1,-32456(gp)
1d01fa9c:	20000224 	li	v0,32
1d01faa0:	62006254 	bnel	v1,v0,0x1d01fc2c
1d01faa4:	1c00bf8f 	lw	ra,28(sp)
1d01faa8:	c880828f 	lw	v0,-32568(gp)
1d01faac:	07004010 	beqz	v0,0x1d01facc
1d01fab0:	01a0103c 	lui	s0,0xa001
1d01fab4:	00004290 	lbu	v0,0(v0)
1d01fab8:	80004230 	andi	v0,v0,0x80
1d01fabc:	ff004230 	andi	v0,v0,0xff
1d01fac0:	12004014 	bnez	v0,0x1d01fb0c
1d01fac4:	c480828f 	lw	v0,-32572(gp)
1d01fac8:	01a0103c 	lui	s0,0xa001
1d01facc:	403a0426 	addiu	a0,s0,14912
1d01fad0:	01a0113c 	lui	s1,0xa001
1d01fad4:	433c400f 	jal	0x1d00f10c
1d01fad8:	003a2526 	addiu	a1,s1,14848
1d01fadc:	01000424 	li	a0,1
1d01fae0:	01000524 	li	a1,1
1d01fae4:	003a2626 	addiu	a2,s1,14848
1d01fae8:	0e46400f 	jal	0x1d011838
1d01faec:	40000724 	li	a3,64
1d01faf0:	01000424 	li	a0,1
1d01faf4:	21280000 	move	a1,zero
1d01faf8:	403a0626 	addiu	a2,s0,14912
1d01fafc:	0e46400f 	jal	0x1d011838
1d01fb00:	40000724 	li	a3,64
1d01fb04:	c88082af 	sw	v0,-32568(gp)
1d01fb08:	c480828f 	lw	v0,-32572(gp)
1d01fb0c:	07004050 	beqzl	v0,0x1d01fb2c
1d01fb10:	c080828f 	lw	v0,-32576(gp)
1d01fb14:	00004290 	lbu	v0,0(v0)
1d01fb18:	80004230 	andi	v0,v0,0x80
1d01fb1c:	ff004230 	andi	v0,v0,0xff
1d01fb20:	1e004014 	bnez	v0,0x1d01fb9c
1d01fb24:	bc80828f 	lw	v0,-32580(gp)
1d01fb28:	c080828f 	lw	v0,-32576(gp)
1d01fb2c:	07004010 	beqz	v0,0x1d01fb4c
1d01fb30:	01a0043c 	lui	a0,0xa001
1d01fb34:	00004290 	lbu	v0,0(v0)
1d01fb38:	80004230 	andi	v0,v0,0x80
1d01fb3c:	ff004230 	andi	v0,v0,0xff
1d01fb40:	16004014 	bnez	v0,0x1d01fb9c
1d01fb44:	bc80828f 	lw	v0,-32580(gp)
1d01fb48:	01a0043c 	lui	a0,0xa001
1d01fb4c:	c0398424 	addiu	a0,a0,14784
1d01fb50:	01a0053c 	lui	a1,0xa001
1d01fb54:	1261400f 	jal	0x1d018448
1d01fb58:	8039a524 	addiu	a1,a1,14720
1d01fb5c:	08004010 	beqz	v0,0x1d01fb80
1d01fb60:	02000424 	li	a0,2
1d01fb64:	01000524 	li	a1,1
1d01fb68:	01a0063c 	lui	a2,0xa001
1d01fb6c:	8039c624 	addiu	a2,a2,14720
1d01fb70:	0e46400f 	jal	0x1d011838
1d01fb74:	ff004730 	andi	a3,v0,0xff
1d01fb78:	c08082af 	sw	v0,-32576(gp)
1d01fb7c:	02000424 	li	a0,2
1d01fb80:	21280000 	move	a1,zero
1d01fb84:	01a0063c 	lui	a2,0xa001
1d01fb88:	c039c624 	addiu	a2,a2,14784
1d01fb8c:	0e46400f 	jal	0x1d011838
1d01fb90:	40000724 	li	a3,64
1d01fb94:	c48082af 	sw	v0,-32572(gp)
1d01fb98:	bc80828f 	lw	v0,-32580(gp)
1d01fb9c:	07004010 	beqz	v0,0x1d01fbbc
1d01fba0:	01a0103c 	lui	s0,0xa001
1d01fba4:	00004290 	lbu	v0,0(v0)
1d01fba8:	80004230 	andi	v0,v0,0x80
1d01fbac:	ff004230 	andi	v0,v0,0xff
1d01fbb0:	0b004014 	bnez	v0,0x1d01fbe0
1d01fbb4:	b880828f 	lw	v0,-32584(gp)
1d01fbb8:	01a0103c 	lui	s0,0xa001
1d01fbbc:	3a61400f 	jal	0x1d0184e8
1d01fbc0:	40390426 	addiu	a0,s0,14656
1d01fbc4:	03000424 	li	a0,3
1d01fbc8:	21280000 	move	a1,zero
1d01fbcc:	40390626 	addiu	a2,s0,14656
1d01fbd0:	0e46400f 	jal	0x1d011838
1d01fbd4:	40000724 	li	a3,64
1d01fbd8:	bc8082af 	sw	v0,-32580(gp)
1d01fbdc:	b880828f 	lw	v0,-32584(gp)
1d01fbe0:	06004010 	beqz	v0,0x1d01fbfc
1d01fbe4:	01a0043c 	lui	a0,0xa001
1d01fbe8:	00004290 	lbu	v0,0(v0)
1d01fbec:	80004230 	andi	v0,v0,0x80
1d01fbf0:	ff004230 	andi	v0,v0,0xff
1d01fbf4:	0d004014 	bnez	v0,0x1d01fc2c
1d01fbf8:	1c00bf8f 	lw	ra,28(sp)
1d01fbfc:	4161400f 	jal	0x1d018504
1d01fc00:	00398424 	addiu	a0,a0,14592
1d01fc04:	09004010 	beqz	v0,0x1d01fc2c
1d01fc08:	1c00bf8f 	lw	ra,28(sp)
1d01fc0c:	03000424 	li	a0,3
1d01fc10:	01000524 	li	a1,1
1d01fc14:	01a0063c 	lui	a2,0xa001
1d01fc18:	0039c624 	addiu	a2,a2,14592
1d01fc1c:	0e46400f 	jal	0x1d011838
1d01fc20:	ff004730 	andi	a3,v0,0xff
1d01fc24:	b88082af 	sw	v0,-32584(gp)
1d01fc28:	1c00bf8f 	lw	ra,28(sp)
1d01fc2c:	1800b18f 	lw	s1,24(sp)
1d01fc30:	1400b08f 	lw	s0,20(sp)
1d01fc34:	0800e003 	jr	ra
1d01fc38:	2000bd27 	addiu	sp,sp,32
1d01fc3c:	e8ffbd27 	addiu	sp,sp,-24
1d01fc40:	1400bfaf 	sw	ra,20(sp)
1d01fc44:	01000424 	li	a0,1
1d01fc48:	d945400f 	jal	0x1d011764
1d01fc4c:	1d000524 	li	a1,29
1d01fc50:	01000424 	li	a0,1
1d01fc54:	21280000 	move	a1,zero
1d01fc58:	01a0063c 	lui	a2,0xa001
1d01fc5c:	403ac624 	addiu	a2,a2,14912
1d01fc60:	0e46400f 	jal	0x1d011838
1d01fc64:	40000724 	li	a3,64
1d01fc68:	c88082af 	sw	v0,-32568(gp)
1d01fc6c:	02000424 	li	a0,2
1d01fc70:	d945400f 	jal	0x1d011764
1d01fc74:	1d000524 	li	a1,29
1d01fc78:	02000424 	li	a0,2
1d01fc7c:	21280000 	move	a1,zero
1d01fc80:	01a0063c 	lui	a2,0xa001
1d01fc84:	c039c624 	addiu	a2,a2,14784
1d01fc88:	0e46400f 	jal	0x1d011838
1d01fc8c:	40000724 	li	a3,64
1d01fc90:	c48082af 	sw	v0,-32572(gp)
1d01fc94:	03000424 	li	a0,3
1d01fc98:	d945400f 	jal	0x1d011764
1d01fc9c:	1d000524 	li	a1,29
1d01fca0:	03000424 	li	a0,3
1d01fca4:	21280000 	move	a1,zero
1d01fca8:	01a0063c 	lui	a2,0xa001
1d01fcac:	4039c624 	addiu	a2,a2,14656
1d01fcb0:	0e46400f 	jal	0x1d011838
1d01fcb4:	40000724 	li	a3,64
1d01fcb8:	bc8082af 	sw	v0,-32580(gp)
1d01fcbc:	1400bf8f 	lw	ra,20(sp)
1d01fcc0:	0800e003 	jr	ra
1d01fcc4:	1800bd27 	addiu	sp,sp,24
1d01fcc8:	0800e003 	jr	ra
1d01fccc:	00000000 	nop
1d01fcd0:	0800e003 	jr	ra
1d01fcd4:	00000000 	nop
1d01fcd8:	0800e003 	jr	ra
1d01fcdc:	00000000 	nop
1d01fce0:	0800e003 	jr	ra
1d01fce4:	00000000 	nop
1d01fce8:	e8ffbd27 	addiu	sp,sp,-24
1d01fcec:	1400bfaf 	sw	ra,20(sp)
1d01fcf0:	7383400f 	jal	0x1d020dcc
1d01fcf4:	00000000 	nop
1d01fcf8:	1400bf8f 	lw	ra,20(sp)
1d01fcfc:	0800e003 	jr	ra
1d01fd00:	1800bd27 	addiu	sp,sp,24
1d01fd04:	0800e003 	jr	ra
1d01fd08:	00000000 	nop
1d01fd0c:	e8ffbd27 	addiu	sp,sp,-24
1d01fd10:	01000224 	li	v0,1
1d01fd14:	06008210 	beq	a0,v0,0x1d01fd30
1d01fd18:	1400bfaf 	sw	ra,20(sp)
1d01fd1c:	03000224 	li	v0,3
1d01fd20:	07008210 	beq	a0,v0,0x1d01fd40
1d01fd24:	01000224 	li	v0,1
1d01fd28:	547f400b 	j	0x1d01fd50
1d01fd2c:	1400bf8f 	lw	ra,20(sp)
1d01fd30:	0f7f400f 	jal	0x1d01fc3c
1d01fd34:	00000000 	nop
1d01fd38:	537f400b 	j	0x1d01fd4c
1d01fd3c:	01000224 	li	v0,1
1d01fd40:	7383400f 	jal	0x1d020dcc
1d01fd44:	00000000 	nop
1d01fd48:	01000224 	li	v0,1
1d01fd4c:	1400bf8f 	lw	ra,20(sp)
1d01fd50:	0800e003 	jr	ra
1d01fd54:	1800bd27 	addiu	sp,sp,24
1d01fd58:	80200400 	sll	a0,a0,0x2
1d01fd5c:	44808227 	addiu	v0,gp,-32700
1d01fd60:	21204400 	addu	a0,v0,a0
1d01fd64:	0000828c 	lw	v0,0(a0)
1d01fd68:	ffffa530 	andi	a1,a1,0xffff
1d01fd6c:	720045a4 	sh	a1,114(v0)
1d01fd70:	0800e003 	jr	ra
1d01fd74:	00000000 	nop
1d01fd78:	80200400 	sll	a0,a0,0x2
1d01fd7c:	44808227 	addiu	v0,gp,-32700
1d01fd80:	21204400 	addu	a0,v0,a0
1d01fd84:	0000828c 	lw	v0,0(a0)
1d01fd88:	72004294 	lhu	v0,114(v0)
1d01fd8c:	0800e003 	jr	ra
1d01fd90:	ffff4230 	andi	v0,v0,0xffff
1d01fd94:	80200400 	sll	a0,a0,0x2
1d01fd98:	44808227 	addiu	v0,gp,-32700
1d01fd9c:	21204400 	addu	a0,v0,a0
1d01fda0:	0000828c 	lw	v0,0(a0)
1d01fda4:	ffffa530 	andi	a1,a1,0xffff
1d01fda8:	700045a4 	sh	a1,112(v0)
1d01fdac:	0800e003 	jr	ra
1d01fdb0:	00000000 	nop
1d01fdb4:	0400a38c 	lw	v1,4(a1)
1d01fdb8:	0000a28c 	lw	v0,0(a1)
1d01fdbc:	21106200 	addu	v0,v1,v0
1d01fdc0:	04004224 	addiu	v0,v0,4
1d01fdc4:	0800a38c 	lw	v1,8(a1)
1d01fdc8:	21104300 	addu	v0,v0,v1
1d01fdcc:	40100200 	sll	v0,v0,0x1
1d01fdd0:	02384770 	mul	a3,v0,a3
1d01fdd4:	1b00c700 	divu	zero,a2,a3
1d01fdd8:	f401e000 	teq	a3,zero,0x7
1d01fddc:	12380000 	mflo	a3
1d01fde0:	80200400 	sll	a0,a0,0x2
1d01fde4:	44808227 	addiu	v0,gp,-32700
1d01fde8:	21204400 	addu	a0,v0,a0
1d01fdec:	0000828c 	lw	v0,0(a0)
1d01fdf0:	0c00a48c 	lw	a0,12(a1)
1d01fdf4:	01000324 	li	v1,1
1d01fdf8:	05008314 	bne	a0,v1,0x1d01fe10
1d01fdfc:	ffffe724 	addiu	a3,a3,-1
1d01fe00:	00800334 	li	v1,0x8000
1d01fe04:	180043ac 	sw	v1,24(v0)
1d01fe08:	877f400b 	j	0x1d01fe1c
1d01fe0c:	1000a48c 	lw	a0,16(a1)
1d01fe10:	00800334 	li	v1,0x8000
1d01fe14:	140043ac 	sw	v1,20(v0)
1d01fe18:	1000a48c 	lw	a0,16(a1)
1d01fe1c:	01000324 	li	v1,1
1d01fe20:	04008314 	bne	a0,v1,0x1d01fe34
1d01fe24:	00400324 	li	v1,16384
1d01fe28:	180043ac 	sw	v1,24(v0)
1d01fe2c:	8f7f400b 	j	0x1d01fe3c
1d01fe30:	0400a48c 	lw	a0,4(a1)
1d01fe34:	140043ac 	sw	v1,20(v0)
1d01fe38:	0400a48c 	lw	a0,4(a1)
1d01fe3c:	1000438c 	lw	v1,16(v0)
1d01fe40:	c46a837c 	ins	v1,a0,0xb,0x3
1d01fe44:	100043ac 	sw	v1,16(v0)
1d01fe48:	0000a48c 	lw	a0,0(a1)
1d01fe4c:	1000438c 	lw	v1,16(v0)
1d01fe50:	0494837c 	ins	v1,a0,0x10,0x3
1d01fe54:	100043ac 	sw	v1,16(v0)
1d01fe58:	0800a48c 	lw	a0,8(a1)
1d01fe5c:	1000438c 	lw	v1,16(v0)
1d01fe60:	0452837c 	ins	v1,a0,0x8,0x3
1d01fe64:	100043ac 	sw	v1,16(v0)
1d01fe68:	1400a48c 	lw	a0,20(a1)
1d01fe6c:	1000438c 	lw	v1,16(v0)
1d01fe70:	8439837c 	ins	v1,a0,0x6,0x2
1d01fe74:	100043ac 	sw	v1,16(v0)
1d01fe78:	1000438c 	lw	v1,16(v0)
1d01fe7c:	0428e37c 	ins	v1,a3,0x0,0x6
1d01fe80:	100043ac 	sw	v1,16(v0)
1d01fe84:	0800e003 	jr	ra
1d01fe88:	00000000 	nop
1d01fe8c:	80200400 	sll	a0,a0,0x2
1d01fe90:	44808227 	addiu	v0,gp,-32700
1d01fe94:	21204400 	addu	a0,v0,a0
1d01fe98:	01000324 	li	v1,1
1d01fe9c:	0a00c314 	bne	a2,v1,0x1d01fec8
1d01fea0:	0000828c 	lw	v0,0(a0)
1d01fea4:	1000033c 	lui	v1,0x10
1d01fea8:	00206324 	addiu	v1,v1,8192
1d01feac:	2418a300 	and	v1,a1,v1
1d01feb0:	080043ac 	sw	v1,8(v0)
1d01feb4:	4000033c 	lui	v1,0x40
1d01feb8:	2428a300 	and	a1,a1,v1
1d01febc:	180045ac 	sw	a1,24(v0)
1d01fec0:	0800e003 	jr	ra
1d01fec4:	00000000 	nop
1d01fec8:	1000033c 	lui	v1,0x10
1d01fecc:	00206324 	addiu	v1,v1,8192
1d01fed0:	2418a300 	and	v1,a1,v1
1d01fed4:	040043ac 	sw	v1,4(v0)
1d01fed8:	4000033c 	lui	v1,0x40
1d01fedc:	2428a300 	and	a1,a1,v1
1d01fee0:	140045ac 	sw	a1,20(v0)
1d01fee4:	0800e003 	jr	ra
1d01fee8:	00000000 	nop
1d01feec:	80200400 	sll	a0,a0,0x2
1d01fef0:	44808227 	addiu	v0,gp,-32700
1d01fef4:	21204400 	addu	a0,v0,a0
1d01fef8:	0000828c 	lw	v0,0(a0)
1d01fefc:	0000438c 	lw	v1,0(v0)
1d01ff00:	0420a37c 	ins	v1,a1,0x0,0x5
1d01ff04:	000043ac 	sw	v1,0(v0)
1d01ff08:	0800e003 	jr	ra
1d01ff0c:	00000000 	nop
1d01ff10:	80200400 	sll	a0,a0,0x2
1d01ff14:	44808227 	addiu	v0,gp,-32700
1d01ff18:	21204400 	addu	a0,v0,a0
1d01ff1c:	0000828c 	lw	v0,0(a0)
1d01ff20:	0000428c 	lw	v0,0(v0)
1d01ff24:	0800e003 	jr	ra
1d01ff28:	4015427c 	ext	v0,v0,0x15,0x3
1d01ff2c:	80200400 	sll	a0,a0,0x2
1d01ff30:	44808227 	addiu	v0,gp,-32700
1d01ff34:	21204400 	addu	a0,v0,a0
1d01ff38:	0000828c 	lw	v0,0(a0)
1d01ff3c:	0000438c 	lw	v1,0(v0)
1d01ff40:	04d6a37c 	ins	v1,a1,0x18,0x3
1d01ff44:	000043ac 	sw	v1,0(v0)
1d01ff48:	0800e003 	jr	ra
1d01ff4c:	00000000 	nop
1d01ff50:	80200400 	sll	a0,a0,0x2
1d01ff54:	44808227 	addiu	v0,gp,-32700
1d01ff58:	21204400 	addu	a0,v0,a0
1d01ff5c:	0000828c 	lw	v0,0(a0)
1d01ff60:	00e0a57c 	ext	a1,a1,0x0,0x1d
1d01ff64:	400345ac 	sw	a1,832(v0)
1d01ff68:	0800e003 	jr	ra
1d01ff6c:	00000000 	nop
1d01ff70:	80200400 	sll	a0,a0,0x2
1d01ff74:	44808227 	addiu	v0,gp,-32700
1d01ff78:	21204400 	addu	a0,v0,a0
1d01ff7c:	01000224 	li	v0,1
1d01ff80:	0500a214 	bne	a1,v0,0x1d01ff98
1d01ff84:	0000838c 	lw	v1,0(a0)
1d01ff88:	00800234 	li	v0,0x8000
1d01ff8c:	080062ac 	sw	v0,8(v1)
1d01ff90:	0800e003 	jr	ra
1d01ff94:	00000000 	nop
1d01ff98:	00800234 	li	v0,0x8000
1d01ff9c:	040062ac 	sw	v0,4(v1)
1d01ffa0:	0800e003 	jr	ra
1d01ffa4:	00000000 	nop
1d01ffa8:	80200400 	sll	a0,a0,0x2
1d01ffac:	44808227 	addiu	v0,gp,-32700
1d01ffb0:	21204400 	addu	a0,v0,a0
1d01ffb4:	0000828c 	lw	v0,0(a0)
1d01ffb8:	0000428c 	lw	v0,0(v0)
1d01ffbc:	0800e003 	jr	ra
1d01ffc0:	c002427c 	ext	v0,v0,0xb,0x1
1d01ffc4:	80200400 	sll	a0,a0,0x2
1d01ffc8:	44808227 	addiu	v0,gp,-32700
1d01ffcc:	21204400 	addu	a0,v0,a0
1d01ffd0:	0000828c 	lw	v0,0(a0)
1d01ffd4:	80290500 	sll	a1,a1,0x6
1d01ffd8:	21104500 	addu	v0,v0,a1
1d01ffdc:	00400324 	li	v1,16384
1d01ffe0:	580343ac 	sw	v1,856(v0)
1d01ffe4:	0800e003 	jr	ra
1d01ffe8:	00000000 	nop
1d01ffec:	80200400 	sll	a0,a0,0x2
1d01fff0:	44808227 	addiu	v0,gp,-32700
1d01fff4:	21204400 	addu	a0,v0,a0
1d01fff8:	0000828c 	lw	v0,0(a0)
1d01fffc:	80290500 	sll	a1,a1,0x6
1d020000:	21104500 	addu	v0,v0,a1
1d020004:	5003428c 	lw	v0,848(v0)

Disassembly of section .sec82:

1d020008 <.sec82>:
1d020008:	8003427c 	ext	v0,v0,0xe,0x1
1d02000c:	0800e003 	jr	ra
1d020010:	01004238 	xori	v0,v0,0x1

Disassembly of section .sec83:

1d020014 <.sec83>:
1d020014:	c8ffbd27 	addiu	sp,sp,-56
1d020018:	3400b0af 	sw	s0,52(sp)
1d02001c:	21180000 	move	v1,zero
1d020020:	029d083c 	lui	t0,0x9d02
1d020024:	402b0825 	addiu	t0,t0,11072
1d020028:	2c000724 	li	a3,44
1d02002c:	2110a303 	addu	v0,sp,v1
1d020030:	21300301 	addu	a2,t0,v1
1d020034:	0000c68c 	lw	a2,0(a2)
1d020038:	04006324 	addiu	v1,v1,4
1d02003c:	fbff6714 	bne	v1,a3,0x1d02002c
1d020040:	000046ac 	sw	a2,0(v0)
1d020044:	21608000 	move	t4,a0
1d020048:	21300000 	move	a2,zero
1d02004c:	2158a000 	move	t3,a1
1d020050:	21500000 	move	t2,zero
1d020054:	2168a003 	move	t5,sp
1d020058:	21408000 	move	t0,a0
1d02005c:	21380000 	move	a3,zero
1d020060:	21480000 	move	t1,zero
1d020064:	01000324 	li	v1,1
1d020068:	21100000 	move	v0,zero
1d02006c:	fcff0f24 	li	t7,-4
1d020070:	0c001824 	li	t8,12
1d020074:	1800c304 	bgezl	a2,0x1d0200d8
1d020078:	21580b01 	addu	t3,t0,t3
1d02007c:	23406801 	subu	t0,t3,t0
1d020080:	2b586801 	sltu	t3,t3,t0
1d020084:	23504701 	subu	t2,t2,a3
1d020088:	23504b01 	subu	t2,t2,t3
1d02008c:	04004731 	andi	a3,t2,0x4
1d020090:	0300e010 	beqz	a3,0x1d0200a0
1d020094:	21580001 	move	t3,t0
1d020098:	2980400b 	j	0x1d0200a4
1d02009c:	25504f01 	or	t2,t2,t7
1d0200a0:	03004a31 	andi	t2,t2,0x3
1d0200a4:	21288501 	addu	a1,t4,a1
1d0200a8:	2b60ac00 	sltu	t4,a1,t4
1d0200ac:	2148c900 	addu	t1,a2,t1
1d0200b0:	21308901 	addu	a2,t4,t1
1d0200b4:	0400c730 	andi	a3,a2,0x4
1d0200b8:	0300e010 	beqz	a3,0x1d0200c8
1d0200bc:	2160a000 	move	t4,a1
1d0200c0:	3380400b 	j	0x1d0200cc
1d0200c4:	2530cf00 	or	a2,a2,t7
1d0200c8:	0300c630 	andi	a2,a2,0x3
1d0200cc:	0000a58d 	lw	a1,0(t5)
1d0200d0:	4980400b 	j	0x1d020124
1d0200d4:	23104500 	subu	v0,v0,a1
1d0200d8:	2b406801 	sltu	t0,t3,t0
1d0200dc:	2138ea00 	addu	a3,a3,t2
1d0200e0:	21500701 	addu	t2,t0,a3
1d0200e4:	04004731 	andi	a3,t2,0x4
1d0200e8:	0200e050 	beqzl	a3,0x1d0200f4
1d0200ec:	03004a31 	andi	t2,t2,0x3
1d0200f0:	25504f01 	or	t2,t2,t7
1d0200f4:	23288501 	subu	a1,t4,a1
1d0200f8:	2b608501 	sltu	t4,t4,a1
1d0200fc:	2330c900 	subu	a2,a2,t1
1d020100:	2330cc00 	subu	a2,a2,t4
1d020104:	0400c730 	andi	a3,a2,0x4
1d020108:	0300e010 	beqz	a3,0x1d020118
1d02010c:	2160a000 	move	t4,a1
1d020110:	4780400b 	j	0x1d02011c
1d020114:	2530cf00 	or	a2,a2,t7
1d020118:	0300c630 	andi	a2,a2,0x3
1d02011c:	0000a58d 	lw	a1,0(t5)
1d020120:	21104500 	addu	v0,v0,a1
1d020124:	20006830 	andi	t0,v1,0x20
1d020128:	c3770a00 	sra	t6,t2,0x1f
1d02012c:	40480a00 	sll	t1,t2,0x1
1d020130:	27280300 	nor	a1,zero,v1
1d020134:	0448a900 	sllv	t1,t1,a1
1d020138:	06286b00 	srlv	a1,t3,v1
1d02013c:	25282501 	or	a1,t1,a1
1d020140:	07486a00 	srav	t1,t2,v1
1d020144:	0b282801 	movn	a1,t1,t0
1d020148:	0b48c801 	movn	t1,t6,t0
1d02014c:	04002831 	andi	t0,t1,0x4
1d020150:	03000011 	beqz	t0,0x1d020160
1d020154:	21386000 	move	a3,v1
1d020158:	5980400b 	j	0x1d020164
1d02015c:	25482f01 	or	t1,t1,t7
1d020160:	03002931 	andi	t1,t1,0x3
1d020164:	2000ee30 	andi	t6,a3,0x20
1d020168:	c3cf0600 	sra	t9,a2,0x1f
1d02016c:	40800600 	sll	s0,a2,0x1
1d020170:	27400700 	nor	t0,zero,a3
1d020174:	04801001 	sllv	s0,s0,t0
1d020178:	0640ec00 	srlv	t0,t4,a3
1d02017c:	25400802 	or	t0,s0,t0
1d020180:	0738e600 	srav	a3,a2,a3
1d020184:	0b40ee00 	movn	t0,a3,t6
1d020188:	0b382e03 	movn	a3,t9,t6
1d02018c:	0400ee30 	andi	t6,a3,0x4
1d020190:	0200c051 	beqzl	t6,0x1d02019c
1d020194:	0300e730 	andi	a3,a3,0x3
1d020198:	2538ef00 	or	a3,a3,t7
1d02019c:	01006324 	addiu	v1,v1,1
1d0201a0:	b4ff7814 	bne	v1,t8,0x1d020074
1d0201a4:	0400ad25 	addiu	t5,t5,4
1d0201a8:	0a100400 	movz	v0,zero,a0
1d0201ac:	3400b08f 	lw	s0,52(sp)
1d0201b0:	0800e003 	jr	ra
1d0201b4:	3800bd27 	addiu	sp,sp,56
1d0201b8:	e8ffbd27 	addiu	sp,sp,-24
1d0201bc:	1400bfaf 	sw	ra,20(sp)
1d0201c0:	6081828f 	lw	v0,-32416(gp)
1d0201c4:	c003043c 	lui	a0,0x3c0
1d0201c8:	2b204400 	sltu	a0,v0,a0
1d0201cc:	c003033c 	lui	v1,0x3c0
1d0201d0:	0a106400 	movz	v0,v1,a0
1d0201d4:	6481838f 	lw	v1,-32412(gp)
1d0201d8:	ffff6424 	addiu	a0,v1,-1
1d0201dc:	8004842c 	sltiu	a0,a0,1152
1d0201e0:	04008050 	beqzl	a0,0x1d0201f4
1d0201e4:	80040324 	li	v1,1152
1d0201e8:	8000652c 	sltiu	a1,v1,128
1d0201ec:	80000424 	li	a0,128
1d0201f0:	0b188500 	movn	v1,a0,a1
1d0201f4:	1600063c 	lui	a2,0x16
1d0201f8:	cdccc634 	ori	a2,a2,0xcccd
1d0201fc:	19006600 	multu	v1,a2
1d020200:	12300000 	mflo	a2
1d020204:	10380000 	mfhi	a3
1d020208:	c0260700 	sll	a0,a3,0x1b
1d02020c:	42310600 	srl	a2,a2,0x5
1d020210:	19004200 	multu	v0,v0
1d020214:	12100000 	mflo	v0
1d020218:	10180000 	mfhi	v1
1d02021c:	002b0300 	sll	a1,v1,0xc
1d020220:	02150200 	srl	v0,v0,0x14
1d020224:	25208600 	or	a0,a0,a2
1d020228:	0580400f 	jal	0x1d020014
1d02022c:	2528a200 	or	a1,a1,v0
1d020230:	00004428 	slti	a0,v0,0
1d020234:	0b100400 	movn	v0,zero,a0
1d020238:	21204000 	move	a0,v0
1d02023c:	7523033c 	lui	v1,0x2375
1d020240:	239f6334 	ori	v1,v1,0x9f23
1d020244:	01006224 	addiu	v0,v1,1
1d020248:	2a108200 	slt	v0,a0,v0
1d02024c:	0b188200 	movn	v1,a0,v0
1d020250:	c32f0300 	sra	a1,v1,0x1f
1d020254:	ff69043c 	lui	a0,0x69ff
1d020258:	fb478424 	addiu	a0,a0,18427
1d02025c:	19006400 	multu	v1,a0
1d020260:	10180000 	mfhi	v1
1d020264:	0230a470 	mul	a2,a1,a0
1d020268:	2118c300 	addu	v1,a2,v1
1d02026c:	43100300 	sra	v0,v1,0x1
1d020270:	c3270300 	sra	a0,v1,0x1f
1d020274:	822f0200 	srl	a1,v0,0x1e
1d020278:	80180400 	sll	v1,a0,0x2
1d02027c:	2518a300 	or	v1,a1,v1
1d020280:	80280200 	sll	a1,v0,0x2
1d020284:	2110a200 	addu	v0,a1,v0
1d020288:	2b284500 	sltu	a1,v0,a1
1d02028c:	21186400 	addu	v1,v1,a0
1d020290:	2118a300 	addu	v1,a1,v1
1d020294:	c01b0300 	sll	v1,v1,0xf
1d020298:	42140200 	srl	v0,v0,0x11
1d02029c:	25106200 	or	v0,v1,v0
1d0202a0:	5c8182a7 	sh	v0,-32420(gp)
1d0202a4:	1400bf8f 	lw	ra,20(sp)
1d0202a8:	0800e003 	jr	ra
1d0202ac:	1800bd27 	addiu	sp,sp,24
1d0202b0:	0800e003 	jr	ra
1d0202b4:	00000000 	nop
1d0202b8:	0800e003 	jr	ra
1d0202bc:	00000000 	nop
1d0202c0:	1000a28f 	lw	v0,16(sp)
1d0202c4:	80200400 	sll	a0,a0,0x2
1d0202c8:	44808327 	addiu	v1,gp,-32700
1d0202cc:	21206400 	addu	a0,v1,a0
1d0202d0:	0d00e014 	bnez	a3,0x1d020308
1d0202d4:	0000848c 	lw	a0,0(a0)
1d0202d8:	8054c87c 	ext	t0,a2,0x12,0xb
1d0202dc:	0800a324 	addiu	v1,a1,8
1d0202e0:	00190300 	sll	v1,v1,0x4
1d0202e4:	21188300 	addu	v1,a0,v1
1d0202e8:	0000678c 	lw	a3,0(v1)
1d0202ec:	44fd077d 	ins	a3,t0,0x15,0xb
1d0202f0:	000067ac 	sw	a3,0(v1)
1d0202f4:	0000678c 	lw	a3,0(v1)
1d0202f8:	0488c77c 	ins	a3,a2,0x0,0x12
1d0202fc:	000067ac 	sw	a3,0(v1)
1d020300:	ca80400b 	j	0x1d020328
1d020304:	00000000 	nop
1d020308:	01000324 	li	v1,1
1d02030c:	0600e314 	bne	a3,v1,0x1d020328
1d020310:	0800a324 	addiu	v1,a1,8
1d020314:	00190300 	sll	v1,v1,0x4
1d020318:	21188300 	addu	v1,a0,v1
1d02031c:	0000678c 	lw	a3,0(v1)
1d020320:	44fdc77c 	ins	a3,a2,0x15,0xb
1d020324:	000067ac 	sw	a3,0(v1)
1d020328:	07004014 	bnez	v0,0x1d020348
1d02032c:	01000324 	li	v1,1
1d020330:	00290500 	sll	a1,a1,0x4
1d020334:	21208500 	addu	a0,a0,a1
1d020338:	0800023c 	lui	v0,0x8
1d02033c:	880082ac 	sw	v0,136(a0)
1d020340:	0800e003 	jr	ra
1d020344:	00000000 	nop
1d020348:	fdff4314 	bne	v0,v1,0x1d020340
1d02034c:	0800a524 	addiu	a1,a1,8
1d020350:	00290500 	sll	a1,a1,0x4
1d020354:	21208500 	addu	a0,a0,a1
1d020358:	0800023c 	lui	v0,0x8
1d02035c:	040082ac 	sw	v0,4(a0)
1d020360:	0800e003 	jr	ra
1d020364:	00000000 	nop
1d020368:	80200400 	sll	a0,a0,0x2
1d02036c:	44808227 	addiu	v0,gp,-32700
1d020370:	21204400 	addu	a0,v0,a0
1d020374:	1100e014 	bnez	a3,0x1d0203bc
1d020378:	0000828c 	lw	v0,0(a0)
1d02037c:	8054c77c 	ext	a3,a2,0x12,0xb
1d020380:	1400a324 	addiu	v1,a1,20
1d020384:	00190300 	sll	v1,v1,0x4
1d020388:	21184300 	addu	v1,v0,v1
1d02038c:	0000648c 	lw	a0,0(v1)
1d020390:	44fde47c 	ins	a0,a3,0x15,0xb
1d020394:	000064ac 	sw	a0,0(v1)
1d020398:	0000648c 	lw	a0,0(v1)
1d02039c:	0488c47c 	ins	a0,a2,0x0,0x12
1d0203a0:	000064ac 	sw	a0,0(v1)
1d0203a4:	00290500 	sll	a1,a1,0x4
1d0203a8:	21104500 	addu	v0,v0,a1
1d0203ac:	0800033c 	lui	v1,0x8
1d0203b0:	480143ac 	sw	v1,328(v0)
1d0203b4:	0800e003 	jr	ra
1d0203b8:	00000000 	nop
1d0203bc:	01000324 	li	v1,1
1d0203c0:	fcffe314 	bne	a3,v1,0x1d0203b4
1d0203c4:	1400a524 	addiu	a1,a1,20
1d0203c8:	00290500 	sll	a1,a1,0x4
1d0203cc:	21104500 	addu	v0,v0,a1
1d0203d0:	0000438c 	lw	v1,0(v0)
1d0203d4:	44fdc37c 	ins	v1,a2,0x15,0xb
1d0203d8:	000043ac 	sw	v1,0(v0)
1d0203dc:	0800033c 	lui	v1,0x8
1d0203e0:	040043ac 	sw	v1,4(v0)
1d0203e4:	0800e003 	jr	ra
1d0203e8:	00000000 	nop
1d0203ec:	80200400 	sll	a0,a0,0x2
1d0203f0:	44808227 	addiu	v0,gp,-32700
1d0203f4:	21204400 	addu	a0,v0,a0
1d0203f8:	0000848c 	lw	a0,0(a0)
1d0203fc:	80100500 	sll	v0,a1,0x2
1d020400:	00290500 	sll	a1,a1,0x4
1d020404:	2328a200 	subu	a1,a1,v0
1d020408:	029d023c 	lui	v0,0x9d02
1d02040c:	f8104224 	addiu	v0,v0,4344
1d020410:	2128a200 	addu	a1,a1,v0
1d020414:	0800a38c 	lw	v1,8(a1)
1d020418:	01000224 	li	v0,1
1d02041c:	0600c214 	bne	a2,v0,0x1d020438
1d020420:	0000a58c 	lw	a1,0(a1)
1d020424:	00290500 	sll	a1,a1,0x4
1d020428:	21208500 	addu	a0,a0,a1
1d02042c:	c80083ac 	sw	v1,200(a0)
1d020430:	0800e003 	jr	ra
1d020434:	00000000 	nop
1d020438:	0c00a524 	addiu	a1,a1,12
1d02043c:	00290500 	sll	a1,a1,0x4
1d020440:	21208500 	addu	a0,a0,a1
1d020444:	040083ac 	sw	v1,4(a0)
1d020448:	0800e003 	jr	ra
1d02044c:	00000000 	nop
1d020450:	80200400 	sll	a0,a0,0x2
1d020454:	44808227 	addiu	v0,gp,-32700
1d020458:	21204400 	addu	a0,v0,a0
1d02045c:	0000838c 	lw	v1,0(a0)
1d020460:	80100500 	sll	v0,a1,0x2
1d020464:	00290500 	sll	a1,a1,0x4
1d020468:	2328a200 	subu	a1,a1,v0
1d02046c:	029d023c 	lui	v0,0x9d02
1d020470:	f8104224 	addiu	v0,v0,4344
1d020474:	2128a200 	addu	a1,a1,v0
1d020478:	0000a28c 	lw	v0,0(a1)
1d02047c:	00110200 	sll	v0,v0,0x4
1d020480:	21106200 	addu	v0,v1,v0
1d020484:	c800438c 	lw	v1,200(v0)
1d020488:	0800a28c 	lw	v0,8(a1)
1d02048c:	24106200 	and	v0,v1,v0
1d020490:	0800e003 	jr	ra
1d020494:	0100422c 	sltiu	v0,v0,1
1d020498:	80200400 	sll	a0,a0,0x2
1d02049c:	44808227 	addiu	v0,gp,-32700
1d0204a0:	21204400 	addu	a0,v0,a0
1d0204a4:	0000828c 	lw	v0,0(a0)
1d0204a8:	3000428c 	lw	v0,48(v0)
1d0204ac:	0800e003 	jr	ra
1d0204b0:	0022427c 	ext	v0,v0,0x8,0x5
1d0204b4:	80200400 	sll	a0,a0,0x2
1d0204b8:	44808227 	addiu	v0,gp,-32700
1d0204bc:	21204400 	addu	a0,v0,a0
1d0204c0:	0000838c 	lw	v1,0(a0)
1d0204c4:	80100500 	sll	v0,a1,0x2
1d0204c8:	00290500 	sll	a1,a1,0x4
1d0204cc:	2328a200 	subu	a1,a1,v0
1d0204d0:	029d023c 	lui	v0,0x9d02
1d0204d4:	f8104224 	addiu	v0,v0,4344
1d0204d8:	2128a200 	addu	a1,a1,v0
1d0204dc:	0000a48c 	lw	a0,0(a1)
1d0204e0:	0400a28c 	lw	v0,4(a1)
1d0204e4:	40310600 	sll	a2,a2,0x5
1d0204e8:	2538c700 	or	a3,a2,a3
1d0204ec:	ff00e630 	andi	a2,a3,0xff
1d0204f0:	00210400 	sll	a0,a0,0x4
1d0204f4:	21186400 	addu	v1,v1,a0
1d0204f8:	21106200 	addu	v0,v1,v0
1d0204fc:	c00046a0 	sb	a2,192(v0)
1d020500:	0800e003 	jr	ra
1d020504:	00000000 	nop

Disassembly of section .sec84:

1d020508 <.sec84>:
1d020508:	80100400 	sll	v0,a0,0x2
1d02050c:	00210400 	sll	a0,a0,0x4
1d020510:	23208200 	subu	a0,a0,v0
1d020514:	029d023c 	lui	v0,0x9d02
1d020518:	c4c74224 	addiu	v0,v0,-14396
1d02051c:	21204400 	addu	a0,v0,a0
1d020520:	0000828c 	lw	v0,0(a0)
1d020524:	0800838c 	lw	v1,8(a0)
1d020528:	040043ac 	sw	v1,4(v0)
1d02052c:	0800e003 	jr	ra
1d020530:	00000000 	nop
1d020534:	80100400 	sll	v0,a0,0x2
1d020538:	00210400 	sll	a0,a0,0x4
1d02053c:	23208200 	subu	a0,a0,v0
1d020540:	029d023c 	lui	v0,0x9d02
1d020544:	c4c74224 	addiu	v0,v0,-14396
1d020548:	21204400 	addu	a0,v0,a0
1d02054c:	0000828c 	lw	v0,0(a0)
1d020550:	0800838c 	lw	v1,8(a0)
1d020554:	080043ac 	sw	v1,8(v0)
1d020558:	0800e003 	jr	ra
1d02055c:	00000000 	nop
1d020560:	80100400 	sll	v0,a0,0x2
1d020564:	00210400 	sll	a0,a0,0x4
1d020568:	23208200 	subu	a0,a0,v0
1d02056c:	029d023c 	lui	v0,0x9d02
1d020570:	c4c74224 	addiu	v0,v0,-14396
1d020574:	21204400 	addu	a0,v0,a0
1d020578:	0000828c 	lw	v0,0(a0)
1d02057c:	0000438c 	lw	v1,0(v0)
1d020580:	0800828c 	lw	v0,8(a0)
1d020584:	0800e003 	jr	ra
1d020588:	24106200 	and	v0,v1,v0
1d02058c:	80100400 	sll	v0,a0,0x2
1d020590:	00210400 	sll	a0,a0,0x4
1d020594:	23208200 	subu	a0,a0,v0
1d020598:	029d023c 	lui	v0,0x9d02
1d02059c:	c4c74224 	addiu	v0,v0,-14396
1d0205a0:	0600a010 	beqz	a1,0x1d0205bc
1d0205a4:	21204400 	addu	a0,v0,a0
1d0205a8:	0400828c 	lw	v0,4(a0)
1d0205ac:	0800838c 	lw	v1,8(a0)
1d0205b0:	080043ac 	sw	v1,8(v0)
1d0205b4:	0800e003 	jr	ra
1d0205b8:	00000000 	nop
1d0205bc:	0400828c 	lw	v0,4(a0)
1d0205c0:	0800838c 	lw	v1,8(a0)
1d0205c4:	040043ac 	sw	v1,4(v0)
1d0205c8:	0800e003 	jr	ra
1d0205cc:	00000000 	nop
1d0205d0:	80100400 	sll	v0,a0,0x2
1d0205d4:	00210400 	sll	a0,a0,0x4
1d0205d8:	23208200 	subu	a0,a0,v0
1d0205dc:	029d023c 	lui	v0,0x9d02
1d0205e0:	c4c74224 	addiu	v0,v0,-14396
1d0205e4:	21204400 	addu	a0,v0,a0
1d0205e8:	0400828c 	lw	v0,4(a0)
1d0205ec:	0000438c 	lw	v1,0(v0)
1d0205f0:	0800828c 	lw	v0,8(a0)
1d0205f4:	0800e003 	jr	ra
1d0205f8:	24106200 	and	v0,v1,v0
1d0205fc:	80100400 	sll	v0,a0,0x2
1d020600:	00210400 	sll	a0,a0,0x4
1d020604:	23208200 	subu	a0,a0,v0
1d020608:	029d023c 	lui	v0,0x9d02
1d02060c:	0cc54224 	addiu	v0,v0,-15092
1d020610:	21204400 	addu	a0,v0,a0
1d020614:	0000828c 	lw	v0,0(a0)
1d020618:	0800838c 	lw	v1,8(a0)
1d02061c:	07000624 	li	a2,7
1d020620:	04186600 	sllv	v1,a2,v1
1d020624:	040043ac 	sw	v1,4(v0)
1d020628:	0800828c 	lw	v0,8(a0)
1d02062c:	04284500 	sllv	a1,a1,v0
1d020630:	0000838c 	lw	v1,0(a0)
1d020634:	080065ac 	sw	a1,8(v1)
1d020638:	0800e003 	jr	ra
1d02063c:	00000000 	nop
1d020640:	80100400 	sll	v0,a0,0x2
1d020644:	00210400 	sll	a0,a0,0x4
1d020648:	23208200 	subu	a0,a0,v0
1d02064c:	029d023c 	lui	v0,0x9d02
1d020650:	0cc54224 	addiu	v0,v0,-15092
1d020654:	21204400 	addu	a0,v0,a0
1d020658:	0000828c 	lw	v0,0(a0)
1d02065c:	0000438c 	lw	v1,0(v0)
1d020660:	0800828c 	lw	v0,8(a0)
1d020664:	06104300 	srlv	v0,v1,v0
1d020668:	0800e003 	jr	ra
1d02066c:	07004230 	andi	v0,v0,0x7
1d020670:	80100400 	sll	v0,a0,0x2
1d020674:	00210400 	sll	a0,a0,0x4
1d020678:	23208200 	subu	a0,a0,v0
1d02067c:	029d023c 	lui	v0,0x9d02
1d020680:	0cc54224 	addiu	v0,v0,-15092
1d020684:	21204400 	addu	a0,v0,a0
1d020688:	0000828c 	lw	v0,0(a0)
1d02068c:	0400838c 	lw	v1,4(a0)
1d020690:	03000624 	li	a2,3
1d020694:	04186600 	sllv	v1,a2,v1
1d020698:	040043ac 	sw	v1,4(v0)
1d02069c:	0400828c 	lw	v0,4(a0)
1d0206a0:	04284500 	sllv	a1,a1,v0
1d0206a4:	0000838c 	lw	v1,0(a0)
1d0206a8:	080065ac 	sw	a1,8(v1)
1d0206ac:	0800e003 	jr	ra
1d0206b0:	00000000 	nop
1d0206b4:	80100400 	sll	v0,a0,0x2
1d0206b8:	00210400 	sll	a0,a0,0x4
1d0206bc:	23208200 	subu	a0,a0,v0
1d0206c0:	029d023c 	lui	v0,0x9d02
1d0206c4:	0cc54224 	addiu	v0,v0,-15092
1d0206c8:	21204400 	addu	a0,v0,a0
1d0206cc:	0000828c 	lw	v0,0(a0)
1d0206d0:	0000438c 	lw	v1,0(v0)
1d0206d4:	0400828c 	lw	v0,4(a0)
1d0206d8:	06104300 	srlv	v0,v1,v0
1d0206dc:	0800e003 	jr	ra
1d0206e0:	03004230 	andi	v0,v0,0x3

Disassembly of section .sec85:

1d0206e4 <.sec85>:
1d0206e4:	c8ffbd27 	addiu	sp,sp,-56
1d0206e8:	3400bfaf 	sw	ra,52(sp)
1d0206ec:	3000b7af 	sw	s7,48(sp)
1d0206f0:	2c00b6af 	sw	s6,44(sp)
1d0206f4:	2800b5af 	sw	s5,40(sp)
1d0206f8:	2400b4af 	sw	s4,36(sp)
1d0206fc:	2000b3af 	sw	s3,32(sp)
1d020700:	1c00b2af 	sw	s2,28(sp)
1d020704:	1800b1af 	sw	s1,24(sp)
1d020708:	1400b0af 	sw	s0,20(sp)
1d02070c:	01a0133c 	lui	s3,0xa001
1d020710:	2190a000 	move	s2,a1
1d020714:	21108000 	move	v0,a0
1d020718:	21a8c000 	move	s5,a2
1d02071c:	0200a010 	beqz	a1,0x1d020728
1d020720:	fc3860ae 	sw	zero,14588(s3)
1d020724:	000044ae 	sw	a0,0(s2)
1d020728:	029d163c 	lui	s6,0x9d02
1d02072c:	bd1dd626 	addiu	s6,s6,7613
1d020730:	01005024 	addiu	s0,v0,1
1d020734:	ffff0482 	lb	a0,-1(s0)
1d020738:	2118c402 	addu	v1,s6,a0
1d02073c:	00006380 	lb	v1,0(v1)
1d020740:	88006330 	andi	v1,v1,0x88
1d020744:	faff6054 	bnezl	v1,0x1d020730
1d020748:	21100002 	move	v0,s0
1d02074c:	2d000324 	li	v1,45
1d020750:	4d008310 	beq	a0,v1,0x1d020888
1d020754:	2b000324 	li	v1,43
1d020758:	4f008310 	beq	a0,v1,0x1d020898
1d02075c:	21a00000 	move	s4,zero
1d020760:	30000224 	li	v0,48
1d020764:	3a008210 	beq	a0,v0,0x1d020850
1d020768:	01000226 	addiu	v0,s0,1
1d02076c:	0200a016 	bnez	s5,0x1d020778
1d020770:	21b80000 	move	s7,zero
1d020774:	0a001524 	li	s5,10
1d020778:	ed81400b 	j	0x1d0207b4
1d02077c:	21880000 	move	s1,zero
1d020780:	1a006010 	beqz	v1,0x1d0207ec
1d020784:	2a185500 	slt	v1,v0,s5
1d020788:	19006010 	beqz	v1,0x1d0207f0
1d02078c:	21180000 	move	v1,zero
1d020790:	02183572 	mul	v1,s1,s5
1d020794:	21106200 	addu	v0,v1,v0
1d020798:	2b185100 	sltu	v1,v0,s1
1d02079c:	28006054 	bnezl	v1,0x1d020840
1d0207a0:	22000224 	li	v0,34
1d0207a4:	01001026 	addiu	s0,s0,1
1d0207a8:	ffff0482 	lb	a0,-1(s0)
1d0207ac:	01001724 	li	s7,1
1d0207b0:	21884000 	move	s1,v0
1d0207b4:	2110c402 	addu	v0,s6,a0
1d0207b8:	00004390 	lbu	v1,0(v0)
1d0207bc:	d0ff8224 	addiu	v0,a0,-48
1d0207c0:	2014027c 	seb	v0,v0
1d0207c4:	03006530 	andi	a1,v1,0x3
1d0207c8:	edffa010 	beqz	a1,0x1d020780
1d0207cc:	04006330 	andi	v1,v1,0x4
1d0207d0:	fa8a400f 	jal	0x1d022be8
1d0207d4:	00000000 	nop
1d0207d8:	c9ff4224 	addiu	v0,v0,-55
1d0207dc:	2014027c 	seb	v0,v0
1d0207e0:	2a185500 	slt	v1,v0,s5
1d0207e4:	ebff6014 	bnez	v1,0x1d020794
1d0207e8:	02183572 	mul	v1,s1,s5
1d0207ec:	21180000 	move	v1,zero
1d0207f0:	0400e012 	beqz	s7,0x1d020804
1d0207f4:	00000000 	nop
1d0207f8:	02004012 	beqz	s2,0x1d020804
1d0207fc:	ffff1026 	addiu	s0,s0,-1
1d020800:	000050ae 	sw	s0,0(s2)
1d020804:	03006014 	bnez	v1,0x1d020814
1d020808:	ffff0224 	li	v0,-1
1d02080c:	23101100 	negu	v0,s1
1d020810:	0a103402 	movz	v0,s1,s4
1d020814:	3400bf8f 	lw	ra,52(sp)
1d020818:	3000b78f 	lw	s7,48(sp)
1d02081c:	2c00b68f 	lw	s6,44(sp)
1d020820:	2800b58f 	lw	s5,40(sp)
1d020824:	2400b48f 	lw	s4,36(sp)
1d020828:	2000b38f 	lw	s3,32(sp)
1d02082c:	1c00b28f 	lw	s2,28(sp)
1d020830:	1800b18f 	lw	s1,24(sp)
1d020834:	1400b08f 	lw	s0,20(sp)
1d020838:	0800e003 	jr	ra
1d02083c:	3800bd27 	addiu	sp,sp,56
1d020840:	fc3862ae 	sw	v0,14588(s3)
1d020844:	01001026 	addiu	s0,s0,1
1d020848:	fc81400b 	j	0x1d0207f0
1d02084c:	01000324 	li	v1,1
1d020850:	efff0524 	li	a1,-17
1d020854:	2418a502 	and	v1,s5,a1
1d020858:	08006014 	bnez	v1,0x1d02087c
1d02085c:	00000482 	lb	a0,0(s0)
1d020860:	dfff0324 	li	v1,-33
1d020864:	24288300 	and	a1,a0,v1
1d020868:	58000324 	li	v1,88
1d02086c:	0d00a350 	beql	a1,v1,0x1d0208a4
1d020870:	02000226 	addiu	v0,s0,2
1d020874:	08000324 	li	v1,8
1d020878:	0aa87500 	movz	s5,v1,s5
1d02087c:	21804000 	move	s0,v0
1d020880:	de81400b 	j	0x1d020778
1d020884:	01001724 	li	s7,1
1d020888:	02005024 	addiu	s0,v0,2
1d02088c:	01004480 	lb	a0,1(v0)
1d020890:	d881400b 	j	0x1d020760
1d020894:	01001424 	li	s4,1
1d020898:	01004480 	lb	a0,1(v0)
1d02089c:	d881400b 	j	0x1d020760
1d0208a0:	02005024 	addiu	s0,v0,2
1d0208a4:	01000482 	lb	a0,1(s0)
1d0208a8:	10001524 	li	s5,16
1d0208ac:	21804000 	move	s0,v0
1d0208b0:	de81400b 	j	0x1d020778
1d0208b4:	01001724 	li	s7,1

Disassembly of section .sec86:

1d0208b8 <.sec86>:
1d0208b8:	4d41433d 	0x3d43414d
1d0208bc:	00000000 	nop
1d0208c0:	4d414353 	beql	k0,v1,0x1d030df8
1d0208c4:	3d000000 	0x3d
1d0208c8:	56494e3d 	0x3d4e4956
1d0208cc:	00000000 	nop
1d0208d0:	56494e53 	beql	k0,t6,0x1d032e2c
1d0208d4:	3d000000 	0x3d
1d0208d8:	42415345 	0x45534142
1d0208dc:	00000000 	nop
1d0208e0:	42617365 	0x65736142
1d0208e4:	2066756e 	0x6e756620
1d0208e8:	6374696f 	0x6f697463
1d0208ec:	6e616c69 	0x696c616e
1d0208f0:	74790000 	teq	zero,zero,0x1e5
1d0208f4:	44415445 	bc1any4f	$fcc5,0x1d030e08
1d0208f8:	3d000000 	0x3d
1d0208fc:	436f6e74 	jalx	0x11b9bd0c
1d020900:	61637420 	addi	s4,v1,25441
1d020904:	696e666f 	0x6f666e69
1d020908:	40646174 	jalx	0x11859100
1d02090c:	61737065 	0x65707361
1d020910:	6564696e 	0x6e696465
1d020914:	632e636f 	0x6f632e63
1d020918:	6d20666f 	0x6f66206d
1d02091c:	72206c69 	0x696c2072
1d020920:	63656e73 	0x736e6563
1d020924:	6520696e 	0x6e692065
1d020928:	666f726d 	0x6d726f66
1d02092c:	6174696f 	0x6f697461
1d020930:	6e000000 	0x6e
1d020934:	5349474e 	c3	0x474953
1d020938:	41545552 	beql	s2,s5,0x1d035a40
1d02093c:	453d0000 	0x3d45
1d020940:	41444153 	beql	k0,at,0x1d031a48
1d020944:	5f4b4954 	bnel	v0,t1,0x1d0336c4
1d020948:	00000000 	nop
1d02094c:	47524f55 	bnel	t2,t7,0x1d03526c
1d020950:	503d0000 	0x3d50
1d020954:	46454154 	bnel	v0,at,0x1d031e70
1d020958:	5552453d 	0x3d455255
1d02095c:	00000000 	nop
1d020960:	54524941 	0x41495254
1d020964:	4c3d0000 	syscall	0xf5
1d020968:	50524f44 	0x444f5250
1d02096c:	5543543d 	0x3d544355
1d020970:	00000000 	nop
1d020974:	c2f46c9c 	0x9c6cf4c2
1d020978:	fd51330a 	j	0x18cd47f4
1d02097c:	0e4019ed 	swc3	$25,16398(t0)
1d020980:	03ac0010 	b	0x1d00b990
1d020984:	f1ec2c7b 	0x7b2cecf1
1d020988:	696dbc9b 	lwr	gp,28009(sp)
1d02098c:	3f568593 	lbu	a1,22079(gp)
1d020990:	c7ca1cf0 	0xf01ccac7
1d020994:	e4d0477e 	0x7e47d0e4
1d020998:	05e6b21a 	0x1ab2e605
1d02099c:	43f66b26 	addiu	t3,s3,-2493
1d0209a0:	d435b745 	0x45b735d4
1d0209a4:	bdfb0c55 	bnel	t0,t4,0x1d01f89c
1d0209a8:	751e9237 	ori	s2,gp,0x1e75
1d0209ac:	7c5ac5eb 	swc2	$5,23164(s8)
1d0209b0:	da96df4f 	c3	0x1df96da
1d0209b4:	2541cb42 	c0	0xcb4125
1d0209b8:	13fa46a4 	sh	a2,-1517(v0)
1d0209bc:	e594a912 	beq	s5,t1,0x1d005d54
1d0209c0:	248b0de9 	swc2	$13,-29916(t0)
1d0209c4:	9030161f 	0x1f163090
1d0209c8:	68b5a3d8 	ldc2	$3,-19096(a1)
1d0209cc:	9dc8d21d 	0x1dd2c89d
1d0209d0:	6e9eb8d9 	ldc2	$24,-24978(t5)
1d0209d4:	b6cd31f5 	sdc1	$f17,-12874(t1)
1d0209d8:	78623e5b 	0x5b3e6278
1d0209dc:	491138d7 	ldc1	$f24,4425(t9)
1d0209e0:	4adeceab 	swl	t6,-8630(s8)
1d0209e4:	86c6b448 	0x48b4c686
1d0209e8:	6f0b9857 	bnel	gp,t8,0x1d0237a8
1d0209ec:	80740676 	jalx	0x1819d200
1d0209f0:	9fdcd352 	beql	s6,s3,0x1d017c70
1d0209f4:	663d3421 	addi	s4,t1,15718
1d0209f8:	01c3e84e 	c3	0xe8c301
1d0209fc:	32a06a02 	tlt	s3,t2,0x280
1d020a00:	e3ba4c18 	0x184cbae3
1d020a04:	71b1895c 	0x5c89b171
1d020a08:	5f595ea1 	sb	s8,22879(t2)
1d020a0c:	448df2f9 	sdc2	$18,-29372(t7)
1d020a10:	2e77677d 	lle	a3,238(t3)
1d020a14:	a2273c4b 	c2	0x13c27a2
1d020a18:	8ed6cf7f 	0x7fcfd68e
1d020a1c:	073b722f 	sltiu	s2,k1,15111
1d020a20:	ef500f64 	0x640f50ef
1d020a24:	20af60f8 	sdc2	$0,-20704(v1)
1d020a28:	8cc053ae 	sw	s3,-16244(s2)
1d020a2c:	877a9ac9 	lwc2	$26,31367(t4)
1d020a30:	9554ea99 	lwr	t2,21653(t7)
1d020a34:	65aa2a82 	lb	t2,-21915(s1)
1d020a38:	a6a563fe 	sdc3	$3,-23130(s3)
1d020a3c:	bfee9108 	j	0x1247bafc
1d020a40:	2917cc8f 	lw	t4,5929(s8)
1d020a44:	d53a22b3 	0xb3223ad5
1d020a48:	d1ad83dd 	ldc3	$3,-21039(t4)
1d020a4c:	f7a8e088 	lwl	zero,-22281(a3)
1d020a50:	b9db61ff 	sdc3	$1,-9287(k1)
1d020a54:	e13614f3 	0xf31436e1
1d020a58:	8423bee7 	swc1	$f30,9092(sp)
1d020a5c:	8158972b 	slti	s7,gp,22657
1d020a60:	e2733979 	0x793973e2
1d020a64:	bb04284d 	0x4d2804bb
1d020a68:	1ba7c1c4 	lwc1	$f1,-22757(a2)
1d020a6c:	5dfc7015 	bne	t3,s0,0x1d01fbe4
1d020a70:	09b08a2d 	sltiu	t2,t4,-20471
1d020a74:	d808029d 	0x9d0208d8
1d020a78:	e008029d 	0x9d0208e0
1d020a7c:	00000000 	nop
1d020a80:	00040000 	sll	zero,zero,0x10

Disassembly of section .sec87:

1d020a84 <.sec87>:
1d020a84:	e8ffbd27 	addiu	sp,sp,-24
1d020a88:	1400bfaf 	sw	ra,20(sp)
1d020a8c:	1000b0af 	sw	s0,16(sp)
1d020a90:	81bf023c 	lui	v0,0xbf81
1d020a94:	00f24390 	lbu	v1,-3584(v0)
1d020a98:	c418037c 	ins	v1,zero,0x3,0x1
1d020a9c:	00f243a0 	sb	v1,-3584(v0)
1d020aa0:	2f8b400f 	jal	0x1d022cbc
1d020aa4:	00000000 	nop
1d020aa8:	21804000 	move	s0,v0
1d020aac:	40000324 	li	v1,64
1d020ab0:	88bf023c 	lui	v0,0xbf88
1d020ab4:	042043ac 	sw	v1,8196(v0)
1d020ab8:	2f8b400f 	jal	0x1d022cbc
1d020abc:	00000000 	nop
1d020ac0:	01000424 	li	a0,1
1d020ac4:	88bf033c 	lui	v1,0xbf88
1d020ac8:	004064ac 	sw	a0,16384(v1)
1d020acc:	0a8b400f 	jal	0x1d022c28
1d020ad0:	21204000 	move	a0,v0
1d020ad4:	2f8b400f 	jal	0x1d022cbc
1d020ad8:	00000000 	nop
1d020adc:	88bf033c 	lui	v1,0xbf88
1d020ae0:	0030638c 	lw	v1,12288(v1)
1d020ae4:	0003637c 	ext	v1,v1,0xc,0x1
1d020ae8:	24006014 	bnez	v1,0x1d020b7c
1d020aec:	81bf053c 	lui	a1,0xbf81
1d020af0:	00100424 	li	a0,4096
1d020af4:	88bf033c 	lui	v1,0xbf88
1d020af8:	083064ac 	sw	a0,12296(v1)
1d020afc:	88bf053c 	lui	a1,0xbf88
1d020b00:	0030a38c 	lw	v1,12288(a1)
1d020b04:	00086330 	andi	v1,v1,0x800
1d020b08:	fdff6014 	bnez	v1,0x1d020b00
1d020b0c:	00000000 	nop
1d020b10:	f582400b 	j	0x1d020bd4
1d020b14:	81bf053c 	lui	a1,0xbf81
1d020b18:	88bf033c 	lui	v1,0xbf88
1d020b1c:	083064ac 	sw	a0,12296(v1)
1d020b20:	88bf053c 	lui	a1,0xbf88
1d020b24:	0030a38c 	lw	v1,12288(a1)
1d020b28:	00086330 	andi	v1,v1,0x800
1d020b2c:	fdff6014 	bnez	v1,0x1d020b24
1d020b30:	00000000 	nop
1d020b34:	0a8b400f 	jal	0x1d022c28
1d020b38:	21204000 	move	a0,v0
1d020b3c:	88bf033c 	lui	v1,0xbf88
1d020b40:	0040628c 	lw	v0,16384(v1)
1d020b44:	30004234 	ori	v0,v0,0x30
1d020b48:	004062ac 	sw	v0,16384(v1)
1d020b4c:	f58a400f 	jal	0x1d022bd4
1d020b50:	00000000 	nop
1d020b54:	81bf023c 	lui	v0,0xbf81
1d020b58:	00f0428c 	lw	v0,-4096(v0)
1d020b5c:	0a8b400f 	jal	0x1d022c28
1d020b60:	21200002 	move	a0,s0
1d020b64:	b88a400f 	jal	0x1d022ae0
1d020b68:	21200000 	move	a0,zero
1d020b6c:	318b400f 	jal	0x1d022cc4
1d020b70:	00000000 	nop
1d020b74:	0983400b 	j	0x1d020c24
1d020b78:	1400bf8f 	lw	ra,20(sp)
1d020b7c:	30f2a0ac 	sw	zero,-3536(a1)
1d020b80:	99aa033c 	lui	v1,0xaa99
1d020b84:	55666324 	addiu	v1,v1,26197
1d020b88:	30f2a3ac 	sw	v1,-3536(a1)
1d020b8c:	6655033c 	lui	v1,0x5566
1d020b90:	aa996334 	ori	v1,v1,0x99aa
1d020b94:	30f2a3ac 	sw	v1,-3536(a1)
1d020b98:	81bf043c 	lui	a0,0xbf81
1d020b9c:	00f0838c 	lw	v1,-4096(a0)
1d020ba0:	c4a4037c 	ins	v1,zero,0x13,0x2
1d020ba4:	00f083ac 	sw	v1,-4096(a0)
1d020ba8:	00f0838c 	lw	v1,-4096(a0)
1d020bac:	3333033c 	lui	v1,0x3333
1d020bb0:	33336324 	addiu	v1,v1,13107
1d020bb4:	30f2a3ac 	sw	v1,-3536(a1)
1d020bb8:	88bf033c 	lui	v1,0xbf88
1d020bbc:	0030638c 	lw	v1,12288(v1)
1d020bc0:	0003637c 	ext	v1,v1,0xc,0x1
1d020bc4:	d4ff6010 	beqz	v1,0x1d020b18
1d020bc8:	00100424 	li	a0,4096
1d020bcc:	cd82400b 	j	0x1d020b34
1d020bd0:	00000000 	nop
1d020bd4:	30f2a0ac 	sw	zero,-3536(a1)
1d020bd8:	99aa033c 	lui	v1,0xaa99
1d020bdc:	55666324 	addiu	v1,v1,26197
1d020be0:	30f2a3ac 	sw	v1,-3536(a1)
1d020be4:	6655033c 	lui	v1,0x5566
1d020be8:	aa996334 	ori	v1,v1,0x99aa
1d020bec:	30f2a3ac 	sw	v1,-3536(a1)
1d020bf0:	81bf063c 	lui	a2,0xbf81
1d020bf4:	00f0c38c 	lw	v1,-4096(a2)
1d020bf8:	c4a4037c 	ins	v1,zero,0x13,0x2
1d020bfc:	00f0c3ac 	sw	v1,-4096(a2)
1d020c00:	00f0c38c 	lw	v1,-4096(a2)
1d020c04:	3333033c 	lui	v1,0x3333
1d020c08:	33336324 	addiu	v1,v1,13107
1d020c0c:	30f2a3ac 	sw	v1,-3536(a1)
1d020c10:	00100424 	li	a0,4096
1d020c14:	88bf033c 	lui	v1,0xbf88
1d020c18:	043064ac 	sw	a0,12292(v1)
1d020c1c:	cd82400b 	j	0x1d020b34
1d020c20:	00000000 	nop
1d020c24:	1000b08f 	lw	s0,16(sp)
1d020c28:	0800e003 	jr	ra
1d020c2c:	1800bd27 	addiu	sp,sp,24

Disassembly of section .sec88:

1d020c30 <.sec88>:
1d020c30:	d8ffbd27 	addiu	sp,sp,-40
1d020c34:	2400bfaf 	sw	ra,36(sp)
1d020c38:	2000b4af 	sw	s4,32(sp)
1d020c3c:	1c00b3af 	sw	s3,28(sp)
1d020c40:	1800b2af 	sw	s2,24(sp)
1d020c44:	1400b1af 	sw	s1,20(sp)
1d020c48:	1000b0af 	sw	s0,16(sp)
1d020c4c:	01a0143c 	lui	s4,0xa001
1d020c50:	21988000 	move	s3,a0
1d020c54:	fc3880ae 	sw	zero,14588(s4)
1d020c58:	00009180 	lb	s1,0(a0)
1d020c5c:	029d033c 	lui	v1,0x9d02
1d020c60:	bd1d6324 	addiu	v1,v1,7613
1d020c64:	21107100 	addu	v0,v1,s1
1d020c68:	00004280 	lb	v0,0(v0)
1d020c6c:	2190a000 	move	s2,a1
1d020c70:	88004230 	andi	v0,v0,0x88
1d020c74:	08004010 	beqz	v0,0x1d020c98
1d020c78:	21808000 	move	s0,a0
1d020c7c:	01001026 	addiu	s0,s0,1
1d020c80:	00001182 	lb	s1,0(s0)
1d020c84:	21107100 	addu	v0,v1,s1
1d020c88:	00004280 	lb	v0,0(v0)
1d020c8c:	88004230 	andi	v0,v0,0x88
1d020c90:	fbff4054 	bnezl	v0,0x1d020c80
1d020c94:	01001026 	addiu	s0,s0,1
1d020c98:	2d000224 	li	v0,45
1d020c9c:	29002212 	beq	s1,v0,0x1d020d44
1d020ca0:	2b000224 	li	v0,43
1d020ca4:	02002252 	beql	s1,v0,0x1d020cb0
1d020ca8:	01001026 	addiu	s0,s0,1
1d020cac:	2b001124 	li	s1,43
1d020cb0:	21200002 	move	a0,s0
1d020cb4:	b981400f 	jal	0x1d0206e4
1d020cb8:	21284002 	move	a1,s2
1d020cbc:	06004012 	beqz	s2,0x1d020cd8
1d020cc0:	2b000324 	li	v1,43
1d020cc4:	0000438e 	lw	v1,0(s2)
1d020cc8:	36007050 	beql	v1,s0,0x1d020da4
1d020ccc:	000053ae 	sw	s3,0(s2)
1d020cd0:	34006312 	beq	s3,v1,0x1d020da4
1d020cd4:	2b000324 	li	v1,43
1d020cd8:	1c002312 	beq	s1,v1,0x1d020d4c
1d020cdc:	2d000324 	li	v1,45
1d020ce0:	09002312 	beq	s1,v1,0x1d020d08
1d020ce4:	0080033c 	lui	v1,0x8000
1d020ce8:	2400bf8f 	lw	ra,36(sp)
1d020cec:	2000b48f 	lw	s4,32(sp)
1d020cf0:	1c00b38f 	lw	s3,28(sp)
1d020cf4:	1800b28f 	lw	s2,24(sp)
1d020cf8:	1400b18f 	lw	s1,20(sp)
1d020cfc:	1000b08f 	lw	s0,16(sp)
1d020d00:	0800e003 	jr	ra
1d020d04:	2800bd27 	addiu	sp,sp,40
1d020d08:	01006324 	addiu	v1,v1,1
1d020d0c:	2b184300 	sltu	v1,v0,v1
1d020d10:	1c006014 	bnez	v1,0x1d020d84
1d020d14:	23100200 	negu	v0,v0
1d020d18:	22000224 	li	v0,34
1d020d1c:	fc3882ae 	sw	v0,14588(s4)
1d020d20:	0080023c 	lui	v0,0x8000
1d020d24:	2400bf8f 	lw	ra,36(sp)
1d020d28:	2000b48f 	lw	s4,32(sp)
1d020d2c:	1c00b38f 	lw	s3,28(sp)
1d020d30:	1800b28f 	lw	s2,24(sp)
1d020d34:	1400b18f 	lw	s1,20(sp)
1d020d38:	1000b08f 	lw	s0,16(sp)
1d020d3c:	0800e003 	jr	ra
1d020d40:	2800bd27 	addiu	sp,sp,40
1d020d44:	2c83400b 	j	0x1d020cb0
1d020d48:	01001026 	addiu	s0,s0,1
1d020d4c:	e7ff4104 	bgez	v0,0x1d020cec
1d020d50:	2400bf8f 	lw	ra,36(sp)
1d020d54:	22000224 	li	v0,34
1d020d58:	fc3882ae 	sw	v0,14588(s4)
1d020d5c:	ff7f023c 	lui	v0,0x7fff
1d020d60:	ffff4234 	ori	v0,v0,0xffff
1d020d64:	2400bf8f 	lw	ra,36(sp)
1d020d68:	2000b48f 	lw	s4,32(sp)
1d020d6c:	1c00b38f 	lw	s3,28(sp)
1d020d70:	1800b28f 	lw	s2,24(sp)
1d020d74:	1400b18f 	lw	s1,20(sp)
1d020d78:	1000b08f 	lw	s0,16(sp)
1d020d7c:	0800e003 	jr	ra
1d020d80:	2800bd27 	addiu	sp,sp,40
1d020d84:	2400bf8f 	lw	ra,36(sp)
1d020d88:	2000b48f 	lw	s4,32(sp)
1d020d8c:	1c00b38f 	lw	s3,28(sp)
1d020d90:	1800b28f 	lw	s2,24(sp)
1d020d94:	1400b18f 	lw	s1,20(sp)
1d020d98:	1000b08f 	lw	s0,16(sp)
1d020d9c:	0800e003 	jr	ra
1d020da0:	2800bd27 	addiu	sp,sp,40
1d020da4:	ccff4010 	beqz	v0,0x1d020cd8
1d020da8:	2b000324 	li	v1,43
1d020dac:	22000224 	li	v0,34
1d020db0:	fc3882ae 	sw	v0,14588(s4)
1d020db4:	2d000324 	li	v1,45
1d020db8:	cbff2312 	beq	s1,v1,0x1d020ce8
1d020dbc:	0080023c 	lui	v0,0x8000
1d020dc0:	ff7f023c 	lui	v0,0x7fff
1d020dc4:	5983400b 	j	0x1d020d64
1d020dc8:	ffff4234 	ori	v0,v0,0xffff

Disassembly of section .sec89:

1d020dcc <.sec89>:
1d020dcc:	0c818393 	lbu	v1,-32500(gp)
1d020dd0:	1f006330 	andi	v1,v1,0x1f
1d020dd4:	01000224 	li	v0,1
1d020dd8:	60006214 	bne	v1,v0,0x1d020f5c
1d020ddc:	00000000 	nop
1d020de0:	10818293 	lbu	v0,-32496(gp)
1d020de4:	ff004230 	andi	v0,v0,0xff
1d020de8:	5c004014 	bnez	v0,0x1d020f5c
1d020dec:	00000000 	nop
1d020df0:	0d818393 	lbu	v1,-32499(gp)
1d020df4:	ff006330 	andi	v1,v1,0xff
1d020df8:	06000224 	li	v0,6
1d020dfc:	21006214 	bne	v1,v0,0x1d020e84
1d020e00:	00000000 	nop
1d020e04:	0f818293 	lbu	v0,-32497(gp)
1d020e08:	ff004230 	andi	v0,v0,0xff
1d020e0c:	21000324 	li	v1,33
1d020e10:	05004310 	beq	v0,v1,0x1d020e28
1d020e14:	22000324 	li	v1,34
1d020e18:	12004310 	beq	v0,v1,0x1d020e64
1d020e1c:	00a0023c 	lui	v0,0xa000
1d020e20:	a183400b 	j	0x1d020e84
1d020e24:	00000000 	nop
1d020e28:	fc808393 	lbu	v1,-32516(gp)
1d020e2c:	ff006330 	andi	v1,v1,0xff
1d020e30:	01000224 	li	v0,1
1d020e34:	13006214 	bne	v1,v0,0x1d020e84
1d020e38:	00a0023c 	lui	v0,0xa000
1d020e3c:	029d033c 	lui	v1,0x9d02
1d020e40:	261f6324 	addiu	v1,v1,7974
1d020e44:	800443ac 	sw	v1,1152(v0)
1d020e48:	80044224 	addiu	v0,v0,1152
1d020e4c:	09000324 	li	v1,9
1d020e50:	080043a4 	sh	v1,8(v0)
1d020e54:	c0ff0324 	li	v1,-64
1d020e58:	040043a0 	sb	v1,4(v0)
1d020e5c:	a183400b 	j	0x1d020e84
1d020e60:	00000000 	nop
1d020e64:	029d033c 	lui	v1,0x9d02
1d020e68:	d01e6324 	addiu	v1,v1,7888
1d020e6c:	800443ac 	sw	v1,1152(v0)
1d020e70:	80044224 	addiu	v0,v0,1152
1d020e74:	1d000324 	li	v1,29
1d020e78:	080043a4 	sh	v1,8(v0)
1d020e7c:	c0ff0324 	li	v1,-64
1d020e80:	040043a0 	sb	v1,4(v0)
1d020e84:	0c818393 	lbu	v1,-32500(gp)
1d020e88:	60006330 	andi	v1,v1,0x60
1d020e8c:	20000224 	li	v0,32
1d020e90:	32006214 	bne	v1,v0,0x1d020f5c
1d020e94:	00000000 	nop
1d020e98:	0d818293 	lbu	v0,-32499(gp)
1d020e9c:	ff004230 	andi	v0,v0,0xff
1d020ea0:	03000324 	li	v1,3
1d020ea4:	1e004310 	beq	v0,v1,0x1d020f20
1d020ea8:	0400432c 	sltiu	v1,v0,4
1d020eac:	06006010 	beqz	v1,0x1d020ec8
1d020eb0:	0a000324 	li	v1,10
1d020eb4:	02000324 	li	v1,2
1d020eb8:	09004310 	beq	v0,v1,0x1d020ee0
1d020ebc:	00a0023c 	lui	v0,0xa000
1d020ec0:	0800e003 	jr	ra
1d020ec4:	00000000 	nop
1d020ec8:	0e004310 	beq	v0,v1,0x1d020f04
1d020ecc:	0b000324 	li	v1,11
1d020ed0:	1d004310 	beq	v0,v1,0x1d020f48
1d020ed4:	80ff0324 	li	v1,-128
1d020ed8:	0800e003 	jr	ra
1d020edc:	00000000 	nop
1d020ee0:	4c818327 	addiu	v1,gp,-32436
1d020ee4:	800443ac 	sw	v1,1152(v0)
1d020ee8:	80044224 	addiu	v0,v0,1152
1d020eec:	01000324 	li	v1,1
1d020ef0:	080043a4 	sh	v1,8(v0)
1d020ef4:	c1ff0324 	li	v1,-63
1d020ef8:	040043a0 	sb	v1,4(v0)
1d020efc:	0800e003 	jr	ra
1d020f00:	00000000 	nop
1d020f04:	80ff0324 	li	v1,-128
1d020f08:	00a0023c 	lui	v0,0xa000
1d020f0c:	80044224 	addiu	v0,v0,1152
1d020f10:	040043a0 	sb	v1,4(v0)
1d020f14:	0f818293 	lbu	v0,-32497(gp)
1d020f18:	0800e003 	jr	ra
1d020f1c:	4c8182a3 	sb	v0,-32436(gp)
1d020f20:	00a0023c 	lui	v0,0xa000
1d020f24:	4d818327 	addiu	v1,gp,-32435
1d020f28:	800443ac 	sw	v1,1152(v0)
1d020f2c:	80044224 	addiu	v0,v0,1152
1d020f30:	01000324 	li	v1,1
1d020f34:	080043a4 	sh	v1,8(v0)
1d020f38:	81ff0324 	li	v1,-127
1d020f3c:	040043a0 	sb	v1,4(v0)
1d020f40:	0800e003 	jr	ra
1d020f44:	00000000 	nop
1d020f48:	00a0023c 	lui	v0,0xa000
1d020f4c:	80044224 	addiu	v0,v0,1152
1d020f50:	040043a0 	sb	v1,4(v0)
1d020f54:	0e818293 	lbu	v0,-32498(gp)
1d020f58:	4d8182a3 	sb	v0,-32435(gp)
1d020f5c:	0800e003 	jr	ra
1d020f60:	00000000 	nop
1d020f64:	80200400 	sll	a0,a0,0x2
1d020f68:	44808227 	addiu	v0,gp,-32700
1d020f6c:	21204400 	addu	a0,v0,a0
1d020f70:	0000838c 	lw	v1,0(a0)
1d020f74:	80110500 	sll	v0,a1,0x6
1d020f78:	21106200 	addu	v0,v1,v0
1d020f7c:	80000424 	li	a0,128
1d020f80:	580344ac 	sw	a0,856(v0)
1d020f84:	ffffc624 	addiu	a2,a2,-1
1d020f88:	5003448c 	lw	a0,848(v0)
1d020f8c:	04a4c47c 	ins	a0,a2,0x10,0x5
1d020f90:	500344ac 	sw	a0,848(v0)
1d020f94:	0700e014 	bnez	a3,0x1d020fb4
1d020f98:	01000224 	li	v0,1
1d020f9c:	80110500 	sll	v0,a1,0x6
1d020fa0:	21106200 	addu	v0,v1,v0
1d020fa4:	04000424 	li	a0,4
1d020fa8:	580344ac 	sw	a0,856(v0)
1d020fac:	f483400b 	j	0x1d020fd0
1d020fb0:	80290500 	sll	a1,a1,0x6
1d020fb4:	0600e254 	bnel	a3,v0,0x1d020fd0
1d020fb8:	80290500 	sll	a1,a1,0x6
1d020fbc:	80110500 	sll	v0,a1,0x6
1d020fc0:	21106200 	addu	v0,v1,v0
1d020fc4:	04000424 	li	a0,4
1d020fc8:	540344ac 	sw	a0,852(v0)
1d020fcc:	80290500 	sll	a1,a1,0x6
1d020fd0:	21186500 	addu	v1,v1,a1
1d020fd4:	5003628c 	lw	v0,848(v1)
1d020fd8:	1000a48f 	lw	a0,16(sp)
1d020fdc:	0408827c 	ins	v0,a0,0x0,0x2
1d020fe0:	500362ac 	sw	v0,848(v1)
1d020fe4:	0800e003 	jr	ra
1d020fe8:	00000000 	nop
1d020fec:	80200400 	sll	a0,a0,0x2
1d020ff0:	44808227 	addiu	v0,gp,-32700
1d020ff4:	21204400 	addu	a0,v0,a0
1d020ff8:	20000224 	li	v0,32
1d020ffc:	0500a214 	bne	a1,v0,0x1d021014
1d021000:	0000838c 	lw	v1,0(a0)
1d021004:	0008023c 	lui	v0,0x800
1d021008:	080062ac 	sw	v0,8(v1)
1d02100c:	0800e003 	jr	ra
1d021010:	00000000 	nop
1d021014:	80290500 	sll	a1,a1,0x6
1d021018:	21186500 	addu	v1,v1,a1
1d02101c:	08000224 	li	v0,8
1d021020:	540362ac 	sw	v0,852(v1)
1d021024:	0800e003 	jr	ra
1d021028:	00000000 	nop
1d02102c:	80200400 	sll	a0,a0,0x2
1d021030:	44808227 	addiu	v0,gp,-32700
1d021034:	21204400 	addu	a0,v0,a0
1d021038:	20000224 	li	v0,32
1d02103c:	0500a214 	bne	a1,v0,0x1d021054
1d021040:	0000838c 	lw	v1,0(a0)
1d021044:	0000628c 	lw	v0,0(v1)
1d021048:	c006427c 	ext	v0,v0,0x1b,0x1
1d02104c:	0800e003 	jr	ra
1d021050:	01004238 	xori	v0,v0,0x1
1d021054:	80290500 	sll	a1,a1,0x6
1d021058:	21186500 	addu	v1,v1,a1
1d02105c:	5003628c 	lw	v0,848(v1)
1d021060:	0800e003 	jr	ra
1d021064:	8001427c 	ext	v0,v0,0x6,0x1
1d021068:	80200400 	sll	a0,a0,0x2
1d02106c:	44808227 	addiu	v0,gp,-32700
1d021070:	21204400 	addu	a0,v0,a0
1d021074:	0000828c 	lw	v0,0(a0)
1d021078:	80290500 	sll	a1,a1,0x6
1d02107c:	21104500 	addu	v0,v0,a1
1d021080:	08000324 	li	v1,8
1d021084:	580343ac 	sw	v1,856(v0)
1d021088:	0800e003 	jr	ra
1d02108c:	00000000 	nop
1d021090:	80200400 	sll	a0,a0,0x2
1d021094:	44808227 	addiu	v0,gp,-32700
1d021098:	21204400 	addu	a0,v0,a0
1d02109c:	0000828c 	lw	v0,0(a0)
1d0210a0:	80290500 	sll	a1,a1,0x6
1d0210a4:	21104500 	addu	v0,v0,a1
1d0210a8:	5003428c 	lw	v0,848(v0)
1d0210ac:	0800e003 	jr	ra
1d0210b0:	38004230 	andi	v0,v0,0x38
1d0210b4:	80200400 	sll	a0,a0,0x2
1d0210b8:	44808227 	addiu	v0,gp,-32700
1d0210bc:	21204400 	addu	a0,v0,a0
1d0210c0:	0000828c 	lw	v0,0(a0)
1d0210c4:	80190500 	sll	v1,a1,0x6
1d0210c8:	21184300 	addu	v1,v0,v1
1d0210cc:	6003638c 	lw	v1,864(v1)
1d0210d0:	8002637c 	ext	v1,v1,0xa,0x1
1d0210d4:	06006010 	beqz	v1,0x1d0210f0
1d0210d8:	80290500 	sll	a1,a1,0x6
1d0210dc:	21104500 	addu	v0,v0,a1
1d0210e0:	7003438c 	lw	v1,880(v0)
1d0210e4:	00a0023c 	lui	v0,0xa000
1d0210e8:	0800e003 	jr	ra
1d0210ec:	25106200 	or	v0,v1,v0
1d0210f0:	0800e003 	jr	ra
1d0210f4:	21100000 	move	v0,zero

Disassembly of section .sec90:

1d0210f8 <.sec90>:
	...
1d021100:	80000000 	sll	zero,zero,0x2
1d021104:	00000000 	nop
1d021108:	01000000 	movf	zero,zero,$fcc0
1d02110c:	00800000 	sll	s0,zero,0x0
1d021110:	00000000 	nop
1d021114:	02000000 	srl	zero,zero,0x0
1d021118:	00008000 	0x800000
1d02111c:	00000000 	nop
1d021120:	03000000 	sra	zero,zero,0x0
1d021124:	00000080 	lb	zero,0(zero)
1d021128:	01000000 	movf	zero,zero,$fcc0
1d02112c:	00000000 	nop
1d021130:	80000000 	sll	zero,zero,0x2
1d021134:	01000000 	movf	zero,zero,$fcc0
1d021138:	01000000 	movf	zero,zero,$fcc0
1d02113c:	00800000 	sll	s0,zero,0x0
1d021140:	01000000 	movf	zero,zero,$fcc0
1d021144:	02000000 	srl	zero,zero,0x0
1d021148:	00008000 	0x800000
1d02114c:	01000000 	movf	zero,zero,$fcc0
1d021150:	03000000 	sra	zero,zero,0x0
1d021154:	00000080 	lb	zero,0(zero)
1d021158:	02000000 	srl	zero,zero,0x0
1d02115c:	00000000 	nop
1d021160:	80000000 	sll	zero,zero,0x2
1d021164:	02000000 	srl	zero,zero,0x0
1d021168:	01000000 	movf	zero,zero,$fcc0
1d02116c:	00800000 	sll	s0,zero,0x0
1d021170:	02000000 	srl	zero,zero,0x0
1d021174:	02000000 	srl	zero,zero,0x0
1d021178:	00008000 	0x800000
1d02117c:	02000000 	srl	zero,zero,0x0
1d021180:	03000000 	sra	zero,zero,0x0
1d021184:	00000080 	lb	zero,0(zero)
1d021188:	03000000 	sra	zero,zero,0x0
1d02118c:	00000000 	nop
1d021190:	80000000 	sll	zero,zero,0x2
1d021194:	03000000 	sra	zero,zero,0x0
1d021198:	01000000 	movf	zero,zero,$fcc0
1d02119c:	00800000 	sll	s0,zero,0x0
1d0211a0:	03000000 	sra	zero,zero,0x0
1d0211a4:	02000000 	srl	zero,zero,0x0
1d0211a8:	00008000 	0x800000
1d0211ac:	03000000 	sra	zero,zero,0x0
1d0211b0:	03000000 	sra	zero,zero,0x0
1d0211b4:	00000080 	lb	zero,0(zero)
1d0211b8:	04000000 	sllv	zero,zero,zero
1d0211bc:	00000000 	nop
1d0211c0:	80000000 	sll	zero,zero,0x2
1d0211c4:	04000000 	sllv	zero,zero,zero
1d0211c8:	01000000 	movf	zero,zero,$fcc0
1d0211cc:	00800000 	sll	s0,zero,0x0
1d0211d0:	04000000 	sllv	zero,zero,zero
1d0211d4:	02000000 	srl	zero,zero,0x0
1d0211d8:	00008000 	0x800000
1d0211dc:	04000000 	sllv	zero,zero,zero
1d0211e0:	03000000 	sra	zero,zero,0x0
1d0211e4:	00000080 	lb	zero,0(zero)
1d0211e8:	05000000 	0x5
1d0211ec:	00000000 	nop
1d0211f0:	80000000 	sll	zero,zero,0x2
1d0211f4:	05000000 	0x5
1d0211f8:	01000000 	movf	zero,zero,$fcc0
1d0211fc:	00800000 	sll	s0,zero,0x0
1d021200:	05000000 	0x5
1d021204:	02000000 	srl	zero,zero,0x0
1d021208:	00008000 	0x800000
1d02120c:	05000000 	0x5
1d021210:	03000000 	sra	zero,zero,0x0
1d021214:	00000080 	lb	zero,0(zero)
1d021218:	06000000 	srlv	zero,zero,zero
1d02121c:	00000000 	nop
1d021220:	80000000 	sll	zero,zero,0x2
1d021224:	06000000 	srlv	zero,zero,zero
1d021228:	01000000 	movf	zero,zero,$fcc0
1d02122c:	00800000 	sll	s0,zero,0x0
1d021230:	06000000 	srlv	zero,zero,zero
1d021234:	02000000 	srl	zero,zero,0x0
1d021238:	00008000 	0x800000
1d02123c:	06000000 	srlv	zero,zero,zero
1d021240:	03000000 	sra	zero,zero,0x0
1d021244:	00000080 	lb	zero,0(zero)
1d021248:	07000000 	srav	zero,zero,zero
1d02124c:	00000000 	nop
1d021250:	80000000 	sll	zero,zero,0x2
1d021254:	07000000 	srav	zero,zero,zero
1d021258:	01000000 	movf	zero,zero,$fcc0
1d02125c:	00800000 	sll	s0,zero,0x0
1d021260:	07000000 	srav	zero,zero,zero
1d021264:	02000000 	srl	zero,zero,0x0
1d021268:	00008000 	0x800000
1d02126c:	07000000 	srav	zero,zero,zero
1d021270:	03000000 	sra	zero,zero,0x0
1d021274:	00000080 	lb	zero,0(zero)

Disassembly of section .sec91:

1d021278 <.sec91>:
1d021278:	21108000 	move	v0,a0
1d02127c:	5600c010 	beqz	a2,0x1d0213d8
1d021280:	0c00ca2c 	sltiu	t2,a2,12
1d021284:	4d004015 	bnez	t2,0x1d0213bc
1d021288:	2618a400 	xor	v1,a1,a0
1d02128c:	03006330 	andi	v1,v1,0x3
1d021290:	23380400 	negu	a3,a0
1d021294:	29006010 	beqz	v1,0x1d02133c
1d021298:	0300e730 	andi	a3,a3,0x3
1d02129c:	0600e010 	beqz	a3,0x1d0212b8
1d0212a0:	2330c700 	subu	a2,a2,a3
1d0212a4:	0000a398 	lwr	v1,0(a1)
1d0212a8:	0300a388 	lwl	v1,3(a1)
1d0212ac:	2128a700 	addu	a1,a1,a3
1d0212b0:	000083b8 	swr	v1,0(a0)
1d0212b4:	21208700 	addu	a0,a0,a3
1d0212b8:	0f00c330 	andi	v1,a2,0xf
1d0212bc:	2338c300 	subu	a3,a2,v1
1d0212c0:	1100e010 	beqz	a3,0x1d021308
1d0212c4:	21306000 	move	a2,v1
1d0212c8:	2138e500 	addu	a3,a3,a1
1d0212cc:	0000a398 	lwr	v1,0(a1)
1d0212d0:	0300a388 	lwl	v1,3(a1)
1d0212d4:	0400a898 	lwr	t0,4(a1)
1d0212d8:	0700a888 	lwl	t0,7(a1)
1d0212dc:	0800a998 	lwr	t1,8(a1)
1d0212e0:	0b00a988 	lwl	t1,11(a1)
1d0212e4:	0c00aa98 	lwr	t2,12(a1)
1d0212e8:	0f00aa88 	lwl	t2,15(a1)
1d0212ec:	000083ac 	sw	v1,0(a0)
1d0212f0:	040088ac 	sw	t0,4(a0)
1d0212f4:	080089ac 	sw	t1,8(a0)
1d0212f8:	1000a524 	addiu	a1,a1,16
1d0212fc:	10008424 	addiu	a0,a0,16
1d021300:	f2ffa714 	bne	a1,a3,0x1d0212cc
1d021304:	fcff8aac 	sw	t2,-4(a0)
1d021308:	0300c330 	andi	v1,a2,0x3
1d02130c:	2338c300 	subu	a3,a2,v1
1d021310:	2a00e010 	beqz	a3,0x1d0213bc
1d021314:	21306000 	move	a2,v1
1d021318:	2138e500 	addu	a3,a3,a1
1d02131c:	0000a398 	lwr	v1,0(a1)
1d021320:	0300a388 	lwl	v1,3(a1)
1d021324:	0400a524 	addiu	a1,a1,4
1d021328:	04008424 	addiu	a0,a0,4
1d02132c:	fbffa714 	bne	a1,a3,0x1d02131c
1d021330:	fcff83ac 	sw	v1,-4(a0)
1d021334:	21000010 	b	0x1d0213bc
1d021338:	00000000 	nop
1d02133c:	0500e010 	beqz	a3,0x1d021354
1d021340:	2330c700 	subu	a2,a2,a3
1d021344:	0000a398 	lwr	v1,0(a1)
1d021348:	2128a700 	addu	a1,a1,a3
1d02134c:	000083b8 	swr	v1,0(a0)
1d021350:	21208700 	addu	a0,a0,a3
1d021354:	0f00c330 	andi	v1,a2,0xf
1d021358:	2338c300 	subu	a3,a2,v1
1d02135c:	0d00e010 	beqz	a3,0x1d021394
1d021360:	21306000 	move	a2,v1
1d021364:	2138e500 	addu	a3,a3,a1
1d021368:	0000a38c 	lw	v1,0(a1)
1d02136c:	0400a88c 	lw	t0,4(a1)
1d021370:	0800a98c 	lw	t1,8(a1)
1d021374:	0c00aa8c 	lw	t2,12(a1)
1d021378:	000083ac 	sw	v1,0(a0)
1d02137c:	040088ac 	sw	t0,4(a0)
1d021380:	080089ac 	sw	t1,8(a0)
1d021384:	1000a524 	addiu	a1,a1,16
1d021388:	10008424 	addiu	a0,a0,16
1d02138c:	f6ffa714 	bne	a1,a3,0x1d021368
1d021390:	fcff8aac 	sw	t2,-4(a0)
1d021394:	0300c330 	andi	v1,a2,0x3
1d021398:	2338c300 	subu	a3,a2,v1
1d02139c:	0700e010 	beqz	a3,0x1d0213bc
1d0213a0:	21306000 	move	a2,v1
1d0213a4:	2138e500 	addu	a3,a3,a1
1d0213a8:	0000a38c 	lw	v1,0(a1)
1d0213ac:	0400a524 	addiu	a1,a1,4
1d0213b0:	04008424 	addiu	a0,a0,4
1d0213b4:	fcffa714 	bne	a1,a3,0x1d0213a8
1d0213b8:	fcff83ac 	sw	v1,-4(a0)
1d0213bc:	0600c010 	beqz	a2,0x1d0213d8
1d0213c0:	2138c500 	addu	a3,a2,a1
1d0213c4:	0000a390 	lbu	v1,0(a1)
1d0213c8:	0100a524 	addiu	a1,a1,1
1d0213cc:	01008424 	addiu	a0,a0,1
1d0213d0:	fcffa714 	bne	a1,a3,0x1d0213c4
1d0213d4:	ffff83a0 	sb	v1,-1(a0)
1d0213d8:	0800e003 	jr	ra
1d0213dc:	00000000 	nop
1d0213e0:	00008a90 	lbu	t2,0(a0)
1d0213e4:	21108000 	move	v0,a0
1d0213e8:	03004015 	bnez	t2,0x1d0213f8
1d0213ec:	00000000 	nop
1d0213f0:	0800e003 	jr	ra
1d0213f4:	00000224 	li	v0,0
1d0213f8:	01008a90 	lbu	t2,1(a0)
1d0213fc:	03004015 	bnez	t2,0x1d02140c
1d021400:	00000000 	nop
1d021404:	0800e003 	jr	ra
1d021408:	01000224 	li	v0,1
1d02140c:	02008a90 	lbu	t2,2(a0)
1d021410:	03004015 	bnez	t2,0x1d021420
1d021414:	00000000 	nop
1d021418:	0800e003 	jr	ra
1d02141c:	02000224 	li	v0,2
1d021420:	03008a90 	lbu	t2,3(a0)
1d021424:	03004015 	bnez	t2,0x1d021434
1d021428:	82200400 	srl	a0,a0,0x2
1d02142c:	0800e003 	jr	ra
1d021430:	03000224 	li	v0,3
1d021434:	01008424 	addiu	a0,a0,1
1d021438:	80200400 	sll	a0,a0,0x2
1d02143c:	00008a8c 	lw	t2,0(a0)
1d021440:	0101093c 	lui	t1,0x101
1d021444:	01012935 	ori	t1,t1,0x101
1d021448:	c0790900 	sll	t7,t1,0x7
1d02144c:	23404901 	subu	t0,t2,t1
1d021450:	24400f01 	and	t0,t0,t7
1d021454:	06000011 	beqz	t0,0x1d021470
1d021458:	24600a01 	and	t4,t0,t2
1d02145c:	04008811 	beq	t4,t0,0x1d021470
1d021460:	00000000 	nop
1d021464:	00008a90 	lbu	t2,0(a0)
1d021468:	22000010 	b	0x1d0214f4
1d02146c:	00008424 	addiu	a0,a0,0
1d021470:	04008b8c 	lw	t3,4(a0)
1d021474:	23406901 	subu	t0,t3,t1
1d021478:	24400f01 	and	t0,t0,t7
1d02147c:	06000011 	beqz	t0,0x1d021498
1d021480:	24600b01 	and	t4,t0,t3
1d021484:	04008811 	beq	t4,t0,0x1d021498
1d021488:	00000000 	nop
1d02148c:	04008a90 	lbu	t2,4(a0)
1d021490:	18000010 	b	0x1d0214f4
1d021494:	04008424 	addiu	a0,a0,4
1d021498:	08008a8c 	lw	t2,8(a0)
1d02149c:	23404901 	subu	t0,t2,t1
1d0214a0:	24400f01 	and	t0,t0,t7
1d0214a4:	06000011 	beqz	t0,0x1d0214c0
1d0214a8:	24600a01 	and	t4,t0,t2
1d0214ac:	04008811 	beq	t4,t0,0x1d0214c0
1d0214b0:	00000000 	nop
1d0214b4:	08008a90 	lbu	t2,8(a0)
1d0214b8:	0e000010 	b	0x1d0214f4
1d0214bc:	08008424 	addiu	a0,a0,8
1d0214c0:	0c008b8c 	lw	t3,12(a0)
1d0214c4:	23406901 	subu	t0,t3,t1
1d0214c8:	24400f01 	and	t0,t0,t7
1d0214cc:	06000011 	beqz	t0,0x1d0214e8
1d0214d0:	24600b01 	and	t4,t0,t3
1d0214d4:	04008811 	beq	t4,t0,0x1d0214e8
1d0214d8:	00000000 	nop
1d0214dc:	0c008a90 	lbu	t2,12(a0)
1d0214e0:	04000010 	b	0x1d0214f4
1d0214e4:	0c008424 	addiu	a0,a0,12
1d0214e8:	10008a8c 	lw	t2,16(a0)
1d0214ec:	d7ff0010 	b	0x1d02144c
1d0214f0:	10008424 	addiu	a0,a0,16
1d0214f4:	04004015 	bnez	t2,0x1d021508
1d0214f8:	00000000 	nop
1d0214fc:	00008424 	addiu	a0,a0,0
1d021500:	0800e003 	jr	ra
1d021504:	23108200 	subu	v0,a0,v0
1d021508:	01008a90 	lbu	t2,1(a0)
1d02150c:	04004015 	bnez	t2,0x1d021520
1d021510:	00000000 	nop
1d021514:	01008424 	addiu	a0,a0,1
1d021518:	0800e003 	jr	ra
1d02151c:	23108200 	subu	v0,a0,v0
1d021520:	02008a90 	lbu	t2,2(a0)
1d021524:	04004015 	bnez	t2,0x1d021538
1d021528:	00000000 	nop
1d02152c:	02008424 	addiu	a0,a0,2
1d021530:	0800e003 	jr	ra
1d021534:	23108200 	subu	v0,a0,v0
1d021538:	03008a90 	lbu	t2,3(a0)
1d02153c:	03008424 	addiu	a0,a0,3
1d021540:	0800e003 	jr	ra
1d021544:	23108200 	subu	v0,a0,v0

Disassembly of section .sec92:

1d021548 <.sec92>:
1d021548:	ffff0324 	li	v1,-1
1d02154c:	81bf023c 	lui	v0,0xbf81
1d021550:	609043ac 	sw	v1,-28576(v0)
1d021554:	30000224 	li	v0,48
1d021558:	88bf033c 	lui	v1,0xbf88
1d02155c:	e46062ac 	sw	v0,24804(v1)
1d021560:	88bf033c 	lui	v1,0xbf88
1d021564:	c46062ac 	sw	v0,24772(v1)
1d021568:	01000224 	li	v0,1
1d02156c:	88bf033c 	lui	v1,0xbf88
1d021570:	286162ac 	sw	v0,24872(v1)
1d021574:	88bf033c 	lui	v1,0xbf88
1d021578:	046162ac 	sw	v0,24836(v1)
1d02157c:	0800e003 	jr	ra
1d021580:	00000000 	nop
1d021584:	c8ffbd27 	addiu	sp,sp,-56
1d021588:	3400bfaf 	sw	ra,52(sp)
1d02158c:	3000b7af 	sw	s7,48(sp)
1d021590:	2c00b6af 	sw	s6,44(sp)
1d021594:	2800b5af 	sw	s5,40(sp)
1d021598:	2400b4af 	sw	s4,36(sp)
1d02159c:	2000b3af 	sw	s3,32(sp)
1d0215a0:	1c00b2af 	sw	s2,28(sp)
1d0215a4:	1800b1af 	sw	s1,24(sp)
1d0215a8:	a182400f 	jal	0x1d020a84
1d0215ac:	1400b0af 	sw	s0,20(sp)
1d0215b0:	5285400f 	jal	0x1d021548
1d0215b4:	80bf103c 	lui	s0,0xbf80
1d0215b8:	01001124 	li	s1,1
1d0215bc:	080011ae 	sw	s1,8(s0)
1d0215c0:	089d023c 	lui	v0,0x9d08
1d0215c4:	ccdf4290 	lbu	v0,-8244(v0)
1d0215c8:	089d023c 	lui	v0,0x9d08
1d0215cc:	c0df4294 	lhu	v0,-8256(v0)
1d0215d0:	089d023c 	lui	v0,0x9d08
1d0215d4:	c4df4294 	lhu	v0,-8252(v0)
1d0215d8:	089d023c 	lui	v0,0x9d08
1d0215dc:	c8df4294 	lhu	v0,-8248(v0)
1d0215e0:	f329400f 	jal	0x1d00a7cc
1d0215e4:	00000000 	nop
1d0215e8:	2d87400f 	jal	0x1d021cb4
1d0215ec:	71020424 	li	a0,625
1d0215f0:	080011ae 	sw	s1,8(s0)
1d0215f4:	927e400f 	jal	0x1d01fa48
1d0215f8:	00000000 	nop
1d0215fc:	080011ae 	sw	s1,8(s0)
1d021600:	21800000 	move	s0,zero
1d021604:	80bf163c 	lui	s6,0xbf80
1d021608:	01001524 	li	s5,1
1d02160c:	6210143c 	lui	s4,0x1062
1d021610:	d34d9426 	addiu	s4,s4,19923
1d021614:	88bf113c 	lui	s1,0xbf88
1d021618:	20001324 	li	s3,32
1d02161c:	10001224 	li	s2,16
1d021620:	88bf173c 	lui	s7,0xbf88
1d021624:	a27e400f 	jal	0x1d01fa88
1d021628:	00000000 	nop
1d02162c:	a032400f 	jal	0x1d00ca80
1d021630:	00000000 	nop
1d021634:	b0808293 	lbu	v0,-32592(gp)
1d021638:	ff004230 	andi	v0,v0,0xff
1d02163c:	f9ff4010 	beqz	v0,0x1d021624
1d021640:	00000000 	nop
1d021644:	b08080a3 	sb	zero,-32592(gp)
1d021648:	b480848f 	lw	a0,-32588(gp)
1d02164c:	0800d5ae 	sw	s5,8(s6)
1d021650:	462a400f 	jal	0x1d00a918
1d021654:	00000000 	nop
1d021658:	01000226 	addiu	v0,s0,1
1d02165c:	19005400 	multu	v0,s4
1d021660:	10800000 	mfhi	s0
1d021664:	c2811000 	srl	s0,s0,0x7
1d021668:	80181000 	sll	v1,s0,0x2
1d02166c:	c0211000 	sll	a0,s0,0x7
1d021670:	23188300 	subu	v1,a0,v1
1d021674:	21807000 	addu	s0,v1,s0
1d021678:	00811000 	sll	s0,s0,0x4
1d02167c:	23805000 	subu	s0,v0,s0
1d021680:	e46033ae 	sw	s3,24804(s1)
1d021684:	c800022e 	sltiu	v0,s0,200
1d021688:	04004010 	beqz	v0,0x1d02169c
1d02168c:	00000000 	nop
1d021690:	e860f2ae 	sw	s2,24808(s7)
1d021694:	8985400b 	j	0x1d021624
1d021698:	00000000 	nop
1d02169c:	e46032ae 	sw	s2,24804(s1)
1d0216a0:	8985400b 	j	0x1d021624
1d0216a4:	00000000 	nop
1d0216a8:	80200400 	sll	a0,a0,0x2
1d0216ac:	44808227 	addiu	v0,gp,-32700
1d0216b0:	21204400 	addu	a0,v0,a0
1d0216b4:	0000828c 	lw	v0,0(a0)
1d0216b8:	3000428c 	lw	v0,48(v0)
1d0216bc:	0800e003 	jr	ra
1d0216c0:	7f004230 	andi	v0,v0,0x7f
1d0216c4:	80200400 	sll	a0,a0,0x2
1d0216c8:	44808227 	addiu	v0,gp,-32700
1d0216cc:	21204400 	addu	a0,v0,a0
1d0216d0:	0000828c 	lw	v0,0(a0)
1d0216d4:	5000428c 	lw	v0,80(v0)
1d0216d8:	0800e003 	jr	ra
1d0216dc:	00000000 	nop
1d0216e0:	80200400 	sll	a0,a0,0x2
1d0216e4:	44808227 	addiu	v0,gp,-32700
1d0216e8:	21204400 	addu	a0,v0,a0
1d0216ec:	0000828c 	lw	v0,0(a0)
1d0216f0:	6000428c 	lw	v0,96(v0)
1d0216f4:	0800e003 	jr	ra
1d0216f8:	00000000 	nop
1d0216fc:	80200400 	sll	a0,a0,0x2
1d021700:	44808227 	addiu	v0,gp,-32700
1d021704:	21204400 	addu	a0,v0,a0
1d021708:	0000828c 	lw	v0,0(a0)
1d02170c:	80290500 	sll	a1,a1,0x6
1d021710:	21104500 	addu	v0,v0,a1
1d021714:	6003428c 	lw	v0,864(v0)
1d021718:	0800e003 	jr	ra
1d02171c:	ffff4230 	andi	v0,v0,0xffff
1d021720:	80200400 	sll	a0,a0,0x2
1d021724:	44808227 	addiu	v0,gp,-32700
1d021728:	21204400 	addu	a0,v0,a0
1d02172c:	0000828c 	lw	v0,0(a0)
1d021730:	2000428c 	lw	v0,32(v0)
1d021734:	0800e003 	jr	ra
1d021738:	ffff4230 	andi	v0,v0,0xffff
1d02173c:	80200400 	sll	a0,a0,0x2
1d021740:	44808227 	addiu	v0,gp,-32700
1d021744:	21204400 	addu	a0,v0,a0
1d021748:	0000828c 	lw	v0,0(a0)
1d02174c:	80290500 	sll	a1,a1,0x6
1d021750:	21104500 	addu	v0,v0,a1
1d021754:	640346ac 	sw	a2,868(v0)
1d021758:	0800e003 	jr	ra
1d02175c:	00000000 	nop
1d021760:	80200400 	sll	a0,a0,0x2
1d021764:	44808227 	addiu	v0,gp,-32700
1d021768:	21204400 	addu	a0,v0,a0
1d02176c:	0000838c 	lw	v1,0(a0)
1d021770:	01000224 	li	v0,1
1d021774:	0400c214 	bne	a2,v0,0x1d021788
1d021778:	002c0500 	sll	a1,a1,0x10
1d02177c:	280065ac 	sw	a1,40(v1)
1d021780:	0800e003 	jr	ra
1d021784:	00000000 	nop
1d021788:	240065ac 	sw	a1,36(v1)
1d02178c:	0800e003 	jr	ra
1d021790:	00000000 	nop
1d021794:	80200400 	sll	a0,a0,0x2
1d021798:	44808227 	addiu	v0,gp,-32700
1d02179c:	21204400 	addu	a0,v0,a0
1d0217a0:	0000828c 	lw	v0,0(a0)
1d0217a4:	240045ac 	sw	a1,36(v0)
1d0217a8:	0800e003 	jr	ra
1d0217ac:	00000000 	nop
1d0217b0:	80200400 	sll	a0,a0,0x2
1d0217b4:	44808227 	addiu	v0,gp,-32700
1d0217b8:	21204400 	addu	a0,v0,a0
1d0217bc:	0000838c 	lw	v1,0(a0)
1d0217c0:	01000224 	li	v0,1
1d0217c4:	0600e214 	bne	a3,v0,0x1d0217e0
1d0217c8:	00340600 	sll	a2,a2,0x10
1d0217cc:	80290500 	sll	a1,a1,0x6
1d0217d0:	21186500 	addu	v1,v1,a1
1d0217d4:	680366ac 	sw	a2,872(v1)
1d0217d8:	0800e003 	jr	ra
1d0217dc:	00000000 	nop
1d0217e0:	80290500 	sll	a1,a1,0x6
1d0217e4:	21186500 	addu	v1,v1,a1
1d0217e8:	640366ac 	sw	a2,868(v1)
1d0217ec:	0800e003 	jr	ra
1d0217f0:	00000000 	nop

Disassembly of section .sec93:

1d0217f4 <.sec93>:
1d0217f4:	d0ffbd27 	addiu	sp,sp,-48
1d0217f8:	2c00bfaf 	sw	ra,44(sp)
1d0217fc:	2800b5af 	sw	s5,40(sp)
1d021800:	2400b4af 	sw	s4,36(sp)
1d021804:	2000b3af 	sw	s3,32(sp)
1d021808:	1c00b2af 	sw	s2,28(sp)
1d02180c:	1800b1af 	sw	s1,24(sp)
1d021810:	1400b0af 	sw	s0,20(sp)
1d021814:	2190a000 	move	s2,a1
1d021818:	21a8c000 	move	s5,a2
1d02181c:	80180400 	sll	v1,a0,0x2
1d021820:	029d023c 	lui	v0,0x9d02
1d021824:	8c2c4224 	addiu	v0,v0,11404
1d021828:	21106200 	addu	v0,v1,v0
1d02182c:	0000518c 	lw	s1,0(v0)
1d021830:	40110400 	sll	v0,a0,0x5
1d021834:	029d103c 	lui	s0,0x9d02
1d021838:	98231026 	addiu	s0,s0,9112
1d02183c:	21800202 	addu	s0,s0,v0
1d021840:	1c009324 	addiu	s3,a0,28
1d021844:	21206002 	move	a0,s3
1d021848:	6381400f 	jal	0x1d02058c
1d02184c:	21280000 	move	a1,zero
1d021850:	00800234 	li	v0,0x8000
1d021854:	040022ae 	sw	v0,4(s1)
1d021858:	00805236 	ori	s2,s2,0x8000
1d02185c:	0800048e 	lw	a0,8(s0)
1d021860:	9b8a400f 	jal	0x1d022a6c
1d021864:	0c00058e 	lw	a1,12(s0)
1d021868:	1000048e 	lw	a0,16(s0)
1d02186c:	8b8a400f 	jal	0x1d022a2c
1d021870:	1400058e 	lw	a1,20(s0)
1d021874:	20005432 	andi	s4,s2,0x20
1d021878:	04008052 	beqzl	s4,0x1d02188c
1d02187c:	029d023c 	lui	v0,0x9d02
1d021880:	029d023c 	lui	v0,0x9d02
1d021884:	2486400b 	j	0x1d021890
1d021888:	6c2a4224 	addiu	v0,v0,10860
1d02188c:	2c2a4224 	addiu	v0,v0,10796
1d021890:	0000048e 	lw	a0,0(s0)
1d021894:	09f84000 	jalr	v0
1d021898:	0400058e 	lw	a1,4(s0)
1d02189c:	0080023c 	lui	v0,0x8000
1d0218a0:	80004224 	addiu	v0,v0,128
1d0218a4:	24104202 	and	v0,s2,v0
1d0218a8:	13004010 	beqz	v0,0x1d0218f8
1d0218ac:	00000000 	nop
1d0218b0:	06004106 	bgez	s2,0x1d0218cc
1d0218b4:	8007427e 	ext	v0,s2,0x1e,0x1
1d0218b8:	09004050 	beqzl	v0,0x1d0218e0
1d0218bc:	029d023c 	lui	v0,0x9d02
1d0218c0:	029d023c 	lui	v0,0x9d02
1d0218c4:	3b86400b 	j	0x1d0218ec
1d0218c8:	2c2a4224 	addiu	v0,v0,10796
1d0218cc:	06008052 	beqzl	s4,0x1d0218e8
1d0218d0:	029d023c 	lui	v0,0x9d02
1d0218d4:	029d023c 	lui	v0,0x9d02
1d0218d8:	3b86400b 	j	0x1d0218ec
1d0218dc:	6c2a4224 	addiu	v0,v0,10860
1d0218e0:	3b86400b 	j	0x1d0218ec
1d0218e4:	6c2a4224 	addiu	v0,v0,10860
1d0218e8:	2c2a4224 	addiu	v0,v0,10796
1d0218ec:	1800048e 	lw	a0,24(s0)
1d0218f0:	09f84000 	jalr	v0
1d0218f4:	1c00058e 	lw	a1,28(s0)
1d0218f8:	4281400f 	jal	0x1d020508
1d0218fc:	21206002 	move	a0,s3
1d021900:	42a81500 	srl	s5,s5,0x1
1d021904:	ffffb526 	addiu	s5,s5,-1
1d021908:	300035ae 	sw	s5,48(s1)
1d02190c:	2000228e 	lw	v0,32(s1)
1d021910:	40000224 	li	v0,64
1d021914:	140022ae 	sw	v0,20(s1)
1d021918:	000032ae 	sw	s2,0(s1)
1d02191c:	2c00bf8f 	lw	ra,44(sp)
1d021920:	2800b58f 	lw	s5,40(sp)
1d021924:	2400b48f 	lw	s4,36(sp)
1d021928:	2000b38f 	lw	s3,32(sp)
1d02192c:	1c00b28f 	lw	s2,28(sp)
1d021930:	1800b18f 	lw	s1,24(sp)
1d021934:	1400b08f 	lw	s0,20(sp)
1d021938:	0800e003 	jr	ra
1d02193c:	3000bd27 	addiu	sp,sp,48

Disassembly of section .sec94:

1d021940 <.sec94>:
1d021940:	00000000 	nop
1d021944:	00000002 	0x2000000
1d021948:	00000006 	bltz	s0,0x1d02194c
1d02194c:	00000014 	bnez	zero,0x1d021950
1d021950:	cdcc4c00 	break	0x4c,0x333
1d021954:	cdcc4c00 	break	0x4c,0x333
1d021958:	9a999900 	0x99999a
1d02195c:	33333301 	tltu	t1,s3,0xcc
1d021960:	49c037ff 	sdc3	$23,-16311(t9)
1d021964:	d9899df8 	sdc2	$29,-30247(a0)
1d021968:	04466044 	0x44604604
1d02196c:	f9c592ff 	sdc3	$18,-14855(gp)
1d021970:	b1133bf9 	sdc2	$27,5041(t1)
1d021974:	83344833 	andi	t0,k0,0x3483
1d021978:	6ee1e5ff 	sdc3	$5,-7826(ra)
1d02197c:	8a9dd8f9 	sdc2	$24,-25206(t6)
1d021980:	19aaac23 	addi	t4,sp,-21991
1d021984:	a6123100 	0x3112a6
1d021988:	622776fa 	sdc2	$22,10082(s3)
1d02198c:	c4a68d15 	bne	t4,t5,0x1d00b4a0
1d021990:	a3597400 	0x7459a3
1d021994:	3bb113fb 	sdc2	$19,-20165(t8)
1d021998:	862aeb08 	j	0x13acaa18
1d02199c:	64b6af00 	0xafb664
1d0219a0:	143bb1fb 	sdc2	$17,15124(sp)
1d0219a4:	5e35c5fd 	sdc3	$5,13662(t6)
1d0219a8:	e928e300 	0xe328e9
1d0219ac:	ecc44efc 	sdc3	$14,-15124(v0)
1d0219b0:	4dc71bf4 	sdc1	$f27,-14515(zero)
1d0219b4:	32b10e01 	tlt	t0,t6,0x2c4
1d0219b8:	c54eecfc 	sdc3	$12,20165(a3)
1d0219bc:	52e0eeeb 	swc2	$14,-8110(ra)
1d0219c0:	404f3201 	0x1324f40
1d0219c4:	9ed889fd 	sdc3	$9,-10082(t4)
1d0219c8:	6e803ee5 	swc1	$f30,-32658(t1)
1d0219cc:	11034e01 	0x14e0311
1d0219d0:	766227fe 	sdc3	$7,25206(s1)
1d0219d4:	9fa70ae0 	sc	t2,-22625(zero)
1d0219d8:	a7cc6101 	0x161cca7
1d0219dc:	4fecc4fe 	sdc3	$4,-5041(s6)
1d0219e0:	e75553dc 	ldc3	$19,21991(v0)
1d0219e4:	01ac6d01 	0x16dac01
1d0219e8:	277662ff 	sdc3	$2,30247(k1)
1d0219ec:	468b18da 	ldc2	$24,-29882(s0)
1d0219f0:	1fa17101 	0x171a11f
1d0219f4:	00000000 	nop
1d0219f8:	bb475ad9 	ldc2	$26,18363(t2)
1d0219fc:	01ac6d01 	0x16dac01
1d021a00:	d9899d00 	0x9d89d9
1d021a04:	468b18da 	ldc2	$24,-29882(s0)
1d021a08:	a7cc6101 	0x161cca7
1d021a0c:	b1133b01 	tgeu	t1,k1,0x4e
1d021a10:	e75553dc 	ldc3	$19,21991(v0)
1d021a14:	11034e01 	0x14e0311
1d021a18:	8a9dd801 	0x1d89d8a
1d021a1c:	9fa70ae0 	sc	t2,-22625(zero)
1d021a20:	404f3201 	0x1324f40
1d021a24:	62277602 	0x2762762
1d021a28:	6e803ee5 	swc1	$f30,-32658(t1)
1d021a2c:	32b10e01 	tlt	t0,t6,0x2c4
1d021a30:	3bb11303 	0x313b13b
1d021a34:	52e0eeeb 	swc2	$14,-8110(ra)
1d021a38:	e928e300 	0xe328e9
1d021a3c:	143bb103 	0x3b13b14
1d021a40:	4dc71bf4 	sdc1	$f27,-14515(zero)
1d021a44:	64b6af00 	0xafb664
1d021a48:	ecc44e04 	tnei	v0,-15124
1d021a4c:	5e35c5fd 	sdc3	$5,13662(t6)
1d021a50:	a3597400 	0x7459a3
1d021a54:	c54eec04 	teqi	a3,20165
1d021a58:	862aeb08 	j	0x13acaa18
1d021a5c:	a6123100 	0x3112a6
1d021a60:	9ed88905 	tgeiu	t4,-10082
1d021a64:	c4a68d15 	bne	t4,t5,0x1d00b578
1d021a68:	6ee1e5ff 	sdc3	$5,-7826(ra)
1d021a6c:	76622706 	aclr	0x6,630(s1)
1d021a70:	19aaac23 	addi	t4,sp,-21991
1d021a74:	f9c592ff 	sdc3	$18,-14855(gp)
1d021a78:	4fecc406 	0x6c4ec4f
1d021a7c:	83344833 	andi	t0,k0,0x3483
1d021a80:	49c037ff 	sdc3	$23,-16311(t9)
1d021a84:	27766207 	bltzl	k1,0x1d03f324
1d021a88:	04466044 	0x44604604
1d021a8c:	496e7465 	0x65746e49
1d021a90:	72727570 	0x70757272
1d021a94:	74000000 	teq	zero,zero,0x1
1d021a98:	41646472 	0x72646441
1d021a9c:	65737320 	addi	s3,v1,29541
1d021aa0:	286c6f61 	0x616f6c28
1d021aa4:	64206f72 	0x726f2064
1d021aa8:	20696665 	0x65666920
1d021aac:	74636829 	slti	t0,t3,25460
1d021ab0:	00000000 	nop
1d021ab4:	41646472 	0x72646441
1d021ab8:	65737320 	addi	s3,v1,29541
1d021abc:	2873746f 	0x6f747328
1d021ac0:	72652900 	tlt	at,t1,0x195
1d021ac4:	42757320 	addi	s3,v1,30018
1d021ac8:	28696665 	0x65666928
1d021acc:	74636829 	slti	t0,t3,25460
1d021ad0:	00000000 	nop
1d021ad4:	42757320 	addi	s3,v1,30018
1d021ad8:	286c6f61 	0x616f6c28
1d021adc:	642f7374 	jalx	0x11ccbd90
1d021ae0:	6f726529 	slti	a1,t3,29295
1d021ae4:	00000000 	nop
1d021ae8:	53797363 	0x63737953
1d021aec:	616c6c00 	0x6c6c61
1d021af0:	42726561 	0x61657242
1d021af4:	6b706f69 	0x696f706b
1d021af8:	6e740000 	0x746e
1d021afc:	52657365 	0x65736552
1d021b00:	72766564 	0x64657672
1d021b04:	20696e73 	0x736e6920
1d021b08:	74727563 	0x63757274
1d021b0c:	74696f6e 	0x6e6f6974
1d021b10:	00000000 	nop
1d021b14:	436f7072 	0x72706f43
1d021b18:	6f636573 	0x7365636f
1d021b1c:	736f7220 	addi	s2,v1,28531
1d021b20:	756e7573 	0x73756e75
1d021b24:	61626c65 	0x656c6261
1d021b28:	00000000 	nop
1d021b2c:	41726974 	jalx	0x11a5c904
1d021b30:	686d6574 	jalx	0x1195b5a0
1d021b34:	6963206f 	0x6f206369
1d021b38:	76657266 	0x66726576
1d021b3c:	6c6f7700 	0x776f6c
1d021b40:	54726170 	udi4	v1,at,t6,0x9
1d021b44:	20286469 	0x69642820
1d021b48:	76696465 	0x65646976
1d021b4c:	20627920 	addi	t9,v1,25120
1d021b50:	7a65726f 	0x6f72657a
1d021b54:	3f290000 	0x293f
1d021b58:	496d706c 	0x6c706d49
1d021b5c:	656d656e 	0x6e656d65
1d021b60:	74617469 	0x69746174
1d021b64:	6f6e2073 	0x73206e6f
1d021b68:	70656369 	0x69636570
1d021b6c:	66696320 	addi	v1,v1,26982
1d021b70:	31000000 	tgeu	zero,zero
1d021b74:	436f7245 	0x45726f43
1d021b78:	7874656e 	0x6e657478
1d021b7c:	6420556e 	0x6e552064
1d021b80:	75736561 	0x61657375
1d021b84:	626c6500 	0x656c62
1d021b88:	436f7072 	0x72706f43
1d021b8c:	6f636573 	0x7365636f
1d021b90:	736f7220 	addi	s2,v1,28531
1d021b94:	32000000 	tlt	zero,zero
1d021b98:	556e6b6e 	0x6e6b6e55
1d021b9c:	6f776e00 	0x6e776f

Disassembly of section .sec95:

1d021ba0 <.sec95>:
1d021ba0:	e8ffbd27 	addiu	sp,sp,-24
1d021ba4:	1400bfaf 	sw	ra,20(sp)
1d021ba8:	1000b0af 	sw	s0,16(sp)
1d021bac:	2f8b400f 	jal	0x1d022cbc
1d021bb0:	21808000 	move	s0,a0
1d021bb4:	88bf033c 	lui	v1,0xbf88
1d021bb8:	0030668c 	lw	a2,12288(v1)
1d021bbc:	0003c67c 	ext	a2,a2,0xc,0x1
1d021bc0:	0a00c054 	bnezl	a2,0x1d021bec
1d021bc4:	00401036 	ori	s0,s0,0x4000
1d021bc8:	00100424 	li	a0,4096
1d021bcc:	88bf033c 	lui	v1,0xbf88
1d021bd0:	083064ac 	sw	a0,12296(v1)
1d021bd4:	88bf053c 	lui	a1,0xbf88
1d021bd8:	0030a38c 	lw	v1,12288(a1)
1d021bdc:	00086330 	andi	v1,v1,0x800
1d021be0:	fdff6014 	bnez	v1,0x1d021bd8
1d021be4:	00000000 	nop
1d021be8:	00401036 	ori	s0,s0,0x4000
1d021bec:	81bf033c 	lui	v1,0xbf81
1d021bf0:	00f470ac 	sw	s0,-3072(v1)
1d021bf4:	00480540 	mfc0	a1,c0_count
1d021bf8:	00480340 	mfc0	v1,c0_count
1d021bfc:	23186500 	subu	v1,v1,a1
1d021c00:	f000632c 	sltiu	v1,v1,240
1d021c04:	fcff6014 	bnez	v1,0x1d021bf8
1d021c08:	81bf033c 	lui	v1,0xbf81
1d021c0c:	99aa043c 	lui	a0,0xaa99
1d021c10:	55668424 	addiu	a0,a0,26197
1d021c14:	10f464ac 	sw	a0,-3056(v1)
1d021c18:	6655043c 	lui	a0,0x5566
1d021c1c:	aa998434 	ori	a0,a0,0x99aa
1d021c20:	10f464ac 	sw	a0,-3056(v1)
1d021c24:	00800434 	li	a0,0x8000
1d021c28:	81bf033c 	lui	v1,0xbf81
1d021c2c:	08f464ac 	sw	a0,-3064(v1)
1d021c30:	81bf053c 	lui	a1,0xbf81
1d021c34:	00f4a38c 	lw	v1,-3072(a1)
1d021c38:	00806330 	andi	v1,v1,0x8000
1d021c3c:	fdff6014 	bnez	v1,0x1d021c34
1d021c40:	00400424 	li	a0,16384
1d021c44:	81bf033c 	lui	v1,0xbf81
1d021c48:	04f464ac 	sw	a0,-3068(v1)
1d021c4c:	0e00c010 	beqz	a2,0x1d021c88
1d021c50:	00100424 	li	a0,4096
1d021c54:	88bf033c 	lui	v1,0xbf88
1d021c58:	0030638c 	lw	v1,12288(v1)
1d021c5c:	0003637c 	ext	v1,v1,0xc,0x1
1d021c60:	0b006014 	bnez	v1,0x1d021c90
1d021c64:	88bf033c 	lui	v1,0xbf88
1d021c68:	083064ac 	sw	a0,12296(v1)
1d021c6c:	88bf053c 	lui	a1,0xbf88
1d021c70:	0030a38c 	lw	v1,12288(a1)
1d021c74:	00086330 	andi	v1,v1,0x800
1d021c78:	fdff6014 	bnez	v1,0x1d021c70
1d021c7c:	00000000 	nop
1d021c80:	2487400b 	j	0x1d021c90
1d021c84:	00000000 	nop
1d021c88:	88bf033c 	lui	v1,0xbf88
1d021c8c:	043064ac 	sw	a0,12292(v1)
1d021c90:	0a8b400f 	jal	0x1d022c28
1d021c94:	21204000 	move	a0,v0
1d021c98:	81bf023c 	lui	v0,0xbf81
1d021c9c:	00f4428c 	lw	v0,-3072(v0)
1d021ca0:	00304230 	andi	v0,v0,0x3000
1d021ca4:	1400bf8f 	lw	ra,20(sp)
1d021ca8:	1000b08f 	lw	s0,16(sp)
1d021cac:	0800e003 	jr	ra
1d021cb0:	1800bd27 	addiu	sp,sp,24
1d021cb4:	20000324 	li	v1,32
1d021cb8:	80bf023c 	lui	v0,0xbf80
1d021cbc:	000643ac 	sw	v1,1536(v0)
1d021cc0:	80bf023c 	lui	v0,0xbf80
1d021cc4:	100640ac 	sw	zero,1552(v0)
1d021cc8:	80bf023c 	lui	v0,0xbf80
1d021ccc:	200644ac 	sw	a0,1568(v0)
1d021cd0:	00800334 	li	v1,0x8000
1d021cd4:	80bf023c 	lui	v0,0xbf80
1d021cd8:	080643ac 	sw	v1,1544(v0)
1d021cdc:	10000224 	li	v0,16
1d021ce0:	88bf033c 	lui	v1,0xbf88
1d021ce4:	341062ac 	sw	v0,4148(v1)
1d021ce8:	88bf043c 	lui	a0,0xbf88
1d021cec:	1c000324 	li	v1,28
1d021cf0:	a41083ac 	sw	v1,4260(a0)
1d021cf4:	88bf033c 	lui	v1,0xbf88
1d021cf8:	08000524 	li	a1,8
1d021cfc:	a81065ac 	sw	a1,4264(v1)
1d021d00:	03000524 	li	a1,3
1d021d04:	a41085ac 	sw	a1,4260(a0)
1d021d08:	a81060ac 	sw	zero,4264(v1)
1d021d0c:	88bf033c 	lui	v1,0xbf88
1d021d10:	641062ac 	sw	v0,4196(v1)
1d021d14:	88bf033c 	lui	v1,0xbf88
1d021d18:	681062ac 	sw	v0,4200(v1)
1d021d1c:	0800e003 	jr	ra
1d021d20:	00000000 	nop
1d021d24:	00e85d41 	rdpgpr	sp,sp
1d021d28:	00701b40 	mfc0	k1,c0_epc
1d021d2c:	02601a40 	mfc0	k0,c0_srsctl
1d021d30:	e8ffbd27 	addiu	sp,sp,-24
1d021d34:	1400bbaf 	sw	k1,20(sp)
1d021d38:	00601b40 	mfc0	k1,c0_status
1d021d3c:	0c00baaf 	sw	k0,12(sp)
1d021d40:	1000bbaf 	sw	k1,16(sp)
1d021d44:	44781b7c 	ins	k1,zero,0x1,0xf
1d021d48:	00087b37 	ori	k1,k1,0x800
1d021d4c:	00609b40 	mtc0	k1,c0_status
1d021d50:	0400a3af 	sw	v1,4(sp)
1d021d54:	0000a2af 	sw	v0,0(sp)
1d021d58:	b480828f 	lw	v0,-32588(gp)
1d021d5c:	01004224 	addiu	v0,v0,1
1d021d60:	b48082af 	sw	v0,-32588(gp)
1d021d64:	01000224 	li	v0,1
1d021d68:	b08082a3 	sb	v0,-32592(gp)
1d021d6c:	10000324 	li	v1,16
1d021d70:	88bf023c 	lui	v0,0xbf88
1d021d74:	341043ac 	sw	v1,4148(v0)
1d021d78:	0c00a28f 	lw	v0,12(sp)
1d021d7c:	0f004230 	andi	v0,v0,0xf
1d021d80:	03004014 	bnez	v0,0x1d021d90
1d021d84:	00000000 	nop
1d021d88:	0400a38f 	lw	v1,4(sp)
1d021d8c:	0000a28f 	lw	v0,0(sp)
1d021d90:	00606041 	di
1d021d94:	c0000000 	ehb
1d021d98:	1400ba8f 	lw	k0,20(sp)
1d021d9c:	1000bb8f 	lw	k1,16(sp)
1d021da0:	00709a40 	mtc0	k0,c0_epc
1d021da4:	0c00ba8f 	lw	k0,12(sp)
1d021da8:	1800bd27 	addiu	sp,sp,24
1d021dac:	02609a40 	mtc0	k0,c0_srsctl
1d021db0:	00e8dd41 	wrpgpr	sp,sp
1d021db4:	00609b40 	mtc0	k1,c0_status
1d021db8:	18000042 	eret

Disassembly of section .sec96:

1d021dbc <.sec96>:
1d021dbc:	00202020 	addi	zero,at,8192
1d021dc0:	20202020 	addi	zero,at,8224
1d021dc4:	20202828 	slti	t0,at,8224
1d021dc8:	28282820 	addi	t0,at,10280
1d021dcc:	20202020 	addi	zero,at,8224
1d021dd0:	20202020 	addi	zero,at,8224
1d021dd4:	20202020 	addi	zero,at,8224
1d021dd8:	20202020 	addi	zero,at,8224
1d021ddc:	20801010 	beq	zero,s0,0x1d001e60
1d021de0:	10101010 	beq	zero,s0,0x1d025e24
1d021de4:	10101010 	beq	zero,s0,0x1d025e28
1d021de8:	10101010 	beq	zero,s0,0x1d025e2c
1d021dec:	10040404 	0x4040410
1d021df0:	04040404 	0x4040404
1d021df4:	04040410 	beq	zero,a0,0x1d022e08
1d021df8:	10101010 	beq	zero,s0,0x1d025e3c
1d021dfc:	10104141 	0x41411010
1d021e00:	41414141 	0x41414141
1d021e04:	01010101 	0x1010101
1d021e08:	01010101 	0x1010101
1d021e0c:	01010101 	0x1010101
1d021e10:	01010101 	0x1010101
1d021e14:	01010101 	0x1010101
1d021e18:	10101010 	beq	zero,s0,0x1d025e5c
1d021e1c:	10104242 	c0	0x421010
1d021e20:	42424242 	c0	0x424242
1d021e24:	02020202 	0x2020202
1d021e28:	02020202 	0x2020202
1d021e2c:	02020202 	0x2020202
1d021e30:	02020202 	0x2020202
1d021e34:	02020202 	0x2020202
1d021e38:	10101010 	beq	zero,s0,0x1d025e7c
1d021e3c:	20000000 	add	zero,zero,zero
	...
1d021ec0:	101f029d 	0x9d021f10
1d021ec4:	f01e029d 	0x9d021ef0
1d021ec8:	781f029d 	0x9d021f78
1d021ecc:	141f029d 	0x9d021f14
1d021ed0:	0600ff09 	j	0x17fc0018
1d021ed4:	01a10119 	0x1901a101
1d021ed8:	01294015 	bnez	t2,0x1d02c2e0
1d021edc:	0026ff00 	0xff2600
1d021ee0:	75089540 	0x40950875
1d021ee4:	81001901 	0x1190081
1d021ee8:	29409100 	0x914029
1d021eec:	c0000000 	ehb
1d021ef0:	1e034400 	0x44031e
1d021ef4:	61007400 	0x740061
1d021ef8:	61007300 	0x730061
1d021efc:	70006500 	tge	v1,a1,0x1
1d021f00:	65006400 	0x640065
1d021f04:	20004900 	add	zero,v0,t1
1d021f08:	6e006300 	0x63006e
1d021f0c:	2e000000 	0x2e
1d021f10:	04030904 	tgeiu	zero,772
1d021f14:	09024e00 	0x4e0209
1d021f18:	020100c0 	ll	zero,258(zero)
1d021f1c:	32090400 	tlt	zero,a0,0x24
1d021f20:	00020300 	sll	zero,v1,0x8
1d021f24:	00000921 	addi	t1,t0,0
1d021f28:	11010001 	0x1000111
1d021f2c:	221d0007 	bltz	t8,0x1d0293b8
1d021f30:	05810340 	0x40038105
1d021f34:	00010705 	aclr	0x0,256(t0)
1d021f38:	01034000 	0x400301
1d021f3c:	01090401 	0x1040901
1d021f40:	0004ffff 	sdc3	$31,1024(ra)
1d021f44:	ff000705 	aclr	0x0,255(t0)
1d021f48:	02024000 	0x400202
1d021f4c:	01070582 	lb	a1,1793(s0)
1d021f50:	02400001 	0x1004002
1d021f54:	07050302 	0x2030507
1d021f58:	40000107 	bgez	t8,0x1d02205c
1d021f5c:	05830240 	0x40028305
1d021f60:	00010000 	sll	zero,zero,0x4
1d021f64:	12010002 	0x2000112
1d021f68:	00000040 	mfc0	zero,c0_index
1d021f6c:	23691101 	0x1116923
1d021f70:	00000102 	0x2010000
1d021f74:	00010000 	sll	zero,zero,0x4
1d021f78:	3a034400 	0x44033a
1d021f7c:	72006900 	tlt	v1,t1,0x1
1d021f80:	76006500 	tne	v1,a1,0x1
1d021f84:	2d004200 	0x42002d
1d021f88:	79002d00 	0x2d0079
1d021f8c:	57006900 	0x690057
1d021f90:	72006500 	tlt	v1,a1,0x1
1d021f94:	20004600 	add	zero,v0,a2
1d021f98:	4f005200 	0x52004f
1d021f9c:	44005f00 	0x5f0044
1d021fa0:	43004400 	0x440043
1d021fa4:	34002000 	teq	at,zero
1d021fa8:	53007400 	0x740053
1d021fac:	65006500 	0x650065
1d021fb0:	72000000 	tlt	zero,zero,0x1

Disassembly of section .sec97:

1d021fb4 <.sec97>:
1d021fb4:	81bf023c 	lui	v0,0xbf81
1d021fb8:	009040ac 	sw	zero,-28672(v0)
1d021fbc:	81bf023c 	lui	v0,0xbf81
1d021fc0:	109040ac 	sw	zero,-28656(v0)
1d021fc4:	81bf023c 	lui	v0,0xbf81
1d021fc8:	209040ac 	sw	zero,-28640(v0)
1d021fcc:	88bf023c 	lui	v0,0xbf88
1d021fd0:	5060438c 	lw	v1,24656(v0)
1d021fd4:	25188300 	or	v1,a0,v1
1d021fd8:	506043ac 	sw	v1,24656(v0)
1d021fdc:	27180400 	nor	v1,zero,a0
1d021fe0:	81bf023c 	lui	v0,0xbf81
1d021fe4:	609043ac 	sw	v1,-28576(v0)
1d021fe8:	81bf023c 	lui	v0,0xbf81
1d021fec:	509044ac 	sw	a0,-28592(v0)
1d021ff0:	07008010 	beqz	a0,0x1d022010
1d021ff4:	21100000 	move	v0,zero
1d021ff8:	01008330 	andi	v1,a0,0x1
1d021ffc:	42200400 	srl	a0,a0,0x1
1d022000:	fdff8014 	bnez	a0,0x1d021ff8
1d022004:	21104300 	addu	v0,v0,v1
1d022008:	0588400b 	j	0x1d022014
1d02200c:	81bf033c 	lui	v1,0xbf81
1d022010:	81bf033c 	lui	v1,0xbf81
1d022014:	00906494 	lhu	a0,-28672(v1)
1d022018:	07000524 	li	a1,7
1d02201c:	4439a47c 	ins	a0,a1,0x5,0x3
1d022020:	009064a4 	sh	a0,-28672(v1)
1d022024:	00906594 	lhu	a1,-28672(v1)
1d022028:	01000424 	li	a0,1
1d02202c:	0421857c 	ins	a1,a0,0x4,0x1
1d022030:	009065a4 	sh	a1,-28672(v1)
1d022034:	81bf033c 	lui	v1,0xbf81
1d022038:	10906594 	lhu	a1,-28656(v1)
1d02203c:	447b057c 	ins	a1,zero,0xd,0x3
1d022040:	109065a4 	sh	a1,-28656(v1)
1d022044:	10906594 	lhu	a1,-28656(v1)
1d022048:	8452857c 	ins	a1,a0,0xa,0x1
1d02204c:	109065a4 	sh	a1,-28656(v1)
1d022050:	ffff4224 	addiu	v0,v0,-1
1d022054:	10906594 	lhu	a1,-28656(v1)
1d022058:	8428457c 	ins	a1,v0,0x2,0x4
1d02205c:	109065a4 	sh	a1,-28656(v1)
1d022060:	81bf023c 	lui	v0,0xbf81
1d022064:	20904394 	lhu	v1,-28640(v0)
1d022068:	c47b837c 	ins	v1,a0,0xf,0x1
1d02206c:	209043a4 	sh	v1,-28640(v0)
1d022070:	20904494 	lhu	a0,-28640(v0)
1d022074:	1f000324 	li	v1,31
1d022078:	0462647c 	ins	a0,v1,0x8,0x5
1d02207c:	209044a4 	sh	a0,-28640(v0)
1d022080:	209043a0 	sb	v1,-28640(v0)
1d022084:	00800334 	li	v1,0x8000
1d022088:	81bf023c 	lui	v0,0xbf81
1d02208c:	089043ac 	sw	v1,-28664(v0)
1d022090:	0800e003 	jr	ra
1d022094:	00000000 	nop

Disassembly of section .sec98:

1d022098 <.sec98>:
1d022098:	a8ffbd27 	addiu	sp,sp,-88
1d02209c:	0400a1af 	sw	at,4(sp)
1d0220a0:	0800a2af 	sw	v0,8(sp)
1d0220a4:	0c00a3af 	sw	v1,12(sp)
1d0220a8:	1000a4af 	sw	a0,16(sp)
1d0220ac:	1400a5af 	sw	a1,20(sp)
1d0220b0:	1800a6af 	sw	a2,24(sp)
1d0220b4:	1c00a7af 	sw	a3,28(sp)
1d0220b8:	2000a8af 	sw	t0,32(sp)
1d0220bc:	2400a9af 	sw	t1,36(sp)
1d0220c0:	2800aaaf 	sw	t2,40(sp)
1d0220c4:	2c00abaf 	sw	t3,44(sp)
1d0220c8:	3000acaf 	sw	t4,48(sp)
1d0220cc:	3400adaf 	sw	t5,52(sp)
1d0220d0:	3800aeaf 	sw	t6,56(sp)
1d0220d4:	3c00afaf 	sw	t7,60(sp)
1d0220d8:	4000b8af 	sw	t8,64(sp)
1d0220dc:	4400b9af 	sw	t9,68(sp)
1d0220e0:	4800bfaf 	sw	ra,72(sp)
1d0220e4:	12400000 	mflo	t0
1d0220e8:	4c00a8af 	sw	t0,76(sp)
1d0220ec:	10400000 	mfhi	t0
1d0220f0:	5000a8af 	sw	t0,80(sp)
1d0220f4:	029d1a3c 	lui	k0,0x9d02
1d0220f8:	ecf45a27 	addiu	k0,k0,-2836
1d0220fc:	00000000 	nop
1d022100:	00680440 	mfc0	a0,c0_cause
1d022104:	00600540 	mfc0	a1,c0_status
1d022108:	09f84003 	jalr	k0
1d02210c:	00000000 	nop
1d022110:	5000a88f 	lw	t0,80(sp)
1d022114:	11000001 	mthi	t0
1d022118:	4c00a88f 	lw	t0,76(sp)
1d02211c:	13000001 	mtlo	t0
1d022120:	0400a18f 	lw	at,4(sp)
1d022124:	0800a28f 	lw	v0,8(sp)
1d022128:	0c00a38f 	lw	v1,12(sp)
1d02212c:	1000a48f 	lw	a0,16(sp)
1d022130:	1400a58f 	lw	a1,20(sp)
1d022134:	1800a68f 	lw	a2,24(sp)
1d022138:	1c00a78f 	lw	a3,28(sp)
1d02213c:	2000a88f 	lw	t0,32(sp)
1d022140:	2400a98f 	lw	t1,36(sp)
1d022144:	2800aa8f 	lw	t2,40(sp)
1d022148:	2c00ab8f 	lw	t3,44(sp)
1d02214c:	3000ac8f 	lw	t4,48(sp)
1d022150:	3400ad8f 	lw	t5,52(sp)
1d022154:	3800ae8f 	lw	t6,56(sp)
1d022158:	3c00af8f 	lw	t7,60(sp)
1d02215c:	4000b88f 	lw	t8,64(sp)
1d022160:	4400b98f 	lw	t9,68(sp)
1d022164:	4800bf8f 	lw	ra,72(sp)
1d022168:	5800bd27 	addiu	sp,sp,88
1d02216c:	c0000000 	ehb
1d022170:	18000042 	eret

Disassembly of section .sec99:

1d022174 <.sec99>:
1d022174:	80200400 	sll	a0,a0,0x2
1d022178:	44808227 	addiu	v0,gp,-32700
1d02217c:	21204400 	addu	a0,v0,a0
1d022180:	0000828c 	lw	v0,0(a0)
1d022184:	80190500 	sll	v1,a1,0x6
1d022188:	21184300 	addu	v1,v0,v1
1d02218c:	6003638c 	lw	v1,864(v1)
1d022190:	01006330 	andi	v1,v1,0x1
1d022194:	06006010 	beqz	v1,0x1d0221b0
1d022198:	80290500 	sll	a1,a1,0x6
1d02219c:	21104500 	addu	v0,v0,a1
1d0221a0:	7003438c 	lw	v1,880(v0)
1d0221a4:	00a0023c 	lui	v0,0xa000
1d0221a8:	0800e003 	jr	ra
1d0221ac:	25106200 	or	v0,v1,v0
1d0221b0:	0800e003 	jr	ra
1d0221b4:	21100000 	move	v0,zero
1d0221b8:	80200400 	sll	a0,a0,0x2
1d0221bc:	44808227 	addiu	v0,gp,-32700
1d0221c0:	21204400 	addu	a0,v0,a0
1d0221c4:	0000828c 	lw	v0,0(a0)
1d0221c8:	80290500 	sll	a1,a1,0x6
1d0221cc:	21104500 	addu	v0,v0,a1
1d0221d0:	00200324 	li	v1,8192
1d0221d4:	580343ac 	sw	v1,856(v0)
1d0221d8:	0800e003 	jr	ra
1d0221dc:	00000000 	nop
1d0221e0:	80200400 	sll	a0,a0,0x2
1d0221e4:	44808227 	addiu	v0,gp,-32700
1d0221e8:	21204400 	addu	a0,v0,a0
1d0221ec:	0000848c 	lw	a0,0(a0)
1d0221f0:	80110500 	sll	v0,a1,0x6
1d0221f4:	21108200 	addu	v0,a0,v0
1d0221f8:	80000324 	li	v1,128
1d0221fc:	540343ac 	sw	v1,852(v0)
1d022200:	ffffc624 	addiu	a2,a2,-1
1d022204:	5003438c 	lw	v1,848(v0)
1d022208:	04a4c37c 	ins	v1,a2,0x10,0x5
1d02220c:	500343ac 	sw	v1,848(v0)
1d022210:	0600e054 	bnezl	a3,0x1d02222c
1d022214:	01000224 	li	v0,1
1d022218:	21204000 	move	a0,v0
1d02221c:	00100224 	li	v0,4096
1d022220:	580382ac 	sw	v0,856(a0)
1d022224:	0800e003 	jr	ra
1d022228:	00000000 	nop
1d02222c:	fdffe214 	bne	a3,v0,0x1d022224
1d022230:	80290500 	sll	a1,a1,0x6
1d022234:	21208500 	addu	a0,a0,a1
1d022238:	00100224 	li	v0,4096
1d02223c:	540382ac 	sw	v0,852(a0)
1d022240:	0800e003 	jr	ra
1d022244:	00000000 	nop
1d022248:	21108000 	move	v0,a0
1d02224c:	2600c010 	beqz	a2,0x1d0222e8
1d022250:	1000ca2c 	sltiu	t2,a2,16
1d022254:	1f004015 	bnez	t2,0x1d0222d4
1d022258:	ff00a530 	andi	a1,a1,0xff
1d02225c:	00520500 	sll	t2,a1,0x8
1d022260:	2528aa00 	or	a1,a1,t2
1d022264:	00540500 	sll	t2,a1,0x10
1d022268:	2528aa00 	or	a1,a1,t2
1d02226c:	03008330 	andi	v1,a0,0x3
1d022270:	05006010 	beqz	v1,0x1d022288
1d022274:	04000724 	li	a3,4
1d022278:	2338e300 	subu	a3,a3,v1
1d02227c:	2330c700 	subu	a2,a2,a3
1d022280:	000085b8 	swr	a1,0(a0)
1d022284:	21208700 	addu	a0,a0,a3
1d022288:	0f00c330 	andi	v1,a2,0xf
1d02228c:	2338c300 	subu	a3,a2,v1
1d022290:	0800e010 	beqz	a3,0x1d0222b4
1d022294:	21306000 	move	a2,v1
1d022298:	2138e400 	addu	a3,a3,a0
1d02229c:	000085ac 	sw	a1,0(a0)
1d0222a0:	040085ac 	sw	a1,4(a0)
1d0222a4:	080085ac 	sw	a1,8(a0)
1d0222a8:	10008424 	addiu	a0,a0,16
1d0222ac:	fbff8714 	bne	a0,a3,0x1d02229c
1d0222b0:	fcff85ac 	sw	a1,-4(a0)
1d0222b4:	0300c330 	andi	v1,a2,0x3
1d0222b8:	2338c300 	subu	a3,a2,v1
1d0222bc:	0500e010 	beqz	a3,0x1d0222d4
1d0222c0:	21306000 	move	a2,v1
1d0222c4:	2138e400 	addu	a3,a3,a0
1d0222c8:	04008424 	addiu	a0,a0,4
1d0222cc:	feff8714 	bne	a0,a3,0x1d0222c8
1d0222d0:	fcff85ac 	sw	a1,-4(a0)
1d0222d4:	0400c010 	beqz	a2,0x1d0222e8
1d0222d8:	2138c400 	addu	a3,a2,a0
1d0222dc:	01008424 	addiu	a0,a0,1
1d0222e0:	feff8714 	bne	a0,a3,0x1d0222dc
1d0222e4:	ffff85a0 	sb	a1,-1(a0)
1d0222e8:	0800e003 	jr	ra
1d0222ec:	00000000 	nop

Disassembly of section .sec100:

1d0222f0 <.sec100>:
1d0222f0:	20000324 	li	v1,32
1d0222f4:	09000524 	li	a1,9
1d0222f8:	00008280 	lb	v0,0(a0)
1d0222fc:	feff4350 	beql	v0,v1,0x1d0222f8
1d022300:	01008424 	addiu	a0,a0,1
1d022304:	03004554 	bnel	v0,a1,0x1d022314
1d022308:	2d000324 	li	v1,45
1d02230c:	be88400b 	j	0x1d0222f8
1d022310:	01008424 	addiu	a0,a0,1
1d022314:	19004310 	beq	v0,v1,0x1d02237c
1d022318:	21288000 	move	a1,a0
1d02231c:	2b000324 	li	v1,43
1d022320:	1a004310 	beq	v0,v1,0x1d02238c
1d022324:	21480000 	move	t1,zero
1d022328:	029d083c 	lui	t0,0x9d02
1d02232c:	bd1d0825 	addiu	t0,t0,7613
1d022330:	21180201 	addu	v1,t0,v0
1d022334:	00006390 	lbu	v1,0(v1)
1d022338:	04006330 	andi	v1,v1,0x4
1d02233c:	0c006010 	beqz	v1,0x1d022370
1d022340:	21180000 	move	v1,zero
1d022344:	01008424 	addiu	a0,a0,1
1d022348:	d0ff4624 	addiu	a2,v0,-48
1d02234c:	00008280 	lb	v0,0(a0)
1d022350:	40380300 	sll	a3,v1,0x1
1d022354:	c0180300 	sll	v1,v1,0x3
1d022358:	21280201 	addu	a1,t0,v0
1d02235c:	0000a590 	lbu	a1,0(a1)
1d022360:	2118e300 	addu	v1,a3,v1
1d022364:	0400a530 	andi	a1,a1,0x4
1d022368:	f6ffa014 	bnez	a1,0x1d022344
1d02236c:	21186600 	addu	v1,v1,a2
1d022370:	23100300 	negu	v0,v1
1d022374:	0800e003 	jr	ra
1d022378:	0a106900 	movz	v0,v1,t1
1d02237c:	01008424 	addiu	a0,a0,1
1d022380:	0100a280 	lb	v0,1(a1)
1d022384:	ca88400b 	j	0x1d022328
1d022388:	01000924 	li	t1,1
1d02238c:	01008424 	addiu	a0,a0,1
1d022390:	ca88400b 	j	0x1d022328
1d022394:	0100a280 	lb	v0,1(a1)

Disassembly of section .sec101:

1d022398 <.sec101>:
1d022398:	06000000 	srlv	zero,zero,zero
1d02239c:	00000000 	nop
1d0223a0:	06000000 	srlv	zero,zero,zero
1d0223a4:	00000000 	nop
1d0223a8:	06000000 	srlv	zero,zero,zero
1d0223ac:	00000000 	nop
1d0223b0:	06000000 	srlv	zero,zero,zero
1d0223b4:	00000000 	nop
1d0223b8:	06000000 	srlv	zero,zero,zero
1d0223bc:	00000000 	nop
1d0223c0:	06000000 	srlv	zero,zero,zero
1d0223c4:	00000000 	nop
1d0223c8:	06000000 	srlv	zero,zero,zero
1d0223cc:	00000000 	nop
1d0223d0:	06000000 	srlv	zero,zero,zero
1d0223d4:	00000000 	nop
1d0223d8:	05000000 	0x5
1d0223dc:	40000000 	ssnop
1d0223e0:	05000000 	0x5
1d0223e4:	00010000 	sll	zero,zero,0x4
1d0223e8:	05000000 	0x5
1d0223ec:	80000000 	sll	zero,zero,0x2
1d0223f0:	05000000 	0x5
1d0223f4:	00020000 	sll	zero,zero,0x8
1d0223f8:	02000000 	srl	zero,zero,0x0
1d0223fc:	02000000 	srl	zero,zero,0x0
1d022400:	02000000 	srl	zero,zero,0x0
1d022404:	08000000 	jr	zero
1d022408:	02000000 	srl	zero,zero,0x0
1d02240c:	04000000 	sllv	zero,zero,zero
1d022410:	02000000 	srl	zero,zero,0x0
1d022414:	00020000 	sll	zero,zero,0x8
1d022418:	00000000 	nop
1d02241c:	00400000 	sll	t0,zero,0x0
1d022420:	04000000 	sllv	zero,zero,zero
1d022424:	20000000 	add	zero,zero,zero
1d022428:	04000000 	sllv	zero,zero,zero
1d02242c:	10000000 	mfhi	zero
1d022430:	00000000 	nop
1d022434:	00010000 	sll	zero,zero,0x4

Disassembly of section .sec102:

1d022438 <.sec102>:
1d022438:	0400c928 	slti	t1,a2,4
1d02243c:	05002011 	beqz	t1,0x1d022454
1d022440:	21388600 	addu	a3,a0,a2
1d022444:	1700c01c 	bgtz	a2,0x1d0224a4
1d022448:	00000000 	nop
1d02244c:	0800e003 	jr	ra
1d022450:	21100000 	move	v0,zero
1d022454:	25408500 	or	t0,a0,a1
1d022458:	03000831 	andi	t0,t0,0x3
1d02245c:	03000011 	beqz	t0,0x1d02246c
1d022460:	00000000 	nop
1d022464:	10000010 	b	0x1d0224a8
1d022468:	00008890 	lbu	t0,0(a0)
1d02246c:	0000888c 	lw	t0,0(a0)
1d022470:	0000a98c 	lw	t1,0(a1)
1d022474:	04008424 	addiu	a0,a0,4
1d022478:	05000911 	beq	t0,t1,0x1d022490
1d02247c:	0400a524 	addiu	a1,a1,4
1d022480:	fcffa524 	addiu	a1,a1,-4
1d022484:	fcff8424 	addiu	a0,a0,-4
1d022488:	07000010 	b	0x1d0224a8
1d02248c:	00008890 	lbu	t0,0(a0)
1d022490:	fcffc624 	addiu	a2,a2,-4
1d022494:	f5ffc01c 	bgtz	a2,0x1d02246c
1d022498:	00000000 	nop
1d02249c:	0800e003 	jr	ra
1d0224a0:	21100000 	move	v0,zero
1d0224a4:	00008890 	lbu	t0,0(a0)
1d0224a8:	0000a990 	lbu	t1,0(a1)
1d0224ac:	01008424 	addiu	a0,a0,1
1d0224b0:	03000911 	beq	t0,t1,0x1d0224c0
1d0224b4:	0100a524 	addiu	a1,a1,1
1d0224b8:	0800e003 	jr	ra
1d0224bc:	23100901 	subu	v0,t0,t1
1d0224c0:	f8ff8714 	bne	a0,a3,0x1d0224a4
1d0224c4:	00000000 	nop
1d0224c8:	0800e003 	jr	ra
1d0224cc:	21100000 	move	v0,zero

Disassembly of section .sec103:

1d0224d0 <.sec103>:
1d0224d0:	e0ffbd27 	addiu	sp,sp,-32
1d0224d4:	1c00bfaf 	sw	ra,28(sp)
1d0224d8:	1800b1af 	sw	s1,24(sp)
1d0224dc:	1400b0af 	sw	s0,20(sp)
1d0224e0:	21808000 	move	s0,a0
1d0224e4:	0f008014 	bnez	a0,0x1d022524
1d0224e8:	2188a000 	move	s1,a1
1d0224ec:	4d89400b 	j	0x1d022534
1d0224f0:	21100000 	move	v0,zero
1d0224f4:	f884400f 	jal	0x1d0213e0
1d0224f8:	21202002 	move	a0,s1
1d0224fc:	21200002 	move	a0,s0
1d022500:	21282002 	move	a1,s1
1d022504:	d789400f 	jal	0x1d02275c
1d022508:	21304000 	move	a2,v0
1d02250c:	0e004010 	beqz	v0,0x1d022548
1d022510:	01000426 	addiu	a0,s0,1
1d022514:	db8a400f 	jal	0x1d022b6c
1d022518:	00002582 	lb	a1,0(s1)
1d02251c:	04004010 	beqz	v0,0x1d022530
1d022520:	21804000 	move	s0,v0
1d022524:	00000282 	lb	v0,0(s0)
1d022528:	f2ff4014 	bnez	v0,0x1d0224f4
1d02252c:	00000000 	nop
1d022530:	21100000 	move	v0,zero
1d022534:	1c00bf8f 	lw	ra,28(sp)
1d022538:	1800b18f 	lw	s1,24(sp)
1d02253c:	1400b08f 	lw	s0,20(sp)
1d022540:	0800e003 	jr	ra
1d022544:	2000bd27 	addiu	sp,sp,32
1d022548:	21100002 	move	v0,s0
1d02254c:	1c00bf8f 	lw	ra,28(sp)
1d022550:	1800b18f 	lw	s1,24(sp)
1d022554:	1400b08f 	lw	s0,20(sp)
1d022558:	0800e003 	jr	ra
1d02255c:	2000bd27 	addiu	sp,sp,32

Disassembly of section .sec104:

1d022560 <.sec104>:
1d022560:	1880838f 	lw	v1,-32744(gp)
1d022564:	01006324 	addiu	v1,v1,1
1d022568:	6210023c 	lui	v0,0x1062
1d02256c:	d34d4224 	addiu	v0,v0,19923
1d022570:	19006200 	multu	v1,v0
1d022574:	10100000 	mfhi	v0
1d022578:	82110200 	srl	v0,v0,0x6
1d02257c:	80200200 	sll	a0,v0,0x2
1d022580:	c0290200 	sll	a1,v0,0x7
1d022584:	2320a400 	subu	a0,a1,a0
1d022588:	21108200 	addu	v0,a0,v0
1d02258c:	c0100200 	sll	v0,v0,0x3
1d022590:	23106200 	subu	v0,v1,v0
1d022594:	188082af 	sw	v0,-32744(gp)
1d022598:	2c014238 	xori	v0,v0,0x12c
1d02259c:	0800e003 	jr	ra
1d0225a0:	0100422c 	sltiu	v0,v0,1
1d0225a4:	00008390 	lbu	v1,0(a0)
1d0225a8:	80100300 	sll	v0,v1,0x2
1d0225ac:	00190300 	sll	v1,v1,0x4
1d0225b0:	21104300 	addu	v0,v0,v1
1d0225b4:	80180200 	sll	v1,v0,0x2
1d0225b8:	21104300 	addu	v0,v0,v1
1d0225bc:	0800e003 	jr	ra
1d0225c0:	188082af 	sw	v0,-32744(gp)
1d0225c4:	03000224 	li	v0,3
1d0225c8:	000082a0 	sb	v0,0(a0)
1d0225cc:	010080a0 	sb	zero,1(a0)
1d0225d0:	02000224 	li	v0,2
1d0225d4:	020082a4 	sh	v0,2(a0)
1d0225d8:	040082a4 	sh	v0,4(a0)
1d0225dc:	0800e003 	jr	ra
1d0225e0:	060080a4 	sh	zero,6(a0)
1d0225e4:	2118e003 	move	v1,ra
1d0225e8:	029d083c 	lui	t0,0x9d02
1d0225ec:	50e60825 	addiu	t0,t0,-6576
1d0225f0:	0000098d 	lw	t1,0(t0)
1d0225f4:	18002011 	beqz	t1,0x1d022658
1d0225f8:	04000825 	addiu	t0,t0,4
1d0225fc:	00000a8d 	lw	t2,0(t0)
1d022600:	04000825 	addiu	t0,t0,4
1d022604:	00000b8d 	lw	t3,0(t0)
1d022608:	09006011 	beqz	t3,0x1d022630
1d02260c:	04000825 	addiu	t0,t0,4
1d022610:	00000c91 	lbu	t4,0(t0)
1d022614:	ffff4a25 	addiu	t2,t2,-1
1d022618:	01000825 	addiu	t0,t0,1
1d02261c:	00002ca1 	sb	t4,0(t1)
1d022620:	fbff4015 	bnez	t2,0x1d022610
1d022624:	01002925 	addiu	t1,t1,1
1d022628:	05000010 	b	0x1d022640
1d02262c:	00000000 	nop
1d022630:	000020a1 	sb	zero,0(t1)
1d022634:	ffff4a25 	addiu	t2,t2,-1
1d022638:	fdff4015 	bnez	t2,0x1d022630
1d02263c:	01002925 	addiu	t1,t1,1
1d022640:	03000825 	addiu	t0,t0,3
1d022644:	fcff0a24 	li	t2,-4
1d022648:	24404801 	and	t0,t2,t0
1d02264c:	0000098d 	lw	t1,0(t0)
1d022650:	e7ff2015 	bnez	t1,0x1d0225f0
1d022654:	00000000 	nop
1d022658:	21f86000 	move	ra,v1
1d02265c:	0800e003 	jr	ra
1d022660:	00000000 	nop
1d022664:	00000000 	nop

Disassembly of section .sec105:

1d022668 <.sec105>:
1d022668:	e8ffbd27 	addiu	sp,sp,-24
1d02266c:	1400bfaf 	sw	ra,20(sp)
1d022670:	2f8b400f 	jal	0x1d022cbc
1d022674:	00000000 	nop
1d022678:	88bf023c 	lui	v0,0xbf88
1d02267c:	0030428c 	lw	v0,12288(v0)
1d022680:	0003427c 	ext	v0,v0,0xc,0x1
1d022684:	0a004014 	bnez	v0,0x1d0226b0
1d022688:	81bf023c 	lui	v0,0xbf81
1d02268c:	00100324 	li	v1,4096
1d022690:	88bf023c 	lui	v0,0xbf88
1d022694:	083043ac 	sw	v1,12296(v0)
1d022698:	88bf023c 	lui	v0,0xbf88
1d02269c:	0030438c 	lw	v1,12288(v0)
1d0226a0:	00086330 	andi	v1,v1,0x800
1d0226a4:	fdff6014 	bnez	v1,0x1d02269c
1d0226a8:	00000000 	nop
1d0226ac:	81bf023c 	lui	v0,0xbf81
1d0226b0:	30f240ac 	sw	zero,-3536(v0)
1d0226b4:	99aa033c 	lui	v1,0xaa99
1d0226b8:	55666324 	addiu	v1,v1,26197
1d0226bc:	30f243ac 	sw	v1,-3536(v0)
1d0226c0:	6655033c 	lui	v1,0x5566
1d0226c4:	aa996334 	ori	v1,v1,0x99aa
1d0226c8:	30f243ac 	sw	v1,-3536(v0)
1d0226cc:	01000324 	li	v1,1
1d0226d0:	81bf023c 	lui	v0,0xbf81
1d0226d4:	18f643ac 	sw	v1,-2536(v0)
1d0226d8:	81bf023c 	lui	v0,0xbf81
1d0226dc:	10f6428c 	lw	v0,-2544(v0)
1d0226e0:	b889400b 	j	0x1d0226e0
1d0226e4:	00000000 	nop

Disassembly of section .sec106:

1d0226e8 <.sec106>:
1d0226e8:	1000c010 	beqz	a2,0x1d02272c
1d0226ec:	21108000 	move	v0,a0
1d0226f0:	0000a480 	lb	a0,0(a1)
1d0226f4:	ffffc624 	addiu	a2,a2,-1
1d0226f8:	01004324 	addiu	v1,v0,1
1d0226fc:	0100a524 	addiu	a1,a1,1
1d022700:	07008014 	bnez	a0,0x1d022720
1d022704:	000044a0 	sb	a0,0(v0)
1d022708:	ce89400b 	j	0x1d022738
1d02270c:	21286600 	addu	a1,v1,a2
1d022710:	ffffa780 	lb	a3,-1(a1)
1d022714:	ffffc624 	addiu	a2,a2,-1
1d022718:	0600e010 	beqz	a3,0x1d022734
1d02271c:	ffff67a0 	sb	a3,-1(v1)
1d022720:	0100a524 	addiu	a1,a1,1
1d022724:	faffc014 	bnez	a2,0x1d022710
1d022728:	01006324 	addiu	v1,v1,1
1d02272c:	0800e003 	jr	ra
1d022730:	00000000 	nop
1d022734:	21286600 	addu	a1,v1,a2
1d022738:	0600c010 	beqz	a2,0x1d022754
1d02273c:	00000000 	nop
1d022740:	01006324 	addiu	v1,v1,1
1d022744:	feff6514 	bne	v1,a1,0x1d022740
1d022748:	ffff60a0 	sb	zero,-1(v1)
1d02274c:	0800e003 	jr	ra
1d022750:	00000000 	nop
1d022754:	0800e003 	jr	ra
1d022758:	00000000 	nop

Disassembly of section .sec107:

1d02275c <.sec107>:
1d02275c:	1400c010 	beqz	a2,0x1d0227b0
1d022760:	ffffc824 	addiu	t0,a2,-1
1d022764:	00008380 	lb	v1,0(a0)
1d022768:	0000a780 	lb	a3,0(a1)
1d02276c:	0d006010 	beqz	v1,0x1d0227a4
1d022770:	21100000 	move	v0,zero
1d022774:	0b006754 	bnel	v1,a3,0x1d0227a4
1d022778:	ff006230 	andi	v0,v1,0xff
1d02277c:	0100a624 	addiu	a2,a1,1
1d022780:	0b000211 	beq	t0,v0,0x1d0227b0
1d022784:	01008424 	addiu	a0,a0,1
1d022788:	00008380 	lb	v1,0(a0)
1d02278c:	0a006010 	beqz	v1,0x1d0227b8
1d022790:	01004224 	addiu	v0,v0,1
1d022794:	0000c780 	lb	a3,0(a2)
1d022798:	f8ff6710 	beq	v1,a3,0x1d02277c
1d02279c:	2128c000 	move	a1,a2
1d0227a0:	ff006230 	andi	v0,v1,0xff
1d0227a4:	ff00e730 	andi	a3,a3,0xff
1d0227a8:	0800e003 	jr	ra
1d0227ac:	23104700 	subu	v0,v0,a3
1d0227b0:	0800e003 	jr	ra
1d0227b4:	21100000 	move	v0,zero
1d0227b8:	0100a780 	lb	a3,1(a1)
1d0227bc:	21100000 	move	v0,zero
1d0227c0:	ff00e730 	andi	a3,a3,0xff
1d0227c4:	0800e003 	jr	ra
1d0227c8:	23104700 	subu	v0,v0,a3

Disassembly of section .sec108:

1d0227cc <.sec108>:
1d0227cc:	a9f64332 	andi	v1,s2,0xf6a9
1d0227d0:	0567ac1d 	0x1dac6705
1d0227d4:	fdbaad0f 	jal	0x1eb6ebf4
1d0227d8:	a76ef507 	0x7f56ea7
1d0227dc:	77abfe03 	0x3feab77
1d0227e0:	5cd5ff01 	0x1ffd55c
1d0227e4:	abfaff00 	0xfffaab
1d0227e8:	55ff7f00 	0x7fff55
1d0227ec:	ebff3f00 	0x3fffeb
1d0227f0:	fdff1f00 	0x1ffffd
1d0227f4:	00001000 	sll	zero,s0,0x0
1d0227f8:	54fb2119 	0x1921fb54
1d0227fc:	8333d60e 	jal	0x1b58ce0c
1d022800:	7eddd607 	0x7d6dd7e
1d022804:	53b7fa03 	0x3fab753
1d022808:	bb55ff01 	0x1ff55bb
1d02280c:	aeeaff00 	0xffeaae
1d022810:	55fd7f00 	0x7ffd55
1d022814:	abff3f00 	0x3fffab
1d022818:	f5ff1f00 	0x1ffff5
1d02281c:	ffff0f00 	0xfffff
1d022820:	00000800 	sll	zero,t0,0x0

Disassembly of section .sec109:

1d022824 <.sec109>:
1d022824:	80200400 	sll	a0,a0,0x2
1d022828:	44808227 	addiu	v0,gp,-32700
1d02282c:	21204400 	addu	a0,v0,a0
1d022830:	0000828c 	lw	v0,0(a0)
1d022834:	4000428c 	lw	v0,64(v0)
1d022838:	0800e003 	jr	ra
1d02283c:	ff004230 	andi	v0,v0,0xff
1d022840:	80200400 	sll	a0,a0,0x2
1d022844:	44808227 	addiu	v0,gp,-32700
1d022848:	21204400 	addu	a0,v0,a0
1d02284c:	0000828c 	lw	v0,0(a0)
1d022850:	4000428c 	lw	v0,64(v0)
1d022854:	0800e003 	jr	ra
1d022858:	003a427c 	ext	v0,v0,0x8,0x8
1d02285c:	80200400 	sll	a0,a0,0x2
1d022860:	44808227 	addiu	v0,gp,-32700
1d022864:	21204400 	addu	a0,v0,a0
1d022868:	0000828c 	lw	v0,0(a0)
1d02286c:	4000428c 	lw	v0,64(v0)
1d022870:	0800e003 	jr	ra
1d022874:	0478027c 	ins	v0,zero,0x0,0x10

Disassembly of section .sec110:

1d022878 <.sec110>:
1d022878:	0000043c 	lui	a0,0x0
1d02287c:	e8ffbd27 	addiu	sp,sp,-24
1d022880:	00008424 	addiu	a0,a0,0
1d022884:	03008010 	beqz	a0,0x1d022894
1d022888:	1400bfaf 	sw	ra,20(sp)
1d02288c:	09f88000 	jalr	a0
1d022890:	00000000 	nop
1d022894:	00008430 	andi	a0,a0,0x0
1d022898:	0000a530 	andi	a1,a1,0x0
1d02289c:	029d083c 	lui	t0,0x9d02
1d0228a0:	84150825 	addiu	t0,t0,5508
1d0228a4:	09f80001 	jalr	t0
1d0228a8:	00000000 	nop
1d0228ac:	0000023c 	lui	v0,0x0
1d0228b0:	00004224 	addiu	v0,v0,0
1d0228b4:	03004010 	beqz	v0,0x1d0228c4
1d0228b8:	00000000 	nop
1d0228bc:	09f84000 	jalr	v0
1d0228c0:	00000000 	nop
1d0228c4:	f9ff0010 	b	0x1d0228ac
1d0228c8:	00000000 	nop

Disassembly of section .sec111:

1d0228cc <.sec111>:
1d0228cc:	406088bf 	cache	0x8,24640(gp)
1d0228d0:	ffff0000 	0xffff
1d0228d4:	609080bf 	cache	0x0,-28576(gp)
1d0228d8:	806088bf 	cache	0x8,24704(gp)
	...
1d0228e4:	c06088bf 	cache	0x8,24768(gp)
	...
1d0228f0:	006188bf 	cache	0x8,24832(gp)
	...
1d0228fc:	406188bf 	cache	0x8,24896(gp)
	...
1d022908:	806188bf 	cache	0x8,24960(gp)
	...

Disassembly of section .sec112:

1d022914 <.sec112>:
1d022914:	0000023c 	lui	v0,0x0
1d022918:	00004224 	addiu	v0,v0,0
1d02291c:	05004010 	beqz	v0,0x1d022934
1d022920:	0000023c 	lui	v0,0x0
1d022924:	00004224 	addiu	v0,v0,0
1d022928:	03004010 	beqz	v0,0x1d022938
1d02292c:	029d023c 	lui	v0,0x9d02
1d022930:	3f000070 	sdbbp
1d022934:	029d023c 	lui	v0,0x9d02
1d022938:	e8294224 	addiu	v0,v0,10728
1d02293c:	05004010 	beqz	v0,0x1d022954
1d022940:	00000000 	nop
1d022944:	e8ffbd27 	addiu	sp,sp,-24
1d022948:	1400bfaf 	sw	ra,20(sp)
1d02294c:	09f84000 	jalr	v0
1d022950:	00000000 	nop
1d022954:	558a400b 	j	0x1d022954
1d022958:	00000000 	nop

Disassembly of section .sec113:

1d02295c <.sec113>:
1d02295c:	0000023c 	lui	v0,0x0
1d022960:	00004224 	addiu	v0,v0,0
1d022964:	07004010 	beqz	v0,0x1d022984
1d022968:	0000023c 	lui	v0,0x0
1d02296c:	00004224 	addiu	v0,v0,0
1d022970:	05004050 	beqzl	v0,0x1d022988
1d022974:	029d023c 	lui	v0,0x9d02
1d022978:	3f000070 	sdbbp
1d02297c:	0800e003 	jr	ra
1d022980:	00000000 	nop
1d022984:	029d023c 	lui	v0,0x9d02
1d022988:	e8294224 	addiu	v0,v0,10728
1d02298c:	03004010 	beqz	v0,0x1d02299c
1d022990:	00000000 	nop
1d022994:	09f84000 	jalr	v0
1d022998:	00000000 	nop
1d02299c:	0800e003 	jr	ra
1d0229a0:	00000000 	nop

Disassembly of section .sec114:

1d0229a4 <.sec114>:
1d0229a4:	e8ffbd27 	addiu	sp,sp,-24
1d0229a8:	1400bfaf 	sw	ra,20(sp)
1d0229ac:	648184af 	sw	a0,-32412(gp)
1d0229b0:	055b023c 	lui	v0,0x5b05
1d0229b4:	20b54234 	ori	v0,v0,0xb520
1d0229b8:	1900a200 	multu	a1,v0
1d0229bc:	12100000 	mflo	v0
1d0229c0:	10180000 	mfhi	v1
1d0229c4:	401b0300 	sll	v1,v1,0xd
1d0229c8:	c2140200 	srl	v0,v0,0x13
1d0229cc:	25106200 	or	v0,v1,v0
1d0229d0:	6e80400f 	jal	0x1d0201b8
1d0229d4:	608182af 	sw	v0,-32416(gp)
1d0229d8:	5c818287 	lh	v0,-32420(gp)
1d0229dc:	1400bf8f 	lw	ra,20(sp)
1d0229e0:	0800e003 	jr	ra
1d0229e4:	1800bd27 	addiu	sp,sp,24
1d0229e8:	00606041 	di
1d0229ec:	c0000000 	ehb
1d0229f0:	99aa033c 	lui	v1,0xaa99
1d0229f4:	81bf023c 	lui	v0,0xbf81
1d0229f8:	55666324 	addiu	v1,v1,26197
1d0229fc:	30f240ac 	sw	zero,-3536(v0)
1d022a00:	30f243ac 	sw	v1,-3536(v0)
1d022a04:	6655033c 	lui	v1,0x5566
1d022a08:	aa996334 	ori	v1,v1,0x99aa
1d022a0c:	30f243ac 	sw	v1,-3536(v0)
1d022a10:	81bf023c 	lui	v0,0xbf81
1d022a14:	01000324 	li	v1,1
1d022a18:	18f643ac 	sw	v1,-2536(v0)
1d022a1c:	81bf023c 	lui	v0,0xbf81
1d022a20:	10f6428c 	lw	v0,-2544(v0)
1d022a24:	7c8a400b 	j	0x1d0229f0
1d022a28:	00000000 	nop

Disassembly of section .sec115:

1d022a2c <.sec115>:
1d022a2c:	80100400 	sll	v0,a0,0x2
1d022a30:	00210400 	sll	a0,a0,0x4
1d022a34:	23208200 	subu	a0,a0,v0
1d022a38:	029d023c 	lui	v0,0x9d02
1d022a3c:	cc284224 	addiu	v0,v0,10444
1d022a40:	21204400 	addu	a0,v0,a0
1d022a44:	0000828c 	lw	v0,0(a0)
1d022a48:	080045ac 	sw	a1,8(v0)
1d022a4c:	0800828c 	lw	v0,8(a0)
1d022a50:	04004010 	beqz	v0,0x1d022a64
1d022a54:	00000000 	nop
1d022a58:	0400838c 	lw	v1,4(a0)
1d022a5c:	2428a300 	and	a1,a1,v1
1d022a60:	080045ac 	sw	a1,8(v0)
1d022a64:	0800e003 	jr	ra
1d022a68:	00000000 	nop
1d022a6c:	80100400 	sll	v0,a0,0x2
1d022a70:	00210400 	sll	a0,a0,0x4
1d022a74:	23208200 	subu	a0,a0,v0
1d022a78:	029d023c 	lui	v0,0x9d02
1d022a7c:	cc284224 	addiu	v0,v0,10444
1d022a80:	21204400 	addu	a0,v0,a0
1d022a84:	0000828c 	lw	v0,0(a0)
1d022a88:	040045ac 	sw	a1,4(v0)
1d022a8c:	0800828c 	lw	v0,8(a0)
1d022a90:	04004010 	beqz	v0,0x1d022aa4
1d022a94:	00000000 	nop
1d022a98:	0400838c 	lw	v1,4(a0)
1d022a9c:	2428a300 	and	a1,a1,v1
1d022aa0:	080045ac 	sw	a1,8(v0)
1d022aa4:	0800e003 	jr	ra
1d022aa8:	00000000 	nop

Disassembly of section .sec116:

1d022aac <.sec116>:
1d022aac:	e8ffbd27 	addiu	sp,sp,-24
1d022ab0:	1400bfaf 	sw	ra,20(sp)
1d022ab4:	00680340 	mfc0	v1,c0_cause
1d022ab8:	8000023c 	lui	v0,0x80
1d022abc:	25106200 	or	v0,v1,v0
1d022ac0:	00688240 	mtc0	v0,c0_cause
1d022ac4:	00100324 	li	v1,4096
1d022ac8:	88bf023c 	lui	v0,0xbf88
1d022acc:	318b400f 	jal	0x1d022cc4
1d022ad0:	081043ac 	sw	v1,4104(v0)
1d022ad4:	1400bf8f 	lw	ra,20(sp)
1d022ad8:	0800e003 	jr	ra
1d022adc:	1800bd27 	addiu	sp,sp,24
1d022ae0:	00680340 	mfc0	v1,c0_cause
1d022ae4:	8000023c 	lui	v0,0x80
1d022ae8:	25106200 	or	v0,v1,v0
1d022aec:	00688240 	mtc0	v0,c0_cause
1d022af0:	04008014 	bnez	a0,0x1d022b04
1d022af4:	00100324 	li	v1,4096
1d022af8:	88bf023c 	lui	v0,0xbf88
1d022afc:	0800e003 	jr	ra
1d022b00:	081043ac 	sw	v1,4104(v0)
1d022b04:	88bf023c 	lui	v0,0xbf88
1d022b08:	0800e003 	jr	ra
1d022b0c:	041043ac 	sw	v1,4100(v0)

Disassembly of section .sec117:

1d022b10 <.sec117>:
1d022b10:	e8ffbd27 	addiu	sp,sp,-24
1d022b14:	1400bfaf 	sw	ra,20(sp)
1d022b18:	00e0847c 	ext	a0,a0,0x0,0x1d
1d022b1c:	81bf023c 	lui	v0,0xbf81
1d022b20:	20f444ac 	sw	a0,-3040(v0)
1d022b24:	81bf023c 	lui	v0,0xbf81
1d022b28:	30f445ac 	sw	a1,-3024(v0)
1d022b2c:	e886400f 	jal	0x1d021ba0
1d022b30:	01400424 	li	a0,16385
1d022b34:	1400bf8f 	lw	ra,20(sp)
1d022b38:	0800e003 	jr	ra
1d022b3c:	1800bd27 	addiu	sp,sp,24

Disassembly of section .sec118:

1d022b40 <.sec118>:
1d022b40:	a9f64332 	andi	v1,s2,0xf6a9
1d022b44:	0567ac1d 	0x1dac6705
1d022b48:	fdbaad0f 	jal	0x1eb6ebf4
1d022b4c:	a76ef507 	0x7f56ea7
1d022b50:	77abfe03 	0x3feab77
1d022b54:	5cd5ff01 	0x1ffd55c
1d022b58:	abfaff00 	0xfffaab
1d022b5c:	55ff7f00 	0x7fff55
1d022b60:	ebff3f00 	0x3fffeb
1d022b64:	fdff1f00 	0x1ffffd
1d022b68:	00001000 	sll	zero,s0,0x0

Disassembly of section .sec119:

1d022b6c <.sec119>:
1d022b6c:	df8a400b 	j	0x1d022b7c
1d022b70:	202c057c 	seb	a1,a1
1d022b74:	06004010 	beqz	v0,0x1d022b90
1d022b78:	01008424 	addiu	a0,a0,1
1d022b7c:	00008280 	lb	v0,0(a0)
1d022b80:	fcff4514 	bne	v0,a1,0x1d022b74
1d022b84:	00000000 	nop
1d022b88:	0800e003 	jr	ra
1d022b8c:	21108000 	move	v0,a0
1d022b90:	0800e003 	jr	ra
1d022b94:	21100000 	move	v0,zero

Disassembly of section .sec120:

1d022b98 <.sec120>:
1d022b98:	e8ffbd27 	addiu	sp,sp,-24
1d022b9c:	1400bfaf 	sw	ra,20(sp)
1d022ba0:	00e0847c 	ext	a0,a0,0x0,0x1d
1d022ba4:	81bf023c 	lui	v0,0xbf81
1d022ba8:	20f444ac 	sw	a0,-3040(v0)
1d022bac:	e886400f 	jal	0x1d021ba0
1d022bb0:	04400424 	li	a0,16388
1d022bb4:	1400bf8f 	lw	ra,20(sp)
1d022bb8:	0800e003 	jr	ra
1d022bbc:	1800bd27 	addiu	sp,sp,24
1d022bc0:	00800240 	mfc0	v0,c0_config
1d022bc4:	0410027c 	ins	v0,zero,0x0,0x3
1d022bc8:	02004234 	ori	v0,v0,0x2
1d022bcc:	0800e003 	jr	ra
1d022bd0:	00808240 	mtc0	v0,c0_config
1d022bd4:	00800240 	mfc0	v0,c0_config
1d022bd8:	0410027c 	ins	v0,zero,0x0,0x3
1d022bdc:	03004234 	ori	v0,v0,0x3
1d022be0:	0800e003 	jr	ra
1d022be4:	00808240 	mtc0	v0,c0_config

Disassembly of section .sec121:

1d022be8 <.sec121>:
1d022be8:	029d023c 	lui	v0,0x9d02
1d022bec:	bd1d4224 	addiu	v0,v0,7613
1d022bf0:	21108200 	addu	v0,a0,v0
1d022bf4:	00004290 	lbu	v0,0(v0)
1d022bf8:	e0ff8324 	addiu	v1,a0,-32
1d022bfc:	02004230 	andi	v0,v0,0x2
1d022c00:	0b206200 	movn	a0,v1,v0
1d022c04:	0800e003 	jr	ra
1d022c08:	21108000 	move	v0,a0

Disassembly of section .sec122:

1d022c0c <.sec122>:
1d022c0c:	41444153 	beql	k0,at,0x1d033d14
1d022c10:	54535452 	beql	s2,s4,0x1d037964
1d022c14:	00000000 	nop
1d022c18:	464f5244 	0x44524f46
1d022c1c:	5f434434 	ori	a0,v0,0x435f
1d022c20:	20537465 	0x65745320
1d022c24:	65720000 	0x7265

Disassembly of section .sec123:

1d022c28 <.sec123>:
1d022c28:	01008430 	andi	a0,a0,0x1
1d022c2c:	03008010 	beqz	a0,0x1d022c3c
1d022c30:	00000000 	nop
1d022c34:	0800e003 	jr	ra
1d022c38:	20606041 	ei
1d022c3c:	0800e003 	jr	ra
1d022c40:	00606041 	di

Disassembly of section .sec124:

1d022c44 <.sec124>:
1d022c44:	39393939 	xori	t9,t1,0x3939
1d022c48:	2f39392f 	sltiu	t9,t9,14639
1d022c4c:	39390000 	0x3939
1d022c50:	30303030 	andi	s0,at,0x3030
1d022c54:	30303030 	andi	s0,at,0x3030
1d022c58:	30300000 	tge	zero,zero,0xc0
1d022c5c:	32303139 	xori	s1,t1,0x3032
1d022c60:	2f30382f 	sltiu	t8,t9,12335
1d022c64:	31330000 	tgeu	zero,zero,0xcc
1d022c68:	41444153 	beql	k0,at,0x1d033d70
1d022c6c:	5f4b4954 	bnel	v0,t1,0x1d0359ec
1d022c70:	00000000 	nop

Disassembly of section .sec125:

1d022c74 <.sec125>:
1d022c74:	00601a40 	mfc0	k0,c0_status
1d022c78:	bfff1b3c 	lui	k1,0xffbf
1d022c7c:	ffff7b37 	ori	k1,k1,0xffff
1d022c80:	24d05b03 	and	k0,k0,k1
1d022c84:	00609a40 	mtc0	k0,c0_status
1d022c88:	18000042 	eret

Disassembly of section .sec126:

1d022c8c <.sec126>:
	...
1d022c94:	005a80bf 	cache	0x0,23040(gp)
1d022c98:	005880bf 	cache	0x0,22528(gp)
1d022c9c:	005c80bf 	cache	0x0,23552(gp)
1d022ca0:	464f5244 	0x44524f46
1d022ca4:	5f434434 	ori	a0,v0,0x435f
1d022ca8:	20537465 	0x65745320
1d022cac:	65720000 	0x7265

Disassembly of section .sec127:

1d022cb0 <.sec127>:
1d022cb0:	20240000 	0x2420
1d022cb4:	00040810 	beq	zero,t0,0x1d023cb8
1d022cb8:	14180000 	0x1814

Disassembly of section .sec128:

1d022cbc <.sec128>:
1d022cbc:	0800e003 	jr	ra
1d022cc0:	00606241 	di	v0
1d022cc4:	0800e003 	jr	ra
1d022cc8:	20606241 	ei	v0

Disassembly of section .sec129:

1d022ccc <.sec129>:
1d022ccc:	0800e003 	jr	ra
1d022cd0:	00000000 	nop

Disassembly of section .sec130:

1d022cd4 <.sec130>:
1d022cd4:	0800e003 	jr	ra
1d022cd8:	00000000 	nop
